(dp0
VServer
p1
Vcmsweb.cern.ch
p2
sVPort
p3
V
p4
sVRequestName
p5
V250321_143830:vpant_crab_OOMC
p6
sVvoRole
p7
VNULL
p8
sVvoGroup
p9
g4
sVinstance
p10
Vprod
p11
sVOriginalConfig
p12
ccopy_reg
_reconstructor
p13
(cWMCore.Configuration
Configuration
p14
c__builtin__
object
p15
Ntp16
Rp17
(dp18
V_internal_sections
p19
(lp20
VGeneral
p21
aVJobType
p22
aVData
p23
aVSite
p24
asg21
g13
(cWMCore.Configuration
ConfigSection
p25
g15
Ntp26
Rp27
(dp28
V_internal_documentation
p29
g4
sV_internal_name
p30
g21
sV_internal_settings
p31
c__builtin__
set
p32
((lp33
VtransferLogs
p34
aVtransferOutputs
p35
aVworkArea
p36
aVrequestName
p37
atp38
Rp39
sV_internal_docstrings
p40
(dp41
sV_internal_children
p42
g32
((lp43
tp44
Rp45
sV_internal_parent_ref
p46
NsV_internal_skipChecks
p47
I00
sg36
Vcrab
p48
sg37
VOOMC
p49
sg34
I00
sg35
I01
sbsg22
g13
(g25
g15
Ntp50
Rp51
(dp52
g29
g4
sg30
g22
sg31
g32
((lp53
VpsetName
p54
aVinputFiles
p55
aVpluginName
p56
atp57
Rp58
sg40
(dp59
sg42
g32
((lp60
tp61
Rp62
sg46
Nsg47
I00
sg56
VAnalysis
p63
sg54
V../cfg/EfficiecnyTest_genTrk_cfg.py
p64
sg55
(lp65
V../cfg/CentralityTable_HFtowers200_DataPbPb_periHYDJETshape_run3v1302x04_offline_Nominal.db
p66
asbsg23
g13
(g25
g15
Ntp67
Rp68
(dp69
g29
g4
sg30
g23
sg31
g32
((lp70
VoutLFNDirBase
p71
aVinputDBS
p72
aVunitsPerJob
p73
aVinputDataset
p74
aVpublication
p75
aVsplitting
p76
atp77
Rp78
sg40
(dp79
sg42
g32
((lp80
tp81
Rp82
sg46
Nsg47
I00
sg74
V/Pythia8_NoPU_0p5MEvents_TuneCP5_QCD_ptHat15_5360GeV/rpradhan-PrivatePythia8_NoPU_0p5MEvents_TuneCP5_QCD_ptHat15_MiniAOD-924b0e34b15fb79c0154466c775e483d/USER
p83
sg76
VFileBased
p84
sg73
I2
sg75
I00
sg72
Vphys03
p85
sg71
V/store/group/phys_heavyions/vpant/OOCraboutput
p86
sbsg24
g13
(g25
g15
Ntp87
Rp88
(dp89
g29
g4
sg30
g24
sg31
g32
((lp90
VstorageSite
p91
atp92
Rp93
sg40
(dp94
sg42
g32
((lp95
tp96
Rp97
sg46
Nsg47
I00
sg91
VT2_CH_CERN
p98
sbsbs.