ccopy_reg
_reconstructor
p0
(cFWCore.ParameterSet.Config
Process
p1
c__builtin__
object
p2
Ntp3
Rp4
(dp5
V_Process__name
p6
VRaghuEffTest
p7
sV_Process__filters
p8
(dp9
VclusterCompatibilityFilter
p10
g0
(cFWCore.ParameterSet.Modules
EDFilter
p11
g2
Ntp12
Rp13
(dp14
V_TypedParameterizable__type
p15
VHIClusterCompatibilityFilter
p16
sV_Parameterizable__parameterNames
p17
(lp18
VcluscomSrc
p19
aVminZ
p20
aVmaxZ
p21
aVclusterPars
p22
aVnhitsTrunc
p23
aVclusterTrunc
p24
asV_isFrozen
p25
I00
sV_Parameterizable__validator
p26
Nsg19
g0
(cFWCore.ParameterSet.Types
InputTag
p27
g2
Ntp28
Rp29
(dp30
g25
I00
sV_ParameterTypeBase__isTracked
p31
I01
sV_isModified
p32
I00
sV_InputTag__moduleLabel
p33
VhiClusterCompatibility
p34
sV_InputTag__productInstance
p35
V
p36
sV_InputTag__processName
p37
g36
sbsg32
I00
sg20
g0
(cFWCore.ParameterSet.Types
double
p38
g2
Ntp39
Rp40
(dp41
g25
I00
sg31
I01
sg32
I00
sV_value
p42
F-20.0
sbsg21
g0
(g38
g2
Ntp43
Rp44
(dp45
g25
I00
sg31
I01
sg32
I00
sg42
F20.05
sbsg22
g0
(cFWCore.ParameterSet.Types
vdouble
p46
c__builtin__
list
p47
(lp48
F0.0
aF0.0045
atp49
Rp50
(dp51
g25
I00
sg31
I01
sg32
I00
sbsg23
g0
(cFWCore.ParameterSet.Types
int32
p52
g2
Ntp53
Rp54
(dp55
g25
I00
sg31
I01
sg32
I00
sg42
I150
sbsg24
g0
(g38
g2
Ntp56
Rp57
(dp58
g25
I00
sg31
I01
sg32
I00
sg42
F2.0
sbsV_filename
p59
V/afs/cern.ch/work/r/rpradhan/Tracking_Studies/newCode_AfterRun3/ForEffTest/CMSSW_13_2_5_patch1/src/HeavyIonsAnalysis/EventAnalysis/python/clusterCompatibilityFilter_cfi.py
p60
sV_lineNumber
p61
I3
sV_Labelable__label
p62
g10
sbsVhltPixelClusterShapeFilter
p63
g0
(g11
g2
Ntp64
Rp65
(dp66
g15
VHLTPixelClusterShapeFilter
p67
sg17
(lp68
VsaveTags
p69
aVinputTag
p70
ag20
ag21
aVzStep
p71
ag22
ag23
ag24
aVmightGet
p72
asg25
I00
sg26
Nsg69
g0
(cFWCore.ParameterSet.Types
bool
p73
g2
Ntp74
Rp75
(dp76
g25
I00
sg31
I01
sg32
I00
sg42
I01
sbsg32
I01
sg70
g0
(g27
g2
Ntp77
Rp78
(dp79
g25
I00
sg31
I01
sg32
I01
sg33
VsiPixelRecHits
p80
sg35
g36
sg37
g36
sbsg20
g0
(g38
g2
Ntp81
Rp82
(dp83
g25
I00
sg31
I01
sg32
I00
sg42
I-20
sbsg21
g0
(g38
g2
Ntp84
Rp85
(dp86
g25
I00
sg31
I01
sg32
I00
sg42
F20.05
sbsg71
g0
(g38
g2
Ntp87
Rp88
(dp89
g25
I00
sg31
I01
sg32
I00
sg42
F0.2
sbsg22
g0
(g46
g47
(lp90
I0
aF0.0045
atp91
Rp92
(dp93
g25
I00
sg31
I01
sg32
I00
sbsg23
g0
(g52
g2
Ntp94
Rp95
(dp96
g25
I00
sg31
I01
sg32
I00
sg42
I150
sbsg24
g0
(g38
g2
Ntp97
Rp98
(dp99
g25
I00
sg31
I01
sg32
I00
sg42
I2
sbsg72
g0
(cFWCore.ParameterSet.Types
_OptionalParameter
p100
g2
Ntp101
Rp102
(dp103
g25
I00
sg31
I00
sg32
I00
sV_ProxyParameter__type
p104
cFWCore.ParameterSet.Types
vstring
p105
sV_ProxyParameter__value
p106
Nsbsg59
V/cvmfs/cms.cern.ch/el8_amd64_gcc11/cms/cmssw-patch/CMSSW_13_2_5_patch1/cfipython/el8_amd64_gcc11/HLTrigger/special/hltPixelClusterShapeFilter_cfi.py
p107
sg61
I3
sg62
g63
sbsVprimaryVertexFilter
p108
g0
(g11
g2
Ntp109
Rp110
(dp111
g15
VVertexSelector
p112
sg17
(lp113
Vsrc
p114
aVcut
p115
aVfilter
p116
asg25
I00
sg26
Nsg114
g0
(g27
g2
Ntp117
Rp118
(dp119
g25
I00
sg31
I01
sg32
I00
sg33
VofflineSlimmedPrimaryVertices
p120
sg35
g36
sg37
g36
sbsg32
I00
sg115
g0
(cFWCore.ParameterSet.Types
string
p121
g2
Ntp122
Rp123
(dp124
g25
I00
sg31
I01
sg32
I00
sg42
V!isFake && abs(z) <= 25 && position.Rho <= 2
p125
sbsg116
g0
(g73
g2
Ntp126
Rp127
(dp128
g25
I00
sg31
I01
sg32
I00
sg42
I01
sbsg59
V/afs/cern.ch/work/r/rpradhan/Tracking_Studies/newCode_AfterRun3/ForEffTest/CMSSW_13_2_5_patch1/src/HeavyIonsAnalysis/EventAnalysis/python/collisionEventSelection_cff.py
p129
sg61
I5
sg62
g108
sbsVphfCoincFilter1Th3
p130
g0
(g11
g2
Ntp131
Rp132
(dp133
g15
VHiHFFilter
p134
sg17
(lp135
VHFfilters
p136
aVthreshold
p137
aVminnumtowers
p138
asg25
I00
sg26
Nsg136
g0
(g27
g2
Ntp139
Rp140
(dp141
g25
I00
sg31
I01
sg32
I00
sg33
VhiHFfilters
p142
sg35
g142
sg37
g36
sbsg32
I00
sg137
g0
(g52
g2
Ntp143
Rp144
(dp145
g25
I00
sg31
I01
sg32
I01
sg42
I3
sbsg138
g0
(g52
g2
Ntp146
Rp147
(dp148
g25
I00
sg31
I01
sg32
I01
sg42
I1
sbsg59
V/afs/cern.ch/work/r/rpradhan/Tracking_Studies/newCode_AfterRun3/ForEffTest/CMSSW_13_2_5_patch1/src/HeavyIonsAnalysis/EventAnalysis/python/hffilter_cfi.py
p149
sg61
I14
sg62
g130
sbsVphfCoincFilter1Th4
p150
g0
(g11
g2
Ntp151
Rp152
(dp153
g15
g134
sg17
(lp154
g136
ag137
ag138
asg25
I00
sg26
Nsg136
g0
(g27
g2
Ntp155
Rp156
(dp157
g25
I00
sg31
I01
sg32
I00
sg33
g142
sg35
g142
sg37
g36
sbsg32
I00
sg137
g0
(g52
g2
Ntp158
Rp159
(dp160
g25
I00
sg31
I01
sg32
I00
sg42
I4
sbsg138
g0
(g52
g2
Ntp161
Rp162
(dp163
g25
I00
sg31
I01
sg32
I01
sg42
I1
sbsg59
g149
sg61
I9
sg62
g150
sbsVphfCoincFilter1Th5
p164
g0
(g11
g2
Ntp165
Rp166
(dp167
g15
g134
sg17
(lp168
g136
ag137
ag138
asg25
I00
sg26
Nsg136
g0
(g27
g2
Ntp169
Rp170
(dp171
g25
I00
sg31
I01
sg32
I00
sg33
g142
sg35
g142
sg37
g36
sbsg32
I00
sg137
g0
(g52
g2
Ntp172
Rp173
(dp174
g25
I00
sg31
I01
sg32
I01
sg42
I5
sbsg138
g0
(g52
g2
Ntp175
Rp176
(dp177
g25
I00
sg31
I01
sg32
I01
sg42
I1
sbsg59
g149
sg61
I20
sg62
g164
sbsVphfCoincFilter1Th6
p178
g0
(g11
g2
Ntp179
Rp180
(dp181
g15
g134
sg17
(lp182
g136
ag137
ag138
asg25
I00
sg26
Nsg136
g0
(g27
g2
Ntp183
Rp184
(dp185
g25
I00
sg31
I01
sg32
I00
sg33
g142
sg35
g142
sg37
g36
sbsg32
I00
sg137
g0
(g52
g2
Ntp186
Rp187
(dp188
g25
I00
sg31
I01
sg32
I01
sg42
I6
sbsg138
g0
(g52
g2
Ntp189
Rp190
(dp191
g25
I00
sg31
I01
sg32
I01
sg42
I1
sbsg59
g149
sg61
I26
sg62
g178
sbsVphfCoincFilter2Th3
p192
g0
(g11
g2
Ntp193
Rp194
(dp195
g15
g134
sg17
(lp196
g136
ag137
ag138
asg25
I00
sg26
Nsg136
g0
(g27
g2
Ntp197
Rp198
(dp199
g25
I00
sg31
I01
sg32
I00
sg33
g142
sg35
g142
sg37
g36
sbsg32
I00
sg137
g0
(g52
g2
Ntp200
Rp201
(dp202
g25
I00
sg31
I01
sg32
I01
sg42
I3
sbsg138
g0
(g52
g2
Ntp203
Rp204
(dp205
g25
I00
sg31
I01
sg32
I00
sg42
I2
sbsg59
g149
sg61
I15
sg62
g192
sbsVphfCoincFilter2Th4
p206
g0
(g11
g2
Ntp207
Rp208
(dp209
g15
g134
sg17
(lp210
g136
ag137
ag138
asg25
I00
sg26
Nsg136
g0
(g27
g2
Ntp211
Rp212
(dp213
g25
I00
sg31
I01
sg32
I00
sg33
g142
sg35
g142
sg37
g36
sbsg32
I00
sg137
g0
(g52
g2
Ntp214
Rp215
(dp216
g25
I00
sg31
I01
sg32
I00
sg42
I4
sbsg138
g0
(g52
g2
Ntp217
Rp218
(dp219
g25
I00
sg31
I01
sg32
I00
sg42
I2
sbsg59
g149
sg61
I3
sg62
g206
sbsVphfCoincFilter2Th5
p220
g0
(g11
g2
Ntp221
Rp222
(dp223
g15
g134
sg17
(lp224
g136
ag137
ag138
asg25
I00
sg26
Nsg136
g0
(g27
g2
Ntp225
Rp226
(dp227
g25
I00
sg31
I01
sg32
I00
sg33
g142
sg35
g142
sg37
g36
sbsg32
I00
sg137
g0
(g52
g2
Ntp228
Rp229
(dp230
g25
I00
sg31
I01
sg32
I01
sg42
I5
sbsg138
g0
(g52
g2
Ntp231
Rp232
(dp233
g25
I00
sg31
I01
sg32
I00
sg42
I2
sbsg59
g149
sg61
I21
sg62
g220
sbsVphfCoincFilter2Th6
p234
g0
(g11
g2
Ntp235
Rp236
(dp237
g15
g134
sg17
(lp238
g136
ag137
ag138
asg25
I00
sg26
Nsg136
g0
(g27
g2
Ntp239
Rp240
(dp241
g25
I00
sg31
I01
sg32
I00
sg33
g142
sg35
g142
sg37
g36
sbsg32
I00
sg137
g0
(g52
g2
Ntp242
Rp243
(dp244
g25
I00
sg31
I01
sg32
I01
sg42
I6
sbsg138
g0
(g52
g2
Ntp245
Rp246
(dp247
g25
I00
sg31
I01
sg32
I00
sg42
I2
sbsg59
g149
sg61
I27
sg62
g234
sbsVphfCoincFilter3Th3
p248
g0
(g11
g2
Ntp249
Rp250
(dp251
g15
g134
sg17
(lp252
g136
ag137
ag138
asg25
I00
sg26
Nsg136
g0
(g27
g2
Ntp253
Rp254
(dp255
g25
I00
sg31
I01
sg32
I00
sg33
g142
sg35
g142
sg37
g36
sbsg32
I00
sg137
g0
(g52
g2
Ntp256
Rp257
(dp258
g25
I00
sg31
I01
sg32
I01
sg42
I3
sbsg138
g0
(g52
g2
Ntp259
Rp260
(dp261
g25
I00
sg31
I01
sg32
I01
sg42
I3
sbsg59
g149
sg61
I16
sg62
g248
sbsVphfCoincFilter3Th4
p262
g0
(g11
g2
Ntp263
Rp264
(dp265
g15
g134
sg17
(lp266
g136
ag137
ag138
asg25
I00
sg26
Nsg136
g0
(g27
g2
Ntp267
Rp268
(dp269
g25
I00
sg31
I01
sg32
I00
sg33
g142
sg35
g142
sg37
g36
sbsg32
I00
sg137
g0
(g52
g2
Ntp270
Rp271
(dp272
g25
I00
sg31
I01
sg32
I00
sg42
I4
sbsg138
g0
(g52
g2
Ntp273
Rp274
(dp275
g25
I00
sg31
I01
sg32
I01
sg42
I3
sbsg59
g149
sg61
I10
sg62
g262
sbsVphfCoincFilter3Th5
p276
g0
(g11
g2
Ntp277
Rp278
(dp279
g15
g134
sg17
(lp280
g136
ag137
ag138
asg25
I00
sg26
Nsg136
g0
(g27
g2
Ntp281
Rp282
(dp283
g25
I00
sg31
I01
sg32
I00
sg33
g142
sg35
g142
sg37
g36
sbsg32
I00
sg137
g0
(g52
g2
Ntp284
Rp285
(dp286
g25
I00
sg31
I01
sg32
I01
sg42
I5
sbsg138
g0
(g52
g2
Ntp287
Rp288
(dp289
g25
I00
sg31
I01
sg32
I01
sg42
I3
sbsg59
g149
sg61
I22
sg62
g276
sbsVphfCoincFilter3Th6
p290
g0
(g11
g2
Ntp291
Rp292
(dp293
g15
g134
sg17
(lp294
g136
ag137
ag138
asg25
I00
sg26
Nsg136
g0
(g27
g2
Ntp295
Rp296
(dp297
g25
I00
sg31
I01
sg32
I00
sg33
g142
sg35
g142
sg37
g36
sbsg32
I00
sg137
g0
(g52
g2
Ntp298
Rp299
(dp300
g25
I00
sg31
I01
sg32
I01
sg42
I6
sbsg138
g0
(g52
g2
Ntp301
Rp302
(dp303
g25
I00
sg31
I01
sg32
I01
sg42
I3
sbsg59
g149
sg61
I28
sg62
g290
sbsVphfCoincFilter4Th2
p304
g0
(g11
g2
Ntp305
Rp306
(dp307
g15
g134
sg17
(lp308
g136
ag137
ag138
asg25
I00
sg26
Nsg136
g0
(g27
g2
Ntp309
Rp310
(dp311
g25
I00
sg31
I01
sg32
I00
sg33
g142
sg35
g142
sg37
g36
sbsg32
I00
sg137
g0
(g52
g2
Ntp312
Rp313
(dp314
g25
I00
sg31
I01
sg32
I01
sg42
I2
sbsg138
g0
(g52
g2
Ntp315
Rp316
(dp317
g25
I00
sg31
I01
sg32
I01
sg42
I4
sbsg59
g149
sg61
I32
sg62
g304
sbsVphfCoincFilter4Th3
p318
g0
(g11
g2
Ntp319
Rp320
(dp321
g15
g134
sg17
(lp322
g136
ag137
ag138
asg25
I00
sg26
Nsg136
g0
(g27
g2
Ntp323
Rp324
(dp325
g25
I00
sg31
I01
sg32
I00
sg33
g142
sg35
g142
sg37
g36
sbsg32
I00
sg137
g0
(g52
g2
Ntp326
Rp327
(dp328
g25
I00
sg31
I01
sg32
I01
sg42
I3
sbsg138
g0
(g52
g2
Ntp329
Rp330
(dp331
g25
I00
sg31
I01
sg32
I01
sg42
I4
sbsg59
g149
sg61
I17
sg62
g318
sbsVphfCoincFilter4Th4
p332
g0
(g11
g2
Ntp333
Rp334
(dp335
g15
g134
sg17
(lp336
g136
ag137
ag138
asg25
I00
sg26
Nsg136
g0
(g27
g2
Ntp337
Rp338
(dp339
g25
I00
sg31
I01
sg32
I00
sg33
g142
sg35
g142
sg37
g36
sbsg32
I00
sg137
g0
(g52
g2
Ntp340
Rp341
(dp342
g25
I00
sg31
I01
sg32
I00
sg42
I4
sbsg138
g0
(g52
g2
Ntp343
Rp344
(dp345
g25
I00
sg31
I01
sg32
I01
sg42
I4
sbsg59
g149
sg61
I11
sg62
g332
sbsVphfCoincFilter4Th5
p346
g0
(g11
g2
Ntp347
Rp348
(dp349
g15
g134
sg17
(lp350
g136
ag137
ag138
asg25
I00
sg26
Nsg136
g0
(g27
g2
Ntp351
Rp352
(dp353
g25
I00
sg31
I01
sg32
I00
sg33
g142
sg35
g142
sg37
g36
sbsg32
I00
sg137
g0
(g52
g2
Ntp354
Rp355
(dp356
g25
I00
sg31
I01
sg32
I01
sg42
I5
sbsg138
g0
(g52
g2
Ntp357
Rp358
(dp359
g25
I00
sg31
I01
sg32
I01
sg42
I4
sbsg59
g149
sg61
I23
sg62
g346
sbsVphfCoincFilter4Th6
p360
g0
(g11
g2
Ntp361
Rp362
(dp363
g15
g134
sg17
(lp364
g136
ag137
ag138
asg25
I00
sg26
Nsg136
g0
(g27
g2
Ntp365
Rp366
(dp367
g25
I00
sg31
I01
sg32
I00
sg33
g142
sg35
g142
sg37
g36
sbsg32
I00
sg137
g0
(g52
g2
Ntp368
Rp369
(dp370
g25
I00
sg31
I01
sg32
I01
sg42
I6
sbsg138
g0
(g52
g2
Ntp371
Rp372
(dp373
g25
I00
sg31
I01
sg32
I01
sg42
I4
sbsg59
g149
sg61
I29
sg62
g360
sbsVphfCoincFilter5Th3
p374
g0
(g11
g2
Ntp375
Rp376
(dp377
g15
g134
sg17
(lp378
g136
ag137
ag138
asg25
I00
sg26
Nsg136
g0
(g27
g2
Ntp379
Rp380
(dp381
g25
I00
sg31
I01
sg32
I00
sg33
g142
sg35
g142
sg37
g36
sbsg32
I00
sg137
g0
(g52
g2
Ntp382
Rp383
(dp384
g25
I00
sg31
I01
sg32
I01
sg42
I3
sbsg138
g0
(g52
g2
Ntp385
Rp386
(dp387
g25
I00
sg31
I01
sg32
I01
sg42
I5
sbsg59
g149
sg61
I18
sg62
g374
sbsVphfCoincFilter5Th4
p388
g0
(g11
g2
Ntp389
Rp390
(dp391
g15
g134
sg17
(lp392
g136
ag137
ag138
asg25
I00
sg26
Nsg136
g0
(g27
g2
Ntp393
Rp394
(dp395
g25
I00
sg31
I01
sg32
I00
sg33
g142
sg35
g142
sg37
g36
sbsg32
I00
sg137
g0
(g52
g2
Ntp396
Rp397
(dp398
g25
I00
sg31
I01
sg32
I00
sg42
I4
sbsg138
g0
(g52
g2
Ntp399
Rp400
(dp401
g25
I00
sg31
I01
sg32
I01
sg42
I5
sbsg59
g149
sg61
I12
sg62
g388
sbsVphfCoincFilter5Th5
p402
g0
(g11
g2
Ntp403
Rp404
(dp405
g15
g134
sg17
(lp406
g136
ag137
ag138
asg25
I00
sg26
Nsg136
g0
(g27
g2
Ntp407
Rp408
(dp409
g25
I00
sg31
I01
sg32
I00
sg33
g142
sg35
g142
sg37
g36
sbsg32
I00
sg137
g0
(g52
g2
Ntp410
Rp411
(dp412
g25
I00
sg31
I01
sg32
I01
sg42
I5
sbsg138
g0
(g52
g2
Ntp413
Rp414
(dp415
g25
I00
sg31
I01
sg32
I01
sg42
I5
sbsg59
g149
sg61
I24
sg62
g402
sbsVphfCoincFilter5Th6
p416
g0
(g11
g2
Ntp417
Rp418
(dp419
g15
g134
sg17
(lp420
g136
ag137
ag138
asg25
I00
sg26
Nsg136
g0
(g27
g2
Ntp421
Rp422
(dp423
g25
I00
sg31
I01
sg32
I00
sg33
g142
sg35
g142
sg37
g36
sbsg32
I00
sg137
g0
(g52
g2
Ntp424
Rp425
(dp426
g25
I00
sg31
I01
sg32
I01
sg42
I6
sbsg138
g0
(g52
g2
Ntp427
Rp428
(dp429
g25
I00
sg31
I01
sg32
I01
sg42
I5
sbsg59
g149
sg61
I30
sg62
g416
sbsVhltMB
p430
g0
(g11
g2
Ntp431
Rp432
(dp433
g15
VHLTHighLevel
p434
sg17
(lp435
VTriggerResultsTag
p436
aVHLTPaths
p437
aVeventSetupPathsKey
p438
aVandOr
p439
aVthrow
p440
ag72
asg25
I00
sg26
Nsg436
g0
(g27
g2
Ntp441
Rp442
(dp443
g25
I00
sg31
I01
sg32
I00
sg33
VTriggerResults
p444
sg35
g36
sg37
VHLT
p445
sbsg32
I01
sg437
g0
(g105
g47
(lp446
VHLT_HIMinimumBiasHF1AND*
p447
atp448
Rp449
(dp450
g25
I00
sg31
I01
sg32
I01
sV_nPerLine
p451
I1
sbsg438
g0
(g121
g2
Ntp452
Rp453
(dp454
g25
I00
sg31
I01
sg32
I00
sg42
g36
sbsg439
g0
(g73
g2
Ntp455
Rp456
(dp457
g25
I00
sg31
I01
sg32
I00
sg42
I01
sbsg440
g0
(g73
g2
Ntp458
Rp459
(dp460
g25
I00
sg31
I01
sg32
I00
sg42
I00
sbsg72
g0
(g100
g2
Ntp461
Rp462
(dp463
g25
I00
sg31
I00
sg32
I00
sg104
g105
sg106
Nsbsg59
V/afs/cern.ch/work/r/rpradhan/Tracking_Studies/newCode_AfterRun3/ForEffTest/CMSSW_13_2_5_patch1/src/Analyzers/RaghuEffTest/cfg/EfficiecnyTest_genTrk_cfg.py
p464
sg61
I121
sg62
g430
sbssV_Process__producers
p465
(dp466
VrandomEngineStateProducer
p467
g0
(cFWCore.ParameterSet.Modules
EDProducer
p468
g2
Ntp469
Rp470
(dp471
g15
VRandomEngineStateProducer
p472
sg17
(lp473
sg25
I00
sg26
Nsg32
I00
sg59
V/cvmfs/cms.cern.ch/el8_amd64_gcc11/cms/cmssw-patch/CMSSW_13_2_5_patch1/src/IOMC/RandomEngine/python/IOMC_cff.py
p474
sg61
I172
sg62
g467
sbsVgeneralAndHiPixelTracks
p475
g0
(g468
g2
Ntp476
Rp477
(dp478
g15
g475
sg17
(lp479
VsrcPFcand
p480
aVchi2Map
p481
aVgenTrackSrc
p482
aVpixTrackSrc
p483
aVvertexSrc
p484
aVcentralitySrc
p485
aVmvaSrc
p486
aVcutWidth
p487
aVtrkRes
p488
aVqualityString
p489
aVdxyErrMax
p490
aVdzErrMax
p491
aVptErrMax
p492
aVnhitsMin
p493
aVchi2nMax
p494
aVchi2nMaxPixel
p495
aVdzErrMaxPixel
p496
aVdxyErrMaxPixel
p497
asg25
I00
sg26
Nsg480
g0
(g27
g2
Ntp498
Rp499
(dp500
g25
I00
sg31
I01
sg32
I00
sg33
VpackedPFCandidates
p501
sg35
g36
sg37
g36
sbsg32
I00
sg481
g0
(g27
g2
Ntp502
Rp503
(dp504
g25
I00
sg31
I01
sg32
I00
sg33
VpackedPFCandidateTrackChi2
p505
sg35
g36
sg37
g36
sbsg482
g0
(g27
g2
Ntp506
Rp507
(dp508
g25
I00
sg31
I01
sg32
I00
sg33
VgeneralTracks
p509
sg35
g36
sg37
g36
sbsg483
g0
(g27
g2
Ntp510
Rp511
(dp512
g25
I00
sg31
I01
sg32
I00
sg33
VhiPixelTracks
p513
sg35
g36
sg37
g36
sbsg484
g0
(g27
g2
Ntp514
Rp515
(dp516
g25
I00
sg31
I01
sg32
I00
sg33
VofflineSlimmedPrimaryVerticesRecovery
p517
sg35
g36
sg37
g36
sbsg485
g0
(g27
g2
Ntp518
Rp519
(dp520
g25
I00
sg31
I01
sg32
I00
sg33
VcentralityBin
p521
sg35
VHFtowers
p522
sg37
g36
sbsg486
g0
(g27
g2
Ntp523
Rp524
(dp525
g25
I00
sg31
I01
sg32
I00
sg33
g509
sg35
VMVAValues
p526
sg37
g36
sbsg487
g0
(g38
g2
Ntp527
Rp528
(dp529
g25
I00
sg31
I01
sg32
I00
sg42
F0.2
sbsg488
g0
(g38
g2
Ntp530
Rp531
(dp532
g25
I00
sg31
I01
sg32
I00
sg42
F0.02
sbsg489
g0
(g121
g2
Ntp533
Rp534
(dp535
g25
I00
sg31
I01
sg32
I00
sg42
VhighPurity
p536
sbsg490
g0
(g38
g2
Ntp537
Rp538
(dp539
g25
I00
sg31
I01
sg32
I00
sg42
F3.0
sbsg491
g0
(g38
g2
Ntp540
Rp541
(dp542
g25
I00
sg31
I01
sg32
I00
sg42
F3.0
sbsg492
g0
(g38
g2
Ntp543
Rp544
(dp545
g25
I00
sg31
I01
sg32
I00
sg42
F0.1
sbsg493
g0
(g52
g2
Ntp546
Rp547
(dp548
g25
I00
sg31
I01
sg32
I00
sg42
I11
sbsg494
g0
(g38
g2
Ntp549
Rp550
(dp551
g25
I00
sg31
I01
sg32
I00
sg42
F0.18
sbsg495
g0
(g38
g2
Ntp552
Rp553
(dp554
g25
I00
sg31
I01
sg32
I00
sg42
F9999.0
sbsg496
g0
(g38
g2
Ntp555
Rp556
(dp557
g25
I00
sg31
I01
sg32
I00
sg42
F20.0
sbsg497
g0
(g38
g2
Ntp558
Rp559
(dp560
g25
I00
sg31
I01
sg32
I00
sg42
F7.0
sbsg59
V/afs/cern.ch/work/r/rpradhan/Tracking_Studies/newCode_AfterRun3/ForEffTest/CMSSW_13_2_5_patch1/src/MergingProducer/generalAndHiPixelTracks/python/MergingPixAndGenProducer_cfi.py
p561
sg61
I3
sg62
g475
sbsg521
g0
(g468
g2
Ntp562
Rp563
(dp564
g15
VCentralityBinProducer
p565
sg17
(lp566
VCentrality
p567
aVcentralityVariable
p568
aVnonDefaultGlauberModel
p569
aVpPbRunFlip
p570
asg25
I00
sg26
Nsg567
g0
(g27
g2
Ntp571
Rp572
(dp573
g25
I00
sg31
I01
sg32
I00
sg33
VhiCentrality
p574
sg35
g36
sg37
g36
sbsg32
I01
sg568
g0
(g121
g2
Ntp575
Rp576
(dp577
g25
I00
sg31
I01
sg32
I00
sg42
g522
sbsg569
g0
(g121
g2
Ntp578
Rp579
(dp580
g25
I00
sg31
I01
sg32
I00
sg42
g36
sbsg570
g0
(cFWCore.ParameterSet.Types
uint32
p581
g2
Ntp582
Rp583
(dp584
g25
I00
sg31
I01
sg32
I00
sg42
I99999999
sbsg59
V/cvmfs/cms.cern.ch/el8_amd64_gcc11/cms/cmssw-patch/CMSSW_13_2_5_patch1/src/RecoHI/HiCentralityAlgos/python/CentralityBin_cfi.py
p585
sg61
I3
sg62
g521
sbsg80
g0
(g468
g2
Ntp586
Rp587
(dp588
g15
VSiPixelRecHitConverter
p589
sg17
(lp590
g114
aVCPE
p591
aVVerboseLevel
p592
asg25
I00
sg26
Nsg114
g0
(g27
g2
Ntp593
Rp594
(dp595
g25
I00
sg31
I01
sg32
I00
sg33
VsiPixelClusters
p596
sg35
g36
sg37
g36
sbsg32
I00
sg591
g0
(g121
g2
Ntp597
Rp598
(dp599
g25
I00
sg31
I01
sg32
I00
sg42
VPixelCPEGeneric
p600
sbsg592
g0
(g52
g2
Ntp601
Rp602
(dp603
g25
I00
sg31
I00
sg32
I00
sg42
I0
sbsg59
V/cvmfs/cms.cern.ch/el8_amd64_gcc11/cms/cmssw-patch/CMSSW_13_2_5_patch1/src/RecoLocalTracker/SiPixelRecHits/python/SiPixelRecHits_cfi.py
p604
sg61
I6
sg62
g80
sbsVsiPixelRecHitsPreSplittingCPU
p605
g0
(g468
g2
Ntp606
Rp607
(dp608
g15
VSiPixelRecHitSoAFromLegacyPhase1
p609
sg17
(lp610
VbeamSpot
p611
ag114
ag591
aVconvertToLegacy
p612
ag72
asg25
I00
sg26
Nsg611
g0
(g27
g2
Ntp613
Rp614
(dp615
g25
I00
sg31
I01
sg32
I00
sg33
VofflineBeamSpot
p616
sg35
g36
sg37
g36
sbsg32
I00
sg114
g0
(g27
g2
Ntp617
Rp618
(dp619
g25
I00
sg31
I01
sg32
I00
sg33
VsiPixelClustersPreSplitting
p620
sg35
g36
sg37
g36
sbsg591
g0
(g121
g2
Ntp621
Rp622
(dp623
g25
I00
sg31
I01
sg32
I00
sg42
VPixelCPEFast
p624
sbsg612
g0
(g73
g2
Ntp625
Rp626
(dp627
g25
I00
sg31
I01
sg32
I01
sg42
I01
sbsg72
g0
(g100
g2
Ntp628
Rp629
(dp630
g25
I00
sg31
I00
sg32
I00
sg104
g105
sg106
Nsbsg59
g604
sg61
I29
sg62
g605
sbsVsiPixelRecHitsPreSplittingCUDA
p631
g0
(g468
g2
Ntp632
Rp633
(dp634
g15
VSiPixelRecHitCUDAPhase1
p635
sg17
(lp636
g611
ag114
ag591
ag72
asg25
I00
sg26
Nsg611
g0
(g27
g2
Ntp637
Rp638
(dp639
g25
I00
sg31
I01
sg32
I01
sg33
VofflineBeamSpotToCUDA
p640
sg35
g36
sg37
g36
sbsg32
I00
sg114
g0
(g27
g2
Ntp641
Rp642
(dp643
g25
I00
sg31
I01
sg32
I00
sg33
VsiPixelClustersPreSplittingCUDA
p644
sg35
g36
sg37
g36
sbsg591
g0
(g121
g2
Ntp645
Rp646
(dp647
g25
I00
sg31
I01
sg32
I00
sg42
g624
sbsg72
g0
(g100
g2
Ntp648
Rp649
(dp650
g25
I00
sg31
I00
sg32
I00
sg104
g105
sg106
Nsbsg59
g604
sg61
I54
sg62
g631
sbssV_Process__switchproducers
p651
(dp652
VsiPixelRecHitsPreSplitting
p653
g0
(cHeterogeneousCore.CUDACore.SwitchProducerCUDA
SwitchProducerCUDA
p654
g2
Ntp655
Rp656
(dp657
g15
Nsg17
(lp658
Vcpu
p659
asg25
I00
sg26
Nsg32
I00
sg59
V/cvmfs/cms.cern.ch/el8_amd64_gcc11/cms/cmssw-patch/CMSSW_13_2_5_patch1/src/FWCore/ParameterSet/python/Modules.py
p660
sg61
I250
sV_caseFunctionDict
p661
(dp662
g659
cFWCore.ParameterSet.Modules
_switch_cpu
p663
sVcuda
p664
cHeterogeneousCore.CUDACore.SwitchProducerCUDA
_switch_cuda
p665
ssg659
g0
(g468
g2
Ntp666
Rp667
(dp668
g15
g589
sg17
(lp669
g114
ag591
ag592
asg25
I00
sg26
Nsg114
g0
(g27
g2
Ntp670
Rp671
(dp672
g25
I00
sg31
I01
sg32
I01
sg33
g620
sg35
g36
sg37
g36
sbsg32
I00
sg591
g0
(g121
g2
Ntp673
Rp674
(dp675
g25
I00
sg31
I01
sg32
I00
sg42
g600
sbsg592
g0
(g52
g2
Ntp676
Rp677
(dp678
g25
I00
sg31
I00
sg32
I00
sg42
I0
sbsg59
g604
sg61
I14
sg62
VsiPixelRecHitsPreSplitting@cpu
p679
sbsg62
g653
sbsVsiPixelRecHitsPreSplittingSoA
p680
g0
(g654
g2
Ntp681
Rp682
(dp683
g15
Nsg17
(lp684
g659
asg25
I00
sg26
Nsg32
I00
sg59
g660
sg61
I250
sg661
(dp685
g659
g663
sg664
g665
ssg659
g0
(cFWCore.ParameterSet.Types
EDAlias
p686
g2
Ntp687
Rp688
(dp689
g17
(lp690
g605
asg25
I00
sg26
Nsg605
g0
(cFWCore.ParameterSet.Types
VPSet
p691
g47
(lp692
g0
(cFWCore.ParameterSet.Types
PSet
p693
g2
Ntp694
Rp695
(dp696
g25
I00
sg31
I01
sg32
I00
sg17
(lp697
Vtype
p698
asg26
Nsg698
g0
(g121
g2
Ntp699
Rp700
(dp701
g25
I00
sg31
I01
sg32
I00
sg42
VpixelTopologyPhase1TrackingRecHitSoAHost
p702
sbsbag0
(g693
g2
Ntp703
Rp704
(dp705
g25
I00
sg31
I01
sg32
I00
sg17
(lp706
g698
asg26
Nsg698
g0
(g121
g2
Ntp707
Rp708
(dp709
g25
I00
sg31
I01
sg32
I00
sg42
VuintAsHostProduct
p710
sbsbatp711
Rp712
(dp713
g25
I00
sg31
I01
sg32
I00
sg451
I1
sbsg32
I00
sg62
VsiPixelRecHitsPreSplittingSoA@cpu
p714
sbsg62
g680
sbssV_Process__source
p715
g0
(cFWCore.ParameterSet.Modules
Source
p716
g2
Ntp717
Rp718
(dp719
g15
VPoolSource
p720
sg17
(lp721
VfileNames
p722
aVduplicateCheckMode
p723
aVskipBadFiles
p724
asg25
I00
sg26
Nsg722
g0
(g105
g47
(lp725
V/store/user/sarteaga/MinBias_PbPb_5p36TeV_Hydjet_v1/MinBias_PbPb_5p36TeV_Hydjet_MINIAOD_v5/231024_131749/0000/miniaod_1.root
p726
aV/store/user/sarteaga/MinBias_PbPb_5p36TeV_Hydjet_v1/MinBias_PbPb_5p36TeV_Hydjet_MINIAOD_v5/231024_131749/0000/miniaod_2.root
p727
aV/store/user/sarteaga/MinBias_PbPb_5p36TeV_Hydjet_v1/MinBias_PbPb_5p36TeV_Hydjet_MINIAOD_v5/231024_131749/0000/miniaod_3.root
p728
aV/store/user/sarteaga/MinBias_PbPb_5p36TeV_Hydjet_v1/MinBias_PbPb_5p36TeV_Hydjet_MINIAOD_v5/231024_131749/0000/miniaod_4.root
p729
aV/store/user/sarteaga/MinBias_PbPb_5p36TeV_Hydjet_v1/MinBias_PbPb_5p36TeV_Hydjet_MINIAOD_v5/231024_131749/0000/miniaod_5.root
p730
aV/store/user/sarteaga/MinBias_PbPb_5p36TeV_Hydjet_v1/MinBias_PbPb_5p36TeV_Hydjet_MINIAOD_v5/231024_131749/0000/miniaod_6.root
p731
aV/store/user/sarteaga/MinBias_PbPb_5p36TeV_Hydjet_v1/MinBias_PbPb_5p36TeV_Hydjet_MINIAOD_v5/231024_131749/0000/miniaod_7.root
p732
aV/store/user/sarteaga/MinBias_PbPb_5p36TeV_Hydjet_v1/MinBias_PbPb_5p36TeV_Hydjet_MINIAOD_v5/231024_131749/0000/miniaod_8.root
p733
aV/store/user/sarteaga/MinBias_PbPb_5p36TeV_Hydjet_v1/MinBias_PbPb_5p36TeV_Hydjet_MINIAOD_v5/231024_131749/0000/miniaod_9.root
p734
aV/store/user/sarteaga/MinBias_PbPb_5p36TeV_Hydjet_v1/MinBias_PbPb_5p36TeV_Hydjet_MINIAOD_v5/231024_131749/0000/miniaod_10.root
p735
aV/store/user/sarteaga/MinBias_PbPb_5p36TeV_Hydjet_v1/MinBias_PbPb_5p36TeV_Hydjet_MINIAOD_v5/231024_131749/0000/miniaod_11.root
p736
aV/store/user/sarteaga/MinBias_PbPb_5p36TeV_Hydjet_v1/MinBias_PbPb_5p36TeV_Hydjet_MINIAOD_v5/231024_131749/0000/miniaod_12.root
p737
aV/store/user/sarteaga/MinBias_PbPb_5p36TeV_Hydjet_v1/MinBias_PbPb_5p36TeV_Hydjet_MINIAOD_v5/231024_131749/0000/miniaod_14.root
p738
aV/store/user/sarteaga/MinBias_PbPb_5p36TeV_Hydjet_v1/MinBias_PbPb_5p36TeV_Hydjet_MINIAOD_v5/231024_131749/0000/miniaod_15.root
p739
aV/store/user/sarteaga/MinBias_PbPb_5p36TeV_Hydjet_v1/MinBias_PbPb_5p36TeV_Hydjet_MINIAOD_v5/231024_131749/0000/miniaod_16.root
p740
aV/store/user/sarteaga/MinBias_PbPb_5p36TeV_Hydjet_v1/MinBias_PbPb_5p36TeV_Hydjet_MINIAOD_v5/231024_131749/0000/miniaod_17.root
p741
aV/store/user/sarteaga/MinBias_PbPb_5p36TeV_Hydjet_v1/MinBias_PbPb_5p36TeV_Hydjet_MINIAOD_v5/231024_131749/0000/miniaod_18.root
p742
aV/store/user/sarteaga/MinBias_PbPb_5p36TeV_Hydjet_v1/MinBias_PbPb_5p36TeV_Hydjet_MINIAOD_v5/231024_131749/0000/miniaod_19.root
p743
aV/store/user/sarteaga/MinBias_PbPb_5p36TeV_Hydjet_v1/MinBias_PbPb_5p36TeV_Hydjet_MINIAOD_v5/231024_131749/0000/miniaod_20.root
p744
aV/store/user/sarteaga/MinBias_PbPb_5p36TeV_Hydjet_v1/MinBias_PbPb_5p36TeV_Hydjet_MINIAOD_v5/231024_131749/0000/miniaod_21.root
p745
atp746
Rp747
(dp748
g25
I00
sg31
I00
sg32
I00
sg451
I1
sbsg32
I00
sg723
g0
(g121
g2
Ntp749
Rp750
(dp751
g25
I00
sg31
I00
sg32
I00
sg42
VnoDuplicateCheck
p752
sbsg724
g0
(g73
g2
Ntp753
Rp754
(dp755
g25
I00
sg31
I00
sg32
I00
sg42
I01
sbsg59
g660
sg61
I195
sbsV_Process__looper
p756
NsV_Process__subProcesses
p757
(lp758
sV_Process__schedule
p759
NsV_Process__analyzers
p760
(dp761
VhiEvtAnalyzer
p762
g0
(cFWCore.ParameterSet.Modules
EDAnalyzer
p763
g2
Ntp764
Rp765
(dp766
g15
VHiEvtAnalyzer
p767
sg17
(lp768
VCentralitySrc
p769
aVCentralityBinSrc
p770
aVpfCandidateSrc
p771
aVEvtPlane
p772
aVEvtPlaneFlat
p773
aVHiMC
p774
aVVertex
p775
ag136
aVdoCentrality
p776
aVdoEvtPlane
p777
aVdoEvtPlaneFlat
p778
aVdoVertex
p779
aVdoMC
p780
aVdoHiMC
p781
aVuseHepMC
p782
aVdoHFfilters
p783
aVevtPlaneLevel
p784
asg25
I00
sg26
Nsg769
g0
(g27
g2
Ntp785
Rp786
(dp787
g25
I00
sg31
I01
sg32
I00
sg33
g574
sg35
g36
sg37
g36
sbsg32
I00
sg770
g0
(g27
g2
Ntp788
Rp789
(dp790
g25
I00
sg31
I01
sg32
I00
sg33
g521
sg35
g522
sg37
g36
sbsg771
g0
(g27
g2
Ntp791
Rp792
(dp793
g25
I00
sg31
I01
sg32
I00
sg33
g501
sg35
g36
sg37
g36
sbsg772
g0
(g27
g2
Ntp794
Rp795
(dp796
g25
I00
sg31
I01
sg32
I00
sg33
VhiEvtPlane
p797
sg35
g36
sg37
g36
sbsg773
g0
(g27
g2
Ntp798
Rp799
(dp800
g25
I00
sg31
I01
sg32
I00
sg33
VhiEvtPlaneFlat
p801
sg35
g36
sg37
g36
sbsg774
g0
(g27
g2
Ntp802
Rp803
(dp804
g25
I00
sg31
I01
sg32
I00
sg33
VheavyIon
p805
sg35
g36
sg37
g36
sbsg775
g0
(g27
g2
Ntp806
Rp807
(dp808
g25
I00
sg31
I01
sg32
I00
sg33
g120
sg35
g36
sg37
g36
sbsg136
g0
(g27
g2
Ntp809
Rp810
(dp811
g25
I00
sg31
I01
sg32
I00
sg33
g142
sg35
g142
sg37
g36
sbsg776
g0
(g73
g2
Ntp812
Rp813
(dp814
g25
I00
sg31
I01
sg32
I00
sg42
I01
sbsg777
g0
(g73
g2
Ntp815
Rp816
(dp817
g25
I00
sg31
I01
sg32
I00
sg42
I01
sbsg778
g0
(g73
g2
Ntp818
Rp819
(dp820
g25
I00
sg31
I01
sg32
I00
sg42
I01
sbsg779
g0
(g73
g2
Ntp821
Rp822
(dp823
g25
I00
sg31
I01
sg32
I00
sg42
I01
sbsg780
g0
(g73
g2
Ntp824
Rp825
(dp826
g25
I00
sg31
I01
sg32
I00
sg42
I00
sbsg781
g0
(g73
g2
Ntp827
Rp828
(dp829
g25
I00
sg31
I01
sg32
I00
sg42
I00
sbsg782
g0
(g73
g2
Ntp830
Rp831
(dp832
g25
I00
sg31
I01
sg32
I00
sg42
I00
sbsg783
g0
(g73
g2
Ntp833
Rp834
(dp835
g25
I00
sg31
I01
sg32
I00
sg42
I01
sbsg784
g0
(g52
g2
Ntp836
Rp837
(dp838
g25
I00
sg31
I01
sg32
I00
sg42
I0
sbsg59
V/afs/cern.ch/work/r/rpradhan/Tracking_Studies/newCode_AfterRun3/ForEffTest/CMSSW_13_2_5_patch1/src/HeavyIonsAnalysis/EventAnalysis/python/hievtanalyzer_data_cfi.py
p839
sg61
I3
sg62
g762
sbsVdefaultCPDC
p840
g0
(g763
g2
Ntp841
Rp842
(dp843
g15
g7
sg17
(lp844
Vtracks
p845
aVtracksgen
p846
aVtrackschi2
p847
aVvertex
p848
aVcentralitybin
p849
aVzminVtx
p850
aVzmaxVtx
p851
aVfGeneral
p852
aVpTBins
p853
aVetaBins
p854
aVcentbins
p855
aValgoParameters
p856
asg25
I00
sg26
Nsg845
g0
(g27
g2
Ntp857
Rp858
(dp859
g25
I00
sg31
I01
sg32
I00
sg33
g501
sg35
g36
sg37
g36
sbsg32
I00
sg846
g0
(g27
g2
Ntp860
Rp861
(dp862
g25
I00
sg31
I01
sg32
I00
sg33
VpackedGenParticles
p863
sg35
g36
sg37
g36
sbsg847
g0
(g27
g2
Ntp864
Rp865
(dp866
g25
I00
sg31
I01
sg32
I00
sg33
g505
sg35
g36
sg37
g36
sbsg848
g0
(g27
g2
Ntp867
Rp868
(dp869
g25
I00
sg31
I01
sg32
I00
sg33
g120
sg35
g36
sg37
g36
sbsg849
g0
(g27
g2
Ntp870
Rp871
(dp872
g25
I00
sg31
I01
sg32
I00
sg33
g521
sg35
g522
sg37
g36
sbsg850
g0
(g38
g2
Ntp873
Rp874
(dp875
g25
I00
sg31
I00
sg32
I00
sg42
F-15.0
sbsg851
g0
(g38
g2
Ntp876
Rp877
(dp878
g25
I00
sg31
I00
sg32
I00
sg42
F15.0
sbsg852
g0
(g27
g2
Ntp879
Rp880
(dp881
g25
I00
sg31
I00
sg32
I00
sg33
VGeneral_TrackEff_3D_nhits0_V1.root
p882
sg35
g36
sg37
g36
sbsg853
g0
(g46
g47
(lp883
F0.0
aF0.05
aF0.1
aF0.15
aF0.2
aF0.25
aF0.3
aF0.35
aF0.4
aF0.45
aF0.5
aF0.55
aF0.6
aF0.65
aF0.7
aF0.75
aF0.8
aF0.85
aF0.9
aF0.95
aF1.0
aF1.05
aF1.1
aF1.15
aF1.2
aF1.3
aF1.4
aF1.5
aF1.6
aF1.7
aF1.8
aF1.9
aF2.0
aF2.5
aF3.0
atp884
Rp885
(dp886
g25
I00
sg31
I00
sg32
I00
sbsg854
g0
(g46
g47
(lp887
F-3.0
aF-2.4
aF-2.0
aF-1.6
aF-1.4
aF-1.3
aF-1.2
aF-1.0
aF-0.8
aF-0.4
aF0.0
aF0.4
aF0.8
aF1.0
aF1.2
aF1.3
aF1.4
aF1.6
aF2.0
aF2.4
aF3.0
atp888
Rp889
(dp890
g25
I00
sg31
I00
sg32
I00
sbsg855
g0
(g46
g47
(lp891
F0.0
aF10.0
aF20.0
aF40.0
aF60.0
aF80.0
aF100.0
aF120.0
aF140.0
aF160.0
aF180.0
aF200.0
atp892
Rp893
(dp894
g25
I00
sg31
I00
sg32
I00
sbsg856
g0
(cFWCore.ParameterSet.Types
vint32
p895
g47
(lp896
I0
aI1
aI2
aI3
aI4
aI5
aI6
aI7
aI8
aI9
aI10
aI11
aI12
aI13
aI14
aI15
aI16
aI17
aI18
aI19
aI20
aI21
aI22
aI23
aI24
aI25
aI26
aI27
aI28
aI29
aI30
aI31
aI32
aI33
aI34
aI35
aI36
aI37
aI38
aI39
aI40
aI41
aI42
aI43
aI44
aI45
aI46
atp897
Rp898
(dp899
g25
I00
sg31
I01
sg32
I00
sbsg59
V/afs/cern.ch/work/r/rpradhan/Tracking_Studies/newCode_AfterRun3/ForEffTest/CMSSW_13_2_5_patch1/src/Analyzers/RaghuEffTest/python/RaghuEffTest_cfi.py
p900
sg61
I3
sg62
g840
sbssV_Process__outputmodules
p901
(dp902
sV_Process__paths
p903
g0
(cFWCore.ParameterSet.DictTypes
SortedKeysDict
p904
c__builtin__
dict
p905
(dp906
Vp
p907
g0
(cFWCore.ParameterSet.SequenceTypes
Path
p908
g2
Ntp909
Rp910
(dp911
g25
I00
sV_seq
p912
g0
(cFWCore.ParameterSet.SequenceTypes
_SequenceCollection
p913
g2
Ntp914
Rp915
(dp916
V_collection
p917
(lp918
g563
ag842
asbsg32
I00
sV_tasks
p919
g0
(cFWCore.ParameterSet.OrderedSet
OrderedSet
p920
g2
Ntp921
Rp922
(dp923
Vend
p924
(lp925
Nag925
ag925
asVmap
p926
(dp927
sbsg62
g907
sbstp928
Rp929
(dp930
Vlist
p931
(lp932
g907
asbsV_Process__endpaths
p933
g0
(g904
g905
(dp934
tp935
Rp936
(dp937
g931
(lp938
sbsV_Process__finalpaths
p939
g0
(g904
g905
(dp940
tp941
Rp942
(dp943
g931
(lp944
sbsV_Process__sequences
p945
(dp946
sV_Process__tasks
p947
(dp948
VsiPixelRecHitsPreSplittingTask
p949
g0
(cFWCore.ParameterSet.SequenceTypes
Task
p950
g2
Ntp951
Rp952
(dp953
g917
g0
(g920
g2
Ntp954
Rp955
(dp956
g924
(lp957
Na(lp958
g656
ag957
ag957
aag958
asg926
(dp959
g656
g958
ssbsg62
g949
sbssV_Process__conditionaltasks
p960
(dp961
sV_Process__services
p962
(dp963
VMessageLogger
p964
g0
(cFWCore.ParameterSet.Modules
Service
p965
g2
Ntp966
Rp967
(dp968
g15
g964
sg17
(lp969
VsuppressWarning
p970
aVsuppressFwkInfo
p971
aVsuppressInfo
p972
aVsuppressDebug
p973
aVdebugModules
p974
aVcout
p975
aVdefault
p976
aVcerr
p977
aVfiles
p978
asg25
I00
sg26
g0
(g100
g2
Ntp979
Rp980
(dp981
g25
I00
sg31
I00
sg32
I00
sg104
g0
(cFWCore.ParameterSet.Types
_PSetTemplate
p982
g2
Ntp983
Rp984
(dp985
V_pset
p986
g0
(g693
g2
Ntp987
Rp988
(dp989
g25
I00
sg31
I01
sg32
I00
sg17
(lp990
VreportEvery
p991
aVlimit
p992
aVtimespan
p993
asg26
Nsg991
g0
(g52
g2
Ntp994
Rp995
(dp996
g25
I00
sg31
I00
sg32
I00
sg42
I1
sbsg992
g0
(g100
g2
Ntp997
Rp998
(dp999
g25
I00
sg31
I00
sg32
I00
sg104
g52
sg106
Nsbsg993
g0
(g100
g2
Ntp1000
Rp1001
(dp1002
g25
I00
sg31
I00
sg32
I00
sg104
g52
sg106
NsbsbsV_PSetTemplate__value
p1003
Nsbsg106
Nsbsg970
g0
(g105
g47
(lp1004
tp1005
Rp1006
(dp1007
g25
I00
sg31
I00
sg32
I00
sg451
I1
sbsg32
I00
sg971
g0
(g105
g47
(lp1008
tp1009
Rp1010
(dp1011
g25
I00
sg31
I00
sg32
I00
sg451
I1
sbsg972
g0
(g105
g47
(lp1012
tp1013
Rp1014
(dp1015
g25
I00
sg31
I00
sg32
I00
sg451
I1
sbsg973
g0
(g105
g47
(lp1016
tp1017
Rp1018
(dp1019
g25
I00
sg31
I00
sg32
I00
sg451
I1
sbsg974
g0
(g105
g47
(lp1020
tp1021
Rp1022
(dp1023
g25
I00
sg31
I00
sg32
I00
sg451
I1
sbsg975
g0
(g693
g2
Ntp1024
Rp1025
(dp1026
g25
I00
sg31
I00
sg32
I00
sg17
(lp1027
VnoLineBreaks
p1028
aVnoTimeStamps
p1029
aVlineLength
p1030
ag137
aVstatisticsThreshold
p1031
aVenableStatistics
p1032
aVresetStatistics
p1033
aVenable
p1034
asg26
g980
sg1028
g0
(g100
g2
Ntp1035
Rp1036
(dp1037
g25
I00
sg31
I00
sg32
I00
sg104
g73
sg106
Nsbsg1029
g0
(g100
g2
Ntp1038
Rp1039
(dp1040
g25
I00
sg31
I00
sg32
I00
sg104
g73
sg106
Nsbsg1030
g0
(g100
g2
Ntp1041
Rp1042
(dp1043
g25
I00
sg31
I00
sg32
I00
sg104
g52
sg106
Nsbsg137
g0
(g100
g2
Ntp1044
Rp1045
(dp1046
g25
I00
sg31
I00
sg32
I00
sg104
g121
sg106
Nsbsg1031
g0
(g100
g2
Ntp1047
Rp1048
(dp1049
g25
I00
sg31
I00
sg32
I00
sg104
g121
sg106
Nsbsg1032
g0
(g73
g2
Ntp1050
Rp1051
(dp1052
g25
I00
sg31
I00
sg32
I00
sg42
I00
sbsg1033
g0
(g73
g2
Ntp1053
Rp1054
(dp1055
g25
I00
sg31
I00
sg32
I00
sg42
I00
sbsg1034
g0
(g73
g2
Ntp1056
Rp1057
(dp1058
g25
I00
sg31
I00
sg32
I00
sg42
I00
sbsbsg976
g0
(g693
g2
Ntp1059
Rp1060
(dp1061
g25
I00
sg31
I00
sg32
I00
sg17
(lp1062
g991
ag992
ag993
ag1028
ag1029
ag1030
ag137
ag1031
asg26
g980
sg991
g0
(g52
g2
Ntp1063
Rp1064
(dp1065
g25
I00
sg31
I00
sg32
I00
sg42
I1
sbsg992
g0
(g100
g2
Ntp1066
Rp1067
(dp1068
g25
I00
sg31
I00
sg32
I00
sg104
g52
sg106
Nsbsg993
g0
(g100
g2
Ntp1069
Rp1070
(dp1071
g25
I00
sg31
I00
sg32
I00
sg104
g52
sg106
Nsbsg1028
g0
(g73
g2
Ntp1072
Rp1073
(dp1074
g25
I00
sg31
I00
sg32
I00
sg42
I00
sbsg1029
g0
(g73
g2
Ntp1075
Rp1076
(dp1077
g25
I00
sg31
I00
sg32
I00
sg42
I00
sbsg1030
g0
(g52
g2
Ntp1078
Rp1079
(dp1080
g25
I00
sg31
I00
sg32
I00
sg42
I80
sbsg137
g0
(g121
g2
Ntp1081
Rp1082
(dp1083
g25
I00
sg31
I00
sg32
I00
sg42
VINFO
p1084
sbsg1031
g0
(g121
g2
Ntp1085
Rp1086
(dp1087
g25
I00
sg31
I00
sg32
I00
sg42
g1084
sbsbsg977
g0
(g693
g2
Ntp1088
Rp1089
(dp1090
g25
I00
sg31
I00
sg32
I00
sg17
(lp1091
g1028
ag1029
ag1030
ag137
ag1031
ag1034
ag1032
ag1033
ag1084
aVFwkReport
p1092
ag976
aVRoot_NoDictionary
p1093
aVFwkSummary
p1094
asg26
g980
sg1028
g0
(g100
g2
Ntp1095
Rp1096
(dp1097
g25
I00
sg31
I00
sg32
I00
sg104
g73
sg106
Nsbsg1029
g0
(g73
g2
Ntp1098
Rp1099
(dp1100
g25
I00
sg31
I00
sg32
I00
sg42
I00
sbsg1030
g0
(g100
g2
Ntp1101
Rp1102
(dp1103
g25
I00
sg31
I00
sg32
I00
sg104
g52
sg106
Nsbsg137
g0
(g121
g2
Ntp1104
Rp1105
(dp1106
g25
I00
sg31
I00
sg32
I00
sg42
g1084
sbsg1031
g0
(g121
g2
Ntp1107
Rp1108
(dp1109
g25
I00
sg31
I00
sg32
I00
sg42
VWARNING
p1110
sbsg1034
g0
(g73
g2
Ntp1111
Rp1112
(dp1113
g25
I00
sg31
I00
sg32
I00
sg42
I01
sbsg1032
g0
(g73
g2
Ntp1114
Rp1115
(dp1116
g25
I00
sg31
I00
sg32
I00
sg42
I00
sbsg1033
g0
(g73
g2
Ntp1117
Rp1118
(dp1119
g25
I00
sg31
I00
sg32
I00
sg42
I00
sbsg1084
g0
(g693
g2
Ntp1120
Rp1121
(dp1122
g25
I00
sg31
I00
sg32
I00
sg17
(lp1123
g992
asg26
Nsg992
g0
(g52
g2
Ntp1124
Rp1125
(dp1126
g25
I00
sg31
I00
sg32
I00
sg42
I0
sbsbsg1092
g0
(g693
g2
Ntp1127
Rp1128
(dp1129
g25
I00
sg31
I00
sg32
I01
sg17
(lp1130
g991
ag992
asg26
Nsg991
g0
(g52
g2
Ntp1131
Rp1132
(dp1133
g25
I00
sg31
I00
sg32
I01
sg42
I100
sbsg992
g0
(g52
g2
Ntp1134
Rp1135
(dp1136
g25
I00
sg31
I00
sg32
I00
sg42
I10000000
sbsbsg976
g0
(g693
g2
Ntp1137
Rp1138
(dp1139
g25
I00
sg31
I00
sg32
I00
sg17
(lp1140
g992
asg26
Nsg992
g0
(g52
g2
Ntp1141
Rp1142
(dp1143
g25
I00
sg31
I00
sg32
I00
sg42
I10000000
sbsbsg1093
g0
(g693
g2
Ntp1144
Rp1145
(dp1146
g25
I00
sg31
I00
sg32
I00
sg17
(lp1147
g992
asg26
Nsg992
g0
(g52
g2
Ntp1148
Rp1149
(dp1150
g25
I00
sg31
I00
sg32
I00
sg42
I0
sbsbsg1094
g0
(g693
g2
Ntp1151
Rp1152
(dp1153
g25
I00
sg31
I00
sg32
I00
sg17
(lp1154
g991
ag992
asg26
Nsg991
g0
(g52
g2
Ntp1155
Rp1156
(dp1157
g25
I00
sg31
I00
sg32
I00
sg42
I1
sbsg992
g0
(g52
g2
Ntp1158
Rp1159
(dp1160
g25
I00
sg31
I00
sg32
I00
sg42
I10000000
sbsbsbsg978
g0
(g693
g2
Ntp1161
Rp1162
(dp1163
g25
I00
sg31
I00
sg32
I00
sg17
(lp1164
sg26
g0
(g100
g2
Ntp1165
Rp1166
(dp1167
g25
I00
sg31
I00
sg32
I00
sg104
g0
(g982
g2
Ntp1168
Rp1169
(dp1170
g986
g0
(g693
g2
Ntp1171
Rp1172
(dp1173
g25
I00
sg31
I01
sg32
I00
sg17
(lp1174
g1028
ag1029
ag1030
ag137
ag1031
ag1032
ag1033
aVfilename
p1175
aVextension
p1176
aVoutput
p1177
asg26
g980
sg1028
g0
(g100
g2
Ntp1178
Rp1179
(dp1180
g25
I00
sg31
I00
sg32
I00
sg104
g73
sg106
Nsbsg1029
g0
(g100
g2
Ntp1181
Rp1182
(dp1183
g25
I00
sg31
I00
sg32
I00
sg104
g73
sg106
Nsbsg1030
g0
(g100
g2
Ntp1184
Rp1185
(dp1186
g25
I00
sg31
I00
sg32
I00
sg104
g52
sg106
Nsbsg137
g0
(g100
g2
Ntp1187
Rp1188
(dp1189
g25
I00
sg31
I00
sg32
I00
sg104
g121
sg106
Nsbsg1031
g0
(g100
g2
Ntp1190
Rp1191
(dp1192
g25
I00
sg31
I00
sg32
I00
sg104
g121
sg106
Nsbsg1032
g0
(g73
g2
Ntp1193
Rp1194
(dp1195
g25
I00
sg31
I00
sg32
I00
sg42
I00
sbsg1033
g0
(g73
g2
Ntp1196
Rp1197
(dp1198
g25
I00
sg31
I00
sg32
I00
sg42
I00
sbsg1175
g0
(g100
g2
Ntp1199
Rp1200
(dp1201
g25
I00
sg31
I00
sg32
I00
sg104
g121
sg106
Nsbsg1176
g0
(g100
g2
Ntp1202
Rp1203
(dp1204
g25
I00
sg31
I00
sg32
I00
sg104
g121
sg106
Nsbsg1177
g0
(g100
g2
Ntp1205
Rp1206
(dp1207
g25
I00
sg31
I00
sg32
I00
sg104
g121
sg106
Nsbsbsg1003
Nsbsg106
Nsbsbsg59
g660
sg61
I13
sV_inProcess
p1208
I00
sbsVDQMStore
p1209
g0
(g965
g2
Ntp1210
Rp1211
(dp1212
g15
g1209
sg17
(lp1213
Vverbose
p1214
aVsaveByLumi
p1215
aVMEsToSave
p1216
aVtrackME
p1217
aVassertLegacySafe
p1218
aVenableMultiThread
p1219
aVonlineMode
p1220
asg25
I00
sg26
Nsg1214
g0
(g52
g2
Ntp1221
Rp1222
(dp1223
g25
I00
sg31
I00
sg32
I00
sg42
I0
sbsg32
I00
sg1215
g0
(g73
g2
Ntp1224
Rp1225
(dp1226
g25
I00
sg31
I00
sg32
I00
sg42
I00
sbsg1216
g0
(g105
g47
(lp1227
VHcal/DigiTask/Occupancy/depth/depth1
p1228
aVHcal/DigiTask/Occupancy/depth/depth2
p1229
aVHcal/DigiTask/Occupancy/depth/depth3
p1230
aVHcal/DigiTask/Occupancy/depth/depth4
p1231
aVHcal/DigiTask/Occupancy/depth/depth5
p1232
aVHcal/DigiTask/Occupancy/depth/depth6
p1233
aVHcal/DigiTask/Occupancy/depth/depth7
p1234
aVHcal/DigiTask/Occupancy/depth/depthHO
p1235
aVHcal/DigiTask/OccupancyCut/depth/depth1
p1236
aVHcal/DigiTask/OccupancyCut/depth/depth2
p1237
aVHcal/DigiTask/OccupancyCut/depth/depth3
p1238
aVHcal/DigiTask/OccupancyCut/depth/depth4
p1239
aVHcal/DigiTask/OccupancyCut/depth/depth5
p1240
aVHcal/DigiTask/OccupancyCut/depth/depth6
p1241
aVHcal/DigiTask/OccupancyCut/depth/depth7
p1242
aVHcal/DigiTask/OccupancyCut/depth/depthHO
p1243
aVEcalBarrel/EBOccupancyTask/EBOT digi occupancy
p1244
aVEcalEndcap/EEOccupancyTask/EEOT digi occupancy EE -
p1245
aVEcalEndcap/EEOccupancyTask/EEOT digi occupancy EE +
p1246
aVEcalBarrel/EBOccupancyTask/EBOT DCC entries
p1247
aVEcalEndcap/EEOccupancyTask/EEOT DCC entries
p1248
aVEcal/EventInfo/processedEvents
p1249
aVPixelPhase1/Tracks/charge_PXBarrel
p1250
aVPixelPhase1/Tracks/charge_PXForward
p1251
aVPixelPhase1/Tracks/PXBarrel/charge_PXLayer_1
p1252
aVPixelPhase1/Tracks/PXBarrel/charge_PXLayer_2
p1253
aVPixelPhase1/Tracks/PXBarrel/charge_PXLayer_3
p1254
aVPixelPhase1/Tracks/PXBarrel/charge_PXLayer_4
p1255
aVPixelPhase1/Tracks/PXForward/charge_PXDisk_+1
p1256
aVPixelPhase1/Tracks/PXForward/charge_PXDisk_+2
p1257
aVPixelPhase1/Tracks/PXForward/charge_PXDisk_+3
p1258
aVPixelPhase1/Tracks/PXForward/charge_PXDisk_-1
p1259
aVPixelPhase1/Tracks/PXForward/charge_PXDisk_-2
p1260
aVPixelPhase1/Tracks/PXForward/charge_PXDisk_-3
p1261
aVPixelPhase1/Tracks/PXBarrel/size_PXLayer_1
p1262
aVPixelPhase1/Tracks/PXBarrel/size_PXLayer_2
p1263
aVPixelPhase1/Tracks/PXBarrel/size_PXLayer_3
p1264
aVPixelPhase1/Tracks/PXBarrel/size_PXLayer_4
p1265
aVPixelPhase1/Tracks/PXForward/size_PXDisk_+1
p1266
aVPixelPhase1/Tracks/PXForward/size_PXDisk_+2
p1267
aVPixelPhase1/Tracks/PXForward/size_PXDisk_+3
p1268
aVPixelPhase1/Tracks/PXForward/size_PXDisk_-1
p1269
aVPixelPhase1/Tracks/PXForward/size_PXDisk_-2
p1270
aVPixelPhase1/Tracks/PXForward/size_PXDisk_-3
p1271
aVHLT/Vertexing/hltPixelVertices/hltPixelVertices/goodvtxNbr
p1272
aVHLT/Tracking/ValidationWRTOffline/hltMergedWrtHighPurityPV/mon_eta
p1273
aVHLT/Tracking/ValidationWRTOffline/hltMergedWrtHighPurityPV/mon_hits
p1274
aVHLT/Tracking/ValidationWRTOffline/hltMergedWrtHighPurityPV/mon_phi
p1275
aVHLT/Tracking/ValidationWRTOffline/hltMergedWrtHighPurityPV/mon_pt
p1276
aVHLT/Tracking/ValidationWRTOffline/hltMergedWrtHighPurityPV/mon_unMatched_eta
p1277
aVHLT/Tracking/ValidationWRTOffline/hltMergedWrtHighPurityPV/mon_unMatched_hits
p1278
aVHLT/Tracking/ValidationWRTOffline/hltMergedWrtHighPurityPV/mon_unMatched_phi
p1279
aVHLT/Tracking/ValidationWRTOffline/hltMergedWrtHighPurityPV/mon_unMatched_pt
p1280
aVHLT/Tracking/ValidationWRTOffline/hltMergedWrtHighPurityPV/ref_eta
p1281
aVHLT/Tracking/ValidationWRTOffline/hltMergedWrtHighPurityPV/ref_hits
p1282
aVHLT/Tracking/ValidationWRTOffline/hltMergedWrtHighPurityPV/ref_matched_eta
p1283
aVHLT/Tracking/ValidationWRTOffline/hltMergedWrtHighPurityPV/ref_matched_hits
p1284
aVHLT/Tracking/ValidationWRTOffline/hltMergedWrtHighPurityPV/ref_matched_phi
p1285
aVHLT/Tracking/ValidationWRTOffline/hltMergedWrtHighPurityPV/ref_matched_pt
p1286
aVHLT/Tracking/ValidationWRTOffline/hltMergedWrtHighPurityPV/ref_phi
p1287
aVHLT/Tracking/ValidationWRTOffline/hltMergedWrtHighPurityPV/ref_pt
p1288
aVHLT/Tracking/pixelTracks/GeneralProperties/Chi2Prob_GenTk
p1289
aVHLT/Tracking/pixelTracks/GeneralProperties/Chi2oNDFVsEta_ImpactPoint_GenTk
p1290
aVHLT/Tracking/pixelTracks/GeneralProperties/DeltaZToPVZoom_GenTk
p1291
aVHLT/Tracking/pixelTracks/GeneralProperties/DistanceOfClosestApproachToPVVsPhi_GenTk
p1292
aVHLT/Tracking/pixelTracks/GeneralProperties/DistanceOfClosestApproachToPVZoom_GenTk
p1293
aVHLT/Tracking/pixelTracks/GeneralProperties/NumberOfTracks_GenTk
p1294
aVHLT/Tracking/tracks/GeneralProperties/Chi2Prob_GenTk
p1295
aVHLT/Tracking/tracks/GeneralProperties/Chi2oNDFVsEta_ImpactPoint_GenTk
p1296
aVHLT/Tracking/tracks/GeneralProperties/DeltaZToPVZoom_GenTk
p1297
aVHLT/Tracking/tracks/GeneralProperties/DistanceOfClosestApproachToPVVsPhi_GenTk
p1298
aVHLT/Tracking/tracks/GeneralProperties/DistanceOfClosestApproachToPVZoom_GenTk
p1299
aVHLT/Tracking/tracks/GeneralProperties/NumberOfTracks_GenTk
p1300
aVHLT/Tracking/tracks/LUMIanalysis/NumberEventsVsLUMI
p1301
aVHLT/Tracking/tracks/PUmonitoring/NumberEventsVsGoodPVtx
p1302
aVPixelPhase1/Tracks/num_clusters_ontrack_PXBarrel
p1303
aVPixelPhase1/Tracks/num_clusters_ontrack_PXForward
p1304
aVPixelPhase1/Tracks/clusterposition_zphi_ontrack
p1305
aVPixelPhase1/Tracks/PXBarrel/clusterposition_zphi_ontrack_PXLayer_1
p1306
aVPixelPhase1/Tracks/PXBarrel/clusterposition_zphi_ontrack_PXLayer_2
p1307
aVPixelPhase1/Tracks/PXBarrel/clusterposition_zphi_ontrack_PXLayer_3
p1308
aVPixelPhase1/Tracks/PXBarrel/clusterposition_zphi_ontrack_PXLayer_4
p1309
aVPixelPhase1/Tracks/PXForward/clusterposition_xy_ontrack_PXDisk_+1
p1310
aVPixelPhase1/Tracks/PXForward/clusterposition_xy_ontrack_PXDisk_+2
p1311
aVPixelPhase1/Tracks/PXForward/clusterposition_xy_ontrack_PXDisk_+3
p1312
aVPixelPhase1/Tracks/PXForward/clusterposition_xy_ontrack_PXDisk_-1
p1313
aVPixelPhase1/Tracks/PXForward/clusterposition_xy_ontrack_PXDisk_-2
p1314
aVPixelPhase1/Tracks/PXForward/clusterposition_xy_ontrack_PXDisk_-3
p1315
aVSiStrip/MechanicalView/TEC/PLUS/wheel_1/NormalizedHitResiduals_TEC__wheel__1
p1316
aVSiStrip/MechanicalView/TEC/PLUS/wheel_2/NormalizedHitResiduals_TEC__wheel__2
p1317
aVSiStrip/MechanicalView/TEC/PLUS/wheel_3/NormalizedHitResiduals_TEC__wheel__3
p1318
aVSiStrip/MechanicalView/TEC/PLUS/wheel_4/NormalizedHitResiduals_TEC__wheel__4
p1319
aVSiStrip/MechanicalView/TEC/PLUS/wheel_5/NormalizedHitResiduals_TEC__wheel__5
p1320
aVSiStrip/MechanicalView/TEC/PLUS/wheel_6/NormalizedHitResiduals_TEC__wheel__6
p1321
aVSiStrip/MechanicalView/TEC/PLUS/wheel_7/NormalizedHitResiduals_TEC__wheel__7
p1322
aVSiStrip/MechanicalView/TEC/PLUS/wheel_8/NormalizedHitResiduals_TEC__wheel__8
p1323
aVSiStrip/MechanicalView/TEC/PLUS/wheel_9/NormalizedHitResiduals_TEC__wheel__9
p1324
aVSiStrip/MechanicalView/TEC/MINUS/wheel_1/NormalizedHitResiduals_TEC__wheel__1
p1325
aVSiStrip/MechanicalView/TEC/MINUS/wheel_2/NormalizedHitResiduals_TEC__wheel__2
p1326
aVSiStrip/MechanicalView/TEC/MINUS/wheel_3/NormalizedHitResiduals_TEC__wheel__3
p1327
aVSiStrip/MechanicalView/TEC/MINUS/wheel_4/NormalizedHitResiduals_TEC__wheel__4
p1328
aVSiStrip/MechanicalView/TEC/MINUS/wheel_5/NormalizedHitResiduals_TEC__wheel__5
p1329
aVSiStrip/MechanicalView/TEC/MINUS/wheel_6/NormalizedHitResiduals_TEC__wheel__6
p1330
aVSiStrip/MechanicalView/TEC/MINUS/wheel_7/NormalizedHitResiduals_TEC__wheel__7
p1331
aVSiStrip/MechanicalView/TEC/MINUS/wheel_8/NormalizedHitResiduals_TEC__wheel__8
p1332
aVSiStrip/MechanicalView/TEC/MINUS/wheel_9/NormalizedHitResiduals_TEC__wheel__9
p1333
aVSiStrip/MechanicalView/TEC/PLUS/wheel_1/Summary_ClusterStoNCorr__OnTrack__TEC__PLUS__wheel__1
p1334
aVSiStrip/MechanicalView/TEC/PLUS/wheel_2/Summary_ClusterStoNCorr__OnTrack__TEC__PLUS__wheel__2
p1335
aVSiStrip/MechanicalView/TEC/PLUS/wheel_3/Summary_ClusterStoNCorr__OnTrack__TEC__PLUS__wheel__3
p1336
aVSiStrip/MechanicalView/TEC/PLUS/wheel_4/Summary_ClusterStoNCorr__OnTrack__TEC__PLUS__wheel__4
p1337
aVSiStrip/MechanicalView/TEC/PLUS/wheel_5/Summary_ClusterStoNCorr__OnTrack__TEC__PLUS__wheel__5
p1338
aVSiStrip/MechanicalView/TEC/PLUS/wheel_6/Summary_ClusterStoNCorr__OnTrack__TEC__PLUS__wheel__6
p1339
aVSiStrip/MechanicalView/TEC/PLUS/wheel_7/Summary_ClusterStoNCorr__OnTrack__TEC__PLUS__wheel__7
p1340
aVSiStrip/MechanicalView/TEC/PLUS/wheel_8/Summary_ClusterStoNCorr__OnTrack__TEC__PLUS__wheel__8
p1341
aVSiStrip/MechanicalView/TEC/PLUS/wheel_9/Summary_ClusterStoNCorr__OnTrack__TEC__PLUS__wheel__9
p1342
aVSiStrip/MechanicalView/TEC/MINUS/wheel_1/Summary_ClusterStoNCorr__OnTrack__TEC__MINUS__wheel__1
p1343
aVSiStrip/MechanicalView/TEC/MINUS/wheel_2/Summary_ClusterStoNCorr__OnTrack__TEC__MINUS__wheel__2
p1344
aVSiStrip/MechanicalView/TEC/MINUS/wheel_3/Summary_ClusterStoNCorr__OnTrack__TEC__MINUS__wheel__3
p1345
aVSiStrip/MechanicalView/TEC/MINUS/wheel_4/Summary_ClusterStoNCorr__OnTrack__TEC__MINUS__wheel__4
p1346
aVSiStrip/MechanicalView/TEC/MINUS/wheel_5/Summary_ClusterStoNCorr__OnTrack__TEC__MINUS__wheel__5
p1347
aVSiStrip/MechanicalView/TEC/MINUS/wheel_6/Summary_ClusterStoNCorr__OnTrack__TEC__MINUS__wheel__6
p1348
aVSiStrip/MechanicalView/TEC/MINUS/wheel_7/Summary_ClusterStoNCorr__OnTrack__TEC__MINUS__wheel__7
p1349
aVSiStrip/MechanicalView/TEC/MINUS/wheel_8/Summary_ClusterStoNCorr__OnTrack__TEC__MINUS__wheel__8
p1350
aVSiStrip/MechanicalView/TEC/MINUS/wheel_9/Summary_ClusterStoNCorr__OnTrack__TEC__MINUS__wheel__9
p1351
aVSiStrip/MechanicalView/TIB/layer_1/NormalizedHitResiduals_TIB__Layer__1
p1352
aVSiStrip/MechanicalView/TIB/layer_2/NormalizedHitResiduals_TIB__Layer__2
p1353
aVSiStrip/MechanicalView/TIB/layer_3/NormalizedHitResiduals_TIB__Layer__3
p1354
aVSiStrip/MechanicalView/TIB/layer_4/NormalizedHitResiduals_TIB__Layer__4
p1355
aVSiStrip/MechanicalView/TIB/layer_1/Summary_ClusterStoNCorr__OnTrack__TIB__layer__1
p1356
aVSiStrip/MechanicalView/TIB/layer_2/Summary_ClusterStoNCorr__OnTrack__TIB__layer__2
p1357
aVSiStrip/MechanicalView/TIB/layer_3/Summary_ClusterStoNCorr__OnTrack__TIB__layer__3
p1358
aVSiStrip/MechanicalView/TIB/layer_4/Summary_ClusterStoNCorr__OnTrack__TIB__layer__4
p1359
aVSiStrip/MechanicalView/TID/PLUS/wheel_1/NormalizedHitResiduals_TID__wheel__1
p1360
aVSiStrip/MechanicalView/TID/PLUS/wheel_2/NormalizedHitResiduals_TID__wheel__2
p1361
aVSiStrip/MechanicalView/TID/PLUS/wheel_3/NormalizedHitResiduals_TID__wheel__3
p1362
aVSiStrip/MechanicalView/TID/MINUS/wheel_1/NormalizedHitResiduals_TID__wheel__1
p1363
aVSiStrip/MechanicalView/TID/MINUS/wheel_2/NormalizedHitResiduals_TID__wheel__2
p1364
aVSiStrip/MechanicalView/TID/MINUS/wheel_3/NormalizedHitResiduals_TID__wheel__3
p1365
aVSiStrip/MechanicalView/TID/PLUS/wheel_1/Summary_ClusterStoNCorr__OnTrack__TID__PLUS__wheel__1
p1366
aVSiStrip/MechanicalView/TID/PLUS/wheel_2/Summary_ClusterStoNCorr__OnTrack__TID__PLUS__wheel__2
p1367
aVSiStrip/MechanicalView/TID/PLUS/wheel_3/Summary_ClusterStoNCorr__OnTrack__TID__PLUS__wheel__3
p1368
aVSiStrip/MechanicalView/TID/MINUS/wheel_1/Summary_ClusterStoNCorr__OnTrack__TID__MINUS__wheel__1
p1369
aVSiStrip/MechanicalView/TID/MINUS/wheel_2/Summary_ClusterStoNCorr__OnTrack__TID__MINUS__wheel__2
p1370
aVSiStrip/MechanicalView/TID/MINUS/wheel_3/Summary_ClusterStoNCorr__OnTrack__TID__MINUS__wheel__3
p1371
aVSiStrip/MechanicalView/TOB/layer_1/NormalizedHitResiduals_TOB__Layer__1
p1372
aVSiStrip/MechanicalView/TOB/layer_2/NormalizedHitResiduals_TOB__Layer__2
p1373
aVSiStrip/MechanicalView/TOB/layer_3/NormalizedHitResiduals_TOB__Layer__3
p1374
aVSiStrip/MechanicalView/TOB/layer_4/NormalizedHitResiduals_TOB__Layer__4
p1375
aVSiStrip/MechanicalView/TOB/layer_5/NormalizedHitResiduals_TOB__Layer__5
p1376
aVSiStrip/MechanicalView/TOB/layer_6/NormalizedHitResiduals_TOB__Layer__6
p1377
aVSiStrip/MechanicalView/TOB/layer_1/Summary_ClusterStoNCorr__OnTrack__TOB__layer__1
p1378
aVSiStrip/MechanicalView/TOB/layer_2/Summary_ClusterStoNCorr__OnTrack__TOB__layer__2
p1379
aVSiStrip/MechanicalView/TOB/layer_3/Summary_ClusterStoNCorr__OnTrack__TOB__layer__3
p1380
aVSiStrip/MechanicalView/TOB/layer_4/Summary_ClusterStoNCorr__OnTrack__TOB__layer__4
p1381
aVSiStrip/MechanicalView/TOB/layer_5/Summary_ClusterStoNCorr__OnTrack__TOB__layer__5
p1382
aVSiStrip/MechanicalView/TOB/layer_6/Summary_ClusterStoNCorr__OnTrack__TOB__layer__6
p1383
aVSiStrip/MechanicalView/MainDiagonal Position
p1384
aVSiStrip/MechanicalView/NumberOfClustersInPixel
p1385
aVSiStrip/MechanicalView/NumberOfClustersInStrip
p1386
aVTracking/TrackParameters/generalTracks/LSanalysis/Chi2oNDF_lumiFlag_GenTk
p1387
aVTracking/TrackParameters/generalTracks/LSanalysis/NumberOfRecHitsPerTrack_lumiFlag_GenTk
p1388
aVTracking/TrackParameters/generalTracks/LSanalysis/NumberOfTracks_lumiFlag_GenTk
p1389
aVTracking/TrackParameters/highPurityTracks/pt_1/GeneralProperties/SIPDxyToPV_GenTk
p1390
aVTracking/TrackParameters/highPurityTracks/pt_1/GeneralProperties/SIPDzToPV_GenTk
p1391
aVTracking/TrackParameters/highPurityTracks/pt_1/GeneralProperties/SIP3DToPV_GenTk
p1392
aVTracking/TrackParameters/generalTracks/HitProperties/NumberOfMissingOuterRecHitsPerTrack_GenTk
p1393
aVTracking/TrackParameters/generalTracks/HitProperties/NumberMORecHitsPerTrackVsPt_GenTk
p1394
aVOfflinePV/offlinePrimaryVertices/tagVtxProb
p1395
aVOfflinePV/offlinePrimaryVertices/tagType
p1396
aVOfflinePV/Resolution/PV/pull_x
p1397
aVOfflinePV/Resolution/PV/pull_y
p1398
aVOfflinePV/Resolution/PV/pull_z
p1399
aVJetMET/Jet/Cleanedak4PFJetsCHS/CHFrac_highPt_Barrel
p1400
aVJetMET/Jet/Cleanedak4PFJetsCHS/CHFrac_highPt_EndCap
p1401
aVJetMET/Jet/Cleanedak4PFJetsCHS/CHFrac_mediumPt_Barrel
p1402
aVJetMET/Jet/Cleanedak4PFJetsCHS/CHFrac_mediumPt_EndCap
p1403
aVJetMET/Jet/Cleanedak4PFJetsCHS/CHFrac_lowPt_Barrel
p1404
aVJetMET/Jet/Cleanedak4PFJetsCHS/CHFrac_lowPt_EndCap
p1405
aVJetMET/Jet/Cleanedak4PFJetsCHS/ChMultiplicity_highPt_Barrel
p1406
aVJetMET/Jet/Cleanedak4PFJetsCHS/ChMultiplicity_highPt_EndCap
p1407
aVJetMET/Jet/Cleanedak4PFJetsCHS/ChMultiplicity_mediumPt_Barrel
p1408
aVJetMET/Jet/Cleanedak4PFJetsCHS/ChMultiplicity_mediumPt_EndCap
p1409
aVJetMET/Jet/Cleanedak4PFJetsCHS/ChMultiplicity_lowPt_Barrel
p1410
aVJetMET/Jet/Cleanedak4PFJetsCHS/ChMultiplicity_lowPt_EndCap
p1411
aVJetMET/Jet/Cleanedak4PFJetsCHS/Constituents
p1412
aVJetMET/Jet/Cleanedak4PFJetsCHS/Eta
p1413
aVJetMET/Jet/Cleanedak4PFJetsCHS/Eta_uncor
p1414
aVJetMET/Jet/Cleanedak4PFJetsCHS/JetEnergyCorr
p1415
aVJetMET/Jet/Cleanedak4PFJetsCHS/NJets
p1416
aVJetMET/Jet/Cleanedak4PFJetsCHS/Phi
p1417
aVJetMET/Jet/Cleanedak4PFJetsCHS/Phi_Barrel
p1418
aVJetMET/Jet/Cleanedak4PFJetsCHS/Phi_EndCap
p1419
aVJetMET/Jet/Cleanedak4PFJetsCHS/Pt
p1420
aVJetMET/MET/pfMETT1/Cleaned/METSig
p1421
aVJetMET/vertices
p1422
atp1423
Rp1424
(dp1425
g25
I00
sg31
I00
sg32
I00
sg451
I1
sbsg1217
g0
(g121
g2
Ntp1426
Rp1427
(dp1428
g25
I00
sg31
I00
sg32
I00
sg42
g36
sbsg1218
g0
(g73
g2
Ntp1429
Rp1430
(dp1431
g25
I00
sg31
I00
sg32
I00
sg42
I00
sbsg1219
g0
(g73
g2
Ntp1432
Rp1433
(dp1434
g25
I00
sg31
I00
sg32
I00
sg42
I01
sbsg1220
g0
(g73
g2
Ntp1435
Rp1436
(dp1437
g25
I00
sg31
I00
sg32
I00
sg42
I00
sbsg59
g660
sg61
I13
sg1208
I01
sbsVRandomNumberGeneratorService
p1438
g0
(g965
g2
Ntp1439
Rp1440
(dp1441
g15
g1438
sg17
(lp1442
VexternalLHEProducer
p1443
aVgenerator
p1444
aVVtxSmeared
p1445
aVLHCTransport
p1446
aVhiSignalLHCTransport
p1447
aVg4SimHits
p1448
aVmix
p1449
aVmixData
p1450
aVsimSiStripDigiSimLink
p1451
aVsimMuonDTDigis
p1452
aVsimMuonCSCDigis
p1453
aVsimMuonRPCDigis
p1454
aVhiSignal
p1455
aVhiSignalG4SimHits
p1456
aVfamosPileUp
p1457
aVmixGenPU
p1458
aVmixSimCaloHits
p1459
aVmixRecoTracks
p1460
aVfastSimProducer
p1461
aVfastTrackerRecHits
p1462
aVecalRecHit
p1463
aVecalPreshowerRecHit
p1464
aVhbhereco
p1465
aVhoreco
p1466
aVhfreco
p1467
aVparamMuons
p1468
aVl1ParamMuons
p1469
aVMuonSimHits
p1470
aVCTPPSFastRecHits
p1471
aVsimBeamSpotFilter
p1472
aVRPixDetDigitizer
p1473
aVRPSiDetDigitizer
p1474
aVsaveFileName
p1475
asg25
I00
sg26
Nsg1443
g0
(g693
g2
Ntp1476
Rp1477
(dp1478
g25
I00
sg31
I01
sg32
I00
sg17
(lp1479
VinitialSeed
p1480
aVengineName
p1481
asg26
Nsg1480
g0
(g581
g2
Ntp1482
Rp1483
(dp1484
g25
I00
sg31
I00
sg32
I00
sg42
I234567
sbsg1481
g0
(g121
g2
Ntp1485
Rp1486
(dp1487
g25
I00
sg31
I00
sg32
I00
sg42
VMixMaxRng
p1488
sbsbsg32
I00
sg1444
g0
(g693
g2
Ntp1489
Rp1490
(dp1491
g25
I00
sg31
I01
sg32
I00
sg17
(lp1492
g1480
ag1481
asg26
Nsg1480
g0
(g581
g2
Ntp1493
Rp1494
(dp1495
g25
I00
sg31
I00
sg32
I00
sg42
I123456789
sbsg1481
g1486
sbsg1445
g0
(g693
g2
Ntp1496
Rp1497
(dp1498
g25
I00
sg31
I01
sg32
I00
sg17
(lp1499
g1480
ag1481
asg26
Nsg1480
g0
(g581
g2
Ntp1500
Rp1501
(dp1502
g25
I00
sg31
I00
sg32
I00
sg42
I98765432
sbsg1481
g1486
sbsg1446
g0
(g693
g2
Ntp1503
Rp1504
(dp1505
g25
I00
sg31
I01
sg32
I00
sg17
(lp1506
g1480
ag1481
asg26
Nsg1480
g0
(g581
g2
Ntp1507
Rp1508
(dp1509
g25
I00
sg31
I00
sg32
I00
sg42
I87654321
sbsg1481
g0
(g121
g2
Ntp1510
Rp1511
(dp1512
g25
I00
sg31
I00
sg32
I00
sg42
VTRandom3
p1513
sbsbsg1447
g0
(g693
g2
Ntp1514
Rp1515
(dp1516
g25
I00
sg31
I01
sg32
I00
sg17
(lp1517
g1480
ag1481
asg26
Nsg1480
g0
(g581
g2
Ntp1518
Rp1519
(dp1520
g25
I00
sg31
I00
sg32
I00
sg42
I88776655
sbsg1481
g0
(g121
g2
Ntp1521
Rp1522
(dp1523
g25
I00
sg31
I00
sg32
I00
sg42
g1488
sbsbsg1448
g0
(g693
g2
Ntp1524
Rp1525
(dp1526
g25
I00
sg31
I01
sg32
I00
sg17
(lp1527
g1480
ag1481
asg26
Nsg1480
g0
(g581
g2
Ntp1528
Rp1529
(dp1530
g25
I00
sg31
I00
sg32
I00
sg42
I11
sbsg1481
g1486
sbsg1449
g0
(g693
g2
Ntp1531
Rp1532
(dp1533
g25
I00
sg31
I01
sg32
I00
sg17
(lp1534
g1480
ag1481
asg26
Nsg1480
g0
(g581
g2
Ntp1535
Rp1536
(dp1537
g25
I00
sg31
I00
sg32
I00
sg42
I12345
sbsg1481
g1486
sbsg1450
g0
(g693
g2
Ntp1538
Rp1539
(dp1540
g25
I00
sg31
I01
sg32
I00
sg17
(lp1541
g1480
ag1481
asg26
Nsg1480
g0
(g581
g2
Ntp1542
Rp1543
(dp1544
g25
I00
sg31
I00
sg32
I00
sg42
I12345
sbsg1481
g1486
sbsg1451
g0
(g693
g2
Ntp1545
Rp1546
(dp1547
g25
I00
sg31
I01
sg32
I00
sg17
(lp1548
g1480
ag1481
asg26
Nsg1480
g0
(g581
g2
Ntp1549
Rp1550
(dp1551
g25
I00
sg31
I00
sg32
I00
sg42
I1234567
sbsg1481
g1486
sbsg1452
g0
(g693
g2
Ntp1552
Rp1553
(dp1554
g25
I00
sg31
I01
sg32
I00
sg17
(lp1555
g1480
ag1481
asg26
Nsg1480
g0
(g581
g2
Ntp1556
Rp1557
(dp1558
g25
I00
sg31
I00
sg32
I00
sg42
I1234567
sbsg1481
g1486
sbsg1453
g0
(g693
g2
Ntp1559
Rp1560
(dp1561
g25
I00
sg31
I01
sg32
I00
sg17
(lp1562
g1480
ag1481
asg26
Nsg1480
g0
(g581
g2
Ntp1563
Rp1564
(dp1565
g25
I00
sg31
I00
sg32
I00
sg42
I11223344
sbsg1481
g1486
sbsg1454
g0
(g693
g2
Ntp1566
Rp1567
(dp1568
g25
I00
sg31
I01
sg32
I00
sg17
(lp1569
g1480
ag1481
asg26
Nsg1480
g0
(g581
g2
Ntp1570
Rp1571
(dp1572
g25
I00
sg31
I00
sg32
I00
sg42
I1234567
sbsg1481
g1486
sbsg1455
g0
(g693
g2
Ntp1573
Rp1574
(dp1575
g25
I00
sg31
I01
sg32
I00
sg17
(lp1576
g1480
ag1481
asg26
Nsg1480
g0
(g581
g2
Ntp1577
Rp1578
(dp1579
g25
I00
sg31
I00
sg32
I00
sg42
I123456789
sbsg1481
g1486
sbsg1456
g0
(g693
g2
Ntp1580
Rp1581
(dp1582
g25
I00
sg31
I01
sg32
I00
sg17
(lp1583
g1480
ag1481
asg26
Nsg1480
g0
(g581
g2
Ntp1584
Rp1585
(dp1586
g25
I00
sg31
I00
sg32
I00
sg42
I11
sbsg1481
g1486
sbsg1457
g0
(g693
g2
Ntp1587
Rp1588
(dp1589
g25
I00
sg31
I01
sg32
I00
sg17
(lp1590
g1480
ag1481
asg26
Nsg1480
g0
(g581
g2
Ntp1591
Rp1592
(dp1593
g25
I00
sg31
I00
sg32
I00
sg42
I918273
sbsg1481
g1522
sbsg1458
g0
(g693
g2
Ntp1594
Rp1595
(dp1596
g25
I00
sg31
I01
sg32
I00
sg17
(lp1597
g1480
ag1481
asg26
Nsg1480
g0
(g581
g2
Ntp1598
Rp1599
(dp1600
g25
I00
sg31
I00
sg32
I00
sg42
I918273
sbsg1481
g1522
sbsg1459
g0
(g693
g2
Ntp1601
Rp1602
(dp1603
g25
I00
sg31
I01
sg32
I00
sg17
(lp1604
g1480
ag1481
asg26
Nsg1480
g0
(g581
g2
Ntp1605
Rp1606
(dp1607
g25
I00
sg31
I00
sg32
I00
sg42
I918273
sbsg1481
g1522
sbsg1460
g0
(g693
g2
Ntp1608
Rp1609
(dp1610
g25
I00
sg31
I01
sg32
I00
sg17
(lp1611
g1480
ag1481
asg26
Nsg1480
g0
(g581
g2
Ntp1612
Rp1613
(dp1614
g25
I00
sg31
I00
sg32
I00
sg42
I918273
sbsg1481
g1522
sbsg1461
g0
(g693
g2
Ntp1615
Rp1616
(dp1617
g25
I00
sg31
I01
sg32
I00
sg17
(lp1618
g1480
ag1481
asg26
Nsg1480
g0
(g581
g2
Ntp1619
Rp1620
(dp1621
g25
I00
sg31
I00
sg32
I00
sg42
I13579
sbsg1481
g1522
sbsg1462
g0
(g693
g2
Ntp1622
Rp1623
(dp1624
g25
I00
sg31
I01
sg32
I00
sg17
(lp1625
g1480
ag1481
asg26
Nsg1480
g0
(g581
g2
Ntp1626
Rp1627
(dp1628
g25
I00
sg31
I00
sg32
I00
sg42
I24680
sbsg1481
g1522
sbsg1463
g0
(g693
g2
Ntp1629
Rp1630
(dp1631
g25
I00
sg31
I01
sg32
I00
sg17
(lp1632
g1480
ag1481
asg26
Nsg1480
g0
(g581
g2
Ntp1633
Rp1634
(dp1635
g25
I00
sg31
I00
sg32
I00
sg42
I654321
sbsg1481
g1522
sbsg1464
g0
(g693
g2
Ntp1636
Rp1637
(dp1638
g25
I00
sg31
I01
sg32
I00
sg17
(lp1639
g1480
ag1481
asg26
Nsg1480
g0
(g581
g2
Ntp1640
Rp1641
(dp1642
g25
I00
sg31
I00
sg32
I00
sg42
I6541321
sbsg1481
g1522
sbsg1465
g0
(g693
g2
Ntp1643
Rp1644
(dp1645
g25
I00
sg31
I01
sg32
I00
sg17
(lp1646
g1480
ag1481
asg26
Nsg1480
g0
(g581
g2
Ntp1647
Rp1648
(dp1649
g25
I00
sg31
I00
sg32
I00
sg42
I541321
sbsg1481
g1522
sbsg1466
g0
(g693
g2
Ntp1650
Rp1651
(dp1652
g25
I00
sg31
I01
sg32
I00
sg17
(lp1653
g1480
ag1481
asg26
Nsg1480
g0
(g581
g2
Ntp1654
Rp1655
(dp1656
g25
I00
sg31
I00
sg32
I00
sg42
I541321
sbsg1481
g1522
sbsg1467
g0
(g693
g2
Ntp1657
Rp1658
(dp1659
g25
I00
sg31
I01
sg32
I00
sg17
(lp1660
g1480
ag1481
asg26
Nsg1480
g0
(g581
g2
Ntp1661
Rp1662
(dp1663
g25
I00
sg31
I00
sg32
I00
sg42
I541321
sbsg1481
g1522
sbsg1468
g0
(g693
g2
Ntp1664
Rp1665
(dp1666
g25
I00
sg31
I01
sg32
I00
sg17
(lp1667
g1480
ag1481
asg26
Nsg1480
g0
(g581
g2
Ntp1668
Rp1669
(dp1670
g25
I00
sg31
I00
sg32
I00
sg42
I54525
sbsg1481
g1522
sbsg1469
g0
(g693
g2
Ntp1671
Rp1672
(dp1673
g25
I00
sg31
I01
sg32
I00
sg17
(lp1674
g1480
ag1481
asg26
Nsg1480
g0
(g581
g2
Ntp1675
Rp1676
(dp1677
g25
I00
sg31
I00
sg32
I00
sg42
I6453209
sbsg1481
g1522
sbsg1470
g0
(g693
g2
Ntp1678
Rp1679
(dp1680
g25
I00
sg31
I01
sg32
I00
sg17
(lp1681
g1480
ag1481
asg26
Nsg1480
g0
(g581
g2
Ntp1682
Rp1683
(dp1684
g25
I00
sg31
I00
sg32
I00
sg42
I987346
sbsg1481
g1522
sbsg1471
g0
(g693
g2
Ntp1685
Rp1686
(dp1687
g25
I00
sg31
I01
sg32
I00
sg17
(lp1688
g1480
ag1481
asg26
Nsg1480
g0
(g581
g2
Ntp1689
Rp1690
(dp1691
g25
I00
sg31
I00
sg32
I00
sg42
I1357987
sbsg1481
g1522
sbsg1472
g0
(g693
g2
Ntp1692
Rp1693
(dp1694
g25
I00
sg31
I01
sg32
I00
sg17
(lp1695
g1480
ag1481
asg26
Nsg1480
g0
(g581
g2
Ntp1696
Rp1697
(dp1698
g25
I00
sg31
I00
sg32
I00
sg42
I87654321
sbsg1481
g1486
sbsg1473
g0
(g693
g2
Ntp1699
Rp1700
(dp1701
g25
I00
sg31
I01
sg32
I00
sg17
(lp1702
g1480
ag1481
asg26
Nsg1480
g0
(g581
g2
Ntp1703
Rp1704
(dp1705
g25
I00
sg31
I00
sg32
I00
sg42
I137137
sbsg1481
g1486
sbsg1474
g0
(g693
g2
Ntp1706
Rp1707
(dp1708
g25
I00
sg31
I01
sg32
I00
sg17
(lp1709
g1480
ag1481
asg26
Nsg1480
g0
(g581
g2
Ntp1710
Rp1711
(dp1712
g25
I00
sg31
I00
sg32
I00
sg42
I137137
sbsg1481
g1486
sbsg1475
g0
(g121
g2
Ntp1713
Rp1714
(dp1715
g25
I00
sg31
I00
sg32
I00
sg42
g36
sbsg59
g660
sg61
I13
sg1208
I01
sbsVTFileService
p1716
g0
(g965
g2
Ntp1717
Rp1718
(dp1719
g15
g1716
sg17
(lp1720
VfileName
p1721
asg25
I00
sg26
Nsg1721
g0
(g121
g2
Ntp1722
Rp1723
(dp1724
g25
I00
sg31
I01
sg32
I00
sg42
VEff_test_nhits0_MAOD.root
p1725
sbsg32
I00
sg59
g660
sg61
I13
sg1208
I01
sbssV_Process__essources
p1726
(dp1727
Veegeom
p1728
g0
(cFWCore.ParameterSet.Modules
ESSource
p1729
g2
Ntp1730
Rp1731
(dp1732
g15
VEmptyESSource
p1733
sg17
(lp1734
VrecordName
p1735
aViovIsRunNotTime
p1736
aVfirstValid
p1737
asg25
I00
sg26
Nsg1735
g0
(g121
g2
Ntp1738
Rp1739
(dp1740
g25
I00
sg31
I01
sg32
I00
sg42
VEcalMappingRcd
p1741
sbsg32
I00
sg1736
g0
(g73
g2
Ntp1742
Rp1743
(dp1744
g25
I00
sg31
I01
sg32
I00
sg42
I01
sbsg1737
g0
(cFWCore.ParameterSet.Types
vuint32
p1745
g47
(lp1746
I1
atp1747
Rp1748
(dp1749
g25
I00
sg31
I01
sg32
I00
sbsg59
V/cvmfs/cms.cern.ch/el8_amd64_gcc11/cms/cmssw-patch/CMSSW_13_2_5_patch1/src/Geometry/EcalMapping/python/EcalMappingRecord_cfi.py
p1750
sg61
I3
sg62
g1728
sbsVHepPDTESSource
p1751
g0
(g1729
g2
Ntp1752
Rp1753
(dp1754
g15
g1751
sg17
(lp1755
VpdtFileName
p1756
asg25
I00
sg26
Nsg1756
g0
(cFWCore.ParameterSet.Types
FileInPath
p1757
g2
Ntp1758
Rp1759
(dp1760
g25
I00
sg31
I01
sg32
I00
sg42
VSimGeneral/HepPDTESSource/data/pythiaparticle.tbl
p1761
sbsg32
I00
sg59
V/cvmfs/cms.cern.ch/el8_amd64_gcc11/cms/cmssw-patch/CMSSW_13_2_5_patch1/src/SimGeneral/HepPDTESSource/python/pythiapdt_cfi.py
p1762
sg61
I3
sg62
g1751
sbsVGlobalTag
p1763
g0
(g1729
g2
Ntp1764
Rp1765
(dp1766
g15
VPoolDBESSource
p1767
sg17
(lp1768
VDBParameters
p1769
aVconnect
p1770
aVglobaltag
p1771
aVsnapshotTime
p1772
aVtoGet
p1773
aVDumpStat
p1774
aVReconnectEachRun
p1775
aVRefreshAlways
p1776
aVRefreshEachRun
p1777
aVRefreshOpenIOVs
p1778
aVpfnPostfix
p1779
aVpfnPrefix
p1780
asg25
I00
sg26
Nsg1769
g0
(g693
g2
Ntp1781
Rp1782
(dp1783
g25
I00
sg31
I01
sg32
I00
sg17
(lp1784
VauthenticationPath
p1785
aVauthenticationSystem
p1786
aVsecurity
p1787
aVmessageLevel
p1788
aVconnectionTimeout
p1789
asg26
Nsg1785
g0
(g121
g2
Ntp1790
Rp1791
(dp1792
g25
I00
sg31
I00
sg32
I00
sg42
g36
sbsg1786
g0
(g52
g2
Ntp1793
Rp1794
(dp1795
g25
I00
sg31
I00
sg32
I00
sg42
I0
sbsg1787
g0
(g121
g2
Ntp1796
Rp1797
(dp1798
g25
I00
sg31
I00
sg32
I00
sg42
g36
sbsg1788
g0
(g52
g2
Ntp1799
Rp1800
(dp1801
g25
I00
sg31
I00
sg32
I00
sg42
I0
sbsg1789
g0
(g52
g2
Ntp1802
Rp1803
(dp1804
g25
I00
sg31
I00
sg32
I00
sg42
I0
sbsbsg32
I01
sg1770
g0
(g121
g2
Ntp1805
Rp1806
(dp1807
g25
I00
sg31
I01
sg32
I00
sg42
Vfrontier://FrontierProd/CMS_CONDITIONS
p1808
sbsg1771
g0
(g121
g2
Ntp1809
Rp1810
(dp1811
g25
I00
sg31
I01
sg32
I00
sg42
V132X_mcRun3_2023_realistic_HI_v5
p1812
sbsg1772
g0
(g121
g2
Ntp1813
Rp1814
(dp1815
g25
I00
sg31
I01
sg32
I00
sg42
V9999-12-31 23:59:59.000
p1816
sbsg1773
g0
(g691
g47
(lp1817
g0
(g693
g2
Ntp1818
Rp1819
(dp1820
g25
I00
sg31
I01
sg32
I00
sg17
(lp1821
Vrecord
p1822
aVtag
p1823
ag1770
aVlabel
p1824
asg26
Nsg1822
g0
(g121
g2
Ntp1825
Rp1826
(dp1827
g25
I00
sg31
I01
sg32
I00
sg42
VHeavyIonRcd
p1828
sbsg1823
g0
(g121
g2
Ntp1829
Rp1830
(dp1831
g25
I00
sg31
I01
sg32
I00
sg42
VCentralityTable_HFtowers200_DataPbPb_periHYDJETshape_run3v1302x04_offline_Nominal
p1832
sbsg1770
g0
(g121
g2
Ntp1833
Rp1834
(dp1835
g25
I00
sg31
I01
sg32
I00
sg42
Vsqlite_file:CentralityTable_HFtowers200_DataPbPb_periHYDJETshape_run3v1302x04_offline_Nominal.db
p1836
sbsg1824
g0
(g121
g2
Ntp1837
Rp1838
(dp1839
g25
I00
sg31
I00
sg32
I00
sg42
g522
sbsbatp1840
Rp1841
(dp1842
g25
I00
sg31
I01
sg32
I00
sg451
I1
sbsg1774
g0
(g73
g2
Ntp1843
Rp1844
(dp1845
g25
I00
sg31
I00
sg32
I00
sg42
I00
sbsg1775
g0
(g73
g2
Ntp1846
Rp1847
(dp1848
g25
I00
sg31
I00
sg32
I00
sg42
I00
sbsg1776
g0
(g73
g2
Ntp1849
Rp1850
(dp1851
g25
I00
sg31
I00
sg32
I00
sg42
I00
sbsg1777
g0
(g73
g2
Ntp1852
Rp1853
(dp1854
g25
I00
sg31
I00
sg32
I00
sg42
I00
sbsg1778
g0
(g73
g2
Ntp1855
Rp1856
(dp1857
g25
I00
sg31
I00
sg32
I00
sg42
I00
sbsg1779
g0
(g121
g2
Ntp1858
Rp1859
(dp1860
g25
I00
sg31
I00
sg32
I00
sg42
g36
sbsg1780
g0
(g121
g2
Ntp1861
Rp1862
(dp1863
g25
I00
sg31
I00
sg32
I00
sg42
g36
sbsg59
V/cvmfs/cms.cern.ch/el8_amd64_gcc11/cms/cmssw-patch/CMSSW_13_2_5_patch1/src/CondCore/ESSources/python/CondDBESSource_cfi.py
p1864
sg61
I8
sg62
g1763
sbsVHcalTimeSlewEP
p1865
g0
(g1729
g2
Ntp1866
Rp1867
(dp1868
g15
g1865
sg17
(lp1869
VappendToDataLabel
p1870
aVtimeSlewParametersM2
p1871
aVtimeSlewParametersM3
p1872
asg25
I00
sg26
Nsg1870
g0
(g121
g2
Ntp1873
Rp1874
(dp1875
g25
I00
sg31
I01
sg32
I00
sg42
VHBHE
p1876
sbsg32
I00
sg1871
g0
(g691
g47
(lp1877
g0
(g693
g2
Ntp1878
Rp1879
(dp1880
g25
I00
sg31
I01
sg32
I00
sg17
(lp1881
Vtzero
p1882
aVslope
p1883
aVtmax
p1884
asg26
Nsg1882
g0
(g38
g2
Ntp1885
Rp1886
(dp1887
g25
I00
sg31
I01
sg32
I00
sg42
F23.960177
sbsg1883
g0
(g38
g2
Ntp1888
Rp1889
(dp1890
g25
I00
sg31
I01
sg32
I00
sg42
F-3.178648
sbsg1884
g0
(g38
g2
Ntp1891
Rp1892
(dp1893
g25
I00
sg31
I01
sg32
I00
sg42
F16.0
sbsbag0
(g693
g2
Ntp1894
Rp1895
(dp1896
g25
I00
sg31
I01
sg32
I00
sg17
(lp1897
g1882
ag1883
ag1884
asg26
Nsg1882
g0
(g38
g2
Ntp1898
Rp1899
(dp1900
g25
I00
sg31
I01
sg32
I00
sg42
F11.977461
sbsg1883
g0
(g38
g2
Ntp1901
Rp1902
(dp1903
g25
I00
sg31
I01
sg32
I00
sg42
F-1.5610227
sbsg1884
g0
(g38
g2
Ntp1904
Rp1905
(dp1906
g25
I00
sg31
I01
sg32
I00
sg42
F10.0
sbsbag0
(g693
g2
Ntp1907
Rp1908
(dp1909
g25
I00
sg31
I01
sg32
I00
sg17
(lp1910
g1882
ag1883
ag1884
asg26
Nsg1882
g0
(g38
g2
Ntp1911
Rp1912
(dp1913
g25
I00
sg31
I01
sg32
I00
sg42
F9.109694
sbsg1883
g0
(g38
g2
Ntp1914
Rp1915
(dp1916
g25
I00
sg31
I01
sg32
I00
sg42
F-1.075824
sbsg1884
g0
(g38
g2
Ntp1917
Rp1918
(dp1919
g25
I00
sg31
I01
sg32
I00
sg42
F6.25
sbsbatp1920
Rp1921
(dp1922
g25
I00
sg31
I01
sg32
I00
sg451
I1
sbsg1872
g0
(g691
g47
(lp1923
g0
(g693
g2
Ntp1924
Rp1925
(dp1926
g25
I00
sg31
I01
sg32
I00
sg17
(lp1927
Vcap
p1928
aVtspar0
p1929
aVtspar1
p1930
aVtspar2
p1931
aVtspar0_siPM
p1932
aVtspar1_siPM
p1933
aVtspar2_siPM
p1934
asg26
Nsg1928
g0
(g38
g2
Ntp1935
Rp1936
(dp1937
g25
I00
sg31
I01
sg32
I00
sg42
F6.0
sbsg1929
g0
(g38
g2
Ntp1938
Rp1939
(dp1940
g25
I00
sg31
I01
sg32
I00
sg42
F12.2999
sbsg1930
g0
(g38
g2
Ntp1941
Rp1942
(dp1943
g25
I00
sg31
I01
sg32
I00
sg42
F-2.19142
sbsg1931
g0
(g38
g2
Ntp1944
Rp1945
(dp1946
g25
I00
sg31
I01
sg32
I00
sg42
F0.0
sbsg1932
g0
(g38
g2
Ntp1947
Rp1948
(dp1949
g25
I00
sg31
I01
sg32
I00
sg42
F0.0
sbsg1933
g0
(g38
g2
Ntp1950
Rp1951
(dp1952
g25
I00
sg31
I01
sg32
I00
sg42
F0.0
sbsg1934
g0
(g38
g2
Ntp1953
Rp1954
(dp1955
g25
I00
sg31
I01
sg32
I00
sg42
F0.0
sbsbag0
(g693
g2
Ntp1956
Rp1957
(dp1958
g25
I00
sg31
I01
sg32
I00
sg17
(lp1959
g1928
ag1929
ag1930
ag1931
ag1932
ag1933
ag1934
asg26
Nsg1928
g0
(g38
g2
Ntp1960
Rp1961
(dp1962
g25
I00
sg31
I01
sg32
I00
sg42
F6.0
sbsg1929
g0
(g38
g2
Ntp1963
Rp1964
(dp1965
g25
I00
sg31
I01
sg32
I00
sg42
F15.5
sbsg1930
g0
(g38
g2
Ntp1966
Rp1967
(dp1968
g25
I00
sg31
I01
sg32
I00
sg42
F-3.2
sbsg1931
g0
(g38
g2
Ntp1969
Rp1970
(dp1971
g25
I00
sg31
I01
sg32
I00
sg42
F32.0
sbsg1932
g0
(g38
g2
Ntp1972
Rp1973
(dp1974
g25
I00
sg31
I01
sg32
I00
sg42
F0.0
sbsg1933
g0
(g38
g2
Ntp1975
Rp1976
(dp1977
g25
I00
sg31
I01
sg32
I00
sg42
F0.0
sbsg1934
g0
(g38
g2
Ntp1978
Rp1979
(dp1980
g25
I00
sg31
I01
sg32
I00
sg42
F0.0
sbsbag0
(g693
g2
Ntp1981
Rp1982
(dp1983
g25
I00
sg31
I01
sg32
I00
sg17
(lp1984
g1928
ag1929
ag1930
ag1931
ag1932
ag1933
ag1934
asg26
Nsg1928
g0
(g38
g2
Ntp1985
Rp1986
(dp1987
g25
I00
sg31
I01
sg32
I00
sg42
F6.0
sbsg1929
g0
(g38
g2
Ntp1988
Rp1989
(dp1990
g25
I00
sg31
I01
sg32
I00
sg42
F12.2999
sbsg1930
g0
(g38
g2
Ntp1991
Rp1992
(dp1993
g25
I00
sg31
I01
sg32
I00
sg42
F-2.19142
sbsg1931
g0
(g38
g2
Ntp1994
Rp1995
(dp1996
g25
I00
sg31
I01
sg32
I00
sg42
F0.0
sbsg1932
g0
(g38
g2
Ntp1997
Rp1998
(dp1999
g25
I00
sg31
I01
sg32
I00
sg42
F0.0
sbsg1933
g0
(g38
g2
Ntp2000
Rp2001
(dp2002
g25
I00
sg31
I01
sg32
I00
sg42
F0.0
sbsg1934
g0
(g38
g2
Ntp2003
Rp2004
(dp2005
g25
I00
sg31
I01
sg32
I00
sg42
F0.0
sbsbag0
(g693
g2
Ntp2006
Rp2007
(dp2008
g25
I00
sg31
I01
sg32
I00
sg17
(lp2009
g1928
ag1929
ag1930
ag1931
ag1932
ag1933
ag1934
asg26
Nsg1928
g0
(g38
g2
Ntp2010
Rp2011
(dp2012
g25
I00
sg31
I01
sg32
I00
sg42
F6.0
sbsg1929
g0
(g38
g2
Ntp2013
Rp2014
(dp2015
g25
I00
sg31
I01
sg32
I00
sg42
F12.2999
sbsg1930
g0
(g38
g2
Ntp2016
Rp2017
(dp2018
g25
I00
sg31
I01
sg32
I00
sg42
F-2.19142
sbsg1931
g0
(g38
g2
Ntp2019
Rp2020
(dp2021
g25
I00
sg31
I01
sg32
I00
sg42
F0.0
sbsg1932
g0
(g38
g2
Ntp2022
Rp2023
(dp2024
g25
I00
sg31
I01
sg32
I00
sg42
F0.0
sbsg1933
g0
(g38
g2
Ntp2025
Rp2026
(dp2027
g25
I00
sg31
I01
sg32
I00
sg42
F0.0
sbsg1934
g0
(g38
g2
Ntp2028
Rp2029
(dp2030
g25
I00
sg31
I01
sg32
I00
sg42
F0.0
sbsbatp2031
Rp2032
(dp2033
g25
I00
sg31
I01
sg32
I00
sg451
I1
sbsg59
V/cvmfs/cms.cern.ch/el8_amd64_gcc11/cms/cmssw-patch/CMSSW_13_2_5_patch1/src/CalibCalorimetry/HcalPlugins/python/HcalTimeSlew_cff.py
p2034
sg61
I3
sg62
g1865
sbsVes_hardcode
p2035
g0
(g1729
g2
Ntp2036
Rp2037
(dp2038
g15
VHcalHardcodeCalibrations
p2039
sg17
(lp2040
g1773
aViLumi
p2041
aVHBRecalibration
p2042
aVHBreCalibCutoff
p2043
aVHBmeanenergies
p2044
aVHERecalibration
p2045
aVHEreCalibCutoff
p2046
aVHEmeanenergies
p2047
aVHFRecalibration
p2048
aVHFRecalParameterBlock
p2049
aVGainWidthsForTrigPrims
p2050
aVuseHBUpgrade
p2051
aVuseHEUpgrade
p2052
aVuseHFUpgrade
p2053
aVuseHOUpgrade
p2054
aVtestHFQIE10
p2055
aVtestHEPlan1
p2056
aVkillHE
p2057
aVuseLayer0Weight
p2058
aVuseIeta18depth1
p2059
aVhb
p2060
aVhe
p2061
aVhf
p2062
aVho
p2063
aVhbUpgrade
p2064
aVheUpgrade
p2065
aVhfUpgrade
p2066
aVSiPMCharacteristics
p2067
asg25
I00
sg26
Nsg1773
g0
(g105
g47
(lp2068
VGainWidths
p2069
atp2070
Rp2071
(dp2072
g25
I00
sg31
I00
sg32
I00
sg451
I1
sbsg32
I00
sg2041
g0
(g38
g2
Ntp2073
Rp2074
(dp2075
g25
I00
sg31
I01
sg32
I00
sg42
F-1.0
sbsg2042
g0
(g73
g2
Ntp2076
Rp2077
(dp2078
g25
I00
sg31
I01
sg32
I00
sg42
I00
sbsg2043
g0
(g38
g2
Ntp2079
Rp2080
(dp2081
g25
I00
sg31
I01
sg32
I00
sg42
F20.0
sbsg2044
g0
(g1757
g2
Ntp2082
Rp2083
(dp2084
g25
I00
sg31
I01
sg32
I00
sg42
VCalibCalorimetry/HcalPlugins/data/meanenergiesHB.txt
p2085
sbsg2045
g0
(g73
g2
Ntp2086
Rp2087
(dp2088
g25
I00
sg31
I01
sg32
I00
sg42
I00
sbsg2046
g0
(g38
g2
Ntp2089
Rp2090
(dp2091
g25
I00
sg31
I01
sg32
I00
sg42
F20.0
sbsg2047
g0
(g1757
g2
Ntp2092
Rp2093
(dp2094
g25
I00
sg31
I01
sg32
I00
sg42
VCalibCalorimetry/HcalPlugins/data/meanenergiesHE.txt
p2095
sbsg2048
g0
(g73
g2
Ntp2096
Rp2097
(dp2098
g25
I00
sg31
I01
sg32
I00
sg42
I00
sbsg2049
g0
(g693
g2
Ntp2099
Rp2100
(dp2101
g25
I00
sg31
I01
sg32
I00
sg17
(lp2102
VHFdepthOneParameterA
p2103
aVHFdepthOneParameterB
p2104
aVHFdepthTwoParameterA
p2105
aVHFdepthTwoParameterB
p2106
asg26
Nsg2103
g0
(g46
g47
(lp2107
F0.004123
aF0.00602
aF0.008201
aF0.010489
aF0.013379
aF0.016997
aF0.021464
aF0.027371
aF0.034195
aF0.044807
aF0.058939
aF0.125497
atp2108
Rp2109
(dp2110
g25
I00
sg31
I01
sg32
I00
sbsg2104
g0
(g46
g47
(lp2111
F-4e-06
aF-2e-06
aF0.0
aF4e-06
aF1.5e-05
aF2.6e-05
aF6.3e-05
aF8.4e-05
aF0.00016
aF0.000107
aF0.000425
aF0.000209
atp2112
Rp2113
(dp2114
g25
I00
sg31
I01
sg32
I00
sbsg2105
g0
(g46
g47
(lp2115
F0.002861
aF0.004168
aF0.0064
aF0.008388
aF0.011601
aF0.014425
aF0.018633
aF0.023232
aF0.028274
aF0.035447
aF0.051579
aF0.086593
atp2116
Rp2117
(dp2118
g25
I00
sg31
I01
sg32
I00
sbsg2106
g0
(g46
g47
(lp2119
F-2e-06
aF-0.0
aF-7e-06
aF-6e-06
aF-2e-06
aF1e-06
aF1.9e-05
aF3.1e-05
aF6.7e-05
aF1.2e-05
aF0.000157
aF-3e-06
atp2120
Rp2121
(dp2122
g25
I00
sg31
I01
sg32
I00
sbsg62
g2049
sbsg2050
g0
(g73
g2
Ntp2123
Rp2124
(dp2125
g25
I00
sg31
I01
sg32
I00
sg42
I00
sbsg2051
g0
(g73
g2
Ntp2126
Rp2127
(dp2128
g25
I00
sg31
I01
sg32
I00
sg42
I00
sbsg2052
g0
(g73
g2
Ntp2129
Rp2130
(dp2131
g25
I00
sg31
I01
sg32
I00
sg42
I00
sbsg2053
g0
(g73
g2
Ntp2132
Rp2133
(dp2134
g25
I00
sg31
I01
sg32
I00
sg42
I00
sbsg2054
g0
(g73
g2
Ntp2135
Rp2136
(dp2137
g25
I00
sg31
I01
sg32
I00
sg42
I01
sbsg2055
g0
(g73
g2
Ntp2138
Rp2139
(dp2140
g25
I00
sg31
I01
sg32
I00
sg42
I00
sbsg2056
g0
(g73
g2
Ntp2141
Rp2142
(dp2143
g25
I00
sg31
I01
sg32
I00
sg42
I00
sbsg2057
g0
(g73
g2
Ntp2144
Rp2145
(dp2146
g25
I00
sg31
I01
sg32
I00
sg42
I00
sbsg2058
g0
(g73
g2
Ntp2147
Rp2148
(dp2149
g25
I00
sg31
I01
sg32
I00
sg42
I00
sbsg2059
g0
(g73
g2
Ntp2150
Rp2151
(dp2152
g25
I00
sg31
I01
sg32
I00
sg42
I01
sbsg2060
g0
(g693
g2
Ntp2153
Rp2154
(dp2155
g25
I00
sg31
I01
sg32
I00
sg17
(lp2156
Vpedestal
p2157
aVpedestalWidth
p2158
aVgain
p2159
aVgainWidth
p2160
aVzsThreshold
p2161
aVqieType
p2162
aVqieOffset
p2163
aVqieSlope
p2164
aVmcShape
p2165
aVrecoShape
p2166
aVphotoelectronsToAnalog
p2167
aVdarkCurrent
p2168
aVnoiseCorrelation
p2169
aVnoiseThreshold
p2170
aVseedThreshold
p2171
aVdoRadiationDamage
p2172
asg26
Nsg2157
g0
(g38
g2
Ntp2173
Rp2174
(dp2175
g25
I00
sg31
I01
sg32
I00
sg42
F3.285
sbsg2158
g0
(g38
g2
Ntp2176
Rp2177
(dp2178
g25
I00
sg31
I01
sg32
I00
sg42
F0.809
sbsg2159
g0
(g46
g47
(lp2179
F0.19
atp2180
Rp2181
(dp2182
g25
I00
sg31
I01
sg32
I00
sbsg2160
g0
(g46
g47
(lp2183
F0.0
atp2184
Rp2185
(dp2186
g25
I00
sg31
I01
sg32
I00
sbsg2161
g0
(g52
g2
Ntp2187
Rp2188
(dp2189
g25
I00
sg31
I01
sg32
I00
sg42
I8
sbsg2162
g0
(g52
g2
Ntp2190
Rp2191
(dp2192
g25
I00
sg31
I01
sg32
I00
sg42
I0
sbsg2163
g0
(g46
g47
(lp2193
F-0.49
aF1.8
aF7.2
aF37.9
atp2194
Rp2195
(dp2196
g25
I00
sg31
I01
sg32
I00
sbsg2164
g0
(g46
g47
(lp2197
F0.912
aF0.917
aF0.922
aF0.923
atp2198
Rp2199
(dp2200
g25
I00
sg31
I01
sg32
I00
sbsg2165
g0
(g52
g2
Ntp2201
Rp2202
(dp2203
g25
I00
sg31
I01
sg32
I00
sg42
I125
sbsg2166
g0
(g52
g2
Ntp2204
Rp2205
(dp2206
g25
I00
sg31
I01
sg32
I00
sg42
I105
sbsg2167
g0
(g38
g2
Ntp2207
Rp2208
(dp2209
g25
I00
sg31
I01
sg32
I00
sg42
F0.3305
sbsg2168
g0
(g46
g47
(lp2210
F0.0
atp2211
Rp2212
(dp2213
g25
I00
sg31
I01
sg32
I00
sbsg2169
g0
(g46
g47
(lp2214
F0.0
atp2215
Rp2216
(dp2217
g25
I00
sg31
I01
sg32
I00
sbsg2170
g0
(g38
g2
Ntp2218
Rp2219
(dp2220
g25
I00
sg31
I01
sg32
I00
sg42
F0.0
sbsg2171
g0
(g38
g2
Ntp2221
Rp2222
(dp2223
g25
I00
sg31
I01
sg32
I00
sg42
F0.1
sbsg2172
g0
(g73
g2
Ntp2224
Rp2225
(dp2226
g25
I00
sg31
I01
sg32
I00
sg42
I00
sbsbsg2061
g0
(g693
g2
Ntp2227
Rp2228
(dp2229
g25
I00
sg31
I01
sg32
I00
sg17
(lp2230
g2157
ag2158
ag2159
ag2160
ag2161
ag2162
ag2163
ag2164
ag2165
ag2166
ag2167
ag2168
ag2169
ag2170
ag2171
ag2172
asg26
Nsg2157
g0
(g38
g2
Ntp2231
Rp2232
(dp2233
g25
I00
sg31
I01
sg32
I00
sg42
F3.163
sbsg2158
g0
(g38
g2
Ntp2234
Rp2235
(dp2236
g25
I00
sg31
I01
sg32
I00
sg42
F0.9698
sbsg2159
g0
(g46
g47
(lp2237
F0.23
atp2238
Rp2239
(dp2240
g25
I00
sg31
I01
sg32
I00
sbsg2160
g0
(g46
g47
(lp2241
I0
atp2242
Rp2243
(dp2244
g25
I00
sg31
I01
sg32
I00
sbsg2161
g0
(g52
g2
Ntp2245
Rp2246
(dp2247
g25
I00
sg31
I01
sg32
I00
sg42
I9
sbsg2162
g0
(g52
g2
Ntp2248
Rp2249
(dp2250
g25
I00
sg31
I01
sg32
I00
sg42
I0
sbsg2163
g0
(g46
g47
(lp2251
F-0.38
aF2.0
aF7.6
aF39.6
atp2252
Rp2253
(dp2254
g25
I00
sg31
I01
sg32
I00
sbsg2164
g0
(g46
g47
(lp2255
F0.912
aF0.916
aF0.92
aF0.922
atp2256
Rp2257
(dp2258
g25
I00
sg31
I01
sg32
I00
sbsg2165
g0
(g52
g2
Ntp2259
Rp2260
(dp2261
g25
I00
sg31
I01
sg32
I00
sg42
I125
sbsg2166
g0
(g52
g2
Ntp2262
Rp2263
(dp2264
g25
I00
sg31
I01
sg32
I00
sg42
I105
sbsg2167
g0
(g38
g2
Ntp2265
Rp2266
(dp2267
g25
I00
sg31
I01
sg32
I00
sg42
F0.3305
sbsg2168
g0
(g46
g47
(lp2268
F0.0
atp2269
Rp2270
(dp2271
g25
I00
sg31
I01
sg32
I00
sbsg2169
g0
(g46
g47
(lp2272
F0.0
atp2273
Rp2274
(dp2275
g25
I00
sg31
I01
sg32
I00
sbsg2170
g0
(g38
g2
Ntp2276
Rp2277
(dp2278
g25
I00
sg31
I01
sg32
I00
sg42
F0.0
sbsg2171
g0
(g38
g2
Ntp2279
Rp2280
(dp2281
g25
I00
sg31
I01
sg32
I00
sg42
F0.1
sbsg2172
g0
(g73
g2
Ntp2282
Rp2283
(dp2284
g25
I00
sg31
I01
sg32
I00
sg42
I00
sbsbsg2062
g0
(g693
g2
Ntp2285
Rp2286
(dp2287
g25
I00
sg31
I01
sg32
I00
sg17
(lp2288
g2157
ag2158
ag2159
ag2160
ag2161
ag2162
ag2163
ag2164
ag2165
ag2166
ag2167
ag2168
ag2169
ag2170
ag2171
ag2172
asg26
Nsg2157
g0
(g38
g2
Ntp2289
Rp2290
(dp2291
g25
I00
sg31
I01
sg32
I00
sg42
F9.354
sbsg2158
g0
(g38
g2
Ntp2292
Rp2293
(dp2294
g25
I00
sg31
I01
sg32
I00
sg42
F2.516
sbsg2159
g0
(g46
g47
(lp2295
F0.14
aF0.135
atp2296
Rp2297
(dp2298
g25
I00
sg31
I01
sg32
I00
sbsg2160
g0
(g46
g47
(lp2299
F0.0
aF0.0
atp2300
Rp2301
(dp2302
g25
I00
sg31
I01
sg32
I00
sbsg2161
g0
(g52
g2
Ntp2303
Rp2304
(dp2305
g25
I00
sg31
I01
sg32
I00
sg42
I-9999
sbsg2162
g0
(g52
g2
Ntp2306
Rp2307
(dp2308
g25
I00
sg31
I01
sg32
I00
sg42
I0
sbsg2163
g0
(g46
g47
(lp2309
F-0.87
aF1.4
aF7.8
aF-29.6
atp2310
Rp2311
(dp2312
g25
I00
sg31
I01
sg32
I00
sbsg2164
g0
(g46
g47
(lp2313
F0.359
aF0.358
aF0.36
aF0.367
atp2314
Rp2315
(dp2316
g25
I00
sg31
I01
sg32
I00
sbsg2165
g0
(g52
g2
Ntp2317
Rp2318
(dp2319
g25
I00
sg31
I01
sg32
I00
sg42
I301
sbsg2166
g0
(g52
g2
Ntp2320
Rp2321
(dp2322
g25
I00
sg31
I01
sg32
I00
sg42
I301
sbsg2167
g0
(g38
g2
Ntp2323
Rp2324
(dp2325
g25
I00
sg31
I01
sg32
I00
sg42
F0.0
sbsg2168
g0
(g46
g47
(lp2326
F0.0
atp2327
Rp2328
(dp2329
g25
I00
sg31
I01
sg32
I00
sbsg2169
g0
(g46
g47
(lp2330
F0.0
atp2331
Rp2332
(dp2333
g25
I00
sg31
I01
sg32
I00
sbsg2170
g0
(g38
g2
Ntp2334
Rp2335
(dp2336
g25
I00
sg31
I01
sg32
I00
sg42
F0.0
sbsg2171
g0
(g38
g2
Ntp2337
Rp2338
(dp2339
g25
I00
sg31
I01
sg32
I00
sg42
F0.1
sbsg2172
g0
(g73
g2
Ntp2340
Rp2341
(dp2342
g25
I00
sg31
I01
sg32
I00
sg42
I00
sbsbsg2063
g0
(g693
g2
Ntp2343
Rp2344
(dp2345
g25
I00
sg31
I01
sg32
I00
sg17
(lp2346
g2157
ag2158
ag2159
ag2160
ag2161
ag2162
ag2163
ag2164
ag2165
ag2166
ag2167
ag2168
ag2169
ag2170
ag2171
ag2172
asg26
Nsg2157
g0
(g38
g2
Ntp2347
Rp2348
(dp2349
g25
I00
sg31
I01
sg32
I00
sg42
F12.06
sbsg2158
g0
(g38
g2
Ntp2350
Rp2351
(dp2352
g25
I00
sg31
I01
sg32
I00
sg42
F0.6285
sbsg2159
g0
(g46
g47
(lp2353
F0.006
aF0.0087
atp2354
Rp2355
(dp2356
g25
I00
sg31
I01
sg32
I00
sbsg2160
g0
(g46
g47
(lp2357
F0.0
aF0.0
atp2358
Rp2359
(dp2360
g25
I00
sg31
I01
sg32
I00
sbsg2161
g0
(g52
g2
Ntp2361
Rp2362
(dp2363
g25
I00
sg31
I01
sg32
I00
sg42
I24
sbsg2162
g0
(g52
g2
Ntp2364
Rp2365
(dp2366
g25
I00
sg31
I01
sg32
I00
sg42
I0
sbsg2163
g0
(g46
g47
(lp2367
F-0.44
aF1.4
aF7.1
aF38.5
atp2368
Rp2369
(dp2370
g25
I00
sg31
I01
sg32
I00
sbsg2164
g0
(g46
g47
(lp2371
F0.907
aF0.915
aF0.92
aF0.921
atp2372
Rp2373
(dp2374
g25
I00
sg31
I01
sg32
I00
sbsg2165
g0
(g52
g2
Ntp2375
Rp2376
(dp2377
g25
I00
sg31
I01
sg32
I00
sg42
I201
sbsg2166
g0
(g52
g2
Ntp2378
Rp2379
(dp2380
g25
I00
sg31
I01
sg32
I00
sg42
I201
sbsg2167
g0
(g38
g2
Ntp2381
Rp2382
(dp2383
g25
I00
sg31
I01
sg32
I00
sg42
F4.0
sbsg2168
g0
(g46
g47
(lp2384
F0.0
atp2385
Rp2386
(dp2387
g25
I00
sg31
I01
sg32
I00
sbsg2169
g0
(g46
g47
(lp2388
F0.0
atp2389
Rp2390
(dp2391
g25
I00
sg31
I01
sg32
I00
sbsg2170
g0
(g38
g2
Ntp2392
Rp2393
(dp2394
g25
I00
sg31
I01
sg32
I00
sg42
F0.0
sbsg2171
g0
(g38
g2
Ntp2395
Rp2396
(dp2397
g25
I00
sg31
I01
sg32
I00
sg42
F0.1
sbsg2172
g0
(g73
g2
Ntp2398
Rp2399
(dp2400
g25
I00
sg31
I01
sg32
I00
sg42
I00
sbsbsg2064
g0
(g693
g2
Ntp2401
Rp2402
(dp2403
g25
I00
sg31
I01
sg32
I00
sg17
(lp2404
g2157
ag2158
ag2159
ag2160
ag2161
ag2162
ag2163
ag2164
ag2165
ag2166
ag2167
ag2168
ag2169
ag2170
ag2171
ag2172
aVradiationDamage
p2405
asg26
Nsg2157
g0
(g38
g2
Ntp2406
Rp2407
(dp2408
g25
I00
sg31
I01
sg32
I00
sg42
F17.3
sbsg2158
g0
(g38
g2
Ntp2409
Rp2410
(dp2411
g25
I00
sg31
I01
sg32
I00
sg42
F1.5
sbsg2159
g0
(g46
g47
(lp2412
F0.0006252
atp2413
Rp2414
(dp2415
g25
I00
sg31
I01
sg32
I00
sbsg2160
g0
(g46
g47
(lp2416
I0
atp2417
Rp2418
(dp2419
g25
I00
sg31
I01
sg32
I00
sbsg2161
g0
(g52
g2
Ntp2420
Rp2421
(dp2422
g25
I00
sg31
I01
sg32
I00
sg42
I16
sbsg2162
g0
(g52
g2
Ntp2423
Rp2424
(dp2425
g25
I00
sg31
I01
sg32
I00
sg42
I2
sbsg2163
g0
(g46
g47
(lp2426
F0.0
aF0.0
aF0.0
aF0.0
atp2427
Rp2428
(dp2429
g25
I00
sg31
I01
sg32
I00
sbsg2164
g0
(g46
g47
(lp2430
F0.05376
aF0.05376
aF0.05376
aF0.05376
atp2431
Rp2432
(dp2433
g25
I00
sg31
I01
sg32
I00
sbsg2165
g0
(g52
g2
Ntp2434
Rp2435
(dp2436
g25
I00
sg31
I01
sg32
I00
sg42
I206
sbsg2166
g0
(g52
g2
Ntp2437
Rp2438
(dp2439
g25
I00
sg31
I01
sg32
I00
sg42
I208
sbsg2167
g0
(g38
g2
Ntp2440
Rp2441
(dp2442
g25
I00
sg31
I01
sg32
I00
sg42
F40.0
sbsg2168
g0
(g46
g47
(lp2443
F0.01
aF0.015
atp2444
Rp2445
(dp2446
g25
I00
sg31
I01
sg32
I00
sbsg2169
g0
(g46
g47
(lp2447
F0.26
aF0.254
atp2448
Rp2449
(dp2450
g25
I00
sg31
I01
sg32
I00
sbsg2170
g0
(g38
g2
Ntp2451
Rp2452
(dp2453
g25
I00
sg31
I01
sg32
I00
sg42
F0.0
sbsg2171
g0
(g38
g2
Ntp2454
Rp2455
(dp2456
g25
I00
sg31
I01
sg32
I00
sg42
F0.1
sbsg2172
g0
(g73
g2
Ntp2457
Rp2458
(dp2459
g25
I00
sg31
I01
sg32
I00
sg42
I01
sbsg2405
g0
(g693
g2
Ntp2460
Rp2461
(dp2462
g25
I00
sg31
I01
sg32
I00
sg17
(lp2463
VtemperatureBase
p2464
aVtemperatureNew
p2465
aVintlumiOffset
p2466
aVdepVsTemp
p2467
aVintlumiToNeutrons
p2468
aVdepVsNeutrons
p2469
asg26
Nsg2464
g0
(g38
g2
Ntp2470
Rp2471
(dp2472
g25
I00
sg31
I01
sg32
I00
sg42
I20
sbsg2465
g0
(g38
g2
Ntp2473
Rp2474
(dp2475
g25
I00
sg31
I01
sg32
I00
sg42
I-5
sbsg2466
g0
(g38
g2
Ntp2476
Rp2477
(dp2478
g25
I00
sg31
I01
sg32
I00
sg42
I150
sbsg2467
g0
(g38
g2
Ntp2479
Rp2480
(dp2481
g25
I00
sg31
I01
sg32
I00
sg42
F0.0631
sbsg2468
g0
(g38
g2
Ntp2482
Rp2483
(dp2484
g25
I00
sg31
I01
sg32
I00
sg42
F367000000.0
sbsg2469
g0
(g46
g47
(lp2485
F5.543e-10
aF8.012e-10
atp2486
Rp2487
(dp2488
g25
I00
sg31
I01
sg32
I00
sbsbsbsg2065
g0
(g693
g2
Ntp2489
Rp2490
(dp2491
g25
I00
sg31
I01
sg32
I00
sg17
(lp2492
g2157
ag2158
ag2159
ag2160
ag2161
ag2162
ag2163
ag2164
ag2165
ag2166
ag2167
ag2168
ag2169
ag2170
ag2171
ag2172
ag2405
asg26
Nsg2157
g0
(g38
g2
Ntp2493
Rp2494
(dp2495
g25
I00
sg31
I01
sg32
I00
sg42
F17.3
sbsg2158
g0
(g38
g2
Ntp2496
Rp2497
(dp2498
g25
I00
sg31
I01
sg32
I00
sg42
F1.5
sbsg2159
g0
(g46
g47
(lp2499
F0.0006252
atp2500
Rp2501
(dp2502
g25
I00
sg31
I01
sg32
I00
sbsg2160
g0
(g46
g47
(lp2503
I0
atp2504
Rp2505
(dp2506
g25
I00
sg31
I01
sg32
I00
sbsg2161
g0
(g52
g2
Ntp2507
Rp2508
(dp2509
g25
I00
sg31
I01
sg32
I00
sg42
I16
sbsg2162
g0
(g52
g2
Ntp2510
Rp2511
(dp2512
g25
I00
sg31
I01
sg32
I00
sg42
I2
sbsg2163
g0
(g46
g47
(lp2513
F0.0
aF0.0
aF0.0
aF0.0
atp2514
Rp2515
(dp2516
g25
I00
sg31
I01
sg32
I00
sbsg2164
g0
(g46
g47
(lp2517
F0.05376
aF0.05376
aF0.05376
aF0.05376
atp2518
Rp2519
(dp2520
g25
I00
sg31
I01
sg32
I00
sbsg2165
g0
(g52
g2
Ntp2521
Rp2522
(dp2523
g25
I00
sg31
I01
sg32
I00
sg42
I206
sbsg2166
g0
(g52
g2
Ntp2524
Rp2525
(dp2526
g25
I00
sg31
I01
sg32
I00
sg42
I208
sbsg2167
g0
(g38
g2
Ntp2527
Rp2528
(dp2529
g25
I00
sg31
I01
sg32
I00
sg42
F40.0
sbsg2168
g0
(g46
g47
(lp2530
F0.01
aF0.015
atp2531
Rp2532
(dp2533
g25
I00
sg31
I01
sg32
I00
sbsg2169
g0
(g46
g47
(lp2534
F0.26
aF0.254
atp2535
Rp2536
(dp2537
g25
I00
sg31
I01
sg32
I00
sbsg2170
g0
(g38
g2
Ntp2538
Rp2539
(dp2540
g25
I00
sg31
I01
sg32
I00
sg42
F0.0
sbsg2171
g0
(g38
g2
Ntp2541
Rp2542
(dp2543
g25
I00
sg31
I01
sg32
I00
sg42
F0.1
sbsg2172
g0
(g73
g2
Ntp2544
Rp2545
(dp2546
g25
I00
sg31
I01
sg32
I00
sg42
I01
sbsg2405
g0
(g693
g2
Ntp2547
Rp2548
(dp2549
g25
I00
sg31
I01
sg32
I00
sg17
(lp2550
g2464
ag2465
ag2466
ag2467
ag2468
ag2469
asg26
Nsg2464
g0
(g38
g2
Ntp2551
Rp2552
(dp2553
g25
I00
sg31
I01
sg32
I00
sg42
I20
sbsg2465
g0
(g38
g2
Ntp2554
Rp2555
(dp2556
g25
I00
sg31
I01
sg32
I00
sg42
I5
sbsg2466
g0
(g38
g2
Ntp2557
Rp2558
(dp2559
g25
I00
sg31
I01
sg32
I00
sg42
I75
sbsg2467
g0
(g38
g2
Ntp2560
Rp2561
(dp2562
g25
I00
sg31
I01
sg32
I00
sg42
F0.0631
sbsg2468
g0
(g38
g2
Ntp2563
Rp2564
(dp2565
g25
I00
sg31
I01
sg32
I00
sg42
F29200000.0
sbsg2469
g0
(g46
g47
(lp2566
F5.543e-10
aF8.012e-10
atp2567
Rp2568
(dp2569
g25
I00
sg31
I01
sg32
I00
sbsbsbsg2066
g0
(g693
g2
Ntp2570
Rp2571
(dp2572
g25
I00
sg31
I01
sg32
I00
sg17
(lp2573
g2157
ag2158
ag2159
ag2160
ag2161
ag2162
ag2163
ag2164
ag2165
ag2166
ag2167
ag2168
ag2169
ag2170
ag2171
ag2172
asg26
Nsg2157
g0
(g38
g2
Ntp2574
Rp2575
(dp2576
g25
I00
sg31
I01
sg32
I00
sg42
F13.33
sbsg2158
g0
(g38
g2
Ntp2577
Rp2578
(dp2579
g25
I00
sg31
I01
sg32
I00
sg42
F3.33
sbsg2159
g0
(g46
g47
(lp2580
F0.14
aF0.135
atp2581
Rp2582
(dp2583
g25
I00
sg31
I01
sg32
I00
sbsg2160
g0
(g46
g47
(lp2584
F0.0
aF0.0
atp2585
Rp2586
(dp2587
g25
I00
sg31
I01
sg32
I00
sbsg2161
g0
(g52
g2
Ntp2588
Rp2589
(dp2590
g25
I00
sg31
I01
sg32
I00
sg42
I-9999
sbsg2162
g0
(g52
g2
Ntp2591
Rp2592
(dp2593
g25
I00
sg31
I01
sg32
I00
sg42
I1
sbsg2163
g0
(g46
g47
(lp2594
F0.0697
aF-0.7405
aF12.38
aF-671.9
atp2595
Rp2596
(dp2597
g25
I00
sg31
I01
sg32
I00
sbsg2164
g0
(g46
g47
(lp2598
F0.297
aF0.298
aF0.298
aF0.313
atp2599
Rp2600
(dp2601
g25
I00
sg31
I01
sg32
I00
sbsg2165
g0
(g52
g2
Ntp2602
Rp2603
(dp2604
g25
I00
sg31
I01
sg32
I00
sg42
I301
sbsg2166
g0
(g52
g2
Ntp2605
Rp2606
(dp2607
g25
I00
sg31
I01
sg32
I00
sg42
I301
sbsg2167
g0
(g38
g2
Ntp2608
Rp2609
(dp2610
g25
I00
sg31
I01
sg32
I00
sg42
F0.0
sbsg2168
g0
(g46
g47
(lp2611
F0.0
atp2612
Rp2613
(dp2614
g25
I00
sg31
I01
sg32
I00
sbsg2169
g0
(g46
g47
(lp2615
F0.0
atp2616
Rp2617
(dp2618
g25
I00
sg31
I01
sg32
I00
sbsg2170
g0
(g38
g2
Ntp2619
Rp2620
(dp2621
g25
I00
sg31
I01
sg32
I00
sg42
F0.0
sbsg2171
g0
(g38
g2
Ntp2622
Rp2623
(dp2624
g25
I00
sg31
I01
sg32
I00
sg42
F0.1
sbsg2172
g0
(g73
g2
Ntp2625
Rp2626
(dp2627
g25
I00
sg31
I01
sg32
I00
sg42
I00
sbsbsg2067
g0
(g691
g47
(lp2628
g0
(g693
g2
Ntp2629
Rp2630
(dp2631
g25
I00
sg31
I01
sg32
I00
sg17
(lp2632
Vpixels
p2633
aVcrosstalk
p2634
aVnonlin1
p2635
aVnonlin2
p2636
aVnonlin3
p2637
asg26
Nsg2633
g0
(g52
g2
Ntp2638
Rp2639
(dp2640
g25
I00
sg31
I01
sg32
I00
sg42
I36000
sbsg2634
g0
(g38
g2
Ntp2641
Rp2642
(dp2643
g25
I00
sg31
I01
sg32
I00
sg42
F0.0
sbsg2635
g0
(g38
g2
Ntp2644
Rp2645
(dp2646
g25
I00
sg31
I01
sg32
I00
sg42
F1.0
sbsg2636
g0
(g38
g2
Ntp2647
Rp2648
(dp2649
g25
I00
sg31
I01
sg32
I00
sg42
F0.0
sbsg2637
g0
(g38
g2
Ntp2650
Rp2651
(dp2652
g25
I00
sg31
I01
sg32
I00
sg42
F0.0
sbsbag0
(g693
g2
Ntp2653
Rp2654
(dp2655
g25
I00
sg31
I01
sg32
I00
sg17
(lp2656
g2633
ag2634
ag2635
ag2636
ag2637
asg26
Nsg2633
g0
(g52
g2
Ntp2657
Rp2658
(dp2659
g25
I00
sg31
I01
sg32
I00
sg42
I2500
sbsg2634
g0
(g38
g2
Ntp2660
Rp2661
(dp2662
g25
I00
sg31
I01
sg32
I00
sg42
F0.0
sbsg2635
g0
(g38
g2
Ntp2663
Rp2664
(dp2665
g25
I00
sg31
I01
sg32
I00
sg42
F1.0
sbsg2636
g0
(g38
g2
Ntp2666
Rp2667
(dp2668
g25
I00
sg31
I01
sg32
I00
sg42
F0.0
sbsg2637
g0
(g38
g2
Ntp2669
Rp2670
(dp2671
g25
I00
sg31
I01
sg32
I00
sg42
F0.0
sbsbag0
(g693
g2
Ntp2672
Rp2673
(dp2674
g25
I00
sg31
I01
sg32
I00
sg17
(lp2675
g2633
ag2634
ag2635
ag2636
ag2637
asg26
Nsg2633
g0
(g52
g2
Ntp2676
Rp2677
(dp2678
g25
I00
sg31
I01
sg32
I00
sg42
I27370
sbsg2634
g0
(g38
g2
Ntp2679
Rp2680
(dp2681
g25
I00
sg31
I01
sg32
I00
sg42
F0.17
sbsg2635
g0
(g38
g2
Ntp2682
Rp2683
(dp2684
g25
I00
sg31
I01
sg32
I00
sg42
F1.00985
sbsg2636
g0
(g38
g2
Ntp2685
Rp2686
(dp2687
g25
I00
sg31
I01
sg32
I00
sg42
F7.84089e-06
sbsg2637
g0
(g38
g2
Ntp2688
Rp2689
(dp2690
g25
I00
sg31
I01
sg32
I00
sg42
F2.86282e-10
sbsbag0
(g693
g2
Ntp2691
Rp2692
(dp2693
g25
I00
sg31
I01
sg32
I00
sg17
(lp2694
g2633
ag2634
ag2635
ag2636
ag2637
asg26
Nsg2633
g0
(g52
g2
Ntp2695
Rp2696
(dp2697
g25
I00
sg31
I01
sg32
I00
sg42
I38018
sbsg2634
g0
(g38
g2
Ntp2698
Rp2699
(dp2700
g25
I00
sg31
I01
sg32
I00
sg42
F0.196
sbsg2635
g0
(g38
g2
Ntp2701
Rp2702
(dp2703
g25
I00
sg31
I01
sg32
I00
sg42
F1.00546
sbsg2636
g0
(g38
g2
Ntp2704
Rp2705
(dp2706
g25
I00
sg31
I01
sg32
I00
sg42
F6.40239e-06
sbsg2637
g0
(g38
g2
Ntp2707
Rp2708
(dp2709
g25
I00
sg31
I01
sg32
I00
sg42
F1.27011e-10
sbsbag0
(g693
g2
Ntp2710
Rp2711
(dp2712
g25
I00
sg31
I01
sg32
I00
sg17
(lp2713
g2633
ag2634
ag2635
ag2636
ag2637
asg26
Nsg2633
g0
(g52
g2
Ntp2714
Rp2715
(dp2716
g25
I00
sg31
I01
sg32
I00
sg42
I27370
sbsg2634
g0
(g38
g2
Ntp2717
Rp2718
(dp2719
g25
I00
sg31
I01
sg32
I00
sg42
F0.17
sbsg2635
g0
(g38
g2
Ntp2720
Rp2721
(dp2722
g25
I00
sg31
I01
sg32
I00
sg42
F1.00985
sbsg2636
g0
(g38
g2
Ntp2723
Rp2724
(dp2725
g25
I00
sg31
I01
sg32
I00
sg42
F7.84089e-06
sbsg2637
g0
(g38
g2
Ntp2726
Rp2727
(dp2728
g25
I00
sg31
I01
sg32
I00
sg42
F2.86282e-10
sbsbag0
(g693
g2
Ntp2729
Rp2730
(dp2731
g25
I00
sg31
I01
sg32
I00
sg17
(lp2732
g2633
ag2634
ag2635
ag2636
ag2637
asg26
Nsg2633
g0
(g52
g2
Ntp2733
Rp2734
(dp2735
g25
I00
sg31
I01
sg32
I00
sg42
I38018
sbsg2634
g0
(g38
g2
Ntp2736
Rp2737
(dp2738
g25
I00
sg31
I01
sg32
I00
sg42
F0.196
sbsg2635
g0
(g38
g2
Ntp2739
Rp2740
(dp2741
g25
I00
sg31
I01
sg32
I00
sg42
F1.00546
sbsg2636
g0
(g38
g2
Ntp2742
Rp2743
(dp2744
g25
I00
sg31
I01
sg32
I00
sg42
F6.40239e-06
sbsg2637
g0
(g38
g2
Ntp2745
Rp2746
(dp2747
g25
I00
sg31
I01
sg32
I00
sg42
F1.27011e-10
sbsbag0
(g693
g2
Ntp2748
Rp2749
(dp2750
g25
I00
sg31
I01
sg32
I00
sg17
(lp2751
g2633
ag2634
ag2635
ag2636
ag2637
asg26
Nsg2633
g0
(g52
g2
Ntp2752
Rp2753
(dp2754
g25
I00
sg31
I01
sg32
I00
sg42
I0
sbsg2634
g0
(g38
g2
Ntp2755
Rp2756
(dp2757
g25
I00
sg31
I01
sg32
I00
sg42
F0.0
sbsg2635
g0
(g38
g2
Ntp2758
Rp2759
(dp2760
g25
I00
sg31
I01
sg32
I00
sg42
F1.0
sbsg2636
g0
(g38
g2
Ntp2761
Rp2762
(dp2763
g25
I00
sg31
I01
sg32
I00
sg42
F0.0
sbsg2637
g0
(g38
g2
Ntp2764
Rp2765
(dp2766
g25
I00
sg31
I01
sg32
I00
sg42
F0.0
sbsbatp2767
Rp2768
(dp2769
g25
I00
sg31
I01
sg32
I00
sg451
I1
sbsg59
V/cvmfs/cms.cern.ch/el8_amd64_gcc11/cms/cmssw-patch/CMSSW_13_2_5_patch1/src/CalibCalorimetry/HcalPlugins/python/Hcal_Conditions_forGlobalTag_cff.py
p2770
sg61
I16
sg62
g2035
sbssV_Process__esproducers
p2771
(dp2772
VCSCGeometryESModule
p2773
g0
(cFWCore.ParameterSet.Modules
ESProducer
p2774
g2
Ntp2775
Rp2776
(dp2777
g15
g2773
sg17
(lp2778
VfromDDD
p2779
aVfromDD4hep
p2780
aValignmentsLabel
p2781
ag1870
aVuseRealWireGeometry
p2782
aVuseOnlyWiresInME1a
p2783
aVuseGangedStripsInME1a
p2784
aVuseCentreTIOffsets
p2785
aVapplyAlignment
p2786
aVdebugV
p2787
asg25
I00
sg26
Nsg2779
g0
(g73
g2
Ntp2788
Rp2789
(dp2790
g25
I00
sg31
I01
sg32
I00
sg42
I00
sbsg32
I00
sg2780
g0
(g73
g2
Ntp2791
Rp2792
(dp2793
g25
I00
sg31
I01
sg32
I00
sg42
I00
sbsg2781
g0
(g121
g2
Ntp2794
Rp2795
(dp2796
g25
I00
sg31
I01
sg32
I00
sg42
g36
sbsg1870
g0
(g121
g2
Ntp2797
Rp2798
(dp2799
g25
I00
sg31
I01
sg32
I00
sg42
g36
sbsg2782
g0
(g73
g2
Ntp2800
Rp2801
(dp2802
g25
I00
sg31
I01
sg32
I00
sg42
I01
sbsg2783
g0
(g73
g2
Ntp2803
Rp2804
(dp2805
g25
I00
sg31
I01
sg32
I00
sg42
I00
sbsg2784
g0
(g73
g2
Ntp2806
Rp2807
(dp2808
g25
I00
sg31
I01
sg32
I00
sg42
I01
sbsg2785
g0
(g73
g2
Ntp2809
Rp2810
(dp2811
g25
I00
sg31
I01
sg32
I00
sg42
I00
sbsg2786
g0
(g73
g2
Ntp2812
Rp2813
(dp2814
g25
I00
sg31
I01
sg32
I00
sg42
I01
sbsg2787
g0
(g73
g2
Ntp2815
Rp2816
(dp2817
g25
I00
sg31
I00
sg32
I00
sg42
I00
sbsg59
g660
sg61
I55
sg62
g2773
sbsVCaloGeometryBuilder
p2818
g0
(g2774
g2
Ntp2819
Rp2820
(dp2821
g15
g2818
sg17
(lp2822
VSelectedCalos
p2823
asg25
I00
sg26
Nsg2823
g0
(g105
g47
(lp2824
VHCAL
p2825
aVZDC
p2826
aVCASTOR
p2827
aVEcalBarrel
p2828
aVEcalEndcap
p2829
aVEcalPreshower
p2830
aVTOWER
p2831
atp2832
Rp2833
(dp2834
g25
I00
sg31
I01
sg32
I00
sg451
I1
sbsg32
I00
sg59
g660
sg61
I55
sg62
g2818
sbsVCaloTopologyBuilder
p2835
g0
(g2774
g2
Ntp2836
Rp2837
(dp2838
g15
g2835
sg17
(lp2839
sg25
I00
sg26
Nsg32
I00
sg59
g660
sg61
I55
sg62
g2835
sbsVCaloTowerGeometryFromDBEP
p2840
g0
(g2774
g2
Ntp2841
Rp2842
(dp2843
g15
g2840
sg17
(lp2844
g2786
asg25
I00
sg26
Nsg2786
g0
(g73
g2
Ntp2845
Rp2846
(dp2847
g25
I00
sg31
I01
sg32
I00
sg42
I00
sbsg32
I00
sg59
g660
sg61
I55
sg62
g2840
sbsVCaloTowerTopologyEP
p2848
g0
(g2774
g2
Ntp2849
Rp2850
(dp2851
g15
g2848
sg17
(lp2852
sg25
I00
sg26
Nsg32
I00
sg59
g660
sg61
I55
sg62
g2848
sbsVCastorGeometryFromDBEP
p2853
g0
(g2774
g2
Ntp2854
Rp2855
(dp2856
g15
g2853
sg17
(lp2857
g2786
asg25
I00
sg26
Nsg2786
g0
(g73
g2
Ntp2858
Rp2859
(dp2860
g25
I00
sg31
I01
sg32
I00
sg42
I00
sbsg32
I00
sg59
g660
sg61
I55
sg62
g2853
sbsVDTGeometryESModule
p2861
g0
(g2774
g2
Ntp2862
Rp2863
(dp2864
g15
g2861
sg17
(lp2865
g2779
ag2780
aVDDDetector
p2866
ag2781
ag1870
aVattribute
p2867
aVvalue
p2868
ag2786
asg25
I00
sg26
Nsg2779
g0
(g73
g2
Ntp2869
Rp2870
(dp2871
g25
I00
sg31
I01
sg32
I01
sg42
I00
sbsg32
I01
sg2780
g0
(g73
g2
Ntp2872
Rp2873
(dp2874
g25
I00
sg31
I01
sg32
I00
sg42
I00
sbsg2866
g0
(cFWCore.ParameterSet.Types
ESInputTag
p2875
g2
Ntp2876
Rp2877
(dp2878
g25
I00
sg31
I01
sg32
I00
sV_ESInputTag__moduleLabel
p2879
g36
sV_ESInputTag__data
p2880
g36
sbsg2781
g0
(g121
g2
Ntp2881
Rp2882
(dp2883
g25
I00
sg31
I01
sg32
I00
sg42
g36
sbsg1870
g0
(g121
g2
Ntp2884
Rp2885
(dp2886
g25
I00
sg31
I01
sg32
I00
sg42
g36
sbsg2867
g0
(g121
g2
Ntp2887
Rp2888
(dp2889
g25
I00
sg31
I01
sg32
I00
sg42
VMuStructure
p2890
sbsg2868
g0
(g121
g2
Ntp2891
Rp2892
(dp2893
g25
I00
sg31
I01
sg32
I00
sg42
VMuonBarrelDT
p2894
sbsg2786
g0
(g73
g2
Ntp2895
Rp2896
(dp2897
g25
I00
sg31
I01
sg32
I00
sg42
I01
sbsg59
g660
sg61
I55
sg62
g2861
sbsVEcalBarrelGeometryFromDBEP
p2898
g0
(g2774
g2
Ntp2899
Rp2900
(dp2901
g15
g2898
sg17
(lp2902
g2786
asg25
I00
sg26
Nsg2786
g0
(g73
g2
Ntp2903
Rp2904
(dp2905
g25
I00
sg31
I01
sg32
I01
sg42
I01
sbsg32
I01
sg59
g660
sg61
I55
sg62
g2898
sbsVEcalElectronicsMappingBuilder
p2906
g0
(g2774
g2
Ntp2907
Rp2908
(dp2909
g15
g2906
sg17
(lp2910
sg25
I00
sg26
Nsg32
I00
sg59
g660
sg61
I55
sg62
g2906
sbsVEcalEndcapGeometryFromDBEP
p2911
g0
(g2774
g2
Ntp2912
Rp2913
(dp2914
g15
g2911
sg17
(lp2915
g2786
asg25
I00
sg26
Nsg2786
g0
(g73
g2
Ntp2916
Rp2917
(dp2918
g25
I00
sg31
I01
sg32
I01
sg42
I01
sbsg32
I01
sg59
g660
sg61
I55
sg62
g2911
sbsVEcalPreshowerGeometryFromDBEP
p2919
g0
(g2774
g2
Ntp2920
Rp2921
(dp2922
g15
g2919
sg17
(lp2923
g2786
asg25
I00
sg26
Nsg2786
g0
(g73
g2
Ntp2924
Rp2925
(dp2926
g25
I00
sg31
I01
sg32
I01
sg42
I01
sbsg32
I01
sg59
g660
sg61
I55
sg62
g2919
sbsVEcalTrigTowerConstituentsMapBuilder
p2927
g0
(g2774
g2
Ntp2928
Rp2929
(dp2930
g15
g2927
sg17
(lp2931
VMapFile
p2932
asg25
I00
sg26
Nsg2932
g0
(g121
g2
Ntp2933
Rp2934
(dp2935
g25
I00
sg31
I00
sg32
I00
sg42
VGeometry/EcalMapping/data/EndCap_TTMap.txt
p2936
sbsg32
I00
sg59
g660
sg61
I55
sg62
g2927
sbsVGlobalTrackingGeometryESProducer
p2937
g0
(g2774
g2
Ntp2938
Rp2939
(dp2940
g15
g2937
sg17
(lp2941
sg25
I00
sg26
Nsg32
I00
sg59
g660
sg61
I55
sg62
g2937
sbsVHcalAlignmentEP
p2942
g0
(g2774
g2
Ntp2943
Rp2944
(dp2945
g15
g2942
sg17
(lp2946
sg25
I00
sg26
Nsg32
I00
sg59
g660
sg61
I55
sg62
g2942
sbsVHcalGeometryFromDBEP
p2947
g0
(g2774
g2
Ntp2948
Rp2949
(dp2950
g15
g2947
sg17
(lp2951
g2786
asg25
I00
sg26
Nsg2786
g0
(g73
g2
Ntp2952
Rp2953
(dp2954
g25
I00
sg31
I01
sg32
I01
sg42
I01
sbsg32
I01
sg59
g660
sg61
I55
sg62
g2947
sbsVMuonDetLayerGeometryESProducer
p2955
g0
(g2774
g2
Ntp2956
Rp2957
(dp2958
g15
g2955
sg17
(lp2959
sg25
I00
sg26
Nsg32
I00
sg59
g660
sg61
I55
sg62
g2955
sbsVRPCGeometryESModule
p2960
g0
(g2774
g2
Ntp2961
Rp2962
(dp2963
g15
g2960
sg17
(lp2964
g2779
ag2780
asg25
I00
sg26
Nsg2779
g0
(g73
g2
Ntp2965
Rp2966
(dp2967
g25
I00
sg31
I00
sg32
I00
sg42
I00
sbsg32
I00
sg2780
g0
(g73
g2
Ntp2968
Rp2969
(dp2970
g25
I00
sg31
I00
sg32
I00
sg42
I00
sbsg59
g660
sg61
I55
sg62
g2960
sbsVTrackerRecoGeometryESProducer
p2971
g0
(g2774
g2
Ntp2972
Rp2973
(dp2974
g15
g2971
sg17
(lp2975
VusePhase2Stacks
p2976
asg25
I00
sg26
Nsg2976
g0
(g73
g2
Ntp2977
Rp2978
(dp2979
g25
I00
sg31
I01
sg32
I00
sg42
I00
sbsg32
I00
sg59
g660
sg61
I55
sg62
g2971
sbsVZdcGeometryFromDBEP
p2980
g0
(g2774
g2
Ntp2981
Rp2982
(dp2983
g15
g2980
sg17
(lp2984
g2786
asg25
I00
sg26
Nsg2786
g0
(g73
g2
Ntp2985
Rp2986
(dp2987
g25
I00
sg31
I01
sg32
I00
sg42
I00
sbsg32
I00
sg59
g660
sg61
I55
sg62
g2980
sbsVfakeForIdealAlignment
p2988
g0
(g2774
g2
Ntp2989
Rp2990
(dp2991
g15
VFakeAlignmentProducer
p2992
sg17
(lp2993
g1870
asg25
I00
sg26
Nsg1870
g0
(g121
g2
Ntp2994
Rp2995
(dp2996
g25
I00
sg31
I01
sg32
I01
sg42
VfakeForIdeal
p2997
sbsg32
I01
sg59
V/cvmfs/cms.cern.ch/el8_amd64_gcc11/cms/cmssw-patch/CMSSW_13_2_5_patch1/src/Alignment/CommonAlignmentProducer/python/fakeForIdealAlignmentProducer_cfi.py
p2998
sg61
I5
sg62
g2988
sbsVhcalDDDRecConstants
p2999
g0
(g2774
g2
Ntp3000
Rp3001
(dp3002
g15
VHcalDDDRecConstantsESModule
p3003
sg17
(lp3004
g1870
asg25
I00
sg26
Nsg1870
g0
(g121
g2
Ntp3005
Rp3006
(dp3007
g25
I00
sg31
I01
sg32
I00
sg42
g36
sbsg32
I00
sg59
g660
sg61
I55
sg62
g2999
sbsVhcalDDDSimConstants
p3008
g0
(g2774
g2
Ntp3009
Rp3010
(dp3011
g15
VHcalDDDSimConstantsESModule
p3012
sg17
(lp3013
g1870
asg25
I00
sg26
Nsg1870
g0
(g121
g2
Ntp3014
Rp3015
(dp3016
g25
I00
sg31
I01
sg32
I00
sg42
g36
sbsg32
I00
sg59
g660
sg61
I55
sg62
g3008
sbsVhcalTopologyIdeal
p3017
g0
(g2774
g2
Ntp3018
Rp3019
(dp3020
g15
VHcalTopologyIdealEP
p3021
sg17
(lp3022
VExclude
p3023
aVMergePosition
p3024
ag1870
asg25
I00
sg26
Nsg3023
g0
(g121
g2
Ntp3025
Rp3026
(dp3027
g25
I00
sg31
I00
sg32
I00
sg42
g36
sbsg32
I00
sg3024
g0
(g73
g2
Ntp3028
Rp3029
(dp3030
g25
I00
sg31
I00
sg32
I00
sg42
I00
sbsg1870
g0
(g121
g2
Ntp3031
Rp3032
(dp3033
g25
I00
sg31
I01
sg32
I00
sg42
g36
sbsg59
g660
sg61
I55
sg62
g3017
sbsVidealForDigiCSCGeometry
p3034
g0
(g2774
g2
Ntp3035
Rp3036
(dp3037
g15
g2773
sg17
(lp3038
g2779
ag2780
ag2781
ag1870
ag2782
ag2783
ag2784
ag2785
ag2786
ag2787
asg25
I00
sg26
Nsg2779
g0
(g73
g2
Ntp3039
Rp3040
(dp3041
g25
I00
sg31
I01
sg32
I00
sg42
I00
sbsg32
I01
sg2780
g0
(g73
g2
Ntp3042
Rp3043
(dp3044
g25
I00
sg31
I01
sg32
I00
sg42
I00
sbsg2781
g0
(g121
g2
Ntp3045
Rp3046
(dp3047
g25
I00
sg31
I01
sg32
I01
sg42
g2997
sbsg1870
g0
(g121
g2
Ntp3048
Rp3049
(dp3050
g25
I00
sg31
I01
sg32
I01
sg42
VidealForDigi
p3051
sbsg2782
g0
(g73
g2
Ntp3052
Rp3053
(dp3054
g25
I00
sg31
I01
sg32
I00
sg42
I01
sbsg2783
g0
(g73
g2
Ntp3055
Rp3056
(dp3057
g25
I00
sg31
I01
sg32
I00
sg42
I00
sbsg2784
g0
(g73
g2
Ntp3058
Rp3059
(dp3060
g25
I00
sg31
I01
sg32
I00
sg42
I01
sbsg2785
g0
(g73
g2
Ntp3061
Rp3062
(dp3063
g25
I00
sg31
I01
sg32
I00
sg42
I00
sbsg2786
g0
(g73
g2
Ntp3064
Rp3065
(dp3066
g25
I00
sg31
I01
sg32
I01
sg42
I00
sbsg2787
g0
(g73
g2
Ntp3067
Rp3068
(dp3069
g25
I00
sg31
I00
sg32
I00
sg42
I00
sbsg59
V/cvmfs/cms.cern.ch/el8_amd64_gcc11/cms/cmssw-patch/CMSSW_13_2_5_patch1/src/Geometry/CSCGeometryBuilder/python/idealForDigiCscGeometryDB_cff.py
p3070
sg61
I8
sg62
g3034
sbsVidealForDigiDTGeometry
p3071
g0
(g2774
g2
Ntp3072
Rp3073
(dp3074
g15
g2861
sg17
(lp3075
g2779
ag2780
ag2866
ag2781
ag1870
ag2867
ag2868
ag2786
asg25
I00
sg26
Nsg2779
g0
(g73
g2
Ntp3076
Rp3077
(dp3078
g25
I00
sg31
I01
sg32
I01
sg42
I00
sbsg32
I01
sg2780
g0
(g73
g2
Ntp3079
Rp3080
(dp3081
g25
I00
sg31
I01
sg32
I00
sg42
I00
sbsg2866
g0
(g2875
g2
Ntp3082
Rp3083
(dp3084
g25
I00
sg31
I01
sg32
I00
sg2879
g36
sg2880
g36
sbsg2781
g0
(g121
g2
Ntp3085
Rp3086
(dp3087
g25
I00
sg31
I01
sg32
I01
sg42
g2997
sbsg1870
g0
(g121
g2
Ntp3088
Rp3089
(dp3090
g25
I00
sg31
I01
sg32
I01
sg42
g3051
sbsg2867
g0
(g121
g2
Ntp3091
Rp3092
(dp3093
g25
I00
sg31
I01
sg32
I00
sg42
g2890
sbsg2868
g0
(g121
g2
Ntp3094
Rp3095
(dp3096
g25
I00
sg31
I01
sg32
I00
sg42
g2894
sbsg2786
g0
(g73
g2
Ntp3097
Rp3098
(dp3099
g25
I00
sg31
I01
sg32
I01
sg42
I00
sbsg59
V/cvmfs/cms.cern.ch/el8_amd64_gcc11/cms/cmssw-patch/CMSSW_13_2_5_patch1/src/Geometry/DTGeometryBuilder/python/idealForDigiDtGeometryDB_cff.py
p3100
sg61
I8
sg62
g3071
sbsVidealForDigiTrackerGeometry
p3101
g0
(g2774
g2
Ntp3102
Rp3103
(dp3104
g15
VTrackerDigiGeometryESModule
p3105
sg17
(lp3106
g1870
ag2779
ag2786
ag2781
asg25
I00
sg26
Nsg1870
g0
(g121
g2
Ntp3107
Rp3108
(dp3109
g25
I00
sg31
I01
sg32
I01
sg42
g3051
sbsg32
I01
sg2779
g0
(g73
g2
Ntp3110
Rp3111
(dp3112
g25
I00
sg31
I01
sg32
I00
sg42
I00
sbsg2786
g0
(g73
g2
Ntp3113
Rp3114
(dp3115
g25
I00
sg31
I01
sg32
I01
sg42
I00
sbsg2781
g0
(g121
g2
Ntp3116
Rp3117
(dp3118
g25
I00
sg31
I01
sg32
I01
sg42
g2997
sbsg59
V/cvmfs/cms.cern.ch/el8_amd64_gcc11/cms/cmssw-patch/CMSSW_13_2_5_patch1/src/Geometry/TrackerGeometryBuilder/python/idealForDigiTrackerGeometryDB_cff.py
p3119
sg61
I8
sg62
g3101
sbsVmuonGeometryConstants
p3120
g0
(g2774
g2
Ntp3121
Rp3122
(dp3123
g15
VMuonGeometryConstantsESModule
p3124
sg17
(lp3125
g2780
ag1870
asg25
I00
sg26
Nsg2780
g0
(g73
g2
Ntp3126
Rp3127
(dp3128
g25
I00
sg31
I01
sg32
I00
sg42
I00
sbsg32
I00
sg1870
g0
(g121
g2
Ntp3129
Rp3130
(dp3131
g25
I00
sg31
I01
sg32
I00
sg42
g36
sbsg59
g660
sg61
I55
sg62
g3120
sbsVtrackerGeometryDB
p3132
g0
(g2774
g2
Ntp3133
Rp3134
(dp3135
g15
g3105
sg17
(lp3136
g1870
ag2779
ag2786
ag2781
asg25
I00
sg26
Nsg1870
g0
(g121
g2
Ntp3137
Rp3138
(dp3139
g25
I00
sg31
I01
sg32
I00
sg42
g36
sbsg32
I00
sg2779
g0
(g73
g2
Ntp3140
Rp3141
(dp3142
g25
I00
sg31
I01
sg32
I00
sg42
I00
sbsg2786
g0
(g73
g2
Ntp3143
Rp3144
(dp3145
g25
I00
sg31
I01
sg32
I00
sg42
I01
sbsg2781
g0
(g121
g2
Ntp3146
Rp3147
(dp3148
g25
I00
sg31
I01
sg32
I00
sg42
g36
sbsg59
g660
sg61
I55
sg62
g3132
sbsVtrackerNumberingGeometryDB
p3149
g0
(g2774
g2
Ntp3150
Rp3151
(dp3152
g15
VTrackerGeometricDetESModule
p3153
sg17
(lp3154
g2779
ag2780
ag1870
asg25
I00
sg26
Nsg2779
g0
(g73
g2
Ntp3155
Rp3156
(dp3157
g25
I00
sg31
I01
sg32
I00
sg42
I00
sbsg32
I00
sg2780
g0
(g73
g2
Ntp3158
Rp3159
(dp3160
g25
I00
sg31
I01
sg32
I00
sg42
I00
sbsg1870
g0
(g121
g2
Ntp3161
Rp3162
(dp3163
g25
I00
sg31
I01
sg32
I00
sg42
g36
sbsg59
g660
sg61
I55
sg62
g3149
sbsVtrackerTopology
p3164
g0
(g2774
g2
Ntp3165
Rp3166
(dp3167
g15
VTrackerTopologyEP
p3168
sg17
(lp3169
g1870
asg25
I00
sg26
Nsg1870
g0
(g121
g2
Ntp3170
Rp3171
(dp3172
g25
I00
sg31
I01
sg32
I00
sg42
g36
sbsg32
I00
sg59
g660
sg61
I55
sg62
g3164
sbsVMuonNumberingInitialization
p3173
g0
(g2774
g2
Ntp3174
Rp3175
(dp3176
g15
g3173
sg17
(lp3177
sg25
I00
sg26
Nsg32
I00
sg59
g660
sg61
I55
sg62
g3173
sbsVXMLFromDBSource
p3178
g0
(g2774
g2
Ntp3179
Rp3180
(dp3181
g15
VXMLIdealGeometryESProducer
p3182
sg17
(lp3183
VrootDDName
p3184
ag1824
asg25
I00
sg26
Nsg3184
g0
(g121
g2
Ntp3185
Rp3186
(dp3187
g25
I00
sg31
I01
sg32
I00
sg42
Vcms:OCMS
p3188
sbsg32
I00
sg1824
g0
(g121
g2
Ntp3189
Rp3190
(dp3191
g25
I00
sg31
I01
sg32
I00
sg42
VExtended
p3192
sbsg59
g660
sg61
I55
sg62
g3178
sbsVcaloSimulationParameters
p3193
g0
(g2774
g2
Ntp3194
Rp3195
(dp3196
g15
VCaloSimParametersESModule
p3197
sg17
(lp3198
g2780
ag1870
asg25
I00
sg26
Nsg2780
g0
(g73
g2
Ntp3199
Rp3200
(dp3201
g25
I00
sg31
I01
sg32
I00
sg42
I00
sbsg32
I00
sg1870
g0
(g121
g2
Ntp3202
Rp3203
(dp3204
g25
I00
sg31
I01
sg32
I00
sg42
g36
sbsg59
g660
sg61
I55
sg62
g3193
sbsVecalSimulationParametersEB
p3205
g0
(g2774
g2
Ntp3206
Rp3207
(dp3208
g15
VEcalSimParametersESModule
p3209
sg17
(lp3210
g2780
aVname
p3211
ag1870
asg25
I00
sg26
Nsg2780
g0
(g73
g2
Ntp3212
Rp3213
(dp3214
g25
I00
sg31
I01
sg32
I00
sg42
I00
sbsg32
I00
sg3211
g0
(g121
g2
Ntp3215
Rp3216
(dp3217
g25
I00
sg31
I01
sg32
I00
sg42
VEcalHitsEB
p3218
sbsg1870
g0
(g121
g2
Ntp3219
Rp3220
(dp3221
g25
I00
sg31
I01
sg32
I00
sg42
g36
sbsg59
g660
sg61
I55
sg62
g3205
sbsVecalSimulationParametersEE
p3222
g0
(g2774
g2
Ntp3223
Rp3224
(dp3225
g15
g3209
sg17
(lp3226
g2780
ag3211
ag1870
asg25
I00
sg26
Nsg2780
g0
(g73
g2
Ntp3227
Rp3228
(dp3229
g25
I00
sg31
I01
sg32
I00
sg42
I00
sbsg32
I00
sg3211
g0
(g121
g2
Ntp3230
Rp3231
(dp3232
g25
I00
sg31
I01
sg32
I01
sg42
VEcalHitsEE
p3233
sbsg1870
g0
(g121
g2
Ntp3234
Rp3235
(dp3236
g25
I00
sg31
I01
sg32
I00
sg42
g36
sbsg59
V/cvmfs/cms.cern.ch/el8_amd64_gcc11/cms/cmssw-patch/CMSSW_13_2_5_patch1/src/Geometry/EcalCommonData/python/ecalSimulationParameters_cff.py
p3237
sg61
I11
sg62
g3222
sbsVecalSimulationParametersES
p3238
g0
(g2774
g2
Ntp3239
Rp3240
(dp3241
g15
g3209
sg17
(lp3242
g2780
ag3211
ag1870
asg25
I00
sg26
Nsg2780
g0
(g73
g2
Ntp3243
Rp3244
(dp3245
g25
I00
sg31
I01
sg32
I00
sg42
I00
sbsg32
I00
sg3211
g0
(g121
g2
Ntp3246
Rp3247
(dp3248
g25
I00
sg31
I01
sg32
I01
sg42
VEcalHitsES
p3249
sbsg1870
g0
(g121
g2
Ntp3250
Rp3251
(dp3252
g25
I00
sg31
I01
sg32
I00
sg42
g36
sbsg59
g3237
sg61
I14
sg62
g3238
sbsVhcalSimulationConstants
p3253
g0
(g2774
g2
Ntp3254
Rp3255
(dp3256
g15
VHcalSimulationConstantsESModule
p3257
sg17
(lp3258
g1870
asg25
I00
sg26
Nsg1870
g0
(g121
g2
Ntp3259
Rp3260
(dp3261
g25
I00
sg31
I01
sg32
I00
sg42
g36
sbsg32
I00
sg59
g660
sg61
I55
sg62
g3253
sbsVhcalSimulationParameters
p3262
g0
(g2774
g2
Ntp3263
Rp3264
(dp3265
g15
VHcalSimParametersESModule
p3266
sg17
(lp3267
g2780
ag1870
asg25
I00
sg26
Nsg2780
g0
(g73
g2
Ntp3268
Rp3269
(dp3270
g25
I00
sg31
I01
sg32
I00
sg42
I00
sbsg32
I00
sg1870
g0
(g121
g2
Ntp3271
Rp3272
(dp3273
g25
I00
sg31
I01
sg32
I00
sg42
g36
sbsg59
g660
sg61
I55
sg62
g3262
sbsVmuonOffsetESProducer
p3274
g0
(g2774
g2
Ntp3275
Rp3276
(dp3277
g15
VMuonOffsetESProducer
p3278
sg17
(lp3279
g2780
aVnames
p3280
ag1870
asg25
I00
sg26
Nsg2780
g0
(g73
g2
Ntp3281
Rp3282
(dp3283
g25
I00
sg31
I01
sg32
I00
sg42
I00
sbsg32
I00
sg3280
g0
(g105
g47
(lp3284
VMuonCommonNumbering
p3285
aVMuonBarrel
p3286
aVMuonEndcap
p3287
aVMuonBarrelWheels
p3288
aVMuonBarrelStation1
p3289
aVMuonBarrelStation2
p3290
aVMuonBarrelStation3
p3291
aVMuonBarrelStation4
p3292
aVMuonBarrelSuperLayer
p3293
aVMuonBarrelLayer
p3294
aVMuonBarrelWire
p3295
aVMuonRpcPlane1I
p3296
aVMuonRpcPlane1O
p3297
aVMuonRpcPlane2I
p3298
aVMuonRpcPlane2O
p3299
aVMuonRpcPlane3S
p3300
aVMuonRpcPlane4
p3301
aVMuonRpcChamberLeft
p3302
aVMuonRpcChamberMiddle
p3303
aVMuonRpcChamberRight
p3304
aVMuonRpcEndcap1
p3305
aVMuonRpcEndcap2
p3306
aVMuonRpcEndcap3
p3307
aVMuonRpcEndcap4
p3308
aVMuonRpcEndcapSector
p3309
aVMuonRpcEndcapChamberB1
p3310
aVMuonRpcEndcapChamberB2
p3311
aVMuonRpcEndcapChamberB3
p3312
aVMuonRpcEndcapChamberC1
p3313
aVMuonRpcEndcapChamberC2
p3314
aVMuonRpcEndcapChamberC3
p3315
aVMuonRpcEndcapChamberE1
p3316
aVMuonRpcEndcapChamberE2
p3317
aVMuonRpcEndcapChamberE3
p3318
aVMuonRpcEndcapChamberF1
p3319
aVMuonRpcEndcapChamberF2
p3320
aVMuonRpcEndcapChamberF3
p3321
aVMuonEndcapStation1
p3322
aVMuonEndcapStation2
p3323
aVMuonEndcapStation3
p3324
aVMuonEndcapStation4
p3325
aVMuonEndcapSubrings
p3326
aVMuonEndcapSectors
p3327
aVMuonEndcapLayers
p3328
aVMuonEndcapRing1
p3329
aVMuonEndcapRing2
p3330
aVMuonEndcapRing3
p3331
aVMuonEndcapRingA
p3332
aVMuonGEMEndcap
p3333
aVMuonGEMSector
p3334
aVMuonGEMChamber
p3335
atp3336
Rp3337
(dp3338
g25
I00
sg31
I01
sg32
I00
sg451
I1
sbsg1870
g0
(g121
g2
Ntp3339
Rp3340
(dp3341
g25
I00
sg31
I01
sg32
I00
sg42
g36
sbsg59
g660
sg61
I55
sg62
g3274
sbsVParabolicParametrizedMagneticFieldProducer
p3342
g0
(g2774
g2
Ntp3343
Rp3344
(dp3345
g15
VAutoParametrizedMagneticFieldProducer
p3346
sg17
(lp3347
Vversion
p3348
ag1824
aVvalueOverride
p3349
asg25
I00
sg26
Nsg3348
g0
(g121
g2
Ntp3350
Rp3351
(dp3352
g25
I00
sg31
I01
sg32
I00
sg42
VParabolic
p3353
sbsg32
I01
sg1824
g0
(g121
g2
Ntp3354
Rp3355
(dp3356
g25
I00
sg31
I00
sg32
I01
sg42
VParabolicMf
p3357
sbsg3349
g0
(g52
g2
Ntp3358
Rp3359
(dp3360
g25
I00
sg31
I01
sg32
I01
sg42
I18268
sbsg59
g660
sg61
I55
sg62
g3342
sbsVVolumeBasedMagneticFieldESProducer
p3361
g0
(g2774
g2
Ntp3362
Rp3363
(dp3364
g15
VVolumeBasedMagneticFieldESProducerFromDB
p3365
sg17
(lp3366
g1824
aVdebugBuilder
p3367
ag3349
asg25
I00
sg26
Nsg1824
g0
(g121
g2
Ntp3368
Rp3369
(dp3370
g25
I00
sg31
I00
sg32
I00
sg42
g36
sbsg32
I01
sg3367
g0
(g73
g2
Ntp3371
Rp3372
(dp3373
g25
I00
sg31
I00
sg32
I00
sg42
I00
sbsg3349
g0
(g52
g2
Ntp3374
Rp3375
(dp3376
g25
I00
sg31
I01
sg32
I01
sg42
I18268
sbsg59
g660
sg61
I55
sg62
g3361
sbsVCastorDbProducer
p3377
g0
(g2774
g2
Ntp3378
Rp3379
(dp3380
g15
g3377
sg17
(lp3381
g1870
asg25
I00
sg26
Nsg1870
g0
(g121
g2
Ntp3382
Rp3383
(dp3384
g25
I00
sg31
I01
sg32
I00
sg42
g36
sbsg32
I00
sg59
g660
sg61
I55
sg62
g3377
sbsVEcalLaserCorrectionService
p3385
g0
(g2774
g2
Ntp3386
Rp3387
(dp3388
g15
g3385
sg17
(lp3389
VmaxExtrapolationTimeInSec
p3390
asg25
I00
sg26
Nsg3390
g0
(g581
g2
Ntp3391
Rp3392
(dp3393
g25
I00
sg31
I01
sg32
I00
sg42
I0
sbsg32
I00
sg59
g660
sg61
I55
sg62
g3385
sbsVEcalLaserCorrectionServiceMC
p3394
g0
(g2774
g2
Ntp3395
Rp3396
(dp3397
g15
g3394
sg17
(lp3398
g1870
asg25
I00
sg26
Nsg1870
g0
(g121
g2
Ntp3399
Rp3400
(dp3401
g25
I00
sg31
I01
sg32
I00
sg42
g36
sbsg32
I00
sg59
g660
sg61
I55
sg62
g3394
sbsVSiStripRecHitMatcherESProducer
p3402
g0
(g2774
g2
Ntp3403
Rp3404
(dp3405
g15
g3402
sg17
(lp3406
VComponentName
p3407
aVNSigmaInside
p3408
aVPreFilter
p3409
asg25
I00
sg26
Nsg3407
g0
(g121
g2
Ntp3410
Rp3411
(dp3412
g25
I00
sg31
I01
sg32
I00
sg42
VStandardMatcher
p3413
sbsg32
I00
sg3408
g0
(g38
g2
Ntp3414
Rp3415
(dp3416
g25
I00
sg31
I01
sg32
I00
sg42
F3.0
sbsg3409
g0
(g73
g2
Ntp3417
Rp3418
(dp3419
g25
I00
sg31
I01
sg32
I00
sg42
I00
sbsg59
g660
sg61
I55
sg62
g3402
sbsVStripCPEfromTrackAngleESProducer
p3420
g0
(g2774
g2
Ntp3421
Rp3422
(dp3423
g15
VStripCPEESProducer
p3424
sg17
(lp3425
g3407
aVComponentType
p3426
aVparameters
p3427
asg25
I00
sg26
Nsg3407
g0
(g121
g2
Ntp3428
Rp3429
(dp3430
g25
I00
sg31
I01
sg32
I01
sg42
VStripCPEfromTrackAngle
p3431
sbsg32
I00
sg3426
g0
(g121
g2
Ntp3432
Rp3433
(dp3434
g25
I00
sg31
I01
sg32
I01
sg42
g3431
sbsg3427
g0
(g693
g2
Ntp3435
Rp3436
(dp3437
g25
I00
sg31
I01
sg32
I00
sg17
(lp3438
VmLC_P0
p3439
aVmLC_P1
p3440
aVmLC_P2
p3441
aVmTIB_P0
p3442
aVmTIB_P1
p3443
aVmTOB_P0
p3444
aVmTOB_P1
p3445
aVmTID_P0
p3446
aVmTID_P1
p3447
aVmTEC_P0
p3448
aVmTEC_P1
p3449
aVuseLegacyError
p3450
aVmaxChgOneMIP
p3451
asg26
Nsg3439
g0
(g38
g2
Ntp3452
Rp3453
(dp3454
g25
I00
sg31
I01
sg32
I00
sg42
F-0.326
sbsg3440
g0
(g38
g2
Ntp3455
Rp3456
(dp3457
g25
I00
sg31
I01
sg32
I00
sg42
F0.618
sbsg3441
g0
(g38
g2
Ntp3458
Rp3459
(dp3460
g25
I00
sg31
I01
sg32
I00
sg42
F0.3
sbsg3442
g0
(g38
g2
Ntp3461
Rp3462
(dp3463
g25
I00
sg31
I01
sg32
I00
sg42
F-0.742
sbsg3443
g0
(g38
g2
Ntp3464
Rp3465
(dp3466
g25
I00
sg31
I01
sg32
I00
sg42
F0.202
sbsg3444
g0
(g38
g2
Ntp3467
Rp3468
(dp3469
g25
I00
sg31
I01
sg32
I00
sg42
F-1.026
sbsg3445
g0
(g38
g2
Ntp3470
Rp3471
(dp3472
g25
I00
sg31
I01
sg32
I00
sg42
F0.253
sbsg3446
g0
(g38
g2
Ntp3473
Rp3474
(dp3475
g25
I00
sg31
I01
sg32
I00
sg42
F-1.427
sbsg3447
g0
(g38
g2
Ntp3476
Rp3477
(dp3478
g25
I00
sg31
I01
sg32
I00
sg42
F0.433
sbsg3448
g0
(g38
g2
Ntp3479
Rp3480
(dp3481
g25
I00
sg31
I01
sg32
I00
sg42
F-1.885
sbsg3449
g0
(g38
g2
Ntp3482
Rp3483
(dp3484
g25
I00
sg31
I01
sg32
I00
sg42
F0.471
sbsg3450
g0
(g73
g2
Ntp3485
Rp3486
(dp3487
g25
I00
sg31
I01
sg32
I00
sg42
I00
sbsg3451
g0
(g38
g2
Ntp3488
Rp3489
(dp3490
g25
I00
sg31
I01
sg32
I00
sg42
F6000.0
sbsbsg59
V/cvmfs/cms.cern.ch/el8_amd64_gcc11/cms/cmssw-patch/CMSSW_13_2_5_patch1/src/RecoLocalTracker/SiStripRecHitConverter/python/StripCPEfromTrackAngle_cfi.py
p3491
sg61
I4
sg62
g3420
sbsVctppsBeamParametersFromLHCInfoESSource
p3492
g0
(g2774
g2
Ntp3493
Rp3494
(dp3495
g15
VCTPPSBeamParametersFromLHCInfoESSource
p3496
sg17
(lp3497
VlhcInfoLabel
p3498
aVbeamDivX45
p3499
aVbeamDivY45
p3500
aVbeamDivX56
p3501
aVbeamDivY56
p3502
aVvtxOffsetX45
p3503
aVvtxOffsetY45
p3504
aVvtxOffsetZ45
p3505
aVvtxOffsetX56
p3506
aVvtxOffsetY56
p3507
aVvtxOffsetZ56
p3508
aVvtxStddevX
p3509
aVvtxStddevY
p3510
aVvtxStddevZ
p3511
ag1870
asg25
I00
sg26
Nsg3498
g0
(g121
g2
Ntp3512
Rp3513
(dp3514
g25
I00
sg31
I01
sg32
I00
sg42
g36
sbsg32
I00
sg3499
g0
(g38
g2
Ntp3515
Rp3516
(dp3517
g25
I00
sg31
I01
sg32
I00
sg42
F0.1
sbsg3500
g0
(g38
g2
Ntp3518
Rp3519
(dp3520
g25
I00
sg31
I01
sg32
I00
sg42
F0.1
sbsg3501
g0
(g38
g2
Ntp3521
Rp3522
(dp3523
g25
I00
sg31
I01
sg32
I00
sg42
F0.1
sbsg3502
g0
(g38
g2
Ntp3524
Rp3525
(dp3526
g25
I00
sg31
I01
sg32
I00
sg42
F0.1
sbsg3503
g0
(g38
g2
Ntp3527
Rp3528
(dp3529
g25
I00
sg31
I01
sg32
I00
sg42
F0.01
sbsg3504
g0
(g38
g2
Ntp3530
Rp3531
(dp3532
g25
I00
sg31
I01
sg32
I00
sg42
F0.01
sbsg3505
g0
(g38
g2
Ntp3533
Rp3534
(dp3535
g25
I00
sg31
I01
sg32
I00
sg42
F0.01
sbsg3506
g0
(g38
g2
Ntp3536
Rp3537
(dp3538
g25
I00
sg31
I01
sg32
I00
sg42
F0.01
sbsg3507
g0
(g38
g2
Ntp3539
Rp3540
(dp3541
g25
I00
sg31
I01
sg32
I00
sg42
F0.01
sbsg3508
g0
(g38
g2
Ntp3542
Rp3543
(dp3544
g25
I00
sg31
I01
sg32
I00
sg42
F0.01
sbsg3509
g0
(g38
g2
Ntp3545
Rp3546
(dp3547
g25
I00
sg31
I01
sg32
I00
sg42
F0.02
sbsg3510
g0
(g38
g2
Ntp3548
Rp3549
(dp3550
g25
I00
sg31
I01
sg32
I00
sg42
F0.02
sbsg3511
g0
(g38
g2
Ntp3551
Rp3552
(dp3553
g25
I00
sg31
I01
sg32
I00
sg42
F0.02
sbsg1870
g0
(g121
g2
Ntp3554
Rp3555
(dp3556
g25
I00
sg31
I01
sg32
I00
sg42
g36
sbsg59
g660
sg61
I55
sg62
g3492
sbsVctppsInterpolatedOpticalFunctionsESSource
p3557
g0
(g2774
g2
Ntp3558
Rp3559
(dp3560
g15
VCTPPSInterpolatedOpticalFunctionsESSource
p3561
sg17
(lp3562
g3498
aVopticsLabel
p3563
ag1870
asg25
I00
sg26
Nsg3498
g0
(g121
g2
Ntp3564
Rp3565
(dp3566
g25
I00
sg31
I01
sg32
I00
sg42
g36
sbsg32
I01
sg3563
g0
(g121
g2
Ntp3567
Rp3568
(dp3569
g25
I00
sg31
I01
sg32
I00
sg42
g36
sbsg1870
g0
(g121
g2
Ntp3570
Rp3571
(dp3572
g25
I00
sg31
I01
sg32
I00
sg42
g36
sbsg59
g660
sg61
I55
sg62
g3557
sbsVhcal_db_producer
p3573
g0
(g2774
g2
Ntp3574
Rp3575
(dp3576
g15
VHcalDbProducer
p3577
sg17
(lp3578
Vdump
p3579
aVfile
p3580
asg25
I00
sg26
Nsg3579
g0
(g105
g47
(lp3581
g36
atp3582
Rp3583
(dp3584
g25
I00
sg31
I00
sg32
I00
sg451
I1
sbsg32
I00
sg3580
g0
(g121
g2
Ntp3585
Rp3586
(dp3587
g25
I00
sg31
I00
sg32
I00
sg42
g36
sbsg59
g660
sg61
I55
sg62
g3573
sbsVmultipleScatteringParametrisationMakerESProducer
p3588
g0
(g2774
g2
Ntp3589
Rp3590
(dp3591
g15
VMultipleScatteringParametrisationMakerESProducer
p3592
sg17
(lp3593
g1870
asg25
I00
sg26
Nsg1870
g0
(g121
g2
Ntp3594
Rp3595
(dp3596
g25
I00
sg31
I01
sg32
I00
sg42
g36
sbsg32
I00
sg59
g660
sg61
I55
sg62
g3588
sbsVsiPixelQualityESProducer
p3597
g0
(g2774
g2
Ntp3598
Rp3599
(dp3600
g15
VSiPixelQualityESProducer
p3601
sg17
(lp3602
VsiPixelQualityLabel
p3603
aVsiPixelQualityLabel_RawToDigi
p3604
aVListOfRecordToMerge
p3605
ag1870
asg25
I00
sg26
Nsg3603
g0
(g121
g2
Ntp3606
Rp3607
(dp3608
g25
I00
sg31
I01
sg32
I00
sg42
g36
sbsg32
I01
sg3604
g0
(g121
g2
Ntp3609
Rp3610
(dp3611
g25
I00
sg31
I01
sg32
I00
sg42
g36
sbsg3605
g0
(g691
g47
(lp3612
g0
(g693
g2
Ntp3613
Rp3614
(dp3615
g25
I00
sg31
I01
sg32
I00
sg17
(lp3616
g1822
ag1823
asg26
Nsg1822
g0
(g121
g2
Ntp3617
Rp3618
(dp3619
g25
I00
sg31
I01
sg32
I00
sg42
VSiPixelQualityFromDbRcd
p3620
sbsg1823
g0
(g121
g2
Ntp3621
Rp3622
(dp3623
g25
I00
sg31
I01
sg32
I00
sg42
g36
sbsbag0
(g693
g2
Ntp3624
Rp3625
(dp3626
g25
I00
sg31
I01
sg32
I00
sg17
(lp3627
g1822
ag1823
asg26
Nsg1822
g0
(g121
g2
Ntp3628
Rp3629
(dp3630
g25
I00
sg31
I01
sg32
I00
sg42
VSiPixelDetVOffRcd
p3631
sbsg1823
g0
(g121
g2
Ntp3632
Rp3633
(dp3634
g25
I00
sg31
I01
sg32
I00
sg42
g36
sbsbatp3635
Rp3636
(dp3637
g25
I00
sg31
I01
sg32
I00
sg451
I1
sbsg1870
g0
(g121
g2
Ntp3638
Rp3639
(dp3640
g25
I00
sg31
I01
sg32
I00
sg42
g36
sbsg59
g660
sg61
I55
sg62
g3597
sbsVsiStripBackPlaneCorrectionDepESProducer
p3641
g0
(g2774
g2
Ntp3642
Rp3643
(dp3644
g15
VSiStripBackPlaneCorrectionDepESProducer
p3645
sg17
(lp3646
VLatencyRecord
p3647
aVBackPlaneCorrectionPeakMode
p3648
aVBackPlaneCorrectionDeconvMode
p3649
asg25
I00
sg26
Nsg3647
g0
(g693
g2
Ntp3650
Rp3651
(dp3652
g25
I00
sg31
I01
sg32
I00
sg17
(lp3653
g1822
ag1824
asg26
Nsg1822
g0
(g121
g2
Ntp3654
Rp3655
(dp3656
g25
I00
sg31
I01
sg32
I00
sg42
VSiStripLatencyRcd
p3657
sbsg1824
g0
(g121
g2
Ntp3658
Rp3659
(dp3660
g25
I00
sg31
I00
sg32
I00
sg42
g36
sbsbsg32
I00
sg3648
g0
(g693
g2
Ntp3661
Rp3662
(dp3663
g25
I00
sg31
I01
sg32
I00
sg17
(lp3664
g1822
ag1824
asg26
Nsg1822
g0
(g121
g2
Ntp3665
Rp3666
(dp3667
g25
I00
sg31
I01
sg32
I00
sg42
VSiStripBackPlaneCorrectionRcd
p3668
sbsg1824
g0
(g121
g2
Ntp3669
Rp3670
(dp3671
g25
I00
sg31
I00
sg32
I00
sg42
Vpeak
p3672
sbsbsg3649
g0
(g693
g2
Ntp3673
Rp3674
(dp3675
g25
I00
sg31
I01
sg32
I00
sg17
(lp3676
g1822
ag1824
asg26
Nsg1822
g0
(g121
g2
Ntp3677
Rp3678
(dp3679
g25
I00
sg31
I01
sg32
I00
sg42
g3668
sbsg1824
g0
(g121
g2
Ntp3680
Rp3681
(dp3682
g25
I00
sg31
I00
sg32
I00
sg42
Vdeconvolution
p3683
sbsbsg59
g660
sg61
I55
sg62
g3641
sbsVsiStripGainESProducer
p3684
g0
(g2774
g2
Ntp3685
Rp3686
(dp3687
g15
VSiStripGainESProducer
p3688
sg17
(lp3689
g1870
aVprintDebug
p3690
aVAutomaticNormalization
p3691
aVAPVGain
p3692
asg25
I00
sg26
Nsg1870
g0
(g121
g2
Ntp3693
Rp3694
(dp3695
g25
I00
sg31
I01
sg32
I00
sg42
g36
sbsg32
I00
sg3690
g0
(g73
g2
Ntp3696
Rp3697
(dp3698
g25
I00
sg31
I00
sg32
I00
sg42
I00
sbsg3691
g0
(g73
g2
Ntp3699
Rp3700
(dp3701
g25
I00
sg31
I01
sg32
I00
sg42
I00
sbsg3692
g0
(g691
g47
(lp3702
g0
(g693
g2
Ntp3703
Rp3704
(dp3705
g25
I00
sg31
I01
sg32
I00
sg17
(lp3706
VRecord
p3707
aVLabel
p3708
aVNormalizationFactor
p3709
asg26
Nsg3707
g0
(g121
g2
Ntp3710
Rp3711
(dp3712
g25
I00
sg31
I01
sg32
I00
sg42
VSiStripApvGainRcd
p3713
sbsg3708
g0
(g121
g2
Ntp3714
Rp3715
(dp3716
g25
I00
sg31
I00
sg32
I00
sg42
g36
sbsg3709
g0
(g38
g2
Ntp3717
Rp3718
(dp3719
g25
I00
sg31
I00
sg32
I00
sg42
F1.0
sbsbag0
(g693
g2
Ntp3720
Rp3721
(dp3722
g25
I00
sg31
I01
sg32
I00
sg17
(lp3723
g3707
ag3708
ag3709
asg26
Nsg3707
g0
(g121
g2
Ntp3724
Rp3725
(dp3726
g25
I00
sg31
I01
sg32
I00
sg42
VSiStripApvGain2Rcd
p3727
sbsg3708
g0
(g121
g2
Ntp3728
Rp3729
(dp3730
g25
I00
sg31
I00
sg32
I00
sg42
g36
sbsg3709
g0
(g38
g2
Ntp3731
Rp3732
(dp3733
g25
I00
sg31
I00
sg32
I00
sg42
F1.0
sbsbatp3734
Rp3735
(dp3736
g25
I00
sg31
I01
sg32
I00
sg451
I1
sbsg59
g660
sg61
I55
sg62
g3684
sbsVsiStripLorentzAngleDepESProducer
p3737
g0
(g2774
g2
Ntp3738
Rp3739
(dp3740
g15
VSiStripLorentzAngleDepESProducer
p3741
sg17
(lp3742
g3647
aVLorentzAnglePeakMode
p3743
aVLorentzAngleDeconvMode
p3744
asg25
I00
sg26
Nsg3647
g0
(g693
g2
Ntp3745
Rp3746
(dp3747
g25
I00
sg31
I01
sg32
I00
sg17
(lp3748
g1822
ag1824
asg26
Nsg1822
g0
(g121
g2
Ntp3749
Rp3750
(dp3751
g25
I00
sg31
I01
sg32
I00
sg42
g3657
sbsg1824
g0
(g121
g2
Ntp3752
Rp3753
(dp3754
g25
I00
sg31
I00
sg32
I00
sg42
g36
sbsbsg32
I00
sg3743
g0
(g693
g2
Ntp3755
Rp3756
(dp3757
g25
I00
sg31
I01
sg32
I00
sg17
(lp3758
g1822
ag1824
asg26
Nsg1822
g0
(g121
g2
Ntp3759
Rp3760
(dp3761
g25
I00
sg31
I01
sg32
I00
sg42
VSiStripLorentzAngleRcd
p3762
sbsg1824
g0
(g121
g2
Ntp3763
Rp3764
(dp3765
g25
I00
sg31
I00
sg32
I00
sg42
g3672
sbsbsg3744
g0
(g693
g2
Ntp3766
Rp3767
(dp3768
g25
I00
sg31
I01
sg32
I00
sg17
(lp3769
g1822
ag1824
asg26
Nsg1822
g0
(g121
g2
Ntp3770
Rp3771
(dp3772
g25
I00
sg31
I01
sg32
I00
sg42
g3762
sbsg1824
g0
(g121
g2
Ntp3773
Rp3774
(dp3775
g25
I00
sg31
I00
sg32
I00
sg42
g3683
sbsbsg59
g660
sg61
I55
sg62
g3737
sbsVsiStripQualityESProducer
p3776
g0
(g2774
g2
Ntp3777
Rp3778
(dp3779
g15
VSiStripQualityESProducer
p3780
sg17
(lp3781
g1870
ag3605
aVReduceGranularity
p3782
aVThresholdForReducedGranularity
p3783
aVPrintDebugOutput
p3784
aVUseEmptyRunInfo
p3785
asg25
I00
sg26
Nsg1870
g0
(g121
g2
Ntp3786
Rp3787
(dp3788
g25
I00
sg31
I01
sg32
I00
sg42
g36
sbsg32
I01
sg3605
g0
(g691
g47
(lp3789
g0
(g693
g2
Ntp3790
Rp3791
(dp3792
g25
I00
sg31
I01
sg32
I00
sg17
(lp3793
g1822
ag1823
asg26
Nsg1822
g0
(g121
g2
Ntp3794
Rp3795
(dp3796
g25
I00
sg31
I01
sg32
I00
sg42
VSiStripDetVOffRcd
p3797
sbsg1823
g0
(g121
g2
Ntp3798
Rp3799
(dp3800
g25
I00
sg31
I01
sg32
I00
sg42
g36
sbsbag0
(g693
g2
Ntp3801
Rp3802
(dp3803
g25
I00
sg31
I01
sg32
I00
sg17
(lp3804
g1822
ag1823
asg26
Nsg1822
g0
(g121
g2
Ntp3805
Rp3806
(dp3807
g25
I00
sg31
I01
sg32
I00
sg42
VSiStripDetCablingRcd
p3808
sbsg1823
g0
(g121
g2
Ntp3809
Rp3810
(dp3811
g25
I00
sg31
I01
sg32
I00
sg42
g36
sbsbag0
(g693
g2
Ntp3812
Rp3813
(dp3814
g25
I00
sg31
I01
sg32
I00
sg17
(lp3815
g1822
ag1823
asg26
Nsg1822
g0
(g121
g2
Ntp3816
Rp3817
(dp3818
g25
I00
sg31
I01
sg32
I00
sg42
VRunInfoRcd
p3819
sbsg1823
g0
(g121
g2
Ntp3820
Rp3821
(dp3822
g25
I00
sg31
I01
sg32
I00
sg42
g36
sbsbag0
(g693
g2
Ntp3823
Rp3824
(dp3825
g25
I00
sg31
I01
sg32
I00
sg17
(lp3826
g1822
ag1823
asg26
Nsg1822
g0
(g121
g2
Ntp3827
Rp3828
(dp3829
g25
I00
sg31
I01
sg32
I00
sg42
VSiStripBadChannelRcd
p3830
sbsg1823
g0
(g121
g2
Ntp3831
Rp3832
(dp3833
g25
I00
sg31
I01
sg32
I00
sg42
g36
sbsbag0
(g693
g2
Ntp3834
Rp3835
(dp3836
g25
I00
sg31
I01
sg32
I00
sg17
(lp3837
g1822
ag1823
asg26
Nsg1822
g0
(g121
g2
Ntp3838
Rp3839
(dp3840
g25
I00
sg31
I01
sg32
I00
sg42
VSiStripBadFiberRcd
p3841
sbsg1823
g0
(g121
g2
Ntp3842
Rp3843
(dp3844
g25
I00
sg31
I01
sg32
I00
sg42
g36
sbsbag0
(g693
g2
Ntp3845
Rp3846
(dp3847
g25
I00
sg31
I01
sg32
I00
sg17
(lp3848
g1822
ag1823
asg26
Nsg1822
g0
(g121
g2
Ntp3849
Rp3850
(dp3851
g25
I00
sg31
I01
sg32
I00
sg42
VSiStripBadModuleRcd
p3852
sbsg1823
g0
(g121
g2
Ntp3853
Rp3854
(dp3855
g25
I00
sg31
I01
sg32
I00
sg42
g36
sbsbag0
(g693
g2
Ntp3856
Rp3857
(dp3858
g25
I00
sg31
I01
sg32
I00
sg17
(lp3859
g1822
ag1823
asg26
Nsg1822
g0
(g121
g2
Ntp3860
Rp3861
(dp3862
g25
I00
sg31
I01
sg32
I00
sg42
VSiStripBadStripRcd
p3863
sbsg1823
g0
(g121
g2
Ntp3864
Rp3865
(dp3866
g25
I00
sg31
I01
sg32
I00
sg42
g36
sbsbatp3867
Rp3868
(dp3869
g25
I00
sg31
I01
sg32
I00
sg451
I1
sbsg3782
g0
(g73
g2
Ntp3870
Rp3871
(dp3872
g25
I00
sg31
I01
sg32
I00
sg42
I00
sbsg3783
g0
(g38
g2
Ntp3873
Rp3874
(dp3875
g25
I00
sg31
I01
sg32
I00
sg42
F0.3
sbsg3784
g0
(g73
g2
Ntp3876
Rp3877
(dp3878
g25
I00
sg31
I01
sg32
I00
sg42
I00
sbsg3785
g0
(g73
g2
Ntp3879
Rp3880
(dp3881
g25
I00
sg31
I01
sg32
I00
sg42
I00
sbsg59
g660
sg61
I55
sg62
g3776
sbsVsistripconn
p3882
g0
(g2774
g2
Ntp3883
Rp3884
(dp3885
g15
VSiStripConnectivity
p3886
sg17
(lp3887
sg25
I00
sg26
Nsg32
I00
sg59
g660
sg61
I55
sg62
g3882
sbsVstripCPEESProducer
p3888
g0
(g2774
g2
Ntp3889
Rp3890
(dp3891
g15
g3424
sg17
(lp3892
g3407
ag3426
ag3427
asg25
I00
sg26
Nsg3407
g0
(g121
g2
Ntp3893
Rp3894
(dp3895
g25
I00
sg31
I01
sg32
I00
sg42
VstripCPE
p3896
sbsg32
I00
sg3426
g0
(g121
g2
Ntp3897
Rp3898
(dp3899
g25
I00
sg31
I01
sg32
I00
sg42
VSimpleStripCPE
p3900
sbsg3427
g0
(g693
g2
Ntp3901
Rp3902
(dp3903
g25
I00
sg31
I01
sg32
I00
sg17
(lp3904
sg26
Nsbsg59
g660
sg61
I55
sg62
g3888
sbssV_Process__esprefers
p3905
(dp3906
Ves_prefer_hcalHardcode
p3907
g0
(cFWCore.ParameterSet.Modules
ESPrefer
p3908
g2
Ntp3909
Rp3910
(dp3911
g15
g2039
sg17
(lp3912
sg25
I00
sg26
Nsg32
I00
sg59
g660
sg61
I91
sV_targetLabel
p3913
g2035
sg62
g3907
sbssV_Process__aliases
p3914
(dp3915
sV_Process__psets
p3916
(dp3917
VmaxLuminosityBlocks
p3918
g0
(g693
g2
Ntp3919
Rp3920
(dp3921
g25
I00
sg31
I00
sg32
I00
sg17
(lp3922
Vinput
p3923
asg26
Nsg3923
g0
(g52
g2
Ntp3924
Rp3925
(dp3926
g25
I00
sg31
I00
sg32
I00
sg42
I-1
sbsg62
g3918
sbsVnanoDQMIO_perLSoutput
p3927
g0
(g693
g2
Ntp3928
Rp3929
(dp3930
g25
I00
sg31
I01
sg32
I00
sg17
(lp3931
g1216
asg26
Nsg1216
g0
(g105
g47
(lp3932
g1228
ag1229
ag1230
ag1231
ag1232
ag1233
ag1234
ag1235
ag1236
ag1237
ag1238
ag1239
ag1240
ag1241
ag1242
ag1243
ag1244
ag1245
ag1246
ag1247
ag1248
ag1249
ag1250
ag1251
ag1252
ag1253
ag1254
ag1255
ag1256
ag1257
ag1258
ag1259
ag1260
ag1261
ag1262
ag1263
ag1264
ag1265
ag1266
ag1267
ag1268
ag1269
ag1270
ag1271
ag1272
ag1273
ag1274
ag1275
ag1276
ag1277
ag1278
ag1279
ag1280
ag1281
ag1282
ag1283
ag1284
ag1285
ag1286
ag1287
ag1288
ag1289
ag1290
ag1291
ag1292
ag1293
ag1294
ag1295
ag1296
ag1297
ag1298
ag1299
ag1300
ag1301
ag1302
ag1303
ag1304
ag1305
ag1306
ag1307
ag1308
ag1309
ag1310
ag1311
ag1312
ag1313
ag1314
ag1315
ag1316
ag1317
ag1318
ag1319
ag1320
ag1321
ag1322
ag1323
ag1324
ag1325
ag1326
ag1327
ag1328
ag1329
ag1330
ag1331
ag1332
ag1333
ag1334
ag1335
ag1336
ag1337
ag1338
ag1339
ag1340
ag1341
ag1342
ag1343
ag1344
ag1345
ag1346
ag1347
ag1348
ag1349
ag1350
ag1351
ag1352
ag1353
ag1354
ag1355
ag1356
ag1357
ag1358
ag1359
ag1360
ag1361
ag1362
ag1363
ag1364
ag1365
ag1366
ag1367
ag1368
ag1369
ag1370
ag1371
ag1372
ag1373
ag1374
ag1375
ag1376
ag1377
ag1378
ag1379
ag1380
ag1381
ag1382
ag1383
ag1384
ag1385
ag1386
ag1387
ag1388
ag1389
ag1390
ag1391
ag1392
ag1393
ag1394
ag1395
ag1396
ag1397
ag1398
ag1399
ag1400
ag1401
ag1402
ag1403
ag1404
ag1405
ag1406
ag1407
ag1408
ag1409
ag1410
ag1411
ag1412
ag1413
ag1414
ag1415
ag1416
ag1417
ag1418
ag1419
ag1420
ag1421
ag1422
atp3933
Rp3934
(dp3935
g25
I00
sg31
I00
sg32
I00
sg451
I1
sbsg62
g3927
sbsVCondDB
p3936
g0
(g693
g2
Ntp3937
Rp3938
(dp3939
g25
I00
sg31
I01
sg32
I00
sg17
(lp3940
g1769
ag1770
asg26
Nsg1769
g0
(g693
g2
Ntp3941
Rp3942
(dp3943
g25
I00
sg31
I01
sg32
I00
sg17
(lp3944
g1785
ag1786
ag1787
ag1788
ag1789
asg26
Nsg1785
g0
(g121
g2
Ntp3945
Rp3946
(dp3947
g25
I00
sg31
I00
sg32
I00
sg42
g36
sbsg1786
g0
(g52
g2
Ntp3948
Rp3949
(dp3950
g25
I00
sg31
I00
sg32
I00
sg42
I0
sbsg1787
g0
(g121
g2
Ntp3951
Rp3952
(dp3953
g25
I00
sg31
I00
sg32
I00
sg42
g36
sbsg1788
g0
(g52
g2
Ntp3954
Rp3955
(dp3956
g25
I00
sg31
I00
sg32
I00
sg42
I0
sbsg1789
g0
(g52
g2
Ntp3957
Rp3958
(dp3959
g25
I00
sg31
I00
sg32
I00
sg42
I0
sbsbsg1770
g0
(g121
g2
Ntp3960
Rp3961
(dp3962
g25
I00
sg31
I01
sg32
I00
sg42
g36
sbsg62
g3936
sbsg2049
g2100
sVoptions
p3963
g0
(g693
g2
Ntp3964
Rp3965
(dp3966
g25
I00
sg31
I00
sg32
I01
sg17
(lp3967
VnumberOfThreads
p3968
aVnumberOfStreams
p3969
aVnumberOfConcurrentRuns
p3970
aVnumberOfConcurrentLuminosityBlocks
p3971
aVeventSetup
p3972
aVaccelerators
p3973
aVwantSummary
p3974
aVfileMode
p3975
aVforceEventSetupCacheClearOnNewRun
p3976
aVthrowIfIllegalParameter
p3977
aVprintDependencies
p3978
aVdeleteNonConsumedUnscheduledModules
p3979
aVsizeOfStackForThreadsInKB
p3980
aVRethrow
p3981
aVSkipEvent
p3982
aVFailPath
p3983
aVIgnoreCompletely
p3984
aVcanDeleteEarly
p3985
aVholdsReferencesToDeleteEarly
p3986
aVmodulesToIgnoreForDeleteEarly
p3987
aVdumpOptions
p3988
aVallowUnscheduled
p3989
aVemptyRunLumiMode
p3990
aVmakeTriggerResults
p3991
asg26
Nsg3968
g0
(g581
g2
Ntp3992
Rp3993
(dp3994
g25
I00
sg31
I00
sg32
I00
sg42
I1
sbsg3969
g0
(g581
g2
Ntp3995
Rp3996
(dp3997
g25
I00
sg31
I00
sg32
I00
sg42
I0
sbsg3970
g0
(g581
g2
Ntp3998
Rp3999
(dp4000
g25
I00
sg31
I00
sg32
I00
sg42
I1
sbsg3971
g0
(g581
g2
Ntp4001
Rp4002
(dp4003
g25
I00
sg31
I00
sg32
I00
sg42
I0
sbsg3972
g0
(g693
g2
Ntp4004
Rp4005
(dp4006
g25
I00
sg31
I00
sg32
I00
sg17
(lp4007
VnumberOfConcurrentIOVs
p4008
aVforceNumberOfConcurrentIOVs
p4009
asg26
Nsg4008
g0
(g581
g2
Ntp4010
Rp4011
(dp4012
g25
I00
sg31
I00
sg32
I00
sg42
I0
sbsg4009
g0
(g693
g2
Ntp4013
Rp4014
(dp4015
g25
I00
sg31
I00
sg32
I00
sg17
(lp4016
sg26
g0
(cFWCore.ParameterSet.Types
_RequiredParameter
p4017
g2
Ntp4018
Rp4019
(dp4020
g25
I00
sg31
I00
sg32
I00
sg104
g581
sg106
Nsbsbsbsg3973
g0
(g105
g47
(lp4021
V*
p4022
atp4023
Rp4024
(dp4025
g25
I00
sg31
I00
sg32
I00
sg451
I1
sbsg3974
g0
(g73
g2
Ntp4026
Rp4027
(dp4028
g25
I00
sg31
I00
sg32
I00
sg42
I01
sbsg3975
g0
(g121
g2
Ntp4029
Rp4030
(dp4031
g25
I00
sg31
I00
sg32
I00
sg42
VFULLMERGE
p4032
sbsg3976
g0
(g73
g2
Ntp4033
Rp4034
(dp4035
g25
I00
sg31
I00
sg32
I00
sg42
I00
sbsg3977
g0
(g73
g2
Ntp4036
Rp4037
(dp4038
g25
I00
sg31
I00
sg32
I00
sg42
I01
sbsg3978
g0
(g73
g2
Ntp4039
Rp4040
(dp4041
g25
I00
sg31
I00
sg32
I00
sg42
I00
sbsg3979
g0
(g73
g2
Ntp4042
Rp4043
(dp4044
g25
I00
sg31
I00
sg32
I00
sg42
I01
sbsg3980
g0
(g100
g2
Ntp4045
Rp4046
(dp4047
g25
I00
sg31
I00
sg32
I00
sg104
g581
sg106
Nsbsg3981
g0
(g105
g47
(lp4048
tp4049
Rp4050
(dp4051
g25
I00
sg31
I00
sg32
I00
sg451
I1
sbsg3982
g0
(g105
g47
(lp4052
tp4053
Rp4054
(dp4055
g25
I00
sg31
I00
sg32
I00
sg451
I1
sbsg3983
g0
(g105
g47
(lp4056
tp4057
Rp4058
(dp4059
g25
I00
sg31
I00
sg32
I00
sg451
I1
sbsg3984
g0
(g105
g47
(lp4060
tp4061
Rp4062
(dp4063
g25
I00
sg31
I00
sg32
I00
sg451
I1
sbsg3985
g0
(g105
g47
(lp4064
tp4065
Rp4066
(dp4067
g25
I00
sg31
I00
sg32
I00
sg451
I1
sbsg3986
g0
(g691
g47
(lp4068
tp4069
Rp4070
(dp4071
g25
I00
sg31
I00
sg32
I00
sg451
I1
sbsg3987
g0
(g105
g47
(lp4072
tp4073
Rp4074
(dp4075
g25
I00
sg31
I00
sg32
I00
sg451
I1
sbsg3988
g0
(g73
g2
Ntp4076
Rp4077
(dp4078
g25
I00
sg31
I00
sg32
I00
sg42
I00
sbsg3989
g0
(cFWCore.ParameterSet.Types
_ObsoleteParameter
p4079
g2
Ntp4080
Rp4081
(dp4082
g25
I00
sg31
I00
sg32
I00
sg104
g73
sg106
Nsbsg3990
g0
(g4079
g2
Ntp4083
Rp4084
(dp4085
g25
I00
sg31
I00
sg32
I00
sg104
g121
sg106
Nsbsg3991
g0
(g4079
g2
Ntp4086
Rp4087
(dp4088
g25
I00
sg31
I00
sg32
I00
sg104
g73
sg106
Nsbsg62
g3963
sbsVmaxEvents
p4089
g0
(g693
g2
Ntp4090
Rp4091
(dp4092
g25
I00
sg31
I00
sg32
I01
sg17
(lp4093
g3923
ag1177
asg26
Nsg3923
g0
(g100
g2
Ntp4094
Rp4095
(dp4096
g25
I00
sg31
I00
sg32
I00
sg104
g52
sg106
g0
(g52
g2
Ntp4097
Rp4098
(dp4099
g25
I00
sg31
I00
sg32
I00
sg42
I100
sbsbsg1177
g0
(g100
g2
Ntp4100
Rp4101
(dp4102
g25
I00
sg31
I00
sg32
I00
sg104
g0
(cFWCore.ParameterSet.Types
_AllowedParameterTypes
p4103
g2
Ntp4104
Rp4105
(dp4106
V_AllowedParameterTypes__types
p4107
(g52
g693
tp4108
sV_default
p4109
NsV__name__
p4110
Vallowed(cms.int32,cms.PSet)
p4111
sbsg106
Nsbsg62
g4089
sbssV_Process__vpsets
p4112
(dp4113
sV_cloneToObjectDict
p4114
(dp4115
L140425318166384L
g0
(g693
g2
Ntp4116
Rp4117
(dp4118
g25
I00
sg31
I00
sg32
I00
sg17
(lp4119
g3968
ag3969
ag3970
ag3971
ag3972
ag3973
ag3974
ag3975
ag3976
ag3977
ag3978
ag3979
ag3980
ag3981
ag3982
ag3983
ag3984
ag3985
ag3986
ag3987
ag3988
ag3989
ag3990
ag3991
asg26
Nsg3968
g0
(g581
g2
Ntp4120
Rp4121
(dp4122
g25
I00
sg31
I00
sg32
I00
sg42
I1
sbsg3969
g0
(g581
g2
Ntp4123
Rp4124
(dp4125
g25
I00
sg31
I00
sg32
I00
sg42
I0
sbsg3970
g0
(g581
g2
Ntp4126
Rp4127
(dp4128
g25
I00
sg31
I00
sg32
I00
sg42
I1
sbsg3971
g0
(g581
g2
Ntp4129
Rp4130
(dp4131
g25
I00
sg31
I00
sg32
I00
sg42
I0
sbsg3972
g0
(g693
g2
Ntp4132
Rp4133
(dp4134
g25
I00
sg31
I00
sg32
I00
sg17
(lp4135
g4008
ag4009
asg26
Nsg4008
g0
(g581
g2
Ntp4136
Rp4137
(dp4138
g25
I00
sg31
I00
sg32
I00
sg42
I0
sbsg4009
g0
(g693
g2
Ntp4139
Rp4140
(dp4141
g25
I00
sg31
I00
sg32
I00
sg17
(lp4142
sg26
g0
(g4017
g2
Ntp4143
Rp4144
(dp4145
g25
I00
sg31
I00
sg32
I00
sg104
g581
sg106
Nsbsbsbsg3973
g0
(g105
g47
(lp4146
g4022
atp4147
Rp4148
(dp4149
g25
I00
sg31
I00
sg32
I00
sg451
I1
sbsg3974
g0
(g73
g2
Ntp4150
Rp4151
(dp4152
g25
I00
sg31
I00
sg32
I00
sg42
I00
sbsg3975
g0
(g121
g2
Ntp4153
Rp4154
(dp4155
g25
I00
sg31
I00
sg32
I00
sg42
g4032
sbsg3976
g0
(g73
g2
Ntp4156
Rp4157
(dp4158
g25
I00
sg31
I00
sg32
I00
sg42
I00
sbsg3977
g0
(g73
g2
Ntp4159
Rp4160
(dp4161
g25
I00
sg31
I00
sg32
I00
sg42
I01
sbsg3978
g0
(g73
g2
Ntp4162
Rp4163
(dp4164
g25
I00
sg31
I00
sg32
I00
sg42
I00
sbsg3979
g0
(g73
g2
Ntp4165
Rp4166
(dp4167
g25
I00
sg31
I00
sg32
I00
sg42
I01
sbsg3980
g0
(g100
g2
Ntp4168
Rp4169
(dp4170
g25
I00
sg31
I00
sg32
I00
sg104
g581
sg106
Nsbsg3981
g0
(g105
g47
(lp4171
tp4172
Rp4173
(dp4174
g25
I00
sg31
I00
sg32
I00
sg451
I1
sbsg3982
g0
(g105
g47
(lp4175
tp4176
Rp4177
(dp4178
g25
I00
sg31
I00
sg32
I00
sg451
I1
sbsg3983
g0
(g105
g47
(lp4179
tp4180
Rp4181
(dp4182
g25
I00
sg31
I00
sg32
I00
sg451
I1
sbsg3984
g0
(g105
g47
(lp4183
tp4184
Rp4185
(dp4186
g25
I00
sg31
I00
sg32
I00
sg451
I1
sbsg3985
g0
(g105
g47
(lp4187
tp4188
Rp4189
(dp4190
g25
I00
sg31
I00
sg32
I00
sg451
I1
sbsg3986
g0
(g691
g47
(lp4191
tp4192
Rp4193
(dp4194
g25
I00
sg31
I00
sg32
I00
sg451
I1
sbsg3987
g0
(g105
g47
(lp4195
tp4196
Rp4197
(dp4198
g25
I00
sg31
I00
sg32
I00
sg451
I1
sbsg3988
g0
(g73
g2
Ntp4199
Rp4200
(dp4201
g25
I00
sg31
I00
sg32
I00
sg42
I00
sbsg3989
g0
(g4079
g2
Ntp4202
Rp4203
(dp4204
g25
I00
sg31
I00
sg32
I00
sg104
g73
sg106
Nsbsg3990
g0
(g4079
g2
Ntp4205
Rp4206
(dp4207
g25
I00
sg31
I00
sg32
I00
sg104
g121
sg106
Nsbsg3991
g0
(g4079
g2
Ntp4208
Rp4209
(dp4210
g25
I00
sg31
I00
sg32
I00
sg104
g73
sg106
Nsbsg62
NsbsL140425305891744L
g0
(g693
g2
Ntp4211
Rp4212
(dp4213
g25
I00
sg31
I00
sg32
I00
sg17
(lp4214
g3923
ag1177
asg26
Nsg3923
g0
(g100
g2
Ntp4215
Rp4216
(dp4217
g25
I00
sg31
I00
sg32
I00
sg104
g52
sg106
Nsbsg1177
g0
(g100
g2
Ntp4218
Rp4219
(dp4220
g25
I00
sg31
I00
sg32
I00
sg104
g0
(g4103
g2
Ntp4221
Rp4222
(dp4223
g4107
(g52
g693
tp4224
sg4109
Nsg4110
Vallowed(cms.int32,cms.PSet)
p4225
sbsg106
Nsbsg62
NsbsL140425305892800L
g3920
sL140425318271248L
g2776
sL140425318777136L
g2820
sL140425318144656L
g2837
sL140425341047856L
g2842
sL140425341047328L
g2850
sL140425303459104L
g2855
sL140425318889312L
g2863
sL140425341049920L
g2900
sL140425318780352L
g2908
sL140425318780256L
g2913
sL140425318779200L
g2921
sL140425318144608L
g2929
sL140425316475424L
g2939
sL140425341047472L
g2944
sL140425318779776L
g2949
sL140425318270288L
g2957
sL140425318272736L
g2962
sL140425302835648L
g2973
sL140425303458528L
g2982
sL140425303460784L
g1731
sL140425305560976L
g2990
sL140425303461168L
g3001
sL140425303461648L
g3010
sL140425341050736L
g3019
sL140425341049440L
g3036
sL140425305562752L
g3073
sL140425318563360L
g3103
sL140425318780880L
g3122
sL140425303342912L
g3134
sL140425307879504L
g3151
sL140425306455536L
g3166
sL140425305771024L
g3175
sL140425305769824L
g3180
sL140425303832560L
g3195
sL140425305770640L
g3207
sL140425304839360L
g3224
sL140425305771168L
g3240
sL140425303833472L
g3255
sL140425303834048L
g3264
sL140425303830736L
g3276
sL140425303831264L
g1753
sL140425303828608L
g3929
sL140425303829904L
g470
sL140425306463296L
g3344
sL140425305354352L
g3363
sL140425301358960L
g3379
sL140425306461520L
g3938
sL140425303607664L
g3387
sL140425303607232L
g3396
sL140425303606464L
g1765
sL140425316525680L
g2100
sL140425316526880L
g1867
sL140425300926368L
g3404
sL140425300925504L
g3422
sL140425300974992L
g3494
sL140425300975520L
g3559
sL140425301358672L
g2037
sL140425301358912L
g3910
sL140425303608768L
g3575
sL140425300963184L
g3590
sL140425300971632L
g3599
sL140425300922960L
g3643
sL140425301400448L
g3686
sL140425301401216L
g3739
sL140425300961600L
g3778
sL140425301358816L
g3884
sL140425300924448L
g3890
sL140425301658544L
g477
sL140425305890976L
g3965
sL140425301659552L
g4091
sL140425301026320L
g563
sL140425301136576L
g765
sL140425300840112L
g13
sL140425300839344L
g65
sL140425301137008L
g110
sL140425301137824L
g587
sL140425301139312L
g656
sL140425301138448L
g607
sL140425300684272L
g633
sL140425300810144L
g682
sL140425301138928L
g952
sL140425300879248L
g132
sL140425300840256L
g152
sL140425300880832L
g166
sL140425300891824L
g180
sL140425300879680L
g194
sL140425300840304L
g208
sL140425300881312L
g222
sL140425300892256L
g236
sL140425300880112L
g250
sL140425300840160L
g264
sL140425300881264L
g278
sL140425300892688L
g292
sL140425300893408L
g306
sL140425300880544L
g320
sL140425300840208L
g334
sL140425300880928L
g348
sL140425300893120L
g362
sL140425300880976L
g376
sL140425300878816L
g390
sL140425300891392L
g404
sL140425300893552L
g418
sL140425300893504L
g432
sL140425300837616L
g842
sL140425300811728L
g910
ssV_Process__InExtendCall
p4226
I00
sV_Process__partialschedules
p4227
(dp4228
sV_Process__isStrict
p4229
I00
sV_Process__modifiers
p4230
(tsV_Process__accelerators
p4231
(dp4232
sg3918
g3920
sg964
g967
sg2773
g2776
sg2818
g2820
sg2835
g2837
sg2840
g2842
sg2848
g2850
sg2853
g2855
sg2861
g2863
sg2898
g2900
sg2906
g2908
sg2911
g2913
sg2919
g2921
sg2927
g2929
sg2937
g2939
sg2942
g2944
sg2947
g2949
sg2955
g2957
sg2960
g2962
sg2971
g2973
sg2980
g2982
sg1728
g1731
sg2988
g2990
sg2999
g3001
sg3008
g3010
sg3017
g3019
sg3034
g3036
sg3071
g3073
sg3101
g3103
sg3120
g3122
sg3132
g3134
sg3149
g3151
sg3164
g3166
sg3173
g3175
sg3178
g3180
sg3193
g3195
sg3205
g3207
sg3222
g3224
sg3238
g3240
sg3253
g3255
sg3262
g3264
sg3274
g3276
sg1209
g1211
sg1751
g1753
sg1438
g1440
sg3927
g3929
sg467
g470
sg3342
g3344
sg3361
g3363
sg3377
g3379
sg3936
g3938
sg3385
g3387
sg3394
g3396
sg1763
g1765
sg2049
g2100
sg1865
g1867
sg3402
g3404
sg3420
g3422
sg3492
g3494
sg3557
g3559
sg2035
g2037
sg3907
g3910
sg3573
g3575
sg3588
g3590
sg3597
g3599
sg3641
g3643
sg3684
g3686
sg3737
g3739
sg3776
g3778
sg3882
g3884
sg3888
g3890
sg475
g477
sg3963
g3965
sg4089
g4091
sVsource
p4233
g718
sg720
g718
sg521
g563
sg762
g765
sg10
g13
sg63
g65
sg108
g110
sg80
g587
sg653
g656
sg605
g607
sg631
g633
sg680
g682
sg949
g952
sg130
g132
sg150
g152
sg164
g166
sg178
g180
sg192
g194
sg206
g208
sg220
g222
sg234
g236
sg248
g250
sg262
g264
sg276
g278
sg290
g292
sg304
g306
sg318
g320
sg332
g334
sg346
g348
sg360
g362
sg374
g376
sg388
g390
sg402
g404
sg416
g418
sg1716
g1718
sg430
g432
sg840
g842
sg907
g910
sb.