ccopy_reg
_reconstructor
p0
(cFWCore.ParameterSet.Config
Process
p1
c__builtin__
object
p2
Ntp3
Rp4
(dp5
V_Process__name
p6
VRaghuEffTest
p7
sV_Process__filters
p8
(dp9
VclusterCompatibilityFilter
p10
g0
(cFWCore.ParameterSet.Modules
EDFilter
p11
g2
Ntp12
Rp13
(dp14
V_TypedParameterizable__type
p15
VHIClusterCompatibilityFilter
p16
sV_Parameterizable__parameterNames
p17
(lp18
VcluscomSrc
p19
aVminZ
p20
aVmaxZ
p21
aVclusterPars
p22
aVnhitsTrunc
p23
aVclusterTrunc
p24
asV_isFrozen
p25
I00
sV_Parameterizable__validator
p26
Nsg19
g0
(cFWCore.ParameterSet.Types
InputTag
p27
g2
Ntp28
Rp29
(dp30
g25
I00
sV_ParameterTypeBase__isTracked
p31
I01
sV_isModified
p32
I00
sV_InputTag__moduleLabel
p33
VhiClusterCompatibility
p34
sV_InputTag__productInstance
p35
V
p36
sV_InputTag__processName
p37
g36
sbsg32
I00
sg20
g0
(cFWCore.ParameterSet.Types
double
p38
g2
Ntp39
Rp40
(dp41
g25
I00
sg31
I01
sg32
I00
sV_value
p42
F-20.0
sbsg21
g0
(g38
g2
Ntp43
Rp44
(dp45
g25
I00
sg31
I01
sg32
I00
sg42
F20.05
sbsg22
g0
(cFWCore.ParameterSet.Types
vdouble
p46
c__builtin__
list
p47
(lp48
F0.0
aF0.0045
atp49
Rp50
(dp51
g25
I00
sg31
I01
sg32
I00
sbsg23
g0
(cFWCore.ParameterSet.Types
int32
p52
g2
Ntp53
Rp54
(dp55
g25
I00
sg31
I01
sg32
I00
sg42
I150
sbsg24
g0
(g38
g2
Ntp56
Rp57
(dp58
g25
I00
sg31
I01
sg32
I00
sg42
F2.0
sbsV_filename
p59
V/afs/cern.ch/work/r/rpradhan/Tracking_Studies/newCode_AfterRun3/ForEffTest/CMSSW_13_2_5_patch1/src/HeavyIonsAnalysis/EventAnalysis/python/clusterCompatibilityFilter_cfi.py
p60
sV_lineNumber
p61
I3
sV_Labelable__label
p62
g10
sbsVhltPixelClusterShapeFilter
p63
g0
(g11
g2
Ntp64
Rp65
(dp66
g15
VHLTPixelClusterShapeFilter
p67
sg17
(lp68
VsaveTags
p69
aVinputTag
p70
ag20
ag21
aVzStep
p71
ag22
ag23
ag24
aVmightGet
p72
asg25
I00
sg26
Nsg69
g0
(cFWCore.ParameterSet.Types
bool
p73
g2
Ntp74
Rp75
(dp76
g25
I00
sg31
I01
sg32
I00
sg42
I01
sbsg32
I01
sg70
g0
(g27
g2
Ntp77
Rp78
(dp79
g25
I00
sg31
I01
sg32
I01
sg33
VsiPixelRecHits
p80
sg35
g36
sg37
g36
sbsg20
g0
(g38
g2
Ntp81
Rp82
(dp83
g25
I00
sg31
I01
sg32
I00
sg42
I-20
sbsg21
g0
(g38
g2
Ntp84
Rp85
(dp86
g25
I00
sg31
I01
sg32
I00
sg42
F20.05
sbsg71
g0
(g38
g2
Ntp87
Rp88
(dp89
g25
I00
sg31
I01
sg32
I00
sg42
F0.2
sbsg22
g0
(g46
g47
(lp90
I0
aF0.0045
atp91
Rp92
(dp93
g25
I00
sg31
I01
sg32
I00
sbsg23
g0
(g52
g2
Ntp94
Rp95
(dp96
g25
I00
sg31
I01
sg32
I00
sg42
I150
sbsg24
g0
(g38
g2
Ntp97
Rp98
(dp99
g25
I00
sg31
I01
sg32
I00
sg42
I2
sbsg72
g0
(cFWCore.ParameterSet.Types
_OptionalParameter
p100
g2
Ntp101
Rp102
(dp103
g25
I00
sg31
I00
sg32
I00
sV_ProxyParameter__type
p104
cFWCore.ParameterSet.Types
vstring
p105
sV_ProxyParameter__value
p106
Nsbsg59
V/cvmfs/cms.cern.ch/el8_amd64_gcc11/cms/cmssw-patch/CMSSW_13_2_5_patch1/cfipython/el8_amd64_gcc11/HLTrigger/special/hltPixelClusterShapeFilter_cfi.py
p107
sg61
I3
sg62
g63
sbsVprimaryVertexFilter
p108
g0
(g11
g2
Ntp109
Rp110
(dp111
g15
VVertexSelector
p112
sg17
(lp113
Vsrc
p114
aVcut
p115
aVfilter
p116
asg25
I00
sg26
Nsg114
g0
(g27
g2
Ntp117
Rp118
(dp119
g25
I00
sg31
I01
sg32
I00
sg33
VofflineSlimmedPrimaryVertices
p120
sg35
g36
sg37
g36
sbsg32
I00
sg115
g0
(cFWCore.ParameterSet.Types
string
p121
g2
Ntp122
Rp123
(dp124
g25
I00
sg31
I01
sg32
I00
sg42
V!isFake && abs(z) <= 25 && position.Rho <= 2
p125
sbsg116
g0
(g73
g2
Ntp126
Rp127
(dp128
g25
I00
sg31
I01
sg32
I00
sg42
I01
sbsg59
V/afs/cern.ch/work/r/rpradhan/Tracking_Studies/newCode_AfterRun3/ForEffTest/CMSSW_13_2_5_patch1/src/HeavyIonsAnalysis/EventAnalysis/python/collisionEventSelection_cff.py
p129
sg61
I5
sg62
g108
sbsVphfCoincFilter1Th3
p130
g0
(g11
g2
Ntp131
Rp132
(dp133
g15
VHiHFFilter
p134
sg17
(lp135
VHFfilters
p136
aVthreshold
p137
aVminnumtowers
p138
asg25
I00
sg26
Nsg136
g0
(g27
g2
Ntp139
Rp140
(dp141
g25
I00
sg31
I01
sg32
I00
sg33
VhiHFfilters
p142
sg35
g142
sg37
g36
sbsg32
I00
sg137
g0
(g52
g2
Ntp143
Rp144
(dp145
g25
I00
sg31
I01
sg32
I01
sg42
I3
sbsg138
g0
(g52
g2
Ntp146
Rp147
(dp148
g25
I00
sg31
I01
sg32
I01
sg42
I1
sbsg59
V/afs/cern.ch/work/r/rpradhan/Tracking_Studies/newCode_AfterRun3/ForEffTest/CMSSW_13_2_5_patch1/src/HeavyIonsAnalysis/EventAnalysis/python/hffilter_cfi.py
p149
sg61
I14
sg62
g130
sbsVphfCoincFilter1Th4
p150
g0
(g11
g2
Ntp151
Rp152
(dp153
g15
g134
sg17
(lp154
g136
ag137
ag138
asg25
I00
sg26
Nsg136
g0
(g27
g2
Ntp155
Rp156
(dp157
g25
I00
sg31
I01
sg32
I00
sg33
g142
sg35
g142
sg37
g36
sbsg32
I00
sg137
g0
(g52
g2
Ntp158
Rp159
(dp160
g25
I00
sg31
I01
sg32
I00
sg42
I4
sbsg138
g0
(g52
g2
Ntp161
Rp162
(dp163
g25
I00
sg31
I01
sg32
I01
sg42
I1
sbsg59
g149
sg61
I9
sg62
g150
sbsVphfCoincFilter1Th5
p164
g0
(g11
g2
Ntp165
Rp166
(dp167
g15
g134
sg17
(lp168
g136
ag137
ag138
asg25
I00
sg26
Nsg136
g0
(g27
g2
Ntp169
Rp170
(dp171
g25
I00
sg31
I01
sg32
I00
sg33
g142
sg35
g142
sg37
g36
sbsg32
I00
sg137
g0
(g52
g2
Ntp172
Rp173
(dp174
g25
I00
sg31
I01
sg32
I01
sg42
I5
sbsg138
g0
(g52
g2
Ntp175
Rp176
(dp177
g25
I00
sg31
I01
sg32
I01
sg42
I1
sbsg59
g149
sg61
I20
sg62
g164
sbsVphfCoincFilter1Th6
p178
g0
(g11
g2
Ntp179
Rp180
(dp181
g15
g134
sg17
(lp182
g136
ag137
ag138
asg25
I00
sg26
Nsg136
g0
(g27
g2
Ntp183
Rp184
(dp185
g25
I00
sg31
I01
sg32
I00
sg33
g142
sg35
g142
sg37
g36
sbsg32
I00
sg137
g0
(g52
g2
Ntp186
Rp187
(dp188
g25
I00
sg31
I01
sg32
I01
sg42
I6
sbsg138
g0
(g52
g2
Ntp189
Rp190
(dp191
g25
I00
sg31
I01
sg32
I01
sg42
I1
sbsg59
g149
sg61
I26
sg62
g178
sbsVphfCoincFilter2Th3
p192
g0
(g11
g2
Ntp193
Rp194
(dp195
g15
g134
sg17
(lp196
g136
ag137
ag138
asg25
I00
sg26
Nsg136
g0
(g27
g2
Ntp197
Rp198
(dp199
g25
I00
sg31
I01
sg32
I00
sg33
g142
sg35
g142
sg37
g36
sbsg32
I00
sg137
g0
(g52
g2
Ntp200
Rp201
(dp202
g25
I00
sg31
I01
sg32
I01
sg42
I3
sbsg138
g0
(g52
g2
Ntp203
Rp204
(dp205
g25
I00
sg31
I01
sg32
I00
sg42
I2
sbsg59
g149
sg61
I15
sg62
g192
sbsVphfCoincFilter2Th4
p206
g0
(g11
g2
Ntp207
Rp208
(dp209
g15
g134
sg17
(lp210
g136
ag137
ag138
asg25
I00
sg26
Nsg136
g0
(g27
g2
Ntp211
Rp212
(dp213
g25
I00
sg31
I01
sg32
I00
sg33
g142
sg35
g142
sg37
g36
sbsg32
I00
sg137
g0
(g52
g2
Ntp214
Rp215
(dp216
g25
I00
sg31
I01
sg32
I00
sg42
I4
sbsg138
g0
(g52
g2
Ntp217
Rp218
(dp219
g25
I00
sg31
I01
sg32
I00
sg42
I2
sbsg59
g149
sg61
I3
sg62
g206
sbsVphfCoincFilter2Th5
p220
g0
(g11
g2
Ntp221
Rp222
(dp223
g15
g134
sg17
(lp224
g136
ag137
ag138
asg25
I00
sg26
Nsg136
g0
(g27
g2
Ntp225
Rp226
(dp227
g25
I00
sg31
I01
sg32
I00
sg33
g142
sg35
g142
sg37
g36
sbsg32
I00
sg137
g0
(g52
g2
Ntp228
Rp229
(dp230
g25
I00
sg31
I01
sg32
I01
sg42
I5
sbsg138
g0
(g52
g2
Ntp231
Rp232
(dp233
g25
I00
sg31
I01
sg32
I00
sg42
I2
sbsg59
g149
sg61
I21
sg62
g220
sbsVphfCoincFilter2Th6
p234
g0
(g11
g2
Ntp235
Rp236
(dp237
g15
g134
sg17
(lp238
g136
ag137
ag138
asg25
I00
sg26
Nsg136
g0
(g27
g2
Ntp239
Rp240
(dp241
g25
I00
sg31
I01
sg32
I00
sg33
g142
sg35
g142
sg37
g36
sbsg32
I00
sg137
g0
(g52
g2
Ntp242
Rp243
(dp244
g25
I00
sg31
I01
sg32
I01
sg42
I6
sbsg138
g0
(g52
g2
Ntp245
Rp246
(dp247
g25
I00
sg31
I01
sg32
I00
sg42
I2
sbsg59
g149
sg61
I27
sg62
g234
sbsVphfCoincFilter3Th3
p248
g0
(g11
g2
Ntp249
Rp250
(dp251
g15
g134
sg17
(lp252
g136
ag137
ag138
asg25
I00
sg26
Nsg136
g0
(g27
g2
Ntp253
Rp254
(dp255
g25
I00
sg31
I01
sg32
I00
sg33
g142
sg35
g142
sg37
g36
sbsg32
I00
sg137
g0
(g52
g2
Ntp256
Rp257
(dp258
g25
I00
sg31
I01
sg32
I01
sg42
I3
sbsg138
g0
(g52
g2
Ntp259
Rp260
(dp261
g25
I00
sg31
I01
sg32
I01
sg42
I3
sbsg59
g149
sg61
I16
sg62
g248
sbsVphfCoincFilter3Th4
p262
g0
(g11
g2
Ntp263
Rp264
(dp265
g15
g134
sg17
(lp266
g136
ag137
ag138
asg25
I00
sg26
Nsg136
g0
(g27
g2
Ntp267
Rp268
(dp269
g25
I00
sg31
I01
sg32
I00
sg33
g142
sg35
g142
sg37
g36
sbsg32
I00
sg137
g0
(g52
g2
Ntp270
Rp271
(dp272
g25
I00
sg31
I01
sg32
I00
sg42
I4
sbsg138
g0
(g52
g2
Ntp273
Rp274
(dp275
g25
I00
sg31
I01
sg32
I01
sg42
I3
sbsg59
g149
sg61
I10
sg62
g262
sbsVphfCoincFilter3Th5
p276
g0
(g11
g2
Ntp277
Rp278
(dp279
g15
g134
sg17
(lp280
g136
ag137
ag138
asg25
I00
sg26
Nsg136
g0
(g27
g2
Ntp281
Rp282
(dp283
g25
I00
sg31
I01
sg32
I00
sg33
g142
sg35
g142
sg37
g36
sbsg32
I00
sg137
g0
(g52
g2
Ntp284
Rp285
(dp286
g25
I00
sg31
I01
sg32
I01
sg42
I5
sbsg138
g0
(g52
g2
Ntp287
Rp288
(dp289
g25
I00
sg31
I01
sg32
I01
sg42
I3
sbsg59
g149
sg61
I22
sg62
g276
sbsVphfCoincFilter3Th6
p290
g0
(g11
g2
Ntp291
Rp292
(dp293
g15
g134
sg17
(lp294
g136
ag137
ag138
asg25
I00
sg26
Nsg136
g0
(g27
g2
Ntp295
Rp296
(dp297
g25
I00
sg31
I01
sg32
I00
sg33
g142
sg35
g142
sg37
g36
sbsg32
I00
sg137
g0
(g52
g2
Ntp298
Rp299
(dp300
g25
I00
sg31
I01
sg32
I01
sg42
I6
sbsg138
g0
(g52
g2
Ntp301
Rp302
(dp303
g25
I00
sg31
I01
sg32
I01
sg42
I3
sbsg59
g149
sg61
I28
sg62
g290
sbsVphfCoincFilter4Th2
p304
g0
(g11
g2
Ntp305
Rp306
(dp307
g15
g134
sg17
(lp308
g136
ag137
ag138
asg25
I00
sg26
Nsg136
g0
(g27
g2
Ntp309
Rp310
(dp311
g25
I00
sg31
I01
sg32
I00
sg33
g142
sg35
g142
sg37
g36
sbsg32
I00
sg137
g0
(g52
g2
Ntp312
Rp313
(dp314
g25
I00
sg31
I01
sg32
I01
sg42
I2
sbsg138
g0
(g52
g2
Ntp315
Rp316
(dp317
g25
I00
sg31
I01
sg32
I01
sg42
I4
sbsg59
g149
sg61
I32
sg62
g304
sbsVphfCoincFilter4Th3
p318
g0
(g11
g2
Ntp319
Rp320
(dp321
g15
g134
sg17
(lp322
g136
ag137
ag138
asg25
I00
sg26
Nsg136
g0
(g27
g2
Ntp323
Rp324
(dp325
g25
I00
sg31
I01
sg32
I00
sg33
g142
sg35
g142
sg37
g36
sbsg32
I00
sg137
g0
(g52
g2
Ntp326
Rp327
(dp328
g25
I00
sg31
I01
sg32
I01
sg42
I3
sbsg138
g0
(g52
g2
Ntp329
Rp330
(dp331
g25
I00
sg31
I01
sg32
I01
sg42
I4
sbsg59
g149
sg61
I17
sg62
g318
sbsVphfCoincFilter4Th4
p332
g0
(g11
g2
Ntp333
Rp334
(dp335
g15
g134
sg17
(lp336
g136
ag137
ag138
asg25
I00
sg26
Nsg136
g0
(g27
g2
Ntp337
Rp338
(dp339
g25
I00
sg31
I01
sg32
I00
sg33
g142
sg35
g142
sg37
g36
sbsg32
I00
sg137
g0
(g52
g2
Ntp340
Rp341
(dp342
g25
I00
sg31
I01
sg32
I00
sg42
I4
sbsg138
g0
(g52
g2
Ntp343
Rp344
(dp345
g25
I00
sg31
I01
sg32
I01
sg42
I4
sbsg59
g149
sg61
I11
sg62
g332
sbsVphfCoincFilter4Th5
p346
g0
(g11
g2
Ntp347
Rp348
(dp349
g15
g134
sg17
(lp350
g136
ag137
ag138
asg25
I00
sg26
Nsg136
g0
(g27
g2
Ntp351
Rp352
(dp353
g25
I00
sg31
I01
sg32
I00
sg33
g142
sg35
g142
sg37
g36
sbsg32
I00
sg137
g0
(g52
g2
Ntp354
Rp355
(dp356
g25
I00
sg31
I01
sg32
I01
sg42
I5
sbsg138
g0
(g52
g2
Ntp357
Rp358
(dp359
g25
I00
sg31
I01
sg32
I01
sg42
I4
sbsg59
g149
sg61
I23
sg62
g346
sbsVphfCoincFilter4Th6
p360
g0
(g11
g2
Ntp361
Rp362
(dp363
g15
g134
sg17
(lp364
g136
ag137
ag138
asg25
I00
sg26
Nsg136
g0
(g27
g2
Ntp365
Rp366
(dp367
g25
I00
sg31
I01
sg32
I00
sg33
g142
sg35
g142
sg37
g36
sbsg32
I00
sg137
g0
(g52
g2
Ntp368
Rp369
(dp370
g25
I00
sg31
I01
sg32
I01
sg42
I6
sbsg138
g0
(g52
g2
Ntp371
Rp372
(dp373
g25
I00
sg31
I01
sg32
I01
sg42
I4
sbsg59
g149
sg61
I29
sg62
g360
sbsVphfCoincFilter5Th3
p374
g0
(g11
g2
Ntp375
Rp376
(dp377
g15
g134
sg17
(lp378
g136
ag137
ag138
asg25
I00
sg26
Nsg136
g0
(g27
g2
Ntp379
Rp380
(dp381
g25
I00
sg31
I01
sg32
I00
sg33
g142
sg35
g142
sg37
g36
sbsg32
I00
sg137
g0
(g52
g2
Ntp382
Rp383
(dp384
g25
I00
sg31
I01
sg32
I01
sg42
I3
sbsg138
g0
(g52
g2
Ntp385
Rp386
(dp387
g25
I00
sg31
I01
sg32
I01
sg42
I5
sbsg59
g149
sg61
I18
sg62
g374
sbsVphfCoincFilter5Th4
p388
g0
(g11
g2
Ntp389
Rp390
(dp391
g15
g134
sg17
(lp392
g136
ag137
ag138
asg25
I00
sg26
Nsg136
g0
(g27
g2
Ntp393
Rp394
(dp395
g25
I00
sg31
I01
sg32
I00
sg33
g142
sg35
g142
sg37
g36
sbsg32
I00
sg137
g0
(g52
g2
Ntp396
Rp397
(dp398
g25
I00
sg31
I01
sg32
I00
sg42
I4
sbsg138
g0
(g52
g2
Ntp399
Rp400
(dp401
g25
I00
sg31
I01
sg32
I01
sg42
I5
sbsg59
g149
sg61
I12
sg62
g388
sbsVphfCoincFilter5Th5
p402
g0
(g11
g2
Ntp403
Rp404
(dp405
g15
g134
sg17
(lp406
g136
ag137
ag138
asg25
I00
sg26
Nsg136
g0
(g27
g2
Ntp407
Rp408
(dp409
g25
I00
sg31
I01
sg32
I00
sg33
g142
sg35
g142
sg37
g36
sbsg32
I00
sg137
g0
(g52
g2
Ntp410
Rp411
(dp412
g25
I00
sg31
I01
sg32
I01
sg42
I5
sbsg138
g0
(g52
g2
Ntp413
Rp414
(dp415
g25
I00
sg31
I01
sg32
I01
sg42
I5
sbsg59
g149
sg61
I24
sg62
g402
sbsVphfCoincFilter5Th6
p416
g0
(g11
g2
Ntp417
Rp418
(dp419
g15
g134
sg17
(lp420
g136
ag137
ag138
asg25
I00
sg26
Nsg136
g0
(g27
g2
Ntp421
Rp422
(dp423
g25
I00
sg31
I01
sg32
I00
sg33
g142
sg35
g142
sg37
g36
sbsg32
I00
sg137
g0
(g52
g2
Ntp424
Rp425
(dp426
g25
I00
sg31
I01
sg32
I01
sg42
I6
sbsg138
g0
(g52
g2
Ntp427
Rp428
(dp429
g25
I00
sg31
I01
sg32
I01
sg42
I5
sbsg59
g149
sg61
I30
sg62
g416
sbsVhltMB
p430
g0
(g11
g2
Ntp431
Rp432
(dp433
g15
VHLTHighLevel
p434
sg17
(lp435
VTriggerResultsTag
p436
aVHLTPaths
p437
aVeventSetupPathsKey
p438
aVandOr
p439
aVthrow
p440
ag72
asg25
I00
sg26
Nsg436
g0
(g27
g2
Ntp441
Rp442
(dp443
g25
I00
sg31
I01
sg32
I00
sg33
VTriggerResults
p444
sg35
g36
sg37
VHLT
p445
sbsg32
I01
sg437
g0
(g105
g47
(lp446
VHLT_HIMinimumBiasHF1AND*
p447
atp448
Rp449
(dp450
g25
I00
sg31
I01
sg32
I01
sV_nPerLine
p451
I1
sbsg438
g0
(g121
g2
Ntp452
Rp453
(dp454
g25
I00
sg31
I01
sg32
I00
sg42
g36
sbsg439
g0
(g73
g2
Ntp455
Rp456
(dp457
g25
I00
sg31
I01
sg32
I00
sg42
I01
sbsg440
g0
(g73
g2
Ntp458
Rp459
(dp460
g25
I00
sg31
I01
sg32
I00
sg42
I00
sbsg72
g0
(g100
g2
Ntp461
Rp462
(dp463
g25
I00
sg31
I00
sg32
I00
sg104
g105
sg106
Nsbsg59
V/afs/cern.ch/work/r/rpradhan/Tracking_Studies/newCode_AfterRun3/ForEffTest/CMSSW_13_2_5_patch1/src/Analyzers/RaghuEffTest/cfg/EfficiecnyTest_genTrk_cfg.py
p464
sg61
I123
sg62
g430
sbssV_Process__producers
p465
(dp466
VrandomEngineStateProducer
p467
g0
(cFWCore.ParameterSet.Modules
EDProducer
p468
g2
Ntp469
Rp470
(dp471
g15
VRandomEngineStateProducer
p472
sg17
(lp473
sg25
I00
sg26
Nsg32
I00
sg59
V/cvmfs/cms.cern.ch/el8_amd64_gcc11/cms/cmssw-patch/CMSSW_13_2_5_patch1/src/IOMC/RandomEngine/python/IOMC_cff.py
p474
sg61
I172
sg62
g467
sbsVgeneralAndHiPixelTracks
p475
g0
(g468
g2
Ntp476
Rp477
(dp478
g15
g475
sg17
(lp479
VsrcPFcand
p480
aVchi2Map
p481
aVgenTrackSrc
p482
aVpixTrackSrc
p483
aVvertexSrc
p484
aVcentralitySrc
p485
aVmvaSrc
p486
aVcutWidth
p487
aVtrkRes
p488
aVqualityString
p489
aVdxyErrMax
p490
aVdzErrMax
p491
aVptErrMax
p492
aVnhitsMin
p493
aVchi2nMax
p494
aVchi2nMaxPixel
p495
aVdzErrMaxPixel
p496
aVdxyErrMaxPixel
p497
asg25
I00
sg26
Nsg480
g0
(g27
g2
Ntp498
Rp499
(dp500
g25
I00
sg31
I01
sg32
I00
sg33
VpackedPFCandidates
p501
sg35
g36
sg37
g36
sbsg32
I00
sg481
g0
(g27
g2
Ntp502
Rp503
(dp504
g25
I00
sg31
I01
sg32
I00
sg33
VpackedPFCandidateTrackChi2
p505
sg35
g36
sg37
g36
sbsg482
g0
(g27
g2
Ntp506
Rp507
(dp508
g25
I00
sg31
I01
sg32
I00
sg33
VgeneralTracks
p509
sg35
g36
sg37
g36
sbsg483
g0
(g27
g2
Ntp510
Rp511
(dp512
g25
I00
sg31
I01
sg32
I00
sg33
VhiPixelTracks
p513
sg35
g36
sg37
g36
sbsg484
g0
(g27
g2
Ntp514
Rp515
(dp516
g25
I00
sg31
I01
sg32
I00
sg33
VofflineSlimmedPrimaryVerticesRecovery
p517
sg35
g36
sg37
g36
sbsg485
g0
(g27
g2
Ntp518
Rp519
(dp520
g25
I00
sg31
I01
sg32
I00
sg33
VcentralityBin
p521
sg35
VHFtowers
p522
sg37
g36
sbsg486
g0
(g27
g2
Ntp523
Rp524
(dp525
g25
I00
sg31
I01
sg32
I00
sg33
g509
sg35
VMVAValues
p526
sg37
g36
sbsg487
g0
(g38
g2
Ntp527
Rp528
(dp529
g25
I00
sg31
I01
sg32
I00
sg42
F0.2
sbsg488
g0
(g38
g2
Ntp530
Rp531
(dp532
g25
I00
sg31
I01
sg32
I00
sg42
F0.02
sbsg489
g0
(g121
g2
Ntp533
Rp534
(dp535
g25
I00
sg31
I01
sg32
I00
sg42
VhighPurity
p536
sbsg490
g0
(g38
g2
Ntp537
Rp538
(dp539
g25
I00
sg31
I01
sg32
I00
sg42
F3.0
sbsg491
g0
(g38
g2
Ntp540
Rp541
(dp542
g25
I00
sg31
I01
sg32
I00
sg42
F3.0
sbsg492
g0
(g38
g2
Ntp543
Rp544
(dp545
g25
I00
sg31
I01
sg32
I00
sg42
F0.1
sbsg493
g0
(g52
g2
Ntp546
Rp547
(dp548
g25
I00
sg31
I01
sg32
I00
sg42
I11
sbsg494
g0
(g38
g2
Ntp549
Rp550
(dp551
g25
I00
sg31
I01
sg32
I00
sg42
F0.18
sbsg495
g0
(g38
g2
Ntp552
Rp553
(dp554
g25
I00
sg31
I01
sg32
I00
sg42
F9999.0
sbsg496
g0
(g38
g2
Ntp555
Rp556
(dp557
g25
I00
sg31
I01
sg32
I00
sg42
F20.0
sbsg497
g0
(g38
g2
Ntp558
Rp559
(dp560
g25
I00
sg31
I01
sg32
I00
sg42
F7.0
sbsg59
V/afs/cern.ch/work/r/rpradhan/Tracking_Studies/newCode_AfterRun3/ForEffTest/CMSSW_13_2_5_patch1/src/MergingProducer/generalAndHiPixelTracks/python/MergingPixAndGenProducer_cfi.py
p561
sg61
I3
sg62
g475
sbsg521
g0
(g468
g2
Ntp562
Rp563
(dp564
g15
VCentralityBinProducer
p565
sg17
(lp566
VCentrality
p567
aVcentralityVariable
p568
aVnonDefaultGlauberModel
p569
aVpPbRunFlip
p570
asg25
I00
sg26
Nsg567
g0
(g27
g2
Ntp571
Rp572
(dp573
g25
I00
sg31
I01
sg32
I00
sg33
VhiCentrality
p574
sg35
g36
sg37
g36
sbsg32
I01
sg568
g0
(g121
g2
Ntp575
Rp576
(dp577
g25
I00
sg31
I01
sg32
I00
sg42
g522
sbsg569
g0
(g121
g2
Ntp578
Rp579
(dp580
g25
I00
sg31
I01
sg32
I00
sg42
g36
sbsg570
g0
(cFWCore.ParameterSet.Types
uint32
p581
g2
Ntp582
Rp583
(dp584
g25
I00
sg31
I01
sg32
I00
sg42
I99999999
sbsg59
V/cvmfs/cms.cern.ch/el8_amd64_gcc11/cms/cmssw-patch/CMSSW_13_2_5_patch1/src/RecoHI/HiCentralityAlgos/python/CentralityBin_cfi.py
p585
sg61
I3
sg62
g521
sbsg80
g0
(g468
g2
Ntp586
Rp587
(dp588
g15
VSiPixelRecHitConverter
p589
sg17
(lp590
g114
aVCPE
p591
aVVerboseLevel
p592
asg25
I00
sg26
Nsg114
g0
(g27
g2
Ntp593
Rp594
(dp595
g25
I00
sg31
I01
sg32
I00
sg33
VsiPixelClusters
p596
sg35
g36
sg37
g36
sbsg32
I00
sg591
g0
(g121
g2
Ntp597
Rp598
(dp599
g25
I00
sg31
I01
sg32
I00
sg42
VPixelCPEGeneric
p600
sbsg592
g0
(g52
g2
Ntp601
Rp602
(dp603
g25
I00
sg31
I00
sg32
I00
sg42
I0
sbsg59
V/cvmfs/cms.cern.ch/el8_amd64_gcc11/cms/cmssw-patch/CMSSW_13_2_5_patch1/src/RecoLocalTracker/SiPixelRecHits/python/SiPixelRecHits_cfi.py
p604
sg61
I6
sg62
g80
sbsVsiPixelRecHitsPreSplittingCPU
p605
g0
(g468
g2
Ntp606
Rp607
(dp608
g15
VSiPixelRecHitSoAFromLegacyPhase1
p609
sg17
(lp610
VbeamSpot
p611
ag114
ag591
aVconvertToLegacy
p612
ag72
asg25
I00
sg26
Nsg611
g0
(g27
g2
Ntp613
Rp614
(dp615
g25
I00
sg31
I01
sg32
I00
sg33
VofflineBeamSpot
p616
sg35
g36
sg37
g36
sbsg32
I00
sg114
g0
(g27
g2
Ntp617
Rp618
(dp619
g25
I00
sg31
I01
sg32
I00
sg33
VsiPixelClustersPreSplitting
p620
sg35
g36
sg37
g36
sbsg591
g0
(g121
g2
Ntp621
Rp622
(dp623
g25
I00
sg31
I01
sg32
I00
sg42
VPixelCPEFast
p624
sbsg612
g0
(g73
g2
Ntp625
Rp626
(dp627
g25
I00
sg31
I01
sg32
I01
sg42
I01
sbsg72
g0
(g100
g2
Ntp628
Rp629
(dp630
g25
I00
sg31
I00
sg32
I00
sg104
g105
sg106
Nsbsg59
g604
sg61
I29
sg62
g605
sbsVsiPixelRecHitsPreSplittingCUDA
p631
g0
(g468
g2
Ntp632
Rp633
(dp634
g15
VSiPixelRecHitCUDAPhase1
p635
sg17
(lp636
g611
ag114
ag591
ag72
asg25
I00
sg26
Nsg611
g0
(g27
g2
Ntp637
Rp638
(dp639
g25
I00
sg31
I01
sg32
I01
sg33
VofflineBeamSpotToCUDA
p640
sg35
g36
sg37
g36
sbsg32
I00
sg114
g0
(g27
g2
Ntp641
Rp642
(dp643
g25
I00
sg31
I01
sg32
I00
sg33
VsiPixelClustersPreSplittingCUDA
p644
sg35
g36
sg37
g36
sbsg591
g0
(g121
g2
Ntp645
Rp646
(dp647
g25
I00
sg31
I01
sg32
I00
sg42
g624
sbsg72
g0
(g100
g2
Ntp648
Rp649
(dp650
g25
I00
sg31
I00
sg32
I00
sg104
g105
sg106
Nsbsg59
g604
sg61
I54
sg62
g631
sbssV_Process__switchproducers
p651
(dp652
VsiPixelRecHitsPreSplitting
p653
g0
(cHeterogeneousCore.CUDACore.SwitchProducerCUDA
SwitchProducerCUDA
p654
g2
Ntp655
Rp656
(dp657
g15
Nsg17
(lp658
Vcpu
p659
asg25
I00
sg26
Nsg32
I00
sg59
V/cvmfs/cms.cern.ch/el8_amd64_gcc11/cms/cmssw-patch/CMSSW_13_2_5_patch1/src/FWCore/ParameterSet/python/Modules.py
p660
sg61
I250
sV_caseFunctionDict
p661
(dp662
g659
cFWCore.ParameterSet.Modules
_switch_cpu
p663
sVcuda
p664
cHeterogeneousCore.CUDACore.SwitchProducerCUDA
_switch_cuda
p665
ssg659
g0
(g468
g2
Ntp666
Rp667
(dp668
g15
g589
sg17
(lp669
g114
ag591
ag592
asg25
I00
sg26
Nsg114
g0
(g27
g2
Ntp670
Rp671
(dp672
g25
I00
sg31
I01
sg32
I01
sg33
g620
sg35
g36
sg37
g36
sbsg32
I00
sg591
g0
(g121
g2
Ntp673
Rp674
(dp675
g25
I00
sg31
I01
sg32
I00
sg42
g600
sbsg592
g0
(g52
g2
Ntp676
Rp677
(dp678
g25
I00
sg31
I00
sg32
I00
sg42
I0
sbsg59
g604
sg61
I14
sg62
VsiPixelRecHitsPreSplitting@cpu
p679
sbsg62
g653
sbsVsiPixelRecHitsPreSplittingSoA
p680
g0
(g654
g2
Ntp681
Rp682
(dp683
g15
Nsg17
(lp684
g659
asg25
I00
sg26
Nsg32
I00
sg59
g660
sg61
I250
sg661
(dp685
g659
g663
sg664
g665
ssg659
g0
(cFWCore.ParameterSet.Types
EDAlias
p686
g2
Ntp687
Rp688
(dp689
g17
(lp690
g605
asg25
I00
sg26
Nsg605
g0
(cFWCore.ParameterSet.Types
VPSet
p691
g47
(lp692
g0
(cFWCore.ParameterSet.Types
PSet
p693
g2
Ntp694
Rp695
(dp696
g25
I00
sg31
I01
sg32
I00
sg17
(lp697
Vtype
p698
asg26
Nsg698
g0
(g121
g2
Ntp699
Rp700
(dp701
g25
I00
sg31
I01
sg32
I00
sg42
VpixelTopologyPhase1TrackingRecHitSoAHost
p702
sbsbag0
(g693
g2
Ntp703
Rp704
(dp705
g25
I00
sg31
I01
sg32
I00
sg17
(lp706
g698
asg26
Nsg698
g0
(g121
g2
Ntp707
Rp708
(dp709
g25
I00
sg31
I01
sg32
I00
sg42
VuintAsHostProduct
p710
sbsbatp711
Rp712
(dp713
g25
I00
sg31
I01
sg32
I00
sg451
I1
sbsg32
I00
sg62
VsiPixelRecHitsPreSplittingSoA@cpu
p714
sbsg62
g680
sbssV_Process__source
p715
g0
(cFWCore.ParameterSet.Modules
Source
p716
g2
Ntp717
Rp718
(dp719
g15
VPoolSource
p720
sg17
(lp721
VfileNames
p722
aVduplicateCheckMode
p723
aVskipBadFiles
p724
asg25
I00
sg26
Nsg722
g0
(g105
g47
(lp725
V/store/user/sarteaga/MinBias_PbPb_5p36TeV_Hydjet_v1/MinBias_PbPb_5p36TeV_Hydjet_MINIAOD_v5/231024_131749/0000/miniaod_1.root
p726
aV/store/user/sarteaga/MinBias_PbPb_5p36TeV_Hydjet_v1/MinBias_PbPb_5p36TeV_Hydjet_MINIAOD_v5/231024_131749/0000/miniaod_2.root
p727
aV/store/user/sarteaga/MinBias_PbPb_5p36TeV_Hydjet_v1/MinBias_PbPb_5p36TeV_Hydjet_MINIAOD_v5/231024_131749/0000/miniaod_3.root
p728
aV/store/user/sarteaga/MinBias_PbPb_5p36TeV_Hydjet_v1/MinBias_PbPb_5p36TeV_Hydjet_MINIAOD_v5/231024_131749/0000/miniaod_4.root
p729
aV/store/user/sarteaga/MinBias_PbPb_5p36TeV_Hydjet_v1/MinBias_PbPb_5p36TeV_Hydjet_MINIAOD_v5/231024_131749/0000/miniaod_5.root
p730
aV/store/user/sarteaga/MinBias_PbPb_5p36TeV_Hydjet_v1/MinBias_PbPb_5p36TeV_Hydjet_MINIAOD_v5/231024_131749/0000/miniaod_6.root
p731
aV/store/user/sarteaga/MinBias_PbPb_5p36TeV_Hydjet_v1/MinBias_PbPb_5p36TeV_Hydjet_MINIAOD_v5/231024_131749/0000/miniaod_7.root
p732
aV/store/user/sarteaga/MinBias_PbPb_5p36TeV_Hydjet_v1/MinBias_PbPb_5p36TeV_Hydjet_MINIAOD_v5/231024_131749/0000/miniaod_8.root
p733
aV/store/user/sarteaga/MinBias_PbPb_5p36TeV_Hydjet_v1/MinBias_PbPb_5p36TeV_Hydjet_MINIAOD_v5/231024_131749/0000/miniaod_9.root
p734
aV/store/user/sarteaga/MinBias_PbPb_5p36TeV_Hydjet_v1/MinBias_PbPb_5p36TeV_Hydjet_MINIAOD_v5/231024_131749/0000/miniaod_10.root
p735
aV/store/user/sarteaga/MinBias_PbPb_5p36TeV_Hydjet_v1/MinBias_PbPb_5p36TeV_Hydjet_MINIAOD_v5/231024_131749/0000/miniaod_11.root
p736
aV/store/user/sarteaga/MinBias_PbPb_5p36TeV_Hydjet_v1/MinBias_PbPb_5p36TeV_Hydjet_MINIAOD_v5/231024_131749/0000/miniaod_12.root
p737
aV/store/user/sarteaga/MinBias_PbPb_5p36TeV_Hydjet_v1/MinBias_PbPb_5p36TeV_Hydjet_MINIAOD_v5/231024_131749/0000/miniaod_14.root
p738
aV/store/user/sarteaga/MinBias_PbPb_5p36TeV_Hydjet_v1/MinBias_PbPb_5p36TeV_Hydjet_MINIAOD_v5/231024_131749/0000/miniaod_15.root
p739
aV/store/user/sarteaga/MinBias_PbPb_5p36TeV_Hydjet_v1/MinBias_PbPb_5p36TeV_Hydjet_MINIAOD_v5/231024_131749/0000/miniaod_16.root
p740
aV/store/user/sarteaga/MinBias_PbPb_5p36TeV_Hydjet_v1/MinBias_PbPb_5p36TeV_Hydjet_MINIAOD_v5/231024_131749/0000/miniaod_17.root
p741
aV/store/user/sarteaga/MinBias_PbPb_5p36TeV_Hydjet_v1/MinBias_PbPb_5p36TeV_Hydjet_MINIAOD_v5/231024_131749/0000/miniaod_18.root
p742
aV/store/user/sarteaga/MinBias_PbPb_5p36TeV_Hydjet_v1/MinBias_PbPb_5p36TeV_Hydjet_MINIAOD_v5/231024_131749/0000/miniaod_19.root
p743
aV/store/user/sarteaga/MinBias_PbPb_5p36TeV_Hydjet_v1/MinBias_PbPb_5p36TeV_Hydjet_MINIAOD_v5/231024_131749/0000/miniaod_20.root
p744
aV/store/user/sarteaga/MinBias_PbPb_5p36TeV_Hydjet_v1/MinBias_PbPb_5p36TeV_Hydjet_MINIAOD_v5/231024_131749/0000/miniaod_21.root
p745
atp746
Rp747
(dp748
g25
I00
sg31
I00
sg32
I00
sg451
I1
sbsg32
I00
sg723
g0
(g121
g2
Ntp749
Rp750
(dp751
g25
I00
sg31
I00
sg32
I00
sg42
VnoDuplicateCheck
p752
sbsg724
g0
(g73
g2
Ntp753
Rp754
(dp755
g25
I00
sg31
I00
sg32
I00
sg42
I01
sbsg59
g660
sg61
I195
sbsV_Process__looper
p756
NsV_Process__subProcesses
p757
(lp758
sV_Process__schedule
p759
NsV_Process__analyzers
p760
(dp761
VhiEvtAnalyzer
p762
g0
(cFWCore.ParameterSet.Modules
EDAnalyzer
p763
g2
Ntp764
Rp765
(dp766
g15
VHiEvtAnalyzer
p767
sg17
(lp768
VCentralitySrc
p769
aVCentralityBinSrc
p770
aVpfCandidateSrc
p771
aVEvtPlane
p772
aVEvtPlaneFlat
p773
aVHiMC
p774
aVVertex
p775
ag136
aVdoCentrality
p776
aVdoEvtPlane
p777
aVdoEvtPlaneFlat
p778
aVdoVertex
p779
aVdoMC
p780
aVdoHiMC
p781
aVuseHepMC
p782
aVdoHFfilters
p783
aVevtPlaneLevel
p784
asg25
I00
sg26
Nsg769
g0
(g27
g2
Ntp785
Rp786
(dp787
g25
I00
sg31
I01
sg32
I00
sg33
g574
sg35
g36
sg37
g36
sbsg32
I00
sg770
g0
(g27
g2
Ntp788
Rp789
(dp790
g25
I00
sg31
I01
sg32
I00
sg33
g521
sg35
g522
sg37
g36
sbsg771
g0
(g27
g2
Ntp791
Rp792
(dp793
g25
I00
sg31
I01
sg32
I00
sg33
g501
sg35
g36
sg37
g36
sbsg772
g0
(g27
g2
Ntp794
Rp795
(dp796
g25
I00
sg31
I01
sg32
I00
sg33
VhiEvtPlane
p797
sg35
g36
sg37
g36
sbsg773
g0
(g27
g2
Ntp798
Rp799
(dp800
g25
I00
sg31
I01
sg32
I00
sg33
VhiEvtPlaneFlat
p801
sg35
g36
sg37
g36
sbsg774
g0
(g27
g2
Ntp802
Rp803
(dp804
g25
I00
sg31
I01
sg32
I00
sg33
VheavyIon
p805
sg35
g36
sg37
g36
sbsg775
g0
(g27
g2
Ntp806
Rp807
(dp808
g25
I00
sg31
I01
sg32
I00
sg33
g120
sg35
g36
sg37
g36
sbsg136
g0
(g27
g2
Ntp809
Rp810
(dp811
g25
I00
sg31
I01
sg32
I00
sg33
g142
sg35
g142
sg37
g36
sbsg776
g0
(g73
g2
Ntp812
Rp813
(dp814
g25
I00
sg31
I01
sg32
I00
sg42
I01
sbsg777
g0
(g73
g2
Ntp815
Rp816
(dp817
g25
I00
sg31
I01
sg32
I00
sg42
I01
sbsg778
g0
(g73
g2
Ntp818
Rp819
(dp820
g25
I00
sg31
I01
sg32
I00
sg42
I01
sbsg779
g0
(g73
g2
Ntp821
Rp822
(dp823
g25
I00
sg31
I01
sg32
I00
sg42
I01
sbsg780
g0
(g73
g2
Ntp824
Rp825
(dp826
g25
I00
sg31
I01
sg32
I00
sg42
I00
sbsg781
g0
(g73
g2
Ntp827
Rp828
(dp829
g25
I00
sg31
I01
sg32
I00
sg42
I00
sbsg782
g0
(g73
g2
Ntp830
Rp831
(dp832
g25
I00
sg31
I01
sg32
I00
sg42
I00
sbsg783
g0
(g73
g2
Ntp833
Rp834
(dp835
g25
I00
sg31
I01
sg32
I00
sg42
I01
sbsg784
g0
(g52
g2
Ntp836
Rp837
(dp838
g25
I00
sg31
I01
sg32
I00
sg42
I0
sbsg59
V/afs/cern.ch/work/r/rpradhan/Tracking_Studies/newCode_AfterRun3/ForEffTest/CMSSW_13_2_5_patch1/src/HeavyIonsAnalysis/EventAnalysis/python/hievtanalyzer_data_cfi.py
p839
sg61
I3
sg62
g762
sbsVdefaultCPDC
p840
g0
(g763
g2
Ntp841
Rp842
(dp843
g15
g7
sg17
(lp844
Vtracks
p845
aVtracksgen
p846
aVtrackschi2
p847
aVvertex
p848
aVcentralitybin
p849
aVzminVtx
p850
aVzmaxVtx
p851
aVfGeneral
p852
aVpTBins
p853
aVetaBins
p854
aVcentbins
p855
aValgoParameters
p856
asg25
I00
sg26
Nsg845
g0
(g27
g2
Ntp857
Rp858
(dp859
g25
I00
sg31
I01
sg32
I00
sg33
g501
sg35
g36
sg37
g36
sbsg32
I00
sg846
g0
(g27
g2
Ntp860
Rp861
(dp862
g25
I00
sg31
I01
sg32
I00
sg33
VpackedGenParticles
p863
sg35
g36
sg37
g36
sbsg847
g0
(g27
g2
Ntp864
Rp865
(dp866
g25
I00
sg31
I01
sg32
I00
sg33
g505
sg35
g36
sg37
g36
sbsg848
g0
(g27
g2
Ntp867
Rp868
(dp869
g25
I00
sg31
I01
sg32
I00
sg33
g120
sg35
g36
sg37
g36
sbsg849
g0
(g27
g2
Ntp870
Rp871
(dp872
g25
I00
sg31
I01
sg32
I00
sg33
g521
sg35
g522
sg37
g36
sbsg850
g0
(g38
g2
Ntp873
Rp874
(dp875
g25
I00
sg31
I00
sg32
I00
sg42
F-15.0
sbsg851
g0
(g38
g2
Ntp876
Rp877
(dp878
g25
I00
sg31
I00
sg32
I00
sg42
F15.0
sbsg852
g0
(g27
g2
Ntp879
Rp880
(dp881
g25
I00
sg31
I00
sg32
I00
sg33
VGeneral_TrackEff_3D_nhits0_nopTResChi2_V0.root
p882
sg35
g36
sg37
g36
sbsg853
g0
(g46
g47
(lp883
F0.0
aF0.05
aF0.1
aF0.15
aF0.2
aF0.25
aF0.3
aF0.35
aF0.4
aF0.45
aF0.5
aF0.55
aF0.6
aF0.65
aF0.7
aF0.75
aF0.8
aF0.85
aF0.9
aF0.95
aF1.0
aF1.05
aF1.1
aF1.15
aF1.2
aF1.3
aF1.4
aF1.5
aF1.6
aF1.7
aF1.8
aF1.9
aF2.0
aF2.5
aF3.0
atp884
Rp885
(dp886
g25
I00
sg31
I00
sg32
I00
sbsg854
g0
(g46
g47
(lp887
F-3.0
aF-2.4
aF-2.0
aF-1.6
aF-1.2
aF-0.8
aF-0.4
aF0.0
aF0.4
aF0.8
aF1.2
aF1.6
aF2.0
aF2.4
aF3.0
atp888
Rp889
(dp890
g25
I00
sg31
I00
sg32
I00
sbsg855
g0
(g46
g47
(lp891
F0.0
aF20.0
aF40.0
aF60.0
aF80.0
aF100.0
aF120.0
aF140.0
aF160.0
aF180.0
aF200.0
atp892
Rp893
(dp894
g25
I00
sg31
I00
sg32
I00
sbsg856
g0
(cFWCore.ParameterSet.Types
vint32
p895
g47
(lp896
I0
aI1
aI2
aI3
aI4
aI5
aI6
aI7
aI8
aI9
aI10
aI11
aI12
aI13
aI14
aI15
aI16
aI17
aI18
aI19
aI20
aI21
aI22
aI23
aI24
aI25
aI26
aI27
aI28
aI29
aI30
aI31
aI32
aI33
aI34
aI35
aI36
aI37
aI38
aI39
aI40
aI41
aI42
aI43
aI44
aI45
aI46
atp897
Rp898
(dp899
g25
I00
sg31
I01
sg32
I00
sbsg59
V/afs/cern.ch/work/r/rpradhan/Tracking_Studies/newCode_AfterRun3/ForEffTest/CMSSW_13_2_5_patch1/src/Analyzers/RaghuEffTest/python/RaghuEffTest_cfi.py
p900
sg61
I3
sg62
g840
sbssV_Process__outputmodules
p901
(dp902
sV_Process__paths
p903
g0
(cFWCore.ParameterSet.DictTypes
SortedKeysDict
p904
c__builtin__
dict
p905
(dp906
Vp
p907
g0
(cFWCore.ParameterSet.SequenceTypes
Path
p908
g2
Ntp909
Rp910
(dp911
g25
I00
sV_seq
p912
g0
(cFWCore.ParameterSet.SequenceTypes
_SequenceCollection
p913
g2
Ntp914
Rp915
(dp916
V_collection
p917
(lp918
g432
ag563
ag842
asbsg32
I00
sV_tasks
p919
g0
(cFWCore.ParameterSet.OrderedSet
OrderedSet
p920
g2
Ntp921
Rp922
(dp923
Vend
p924
(lp925
Nag925
ag925
asVmap
p926
(dp927
sbsg62
g907
sbstp928
Rp929
(dp930
Vlist
p931
(lp932
g907
asbsV_Process__endpaths
p933
g0
(g904
g905
(dp934
tp935
Rp936
(dp937
g931
(lp938
sbsV_Process__finalpaths
p939
g0
(g904
g905
(dp940
tp941
Rp942
(dp943
g931
(lp944
sbsV_Process__sequences
p945
(dp946
VeventFilter
p947
g0
(cFWCore.ParameterSet.SequenceTypes
Sequence
p948
g2
Ntp949
Rp950
(dp951
g25
I00
sg912
g0
(g913
g2
Ntp952
Rp953
(dp954
g917
(lp955
g208
ag110
ag13
asbsg32
I00
sg919
g0
(g920
g2
Ntp956
Rp957
(dp958
g924
(lp959
Nag959
ag959
asg926
(dp960
sbsg62
g947
sbssV_Process__tasks
p961
(dp962
VsiPixelRecHitsPreSplittingTask
p963
g0
(cFWCore.ParameterSet.SequenceTypes
Task
p964
g2
Ntp965
Rp966
(dp967
g917
g0
(g920
g2
Ntp968
Rp969
(dp970
g924
(lp971
Na(lp972
g656
ag971
ag971
aag972
asg926
(dp973
g656
g972
ssbsg62
g963
sbssV_Process__conditionaltasks
p974
(dp975
sV_Process__services
p976
(dp977
VMessageLogger
p978
g0
(cFWCore.ParameterSet.Modules
Service
p979
g2
Ntp980
Rp981
(dp982
g15
g978
sg17
(lp983
VsuppressWarning
p984
aVsuppressFwkInfo
p985
aVsuppressInfo
p986
aVsuppressDebug
p987
aVdebugModules
p988
aVcout
p989
aVdefault
p990
aVcerr
p991
aVfiles
p992
asg25
I00
sg26
g0
(g100
g2
Ntp993
Rp994
(dp995
g25
I00
sg31
I00
sg32
I00
sg104
g0
(cFWCore.ParameterSet.Types
_PSetTemplate
p996
g2
Ntp997
Rp998
(dp999
V_pset
p1000
g0
(g693
g2
Ntp1001
Rp1002
(dp1003
g25
I00
sg31
I01
sg32
I00
sg17
(lp1004
VreportEvery
p1005
aVlimit
p1006
aVtimespan
p1007
asg26
Nsg1005
g0
(g52
g2
Ntp1008
Rp1009
(dp1010
g25
I00
sg31
I00
sg32
I00
sg42
I1
sbsg1006
g0
(g100
g2
Ntp1011
Rp1012
(dp1013
g25
I00
sg31
I00
sg32
I00
sg104
g52
sg106
Nsbsg1007
g0
(g100
g2
Ntp1014
Rp1015
(dp1016
g25
I00
sg31
I00
sg32
I00
sg104
g52
sg106
NsbsbsV_PSetTemplate__value
p1017
Nsbsg106
Nsbsg984
g0
(g105
g47
(lp1018
tp1019
Rp1020
(dp1021
g25
I00
sg31
I00
sg32
I00
sg451
I1
sbsg32
I00
sg985
g0
(g105
g47
(lp1022
tp1023
Rp1024
(dp1025
g25
I00
sg31
I00
sg32
I00
sg451
I1
sbsg986
g0
(g105
g47
(lp1026
tp1027
Rp1028
(dp1029
g25
I00
sg31
I00
sg32
I00
sg451
I1
sbsg987
g0
(g105
g47
(lp1030
tp1031
Rp1032
(dp1033
g25
I00
sg31
I00
sg32
I00
sg451
I1
sbsg988
g0
(g105
g47
(lp1034
tp1035
Rp1036
(dp1037
g25
I00
sg31
I00
sg32
I00
sg451
I1
sbsg989
g0
(g693
g2
Ntp1038
Rp1039
(dp1040
g25
I00
sg31
I00
sg32
I00
sg17
(lp1041
VnoLineBreaks
p1042
aVnoTimeStamps
p1043
aVlineLength
p1044
ag137
aVstatisticsThreshold
p1045
aVenableStatistics
p1046
aVresetStatistics
p1047
aVenable
p1048
asg26
g994
sg1042
g0
(g100
g2
Ntp1049
Rp1050
(dp1051
g25
I00
sg31
I00
sg32
I00
sg104
g73
sg106
Nsbsg1043
g0
(g100
g2
Ntp1052
Rp1053
(dp1054
g25
I00
sg31
I00
sg32
I00
sg104
g73
sg106
Nsbsg1044
g0
(g100
g2
Ntp1055
Rp1056
(dp1057
g25
I00
sg31
I00
sg32
I00
sg104
g52
sg106
Nsbsg137
g0
(g100
g2
Ntp1058
Rp1059
(dp1060
g25
I00
sg31
I00
sg32
I00
sg104
g121
sg106
Nsbsg1045
g0
(g100
g2
Ntp1061
Rp1062
(dp1063
g25
I00
sg31
I00
sg32
I00
sg104
g121
sg106
Nsbsg1046
g0
(g73
g2
Ntp1064
Rp1065
(dp1066
g25
I00
sg31
I00
sg32
I00
sg42
I00
sbsg1047
g0
(g73
g2
Ntp1067
Rp1068
(dp1069
g25
I00
sg31
I00
sg32
I00
sg42
I00
sbsg1048
g0
(g73
g2
Ntp1070
Rp1071
(dp1072
g25
I00
sg31
I00
sg32
I00
sg42
I00
sbsbsg990
g0
(g693
g2
Ntp1073
Rp1074
(dp1075
g25
I00
sg31
I00
sg32
I00
sg17
(lp1076
g1005
ag1006
ag1007
ag1042
ag1043
ag1044
ag137
ag1045
asg26
g994
sg1005
g0
(g52
g2
Ntp1077
Rp1078
(dp1079
g25
I00
sg31
I00
sg32
I00
sg42
I1
sbsg1006
g0
(g100
g2
Ntp1080
Rp1081
(dp1082
g25
I00
sg31
I00
sg32
I00
sg104
g52
sg106
Nsbsg1007
g0
(g100
g2
Ntp1083
Rp1084
(dp1085
g25
I00
sg31
I00
sg32
I00
sg104
g52
sg106
Nsbsg1042
g0
(g73
g2
Ntp1086
Rp1087
(dp1088
g25
I00
sg31
I00
sg32
I00
sg42
I00
sbsg1043
g0
(g73
g2
Ntp1089
Rp1090
(dp1091
g25
I00
sg31
I00
sg32
I00
sg42
I00
sbsg1044
g0
(g52
g2
Ntp1092
Rp1093
(dp1094
g25
I00
sg31
I00
sg32
I00
sg42
I80
sbsg137
g0
(g121
g2
Ntp1095
Rp1096
(dp1097
g25
I00
sg31
I00
sg32
I00
sg42
VINFO
p1098
sbsg1045
g0
(g121
g2
Ntp1099
Rp1100
(dp1101
g25
I00
sg31
I00
sg32
I00
sg42
g1098
sbsbsg991
g0
(g693
g2
Ntp1102
Rp1103
(dp1104
g25
I00
sg31
I00
sg32
I00
sg17
(lp1105
g1042
ag1043
ag1044
ag137
ag1045
ag1048
ag1046
ag1047
ag1098
aVFwkReport
p1106
ag990
aVRoot_NoDictionary
p1107
aVFwkSummary
p1108
asg26
g994
sg1042
g0
(g100
g2
Ntp1109
Rp1110
(dp1111
g25
I00
sg31
I00
sg32
I00
sg104
g73
sg106
Nsbsg1043
g0
(g73
g2
Ntp1112
Rp1113
(dp1114
g25
I00
sg31
I00
sg32
I00
sg42
I00
sbsg1044
g0
(g100
g2
Ntp1115
Rp1116
(dp1117
g25
I00
sg31
I00
sg32
I00
sg104
g52
sg106
Nsbsg137
g0
(g121
g2
Ntp1118
Rp1119
(dp1120
g25
I00
sg31
I00
sg32
I00
sg42
g1098
sbsg1045
g0
(g121
g2
Ntp1121
Rp1122
(dp1123
g25
I00
sg31
I00
sg32
I00
sg42
VWARNING
p1124
sbsg1048
g0
(g73
g2
Ntp1125
Rp1126
(dp1127
g25
I00
sg31
I00
sg32
I00
sg42
I01
sbsg1046
g0
(g73
g2
Ntp1128
Rp1129
(dp1130
g25
I00
sg31
I00
sg32
I00
sg42
I00
sbsg1047
g0
(g73
g2
Ntp1131
Rp1132
(dp1133
g25
I00
sg31
I00
sg32
I00
sg42
I00
sbsg1098
g0
(g693
g2
Ntp1134
Rp1135
(dp1136
g25
I00
sg31
I00
sg32
I00
sg17
(lp1137
g1006
asg26
Nsg1006
g0
(g52
g2
Ntp1138
Rp1139
(dp1140
g25
I00
sg31
I00
sg32
I00
sg42
I0
sbsbsg1106
g0
(g693
g2
Ntp1141
Rp1142
(dp1143
g25
I00
sg31
I00
sg32
I01
sg17
(lp1144
g1005
ag1006
asg26
Nsg1005
g0
(g52
g2
Ntp1145
Rp1146
(dp1147
g25
I00
sg31
I00
sg32
I01
sg42
I100
sbsg1006
g0
(g52
g2
Ntp1148
Rp1149
(dp1150
g25
I00
sg31
I00
sg32
I00
sg42
I10000000
sbsbsg990
g0
(g693
g2
Ntp1151
Rp1152
(dp1153
g25
I00
sg31
I00
sg32
I00
sg17
(lp1154
g1006
asg26
Nsg1006
g0
(g52
g2
Ntp1155
Rp1156
(dp1157
g25
I00
sg31
I00
sg32
I00
sg42
I10000000
sbsbsg1107
g0
(g693
g2
Ntp1158
Rp1159
(dp1160
g25
I00
sg31
I00
sg32
I00
sg17
(lp1161
g1006
asg26
Nsg1006
g0
(g52
g2
Ntp1162
Rp1163
(dp1164
g25
I00
sg31
I00
sg32
I00
sg42
I0
sbsbsg1108
g0
(g693
g2
Ntp1165
Rp1166
(dp1167
g25
I00
sg31
I00
sg32
I00
sg17
(lp1168
g1005
ag1006
asg26
Nsg1005
g0
(g52
g2
Ntp1169
Rp1170
(dp1171
g25
I00
sg31
I00
sg32
I00
sg42
I1
sbsg1006
g0
(g52
g2
Ntp1172
Rp1173
(dp1174
g25
I00
sg31
I00
sg32
I00
sg42
I10000000
sbsbsbsg992
g0
(g693
g2
Ntp1175
Rp1176
(dp1177
g25
I00
sg31
I00
sg32
I00
sg17
(lp1178
sg26
g0
(g100
g2
Ntp1179
Rp1180
(dp1181
g25
I00
sg31
I00
sg32
I00
sg104
g0
(g996
g2
Ntp1182
Rp1183
(dp1184
g1000
g0
(g693
g2
Ntp1185
Rp1186
(dp1187
g25
I00
sg31
I01
sg32
I00
sg17
(lp1188
g1042
ag1043
ag1044
ag137
ag1045
ag1046
ag1047
aVfilename
p1189
aVextension
p1190
aVoutput
p1191
asg26
g994
sg1042
g0
(g100
g2
Ntp1192
Rp1193
(dp1194
g25
I00
sg31
I00
sg32
I00
sg104
g73
sg106
Nsbsg1043
g0
(g100
g2
Ntp1195
Rp1196
(dp1197
g25
I00
sg31
I00
sg32
I00
sg104
g73
sg106
Nsbsg1044
g0
(g100
g2
Ntp1198
Rp1199
(dp1200
g25
I00
sg31
I00
sg32
I00
sg104
g52
sg106
Nsbsg137
g0
(g100
g2
Ntp1201
Rp1202
(dp1203
g25
I00
sg31
I00
sg32
I00
sg104
g121
sg106
Nsbsg1045
g0
(g100
g2
Ntp1204
Rp1205
(dp1206
g25
I00
sg31
I00
sg32
I00
sg104
g121
sg106
Nsbsg1046
g0
(g73
g2
Ntp1207
Rp1208
(dp1209
g25
I00
sg31
I00
sg32
I00
sg42
I00
sbsg1047
g0
(g73
g2
Ntp1210
Rp1211
(dp1212
g25
I00
sg31
I00
sg32
I00
sg42
I00
sbsg1189
g0
(g100
g2
Ntp1213
Rp1214
(dp1215
g25
I00
sg31
I00
sg32
I00
sg104
g121
sg106
Nsbsg1190
g0
(g100
g2
Ntp1216
Rp1217
(dp1218
g25
I00
sg31
I00
sg32
I00
sg104
g121
sg106
Nsbsg1191
g0
(g100
g2
Ntp1219
Rp1220
(dp1221
g25
I00
sg31
I00
sg32
I00
sg104
g121
sg106
Nsbsbsg1017
Nsbsg106
Nsbsbsg59
g660
sg61
I13
sV_inProcess
p1222
I00
sbsVDQMStore
p1223
g0
(g979
g2
Ntp1224
Rp1225
(dp1226
g15
g1223
sg17
(lp1227
Vverbose
p1228
aVsaveByLumi
p1229
aVMEsToSave
p1230
aVtrackME
p1231
aVassertLegacySafe
p1232
aVenableMultiThread
p1233
aVonlineMode
p1234
asg25
I00
sg26
Nsg1228
g0
(g52
g2
Ntp1235
Rp1236
(dp1237
g25
I00
sg31
I00
sg32
I00
sg42
I0
sbsg32
I00
sg1229
g0
(g73
g2
Ntp1238
Rp1239
(dp1240
g25
I00
sg31
I00
sg32
I00
sg42
I00
sbsg1230
g0
(g105
g47
(lp1241
VHcal/DigiTask/Occupancy/depth/depth1
p1242
aVHcal/DigiTask/Occupancy/depth/depth2
p1243
aVHcal/DigiTask/Occupancy/depth/depth3
p1244
aVHcal/DigiTask/Occupancy/depth/depth4
p1245
aVHcal/DigiTask/Occupancy/depth/depth5
p1246
aVHcal/DigiTask/Occupancy/depth/depth6
p1247
aVHcal/DigiTask/Occupancy/depth/depth7
p1248
aVHcal/DigiTask/Occupancy/depth/depthHO
p1249
aVHcal/DigiTask/OccupancyCut/depth/depth1
p1250
aVHcal/DigiTask/OccupancyCut/depth/depth2
p1251
aVHcal/DigiTask/OccupancyCut/depth/depth3
p1252
aVHcal/DigiTask/OccupancyCut/depth/depth4
p1253
aVHcal/DigiTask/OccupancyCut/depth/depth5
p1254
aVHcal/DigiTask/OccupancyCut/depth/depth6
p1255
aVHcal/DigiTask/OccupancyCut/depth/depth7
p1256
aVHcal/DigiTask/OccupancyCut/depth/depthHO
p1257
aVEcalBarrel/EBOccupancyTask/EBOT digi occupancy
p1258
aVEcalEndcap/EEOccupancyTask/EEOT digi occupancy EE -
p1259
aVEcalEndcap/EEOccupancyTask/EEOT digi occupancy EE +
p1260
aVEcalBarrel/EBOccupancyTask/EBOT DCC entries
p1261
aVEcalEndcap/EEOccupancyTask/EEOT DCC entries
p1262
aVEcal/EventInfo/processedEvents
p1263
aVPixelPhase1/Tracks/charge_PXBarrel
p1264
aVPixelPhase1/Tracks/charge_PXForward
p1265
aVPixelPhase1/Tracks/PXBarrel/charge_PXLayer_1
p1266
aVPixelPhase1/Tracks/PXBarrel/charge_PXLayer_2
p1267
aVPixelPhase1/Tracks/PXBarrel/charge_PXLayer_3
p1268
aVPixelPhase1/Tracks/PXBarrel/charge_PXLayer_4
p1269
aVPixelPhase1/Tracks/PXForward/charge_PXDisk_+1
p1270
aVPixelPhase1/Tracks/PXForward/charge_PXDisk_+2
p1271
aVPixelPhase1/Tracks/PXForward/charge_PXDisk_+3
p1272
aVPixelPhase1/Tracks/PXForward/charge_PXDisk_-1
p1273
aVPixelPhase1/Tracks/PXForward/charge_PXDisk_-2
p1274
aVPixelPhase1/Tracks/PXForward/charge_PXDisk_-3
p1275
aVPixelPhase1/Tracks/PXBarrel/size_PXLayer_1
p1276
aVPixelPhase1/Tracks/PXBarrel/size_PXLayer_2
p1277
aVPixelPhase1/Tracks/PXBarrel/size_PXLayer_3
p1278
aVPixelPhase1/Tracks/PXBarrel/size_PXLayer_4
p1279
aVPixelPhase1/Tracks/PXForward/size_PXDisk_+1
p1280
aVPixelPhase1/Tracks/PXForward/size_PXDisk_+2
p1281
aVPixelPhase1/Tracks/PXForward/size_PXDisk_+3
p1282
aVPixelPhase1/Tracks/PXForward/size_PXDisk_-1
p1283
aVPixelPhase1/Tracks/PXForward/size_PXDisk_-2
p1284
aVPixelPhase1/Tracks/PXForward/size_PXDisk_-3
p1285
aVHLT/Vertexing/hltPixelVertices/hltPixelVertices/goodvtxNbr
p1286
aVHLT/Tracking/ValidationWRTOffline/hltMergedWrtHighPurityPV/mon_eta
p1287
aVHLT/Tracking/ValidationWRTOffline/hltMergedWrtHighPurityPV/mon_hits
p1288
aVHLT/Tracking/ValidationWRTOffline/hltMergedWrtHighPurityPV/mon_phi
p1289
aVHLT/Tracking/ValidationWRTOffline/hltMergedWrtHighPurityPV/mon_pt
p1290
aVHLT/Tracking/ValidationWRTOffline/hltMergedWrtHighPurityPV/mon_unMatched_eta
p1291
aVHLT/Tracking/ValidationWRTOffline/hltMergedWrtHighPurityPV/mon_unMatched_hits
p1292
aVHLT/Tracking/ValidationWRTOffline/hltMergedWrtHighPurityPV/mon_unMatched_phi
p1293
aVHLT/Tracking/ValidationWRTOffline/hltMergedWrtHighPurityPV/mon_unMatched_pt
p1294
aVHLT/Tracking/ValidationWRTOffline/hltMergedWrtHighPurityPV/ref_eta
p1295
aVHLT/Tracking/ValidationWRTOffline/hltMergedWrtHighPurityPV/ref_hits
p1296
aVHLT/Tracking/ValidationWRTOffline/hltMergedWrtHighPurityPV/ref_matched_eta
p1297
aVHLT/Tracking/ValidationWRTOffline/hltMergedWrtHighPurityPV/ref_matched_hits
p1298
aVHLT/Tracking/ValidationWRTOffline/hltMergedWrtHighPurityPV/ref_matched_phi
p1299
aVHLT/Tracking/ValidationWRTOffline/hltMergedWrtHighPurityPV/ref_matched_pt
p1300
aVHLT/Tracking/ValidationWRTOffline/hltMergedWrtHighPurityPV/ref_phi
p1301
aVHLT/Tracking/ValidationWRTOffline/hltMergedWrtHighPurityPV/ref_pt
p1302
aVHLT/Tracking/pixelTracks/GeneralProperties/Chi2Prob_GenTk
p1303
aVHLT/Tracking/pixelTracks/GeneralProperties/Chi2oNDFVsEta_ImpactPoint_GenTk
p1304
aVHLT/Tracking/pixelTracks/GeneralProperties/DeltaZToPVZoom_GenTk
p1305
aVHLT/Tracking/pixelTracks/GeneralProperties/DistanceOfClosestApproachToPVVsPhi_GenTk
p1306
aVHLT/Tracking/pixelTracks/GeneralProperties/DistanceOfClosestApproachToPVZoom_GenTk
p1307
aVHLT/Tracking/pixelTracks/GeneralProperties/NumberOfTracks_GenTk
p1308
aVHLT/Tracking/tracks/GeneralProperties/Chi2Prob_GenTk
p1309
aVHLT/Tracking/tracks/GeneralProperties/Chi2oNDFVsEta_ImpactPoint_GenTk
p1310
aVHLT/Tracking/tracks/GeneralProperties/DeltaZToPVZoom_GenTk
p1311
aVHLT/Tracking/tracks/GeneralProperties/DistanceOfClosestApproachToPVVsPhi_GenTk
p1312
aVHLT/Tracking/tracks/GeneralProperties/DistanceOfClosestApproachToPVZoom_GenTk
p1313
aVHLT/Tracking/tracks/GeneralProperties/NumberOfTracks_GenTk
p1314
aVHLT/Tracking/tracks/LUMIanalysis/NumberEventsVsLUMI
p1315
aVHLT/Tracking/tracks/PUmonitoring/NumberEventsVsGoodPVtx
p1316
aVPixelPhase1/Tracks/num_clusters_ontrack_PXBarrel
p1317
aVPixelPhase1/Tracks/num_clusters_ontrack_PXForward
p1318
aVPixelPhase1/Tracks/clusterposition_zphi_ontrack
p1319
aVPixelPhase1/Tracks/PXBarrel/clusterposition_zphi_ontrack_PXLayer_1
p1320
aVPixelPhase1/Tracks/PXBarrel/clusterposition_zphi_ontrack_PXLayer_2
p1321
aVPixelPhase1/Tracks/PXBarrel/clusterposition_zphi_ontrack_PXLayer_3
p1322
aVPixelPhase1/Tracks/PXBarrel/clusterposition_zphi_ontrack_PXLayer_4
p1323
aVPixelPhase1/Tracks/PXForward/clusterposition_xy_ontrack_PXDisk_+1
p1324
aVPixelPhase1/Tracks/PXForward/clusterposition_xy_ontrack_PXDisk_+2
p1325
aVPixelPhase1/Tracks/PXForward/clusterposition_xy_ontrack_PXDisk_+3
p1326
aVPixelPhase1/Tracks/PXForward/clusterposition_xy_ontrack_PXDisk_-1
p1327
aVPixelPhase1/Tracks/PXForward/clusterposition_xy_ontrack_PXDisk_-2
p1328
aVPixelPhase1/Tracks/PXForward/clusterposition_xy_ontrack_PXDisk_-3
p1329
aVSiStrip/MechanicalView/TEC/PLUS/wheel_1/NormalizedHitResiduals_TEC__wheel__1
p1330
aVSiStrip/MechanicalView/TEC/PLUS/wheel_2/NormalizedHitResiduals_TEC__wheel__2
p1331
aVSiStrip/MechanicalView/TEC/PLUS/wheel_3/NormalizedHitResiduals_TEC__wheel__3
p1332
aVSiStrip/MechanicalView/TEC/PLUS/wheel_4/NormalizedHitResiduals_TEC__wheel__4
p1333
aVSiStrip/MechanicalView/TEC/PLUS/wheel_5/NormalizedHitResiduals_TEC__wheel__5
p1334
aVSiStrip/MechanicalView/TEC/PLUS/wheel_6/NormalizedHitResiduals_TEC__wheel__6
p1335
aVSiStrip/MechanicalView/TEC/PLUS/wheel_7/NormalizedHitResiduals_TEC__wheel__7
p1336
aVSiStrip/MechanicalView/TEC/PLUS/wheel_8/NormalizedHitResiduals_TEC__wheel__8
p1337
aVSiStrip/MechanicalView/TEC/PLUS/wheel_9/NormalizedHitResiduals_TEC__wheel__9
p1338
aVSiStrip/MechanicalView/TEC/MINUS/wheel_1/NormalizedHitResiduals_TEC__wheel__1
p1339
aVSiStrip/MechanicalView/TEC/MINUS/wheel_2/NormalizedHitResiduals_TEC__wheel__2
p1340
aVSiStrip/MechanicalView/TEC/MINUS/wheel_3/NormalizedHitResiduals_TEC__wheel__3
p1341
aVSiStrip/MechanicalView/TEC/MINUS/wheel_4/NormalizedHitResiduals_TEC__wheel__4
p1342
aVSiStrip/MechanicalView/TEC/MINUS/wheel_5/NormalizedHitResiduals_TEC__wheel__5
p1343
aVSiStrip/MechanicalView/TEC/MINUS/wheel_6/NormalizedHitResiduals_TEC__wheel__6
p1344
aVSiStrip/MechanicalView/TEC/MINUS/wheel_7/NormalizedHitResiduals_TEC__wheel__7
p1345
aVSiStrip/MechanicalView/TEC/MINUS/wheel_8/NormalizedHitResiduals_TEC__wheel__8
p1346
aVSiStrip/MechanicalView/TEC/MINUS/wheel_9/NormalizedHitResiduals_TEC__wheel__9
p1347
aVSiStrip/MechanicalView/TEC/PLUS/wheel_1/Summary_ClusterStoNCorr__OnTrack__TEC__PLUS__wheel__1
p1348
aVSiStrip/MechanicalView/TEC/PLUS/wheel_2/Summary_ClusterStoNCorr__OnTrack__TEC__PLUS__wheel__2
p1349
aVSiStrip/MechanicalView/TEC/PLUS/wheel_3/Summary_ClusterStoNCorr__OnTrack__TEC__PLUS__wheel__3
p1350
aVSiStrip/MechanicalView/TEC/PLUS/wheel_4/Summary_ClusterStoNCorr__OnTrack__TEC__PLUS__wheel__4
p1351
aVSiStrip/MechanicalView/TEC/PLUS/wheel_5/Summary_ClusterStoNCorr__OnTrack__TEC__PLUS__wheel__5
p1352
aVSiStrip/MechanicalView/TEC/PLUS/wheel_6/Summary_ClusterStoNCorr__OnTrack__TEC__PLUS__wheel__6
p1353
aVSiStrip/MechanicalView/TEC/PLUS/wheel_7/Summary_ClusterStoNCorr__OnTrack__TEC__PLUS__wheel__7
p1354
aVSiStrip/MechanicalView/TEC/PLUS/wheel_8/Summary_ClusterStoNCorr__OnTrack__TEC__PLUS__wheel__8
p1355
aVSiStrip/MechanicalView/TEC/PLUS/wheel_9/Summary_ClusterStoNCorr__OnTrack__TEC__PLUS__wheel__9
p1356
aVSiStrip/MechanicalView/TEC/MINUS/wheel_1/Summary_ClusterStoNCorr__OnTrack__TEC__MINUS__wheel__1
p1357
aVSiStrip/MechanicalView/TEC/MINUS/wheel_2/Summary_ClusterStoNCorr__OnTrack__TEC__MINUS__wheel__2
p1358
aVSiStrip/MechanicalView/TEC/MINUS/wheel_3/Summary_ClusterStoNCorr__OnTrack__TEC__MINUS__wheel__3
p1359
aVSiStrip/MechanicalView/TEC/MINUS/wheel_4/Summary_ClusterStoNCorr__OnTrack__TEC__MINUS__wheel__4
p1360
aVSiStrip/MechanicalView/TEC/MINUS/wheel_5/Summary_ClusterStoNCorr__OnTrack__TEC__MINUS__wheel__5
p1361
aVSiStrip/MechanicalView/TEC/MINUS/wheel_6/Summary_ClusterStoNCorr__OnTrack__TEC__MINUS__wheel__6
p1362
aVSiStrip/MechanicalView/TEC/MINUS/wheel_7/Summary_ClusterStoNCorr__OnTrack__TEC__MINUS__wheel__7
p1363
aVSiStrip/MechanicalView/TEC/MINUS/wheel_8/Summary_ClusterStoNCorr__OnTrack__TEC__MINUS__wheel__8
p1364
aVSiStrip/MechanicalView/TEC/MINUS/wheel_9/Summary_ClusterStoNCorr__OnTrack__TEC__MINUS__wheel__9
p1365
aVSiStrip/MechanicalView/TIB/layer_1/NormalizedHitResiduals_TIB__Layer__1
p1366
aVSiStrip/MechanicalView/TIB/layer_2/NormalizedHitResiduals_TIB__Layer__2
p1367
aVSiStrip/MechanicalView/TIB/layer_3/NormalizedHitResiduals_TIB__Layer__3
p1368
aVSiStrip/MechanicalView/TIB/layer_4/NormalizedHitResiduals_TIB__Layer__4
p1369
aVSiStrip/MechanicalView/TIB/layer_1/Summary_ClusterStoNCorr__OnTrack__TIB__layer__1
p1370
aVSiStrip/MechanicalView/TIB/layer_2/Summary_ClusterStoNCorr__OnTrack__TIB__layer__2
p1371
aVSiStrip/MechanicalView/TIB/layer_3/Summary_ClusterStoNCorr__OnTrack__TIB__layer__3
p1372
aVSiStrip/MechanicalView/TIB/layer_4/Summary_ClusterStoNCorr__OnTrack__TIB__layer__4
p1373
aVSiStrip/MechanicalView/TID/PLUS/wheel_1/NormalizedHitResiduals_TID__wheel__1
p1374
aVSiStrip/MechanicalView/TID/PLUS/wheel_2/NormalizedHitResiduals_TID__wheel__2
p1375
aVSiStrip/MechanicalView/TID/PLUS/wheel_3/NormalizedHitResiduals_TID__wheel__3
p1376
aVSiStrip/MechanicalView/TID/MINUS/wheel_1/NormalizedHitResiduals_TID__wheel__1
p1377
aVSiStrip/MechanicalView/TID/MINUS/wheel_2/NormalizedHitResiduals_TID__wheel__2
p1378
aVSiStrip/MechanicalView/TID/MINUS/wheel_3/NormalizedHitResiduals_TID__wheel__3
p1379
aVSiStrip/MechanicalView/TID/PLUS/wheel_1/Summary_ClusterStoNCorr__OnTrack__TID__PLUS__wheel__1
p1380
aVSiStrip/MechanicalView/TID/PLUS/wheel_2/Summary_ClusterStoNCorr__OnTrack__TID__PLUS__wheel__2
p1381
aVSiStrip/MechanicalView/TID/PLUS/wheel_3/Summary_ClusterStoNCorr__OnTrack__TID__PLUS__wheel__3
p1382
aVSiStrip/MechanicalView/TID/MINUS/wheel_1/Summary_ClusterStoNCorr__OnTrack__TID__MINUS__wheel__1
p1383
aVSiStrip/MechanicalView/TID/MINUS/wheel_2/Summary_ClusterStoNCorr__OnTrack__TID__MINUS__wheel__2
p1384
aVSiStrip/MechanicalView/TID/MINUS/wheel_3/Summary_ClusterStoNCorr__OnTrack__TID__MINUS__wheel__3
p1385
aVSiStrip/MechanicalView/TOB/layer_1/NormalizedHitResiduals_TOB__Layer__1
p1386
aVSiStrip/MechanicalView/TOB/layer_2/NormalizedHitResiduals_TOB__Layer__2
p1387
aVSiStrip/MechanicalView/TOB/layer_3/NormalizedHitResiduals_TOB__Layer__3
p1388
aVSiStrip/MechanicalView/TOB/layer_4/NormalizedHitResiduals_TOB__Layer__4
p1389
aVSiStrip/MechanicalView/TOB/layer_5/NormalizedHitResiduals_TOB__Layer__5
p1390
aVSiStrip/MechanicalView/TOB/layer_6/NormalizedHitResiduals_TOB__Layer__6
p1391
aVSiStrip/MechanicalView/TOB/layer_1/Summary_ClusterStoNCorr__OnTrack__TOB__layer__1
p1392
aVSiStrip/MechanicalView/TOB/layer_2/Summary_ClusterStoNCorr__OnTrack__TOB__layer__2
p1393
aVSiStrip/MechanicalView/TOB/layer_3/Summary_ClusterStoNCorr__OnTrack__TOB__layer__3
p1394
aVSiStrip/MechanicalView/TOB/layer_4/Summary_ClusterStoNCorr__OnTrack__TOB__layer__4
p1395
aVSiStrip/MechanicalView/TOB/layer_5/Summary_ClusterStoNCorr__OnTrack__TOB__layer__5
p1396
aVSiStrip/MechanicalView/TOB/layer_6/Summary_ClusterStoNCorr__OnTrack__TOB__layer__6
p1397
aVSiStrip/MechanicalView/MainDiagonal Position
p1398
aVSiStrip/MechanicalView/NumberOfClustersInPixel
p1399
aVSiStrip/MechanicalView/NumberOfClustersInStrip
p1400
aVTracking/TrackParameters/generalTracks/LSanalysis/Chi2oNDF_lumiFlag_GenTk
p1401
aVTracking/TrackParameters/generalTracks/LSanalysis/NumberOfRecHitsPerTrack_lumiFlag_GenTk
p1402
aVTracking/TrackParameters/generalTracks/LSanalysis/NumberOfTracks_lumiFlag_GenTk
p1403
aVTracking/TrackParameters/highPurityTracks/pt_1/GeneralProperties/SIPDxyToPV_GenTk
p1404
aVTracking/TrackParameters/highPurityTracks/pt_1/GeneralProperties/SIPDzToPV_GenTk
p1405
aVTracking/TrackParameters/highPurityTracks/pt_1/GeneralProperties/SIP3DToPV_GenTk
p1406
aVTracking/TrackParameters/generalTracks/HitProperties/NumberOfMissingOuterRecHitsPerTrack_GenTk
p1407
aVTracking/TrackParameters/generalTracks/HitProperties/NumberMORecHitsPerTrackVsPt_GenTk
p1408
aVOfflinePV/offlinePrimaryVertices/tagVtxProb
p1409
aVOfflinePV/offlinePrimaryVertices/tagType
p1410
aVOfflinePV/Resolution/PV/pull_x
p1411
aVOfflinePV/Resolution/PV/pull_y
p1412
aVOfflinePV/Resolution/PV/pull_z
p1413
aVJetMET/Jet/Cleanedak4PFJetsCHS/CHFrac_highPt_Barrel
p1414
aVJetMET/Jet/Cleanedak4PFJetsCHS/CHFrac_highPt_EndCap
p1415
aVJetMET/Jet/Cleanedak4PFJetsCHS/CHFrac_mediumPt_Barrel
p1416
aVJetMET/Jet/Cleanedak4PFJetsCHS/CHFrac_mediumPt_EndCap
p1417
aVJetMET/Jet/Cleanedak4PFJetsCHS/CHFrac_lowPt_Barrel
p1418
aVJetMET/Jet/Cleanedak4PFJetsCHS/CHFrac_lowPt_EndCap
p1419
aVJetMET/Jet/Cleanedak4PFJetsCHS/ChMultiplicity_highPt_Barrel
p1420
aVJetMET/Jet/Cleanedak4PFJetsCHS/ChMultiplicity_highPt_EndCap
p1421
aVJetMET/Jet/Cleanedak4PFJetsCHS/ChMultiplicity_mediumPt_Barrel
p1422
aVJetMET/Jet/Cleanedak4PFJetsCHS/ChMultiplicity_mediumPt_EndCap
p1423
aVJetMET/Jet/Cleanedak4PFJetsCHS/ChMultiplicity_lowPt_Barrel
p1424
aVJetMET/Jet/Cleanedak4PFJetsCHS/ChMultiplicity_lowPt_EndCap
p1425
aVJetMET/Jet/Cleanedak4PFJetsCHS/Constituents
p1426
aVJetMET/Jet/Cleanedak4PFJetsCHS/Eta
p1427
aVJetMET/Jet/Cleanedak4PFJetsCHS/Eta_uncor
p1428
aVJetMET/Jet/Cleanedak4PFJetsCHS/JetEnergyCorr
p1429
aVJetMET/Jet/Cleanedak4PFJetsCHS/NJets
p1430
aVJetMET/Jet/Cleanedak4PFJetsCHS/Phi
p1431
aVJetMET/Jet/Cleanedak4PFJetsCHS/Phi_Barrel
p1432
aVJetMET/Jet/Cleanedak4PFJetsCHS/Phi_EndCap
p1433
aVJetMET/Jet/Cleanedak4PFJetsCHS/Pt
p1434
aVJetMET/MET/pfMETT1/Cleaned/METSig
p1435
aVJetMET/vertices
p1436
atp1437
Rp1438
(dp1439
g25
I00
sg31
I00
sg32
I00
sg451
I1
sbsg1231
g0
(g121
g2
Ntp1440
Rp1441
(dp1442
g25
I00
sg31
I00
sg32
I00
sg42
g36
sbsg1232
g0
(g73
g2
Ntp1443
Rp1444
(dp1445
g25
I00
sg31
I00
sg32
I00
sg42
I00
sbsg1233
g0
(g73
g2
Ntp1446
Rp1447
(dp1448
g25
I00
sg31
I00
sg32
I00
sg42
I01
sbsg1234
g0
(g73
g2
Ntp1449
Rp1450
(dp1451
g25
I00
sg31
I00
sg32
I00
sg42
I00
sbsg59
g660
sg61
I13
sg1222
I01
sbsVRandomNumberGeneratorService
p1452
g0
(g979
g2
Ntp1453
Rp1454
(dp1455
g15
g1452
sg17
(lp1456
VexternalLHEProducer
p1457
aVgenerator
p1458
aVVtxSmeared
p1459
aVLHCTransport
p1460
aVhiSignalLHCTransport
p1461
aVg4SimHits
p1462
aVmix
p1463
aVmixData
p1464
aVsimSiStripDigiSimLink
p1465
aVsimMuonDTDigis
p1466
aVsimMuonCSCDigis
p1467
aVsimMuonRPCDigis
p1468
aVhiSignal
p1469
aVhiSignalG4SimHits
p1470
aVfamosPileUp
p1471
aVmixGenPU
p1472
aVmixSimCaloHits
p1473
aVmixRecoTracks
p1474
aVfastSimProducer
p1475
aVfastTrackerRecHits
p1476
aVecalRecHit
p1477
aVecalPreshowerRecHit
p1478
aVhbhereco
p1479
aVhoreco
p1480
aVhfreco
p1481
aVparamMuons
p1482
aVl1ParamMuons
p1483
aVMuonSimHits
p1484
aVCTPPSFastRecHits
p1485
aVsimBeamSpotFilter
p1486
aVRPixDetDigitizer
p1487
aVRPSiDetDigitizer
p1488
aVsaveFileName
p1489
asg25
I00
sg26
Nsg1457
g0
(g693
g2
Ntp1490
Rp1491
(dp1492
g25
I00
sg31
I01
sg32
I00
sg17
(lp1493
VinitialSeed
p1494
aVengineName
p1495
asg26
Nsg1494
g0
(g581
g2
Ntp1496
Rp1497
(dp1498
g25
I00
sg31
I00
sg32
I00
sg42
I234567
sbsg1495
g0
(g121
g2
Ntp1499
Rp1500
(dp1501
g25
I00
sg31
I00
sg32
I00
sg42
VMixMaxRng
p1502
sbsbsg32
I00
sg1458
g0
(g693
g2
Ntp1503
Rp1504
(dp1505
g25
I00
sg31
I01
sg32
I00
sg17
(lp1506
g1494
ag1495
asg26
Nsg1494
g0
(g581
g2
Ntp1507
Rp1508
(dp1509
g25
I00
sg31
I00
sg32
I00
sg42
I123456789
sbsg1495
g1500
sbsg1459
g0
(g693
g2
Ntp1510
Rp1511
(dp1512
g25
I00
sg31
I01
sg32
I00
sg17
(lp1513
g1494
ag1495
asg26
Nsg1494
g0
(g581
g2
Ntp1514
Rp1515
(dp1516
g25
I00
sg31
I00
sg32
I00
sg42
I98765432
sbsg1495
g1500
sbsg1460
g0
(g693
g2
Ntp1517
Rp1518
(dp1519
g25
I00
sg31
I01
sg32
I00
sg17
(lp1520
g1494
ag1495
asg26
Nsg1494
g0
(g581
g2
Ntp1521
Rp1522
(dp1523
g25
I00
sg31
I00
sg32
I00
sg42
I87654321
sbsg1495
g0
(g121
g2
Ntp1524
Rp1525
(dp1526
g25
I00
sg31
I00
sg32
I00
sg42
VTRandom3
p1527
sbsbsg1461
g0
(g693
g2
Ntp1528
Rp1529
(dp1530
g25
I00
sg31
I01
sg32
I00
sg17
(lp1531
g1494
ag1495
asg26
Nsg1494
g0
(g581
g2
Ntp1532
Rp1533
(dp1534
g25
I00
sg31
I00
sg32
I00
sg42
I88776655
sbsg1495
g0
(g121
g2
Ntp1535
Rp1536
(dp1537
g25
I00
sg31
I00
sg32
I00
sg42
g1502
sbsbsg1462
g0
(g693
g2
Ntp1538
Rp1539
(dp1540
g25
I00
sg31
I01
sg32
I00
sg17
(lp1541
g1494
ag1495
asg26
Nsg1494
g0
(g581
g2
Ntp1542
Rp1543
(dp1544
g25
I00
sg31
I00
sg32
I00
sg42
I11
sbsg1495
g1500
sbsg1463
g0
(g693
g2
Ntp1545
Rp1546
(dp1547
g25
I00
sg31
I01
sg32
I00
sg17
(lp1548
g1494
ag1495
asg26
Nsg1494
g0
(g581
g2
Ntp1549
Rp1550
(dp1551
g25
I00
sg31
I00
sg32
I00
sg42
I12345
sbsg1495
g1500
sbsg1464
g0
(g693
g2
Ntp1552
Rp1553
(dp1554
g25
I00
sg31
I01
sg32
I00
sg17
(lp1555
g1494
ag1495
asg26
Nsg1494
g0
(g581
g2
Ntp1556
Rp1557
(dp1558
g25
I00
sg31
I00
sg32
I00
sg42
I12345
sbsg1495
g1500
sbsg1465
g0
(g693
g2
Ntp1559
Rp1560
(dp1561
g25
I00
sg31
I01
sg32
I00
sg17
(lp1562
g1494
ag1495
asg26
Nsg1494
g0
(g581
g2
Ntp1563
Rp1564
(dp1565
g25
I00
sg31
I00
sg32
I00
sg42
I1234567
sbsg1495
g1500
sbsg1466
g0
(g693
g2
Ntp1566
Rp1567
(dp1568
g25
I00
sg31
I01
sg32
I00
sg17
(lp1569
g1494
ag1495
asg26
Nsg1494
g0
(g581
g2
Ntp1570
Rp1571
(dp1572
g25
I00
sg31
I00
sg32
I00
sg42
I1234567
sbsg1495
g1500
sbsg1467
g0
(g693
g2
Ntp1573
Rp1574
(dp1575
g25
I00
sg31
I01
sg32
I00
sg17
(lp1576
g1494
ag1495
asg26
Nsg1494
g0
(g581
g2
Ntp1577
Rp1578
(dp1579
g25
I00
sg31
I00
sg32
I00
sg42
I11223344
sbsg1495
g1500
sbsg1468
g0
(g693
g2
Ntp1580
Rp1581
(dp1582
g25
I00
sg31
I01
sg32
I00
sg17
(lp1583
g1494
ag1495
asg26
Nsg1494
g0
(g581
g2
Ntp1584
Rp1585
(dp1586
g25
I00
sg31
I00
sg32
I00
sg42
I1234567
sbsg1495
g1500
sbsg1469
g0
(g693
g2
Ntp1587
Rp1588
(dp1589
g25
I00
sg31
I01
sg32
I00
sg17
(lp1590
g1494
ag1495
asg26
Nsg1494
g0
(g581
g2
Ntp1591
Rp1592
(dp1593
g25
I00
sg31
I00
sg32
I00
sg42
I123456789
sbsg1495
g1500
sbsg1470
g0
(g693
g2
Ntp1594
Rp1595
(dp1596
g25
I00
sg31
I01
sg32
I00
sg17
(lp1597
g1494
ag1495
asg26
Nsg1494
g0
(g581
g2
Ntp1598
Rp1599
(dp1600
g25
I00
sg31
I00
sg32
I00
sg42
I11
sbsg1495
g1500
sbsg1471
g0
(g693
g2
Ntp1601
Rp1602
(dp1603
g25
I00
sg31
I01
sg32
I00
sg17
(lp1604
g1494
ag1495
asg26
Nsg1494
g0
(g581
g2
Ntp1605
Rp1606
(dp1607
g25
I00
sg31
I00
sg32
I00
sg42
I918273
sbsg1495
g1536
sbsg1472
g0
(g693
g2
Ntp1608
Rp1609
(dp1610
g25
I00
sg31
I01
sg32
I00
sg17
(lp1611
g1494
ag1495
asg26
Nsg1494
g0
(g581
g2
Ntp1612
Rp1613
(dp1614
g25
I00
sg31
I00
sg32
I00
sg42
I918273
sbsg1495
g1536
sbsg1473
g0
(g693
g2
Ntp1615
Rp1616
(dp1617
g25
I00
sg31
I01
sg32
I00
sg17
(lp1618
g1494
ag1495
asg26
Nsg1494
g0
(g581
g2
Ntp1619
Rp1620
(dp1621
g25
I00
sg31
I00
sg32
I00
sg42
I918273
sbsg1495
g1536
sbsg1474
g0
(g693
g2
Ntp1622
Rp1623
(dp1624
g25
I00
sg31
I01
sg32
I00
sg17
(lp1625
g1494
ag1495
asg26
Nsg1494
g0
(g581
g2
Ntp1626
Rp1627
(dp1628
g25
I00
sg31
I00
sg32
I00
sg42
I918273
sbsg1495
g1536
sbsg1475
g0
(g693
g2
Ntp1629
Rp1630
(dp1631
g25
I00
sg31
I01
sg32
I00
sg17
(lp1632
g1494
ag1495
asg26
Nsg1494
g0
(g581
g2
Ntp1633
Rp1634
(dp1635
g25
I00
sg31
I00
sg32
I00
sg42
I13579
sbsg1495
g1536
sbsg1476
g0
(g693
g2
Ntp1636
Rp1637
(dp1638
g25
I00
sg31
I01
sg32
I00
sg17
(lp1639
g1494
ag1495
asg26
Nsg1494
g0
(g581
g2
Ntp1640
Rp1641
(dp1642
g25
I00
sg31
I00
sg32
I00
sg42
I24680
sbsg1495
g1536
sbsg1477
g0
(g693
g2
Ntp1643
Rp1644
(dp1645
g25
I00
sg31
I01
sg32
I00
sg17
(lp1646
g1494
ag1495
asg26
Nsg1494
g0
(g581
g2
Ntp1647
Rp1648
(dp1649
g25
I00
sg31
I00
sg32
I00
sg42
I654321
sbsg1495
g1536
sbsg1478
g0
(g693
g2
Ntp1650
Rp1651
(dp1652
g25
I00
sg31
I01
sg32
I00
sg17
(lp1653
g1494
ag1495
asg26
Nsg1494
g0
(g581
g2
Ntp1654
Rp1655
(dp1656
g25
I00
sg31
I00
sg32
I00
sg42
I6541321
sbsg1495
g1536
sbsg1479
g0
(g693
g2
Ntp1657
Rp1658
(dp1659
g25
I00
sg31
I01
sg32
I00
sg17
(lp1660
g1494
ag1495
asg26
Nsg1494
g0
(g581
g2
Ntp1661
Rp1662
(dp1663
g25
I00
sg31
I00
sg32
I00
sg42
I541321
sbsg1495
g1536
sbsg1480
g0
(g693
g2
Ntp1664
Rp1665
(dp1666
g25
I00
sg31
I01
sg32
I00
sg17
(lp1667
g1494
ag1495
asg26
Nsg1494
g0
(g581
g2
Ntp1668
Rp1669
(dp1670
g25
I00
sg31
I00
sg32
I00
sg42
I541321
sbsg1495
g1536
sbsg1481
g0
(g693
g2
Ntp1671
Rp1672
(dp1673
g25
I00
sg31
I01
sg32
I00
sg17
(lp1674
g1494
ag1495
asg26
Nsg1494
g0
(g581
g2
Ntp1675
Rp1676
(dp1677
g25
I00
sg31
I00
sg32
I00
sg42
I541321
sbsg1495
g1536
sbsg1482
g0
(g693
g2
Ntp1678
Rp1679
(dp1680
g25
I00
sg31
I01
sg32
I00
sg17
(lp1681
g1494
ag1495
asg26
Nsg1494
g0
(g581
g2
Ntp1682
Rp1683
(dp1684
g25
I00
sg31
I00
sg32
I00
sg42
I54525
sbsg1495
g1536
sbsg1483
g0
(g693
g2
Ntp1685
Rp1686
(dp1687
g25
I00
sg31
I01
sg32
I00
sg17
(lp1688
g1494
ag1495
asg26
Nsg1494
g0
(g581
g2
Ntp1689
Rp1690
(dp1691
g25
I00
sg31
I00
sg32
I00
sg42
I6453209
sbsg1495
g1536
sbsg1484
g0
(g693
g2
Ntp1692
Rp1693
(dp1694
g25
I00
sg31
I01
sg32
I00
sg17
(lp1695
g1494
ag1495
asg26
Nsg1494
g0
(g581
g2
Ntp1696
Rp1697
(dp1698
g25
I00
sg31
I00
sg32
I00
sg42
I987346
sbsg1495
g1536
sbsg1485
g0
(g693
g2
Ntp1699
Rp1700
(dp1701
g25
I00
sg31
I01
sg32
I00
sg17
(lp1702
g1494
ag1495
asg26
Nsg1494
g0
(g581
g2
Ntp1703
Rp1704
(dp1705
g25
I00
sg31
I00
sg32
I00
sg42
I1357987
sbsg1495
g1536
sbsg1486
g0
(g693
g2
Ntp1706
Rp1707
(dp1708
g25
I00
sg31
I01
sg32
I00
sg17
(lp1709
g1494
ag1495
asg26
Nsg1494
g0
(g581
g2
Ntp1710
Rp1711
(dp1712
g25
I00
sg31
I00
sg32
I00
sg42
I87654321
sbsg1495
g1500
sbsg1487
g0
(g693
g2
Ntp1713
Rp1714
(dp1715
g25
I00
sg31
I01
sg32
I00
sg17
(lp1716
g1494
ag1495
asg26
Nsg1494
g0
(g581
g2
Ntp1717
Rp1718
(dp1719
g25
I00
sg31
I00
sg32
I00
sg42
I137137
sbsg1495
g1500
sbsg1488
g0
(g693
g2
Ntp1720
Rp1721
(dp1722
g25
I00
sg31
I01
sg32
I00
sg17
(lp1723
g1494
ag1495
asg26
Nsg1494
g0
(g581
g2
Ntp1724
Rp1725
(dp1726
g25
I00
sg31
I00
sg32
I00
sg42
I137137
sbsg1495
g1500
sbsg1489
g0
(g121
g2
Ntp1727
Rp1728
(dp1729
g25
I00
sg31
I00
sg32
I00
sg42
g36
sbsg59
g660
sg61
I13
sg1222
I01
sbsVTFileService
p1730
g0
(g979
g2
Ntp1731
Rp1732
(dp1733
g15
g1730
sg17
(lp1734
VfileName
p1735
asg25
I00
sg26
Nsg1735
g0
(g121
g2
Ntp1736
Rp1737
(dp1738
g25
I00
sg31
I01
sg32
I00
sg42
VEff_test_nopTresChi2_nhits0_MiniAOD.root
p1739
sbsg32
I00
sg59
g660
sg61
I13
sg1222
I01
sbssV_Process__essources
p1740
(dp1741
Veegeom
p1742
g0
(cFWCore.ParameterSet.Modules
ESSource
p1743
g2
Ntp1744
Rp1745
(dp1746
g15
VEmptyESSource
p1747
sg17
(lp1748
VrecordName
p1749
aViovIsRunNotTime
p1750
aVfirstValid
p1751
asg25
I00
sg26
Nsg1749
g0
(g121
g2
Ntp1752
Rp1753
(dp1754
g25
I00
sg31
I01
sg32
I00
sg42
VEcalMappingRcd
p1755
sbsg32
I00
sg1750
g0
(g73
g2
Ntp1756
Rp1757
(dp1758
g25
I00
sg31
I01
sg32
I00
sg42
I01
sbsg1751
g0
(cFWCore.ParameterSet.Types
vuint32
p1759
g47
(lp1760
I1
atp1761
Rp1762
(dp1763
g25
I00
sg31
I01
sg32
I00
sbsg59
V/cvmfs/cms.cern.ch/el8_amd64_gcc11/cms/cmssw-patch/CMSSW_13_2_5_patch1/src/Geometry/EcalMapping/python/EcalMappingRecord_cfi.py
p1764
sg61
I3
sg62
g1742
sbsVHepPDTESSource
p1765
g0
(g1743
g2
Ntp1766
Rp1767
(dp1768
g15
g1765
sg17
(lp1769
VpdtFileName
p1770
asg25
I00
sg26
Nsg1770
g0
(cFWCore.ParameterSet.Types
FileInPath
p1771
g2
Ntp1772
Rp1773
(dp1774
g25
I00
sg31
I01
sg32
I00
sg42
VSimGeneral/HepPDTESSource/data/pythiaparticle.tbl
p1775
sbsg32
I00
sg59
V/cvmfs/cms.cern.ch/el8_amd64_gcc11/cms/cmssw-patch/CMSSW_13_2_5_patch1/src/SimGeneral/HepPDTESSource/python/pythiapdt_cfi.py
p1776
sg61
I3
sg62
g1765
sbsVGlobalTag
p1777
g0
(g1743
g2
Ntp1778
Rp1779
(dp1780
g15
VPoolDBESSource
p1781
sg17
(lp1782
VDBParameters
p1783
aVconnect
p1784
aVglobaltag
p1785
aVsnapshotTime
p1786
aVtoGet
p1787
aVDumpStat
p1788
aVReconnectEachRun
p1789
aVRefreshAlways
p1790
aVRefreshEachRun
p1791
aVRefreshOpenIOVs
p1792
aVpfnPostfix
p1793
aVpfnPrefix
p1794
asg25
I00
sg26
Nsg1783
g0
(g693
g2
Ntp1795
Rp1796
(dp1797
g25
I00
sg31
I01
sg32
I00
sg17
(lp1798
VauthenticationPath
p1799
aVauthenticationSystem
p1800
aVsecurity
p1801
aVmessageLevel
p1802
aVconnectionTimeout
p1803
asg26
Nsg1799
g0
(g121
g2
Ntp1804
Rp1805
(dp1806
g25
I00
sg31
I00
sg32
I00
sg42
g36
sbsg1800
g0
(g52
g2
Ntp1807
Rp1808
(dp1809
g25
I00
sg31
I00
sg32
I00
sg42
I0
sbsg1801
g0
(g121
g2
Ntp1810
Rp1811
(dp1812
g25
I00
sg31
I00
sg32
I00
sg42
g36
sbsg1802
g0
(g52
g2
Ntp1813
Rp1814
(dp1815
g25
I00
sg31
I00
sg32
I00
sg42
I0
sbsg1803
g0
(g52
g2
Ntp1816
Rp1817
(dp1818
g25
I00
sg31
I00
sg32
I00
sg42
I0
sbsbsg32
I01
sg1784
g0
(g121
g2
Ntp1819
Rp1820
(dp1821
g25
I00
sg31
I01
sg32
I00
sg42
Vfrontier://FrontierProd/CMS_CONDITIONS
p1822
sbsg1785
g0
(g121
g2
Ntp1823
Rp1824
(dp1825
g25
I00
sg31
I01
sg32
I00
sg42
V132X_mcRun3_2023_realistic_HI_v5
p1826
sbsg1786
g0
(g121
g2
Ntp1827
Rp1828
(dp1829
g25
I00
sg31
I01
sg32
I00
sg42
V9999-12-31 23:59:59.000
p1830
sbsg1787
g0
(g691
g47
(lp1831
g0
(g693
g2
Ntp1832
Rp1833
(dp1834
g25
I00
sg31
I01
sg32
I00
sg17
(lp1835
Vrecord
p1836
aVtag
p1837
ag1784
aVlabel
p1838
asg26
Nsg1836
g0
(g121
g2
Ntp1839
Rp1840
(dp1841
g25
I00
sg31
I01
sg32
I00
sg42
VHeavyIonRcd
p1842
sbsg1837
g0
(g121
g2
Ntp1843
Rp1844
(dp1845
g25
I00
sg31
I01
sg32
I00
sg42
VCentralityTable_HFtowers200_DataPbPb_periHYDJETshape_run3v1302x04_offline_Nominal
p1846
sbsg1784
g0
(g121
g2
Ntp1847
Rp1848
(dp1849
g25
I00
sg31
I01
sg32
I00
sg42
Vsqlite_file:CentralityTable_HFtowers200_DataPbPb_periHYDJETshape_run3v1302x04_offline_Nominal.db
p1850
sbsg1838
g0
(g121
g2
Ntp1851
Rp1852
(dp1853
g25
I00
sg31
I00
sg32
I00
sg42
g522
sbsbatp1854
Rp1855
(dp1856
g25
I00
sg31
I01
sg32
I00
sg451
I1
sbsg1788
g0
(g73
g2
Ntp1857
Rp1858
(dp1859
g25
I00
sg31
I00
sg32
I00
sg42
I00
sbsg1789
g0
(g73
g2
Ntp1860
Rp1861
(dp1862
g25
I00
sg31
I00
sg32
I00
sg42
I00
sbsg1790
g0
(g73
g2
Ntp1863
Rp1864
(dp1865
g25
I00
sg31
I00
sg32
I00
sg42
I00
sbsg1791
g0
(g73
g2
Ntp1866
Rp1867
(dp1868
g25
I00
sg31
I00
sg32
I00
sg42
I00
sbsg1792
g0
(g73
g2
Ntp1869
Rp1870
(dp1871
g25
I00
sg31
I00
sg32
I00
sg42
I00
sbsg1793
g0
(g121
g2
Ntp1872
Rp1873
(dp1874
g25
I00
sg31
I00
sg32
I00
sg42
g36
sbsg1794
g0
(g121
g2
Ntp1875
Rp1876
(dp1877
g25
I00
sg31
I00
sg32
I00
sg42
g36
sbsg59
V/cvmfs/cms.cern.ch/el8_amd64_gcc11/cms/cmssw-patch/CMSSW_13_2_5_patch1/src/CondCore/ESSources/python/CondDBESSource_cfi.py
p1878
sg61
I8
sg62
g1777
sbsVHcalTimeSlewEP
p1879
g0
(g1743
g2
Ntp1880
Rp1881
(dp1882
g15
g1879
sg17
(lp1883
VappendToDataLabel
p1884
aVtimeSlewParametersM2
p1885
aVtimeSlewParametersM3
p1886
asg25
I00
sg26
Nsg1884
g0
(g121
g2
Ntp1887
Rp1888
(dp1889
g25
I00
sg31
I01
sg32
I00
sg42
VHBHE
p1890
sbsg32
I00
sg1885
g0
(g691
g47
(lp1891
g0
(g693
g2
Ntp1892
Rp1893
(dp1894
g25
I00
sg31
I01
sg32
I00
sg17
(lp1895
Vtzero
p1896
aVslope
p1897
aVtmax
p1898
asg26
Nsg1896
g0
(g38
g2
Ntp1899
Rp1900
(dp1901
g25
I00
sg31
I01
sg32
I00
sg42
F23.960177
sbsg1897
g0
(g38
g2
Ntp1902
Rp1903
(dp1904
g25
I00
sg31
I01
sg32
I00
sg42
F-3.178648
sbsg1898
g0
(g38
g2
Ntp1905
Rp1906
(dp1907
g25
I00
sg31
I01
sg32
I00
sg42
F16.0
sbsbag0
(g693
g2
Ntp1908
Rp1909
(dp1910
g25
I00
sg31
I01
sg32
I00
sg17
(lp1911
g1896
ag1897
ag1898
asg26
Nsg1896
g0
(g38
g2
Ntp1912
Rp1913
(dp1914
g25
I00
sg31
I01
sg32
I00
sg42
F11.977461
sbsg1897
g0
(g38
g2
Ntp1915
Rp1916
(dp1917
g25
I00
sg31
I01
sg32
I00
sg42
F-1.5610227
sbsg1898
g0
(g38
g2
Ntp1918
Rp1919
(dp1920
g25
I00
sg31
I01
sg32
I00
sg42
F10.0
sbsbag0
(g693
g2
Ntp1921
Rp1922
(dp1923
g25
I00
sg31
I01
sg32
I00
sg17
(lp1924
g1896
ag1897
ag1898
asg26
Nsg1896
g0
(g38
g2
Ntp1925
Rp1926
(dp1927
g25
I00
sg31
I01
sg32
I00
sg42
F9.109694
sbsg1897
g0
(g38
g2
Ntp1928
Rp1929
(dp1930
g25
I00
sg31
I01
sg32
I00
sg42
F-1.075824
sbsg1898
g0
(g38
g2
Ntp1931
Rp1932
(dp1933
g25
I00
sg31
I01
sg32
I00
sg42
F6.25
sbsbatp1934
Rp1935
(dp1936
g25
I00
sg31
I01
sg32
I00
sg451
I1
sbsg1886
g0
(g691
g47
(lp1937
g0
(g693
g2
Ntp1938
Rp1939
(dp1940
g25
I00
sg31
I01
sg32
I00
sg17
(lp1941
Vcap
p1942
aVtspar0
p1943
aVtspar1
p1944
aVtspar2
p1945
aVtspar0_siPM
p1946
aVtspar1_siPM
p1947
aVtspar2_siPM
p1948
asg26
Nsg1942
g0
(g38
g2
Ntp1949
Rp1950
(dp1951
g25
I00
sg31
I01
sg32
I00
sg42
F6.0
sbsg1943
g0
(g38
g2
Ntp1952
Rp1953
(dp1954
g25
I00
sg31
I01
sg32
I00
sg42
F12.2999
sbsg1944
g0
(g38
g2
Ntp1955
Rp1956
(dp1957
g25
I00
sg31
I01
sg32
I00
sg42
F-2.19142
sbsg1945
g0
(g38
g2
Ntp1958
Rp1959
(dp1960
g25
I00
sg31
I01
sg32
I00
sg42
F0.0
sbsg1946
g0
(g38
g2
Ntp1961
Rp1962
(dp1963
g25
I00
sg31
I01
sg32
I00
sg42
F0.0
sbsg1947
g0
(g38
g2
Ntp1964
Rp1965
(dp1966
g25
I00
sg31
I01
sg32
I00
sg42
F0.0
sbsg1948
g0
(g38
g2
Ntp1967
Rp1968
(dp1969
g25
I00
sg31
I01
sg32
I00
sg42
F0.0
sbsbag0
(g693
g2
Ntp1970
Rp1971
(dp1972
g25
I00
sg31
I01
sg32
I00
sg17
(lp1973
g1942
ag1943
ag1944
ag1945
ag1946
ag1947
ag1948
asg26
Nsg1942
g0
(g38
g2
Ntp1974
Rp1975
(dp1976
g25
I00
sg31
I01
sg32
I00
sg42
F6.0
sbsg1943
g0
(g38
g2
Ntp1977
Rp1978
(dp1979
g25
I00
sg31
I01
sg32
I00
sg42
F15.5
sbsg1944
g0
(g38
g2
Ntp1980
Rp1981
(dp1982
g25
I00
sg31
I01
sg32
I00
sg42
F-3.2
sbsg1945
g0
(g38
g2
Ntp1983
Rp1984
(dp1985
g25
I00
sg31
I01
sg32
I00
sg42
F32.0
sbsg1946
g0
(g38
g2
Ntp1986
Rp1987
(dp1988
g25
I00
sg31
I01
sg32
I00
sg42
F0.0
sbsg1947
g0
(g38
g2
Ntp1989
Rp1990
(dp1991
g25
I00
sg31
I01
sg32
I00
sg42
F0.0
sbsg1948
g0
(g38
g2
Ntp1992
Rp1993
(dp1994
g25
I00
sg31
I01
sg32
I00
sg42
F0.0
sbsbag0
(g693
g2
Ntp1995
Rp1996
(dp1997
g25
I00
sg31
I01
sg32
I00
sg17
(lp1998
g1942
ag1943
ag1944
ag1945
ag1946
ag1947
ag1948
asg26
Nsg1942
g0
(g38
g2
Ntp1999
Rp2000
(dp2001
g25
I00
sg31
I01
sg32
I00
sg42
F6.0
sbsg1943
g0
(g38
g2
Ntp2002
Rp2003
(dp2004
g25
I00
sg31
I01
sg32
I00
sg42
F12.2999
sbsg1944
g0
(g38
g2
Ntp2005
Rp2006
(dp2007
g25
I00
sg31
I01
sg32
I00
sg42
F-2.19142
sbsg1945
g0
(g38
g2
Ntp2008
Rp2009
(dp2010
g25
I00
sg31
I01
sg32
I00
sg42
F0.0
sbsg1946
g0
(g38
g2
Ntp2011
Rp2012
(dp2013
g25
I00
sg31
I01
sg32
I00
sg42
F0.0
sbsg1947
g0
(g38
g2
Ntp2014
Rp2015
(dp2016
g25
I00
sg31
I01
sg32
I00
sg42
F0.0
sbsg1948
g0
(g38
g2
Ntp2017
Rp2018
(dp2019
g25
I00
sg31
I01
sg32
I00
sg42
F0.0
sbsbag0
(g693
g2
Ntp2020
Rp2021
(dp2022
g25
I00
sg31
I01
sg32
I00
sg17
(lp2023
g1942
ag1943
ag1944
ag1945
ag1946
ag1947
ag1948
asg26
Nsg1942
g0
(g38
g2
Ntp2024
Rp2025
(dp2026
g25
I00
sg31
I01
sg32
I00
sg42
F6.0
sbsg1943
g0
(g38
g2
Ntp2027
Rp2028
(dp2029
g25
I00
sg31
I01
sg32
I00
sg42
F12.2999
sbsg1944
g0
(g38
g2
Ntp2030
Rp2031
(dp2032
g25
I00
sg31
I01
sg32
I00
sg42
F-2.19142
sbsg1945
g0
(g38
g2
Ntp2033
Rp2034
(dp2035
g25
I00
sg31
I01
sg32
I00
sg42
F0.0
sbsg1946
g0
(g38
g2
Ntp2036
Rp2037
(dp2038
g25
I00
sg31
I01
sg32
I00
sg42
F0.0
sbsg1947
g0
(g38
g2
Ntp2039
Rp2040
(dp2041
g25
I00
sg31
I01
sg32
I00
sg42
F0.0
sbsg1948
g0
(g38
g2
Ntp2042
Rp2043
(dp2044
g25
I00
sg31
I01
sg32
I00
sg42
F0.0
sbsbatp2045
Rp2046
(dp2047
g25
I00
sg31
I01
sg32
I00
sg451
I1
sbsg59
V/cvmfs/cms.cern.ch/el8_amd64_gcc11/cms/cmssw-patch/CMSSW_13_2_5_patch1/src/CalibCalorimetry/HcalPlugins/python/HcalTimeSlew_cff.py
p2048
sg61
I3
sg62
g1879
sbsVes_hardcode
p2049
g0
(g1743
g2
Ntp2050
Rp2051
(dp2052
g15
VHcalHardcodeCalibrations
p2053
sg17
(lp2054
g1787
aViLumi
p2055
aVHBRecalibration
p2056
aVHBreCalibCutoff
p2057
aVHBmeanenergies
p2058
aVHERecalibration
p2059
aVHEreCalibCutoff
p2060
aVHEmeanenergies
p2061
aVHFRecalibration
p2062
aVHFRecalParameterBlock
p2063
aVGainWidthsForTrigPrims
p2064
aVuseHBUpgrade
p2065
aVuseHEUpgrade
p2066
aVuseHFUpgrade
p2067
aVuseHOUpgrade
p2068
aVtestHFQIE10
p2069
aVtestHEPlan1
p2070
aVkillHE
p2071
aVuseLayer0Weight
p2072
aVuseIeta18depth1
p2073
aVhb
p2074
aVhe
p2075
aVhf
p2076
aVho
p2077
aVhbUpgrade
p2078
aVheUpgrade
p2079
aVhfUpgrade
p2080
aVSiPMCharacteristics
p2081
asg25
I00
sg26
Nsg1787
g0
(g105
g47
(lp2082
VGainWidths
p2083
atp2084
Rp2085
(dp2086
g25
I00
sg31
I00
sg32
I00
sg451
I1
sbsg32
I00
sg2055
g0
(g38
g2
Ntp2087
Rp2088
(dp2089
g25
I00
sg31
I01
sg32
I00
sg42
F-1.0
sbsg2056
g0
(g73
g2
Ntp2090
Rp2091
(dp2092
g25
I00
sg31
I01
sg32
I00
sg42
I00
sbsg2057
g0
(g38
g2
Ntp2093
Rp2094
(dp2095
g25
I00
sg31
I01
sg32
I00
sg42
F20.0
sbsg2058
g0
(g1771
g2
Ntp2096
Rp2097
(dp2098
g25
I00
sg31
I01
sg32
I00
sg42
VCalibCalorimetry/HcalPlugins/data/meanenergiesHB.txt
p2099
sbsg2059
g0
(g73
g2
Ntp2100
Rp2101
(dp2102
g25
I00
sg31
I01
sg32
I00
sg42
I00
sbsg2060
g0
(g38
g2
Ntp2103
Rp2104
(dp2105
g25
I00
sg31
I01
sg32
I00
sg42
F20.0
sbsg2061
g0
(g1771
g2
Ntp2106
Rp2107
(dp2108
g25
I00
sg31
I01
sg32
I00
sg42
VCalibCalorimetry/HcalPlugins/data/meanenergiesHE.txt
p2109
sbsg2062
g0
(g73
g2
Ntp2110
Rp2111
(dp2112
g25
I00
sg31
I01
sg32
I00
sg42
I00
sbsg2063
g0
(g693
g2
Ntp2113
Rp2114
(dp2115
g25
I00
sg31
I01
sg32
I00
sg17
(lp2116
VHFdepthOneParameterA
p2117
aVHFdepthOneParameterB
p2118
aVHFdepthTwoParameterA
p2119
aVHFdepthTwoParameterB
p2120
asg26
Nsg2117
g0
(g46
g47
(lp2121
F0.004123
aF0.00602
aF0.008201
aF0.010489
aF0.013379
aF0.016997
aF0.021464
aF0.027371
aF0.034195
aF0.044807
aF0.058939
aF0.125497
atp2122
Rp2123
(dp2124
g25
I00
sg31
I01
sg32
I00
sbsg2118
g0
(g46
g47
(lp2125
F-4e-06
aF-2e-06
aF0.0
aF4e-06
aF1.5e-05
aF2.6e-05
aF6.3e-05
aF8.4e-05
aF0.00016
aF0.000107
aF0.000425
aF0.000209
atp2126
Rp2127
(dp2128
g25
I00
sg31
I01
sg32
I00
sbsg2119
g0
(g46
g47
(lp2129
F0.002861
aF0.004168
aF0.0064
aF0.008388
aF0.011601
aF0.014425
aF0.018633
aF0.023232
aF0.028274
aF0.035447
aF0.051579
aF0.086593
atp2130
Rp2131
(dp2132
g25
I00
sg31
I01
sg32
I00
sbsg2120
g0
(g46
g47
(lp2133
F-2e-06
aF-0.0
aF-7e-06
aF-6e-06
aF-2e-06
aF1e-06
aF1.9e-05
aF3.1e-05
aF6.7e-05
aF1.2e-05
aF0.000157
aF-3e-06
atp2134
Rp2135
(dp2136
g25
I00
sg31
I01
sg32
I00
sbsg62
g2063
sbsg2064
g0
(g73
g2
Ntp2137
Rp2138
(dp2139
g25
I00
sg31
I01
sg32
I00
sg42
I00
sbsg2065
g0
(g73
g2
Ntp2140
Rp2141
(dp2142
g25
I00
sg31
I01
sg32
I00
sg42
I00
sbsg2066
g0
(g73
g2
Ntp2143
Rp2144
(dp2145
g25
I00
sg31
I01
sg32
I00
sg42
I00
sbsg2067
g0
(g73
g2
Ntp2146
Rp2147
(dp2148
g25
I00
sg31
I01
sg32
I00
sg42
I00
sbsg2068
g0
(g73
g2
Ntp2149
Rp2150
(dp2151
g25
I00
sg31
I01
sg32
I00
sg42
I01
sbsg2069
g0
(g73
g2
Ntp2152
Rp2153
(dp2154
g25
I00
sg31
I01
sg32
I00
sg42
I00
sbsg2070
g0
(g73
g2
Ntp2155
Rp2156
(dp2157
g25
I00
sg31
I01
sg32
I00
sg42
I00
sbsg2071
g0
(g73
g2
Ntp2158
Rp2159
(dp2160
g25
I00
sg31
I01
sg32
I00
sg42
I00
sbsg2072
g0
(g73
g2
Ntp2161
Rp2162
(dp2163
g25
I00
sg31
I01
sg32
I00
sg42
I00
sbsg2073
g0
(g73
g2
Ntp2164
Rp2165
(dp2166
g25
I00
sg31
I01
sg32
I00
sg42
I01
sbsg2074
g0
(g693
g2
Ntp2167
Rp2168
(dp2169
g25
I00
sg31
I01
sg32
I00
sg17
(lp2170
Vpedestal
p2171
aVpedestalWidth
p2172
aVgain
p2173
aVgainWidth
p2174
aVzsThreshold
p2175
aVqieType
p2176
aVqieOffset
p2177
aVqieSlope
p2178
aVmcShape
p2179
aVrecoShape
p2180
aVphotoelectronsToAnalog
p2181
aVdarkCurrent
p2182
aVnoiseCorrelation
p2183
aVnoiseThreshold
p2184
aVseedThreshold
p2185
aVdoRadiationDamage
p2186
asg26
Nsg2171
g0
(g38
g2
Ntp2187
Rp2188
(dp2189
g25
I00
sg31
I01
sg32
I00
sg42
F3.285
sbsg2172
g0
(g38
g2
Ntp2190
Rp2191
(dp2192
g25
I00
sg31
I01
sg32
I00
sg42
F0.809
sbsg2173
g0
(g46
g47
(lp2193
F0.19
atp2194
Rp2195
(dp2196
g25
I00
sg31
I01
sg32
I00
sbsg2174
g0
(g46
g47
(lp2197
F0.0
atp2198
Rp2199
(dp2200
g25
I00
sg31
I01
sg32
I00
sbsg2175
g0
(g52
g2
Ntp2201
Rp2202
(dp2203
g25
I00
sg31
I01
sg32
I00
sg42
I8
sbsg2176
g0
(g52
g2
Ntp2204
Rp2205
(dp2206
g25
I00
sg31
I01
sg32
I00
sg42
I0
sbsg2177
g0
(g46
g47
(lp2207
F-0.49
aF1.8
aF7.2
aF37.9
atp2208
Rp2209
(dp2210
g25
I00
sg31
I01
sg32
I00
sbsg2178
g0
(g46
g47
(lp2211
F0.912
aF0.917
aF0.922
aF0.923
atp2212
Rp2213
(dp2214
g25
I00
sg31
I01
sg32
I00
sbsg2179
g0
(g52
g2
Ntp2215
Rp2216
(dp2217
g25
I00
sg31
I01
sg32
I00
sg42
I125
sbsg2180
g0
(g52
g2
Ntp2218
Rp2219
(dp2220
g25
I00
sg31
I01
sg32
I00
sg42
I105
sbsg2181
g0
(g38
g2
Ntp2221
Rp2222
(dp2223
g25
I00
sg31
I01
sg32
I00
sg42
F0.3305
sbsg2182
g0
(g46
g47
(lp2224
F0.0
atp2225
Rp2226
(dp2227
g25
I00
sg31
I01
sg32
I00
sbsg2183
g0
(g46
g47
(lp2228
F0.0
atp2229
Rp2230
(dp2231
g25
I00
sg31
I01
sg32
I00
sbsg2184
g0
(g38
g2
Ntp2232
Rp2233
(dp2234
g25
I00
sg31
I01
sg32
I00
sg42
F0.0
sbsg2185
g0
(g38
g2
Ntp2235
Rp2236
(dp2237
g25
I00
sg31
I01
sg32
I00
sg42
F0.1
sbsg2186
g0
(g73
g2
Ntp2238
Rp2239
(dp2240
g25
I00
sg31
I01
sg32
I00
sg42
I00
sbsbsg2075
g0
(g693
g2
Ntp2241
Rp2242
(dp2243
g25
I00
sg31
I01
sg32
I00
sg17
(lp2244
g2171
ag2172
ag2173
ag2174
ag2175
ag2176
ag2177
ag2178
ag2179
ag2180
ag2181
ag2182
ag2183
ag2184
ag2185
ag2186
asg26
Nsg2171
g0
(g38
g2
Ntp2245
Rp2246
(dp2247
g25
I00
sg31
I01
sg32
I00
sg42
F3.163
sbsg2172
g0
(g38
g2
Ntp2248
Rp2249
(dp2250
g25
I00
sg31
I01
sg32
I00
sg42
F0.9698
sbsg2173
g0
(g46
g47
(lp2251
F0.23
atp2252
Rp2253
(dp2254
g25
I00
sg31
I01
sg32
I00
sbsg2174
g0
(g46
g47
(lp2255
I0
atp2256
Rp2257
(dp2258
g25
I00
sg31
I01
sg32
I00
sbsg2175
g0
(g52
g2
Ntp2259
Rp2260
(dp2261
g25
I00
sg31
I01
sg32
I00
sg42
I9
sbsg2176
g0
(g52
g2
Ntp2262
Rp2263
(dp2264
g25
I00
sg31
I01
sg32
I00
sg42
I0
sbsg2177
g0
(g46
g47
(lp2265
F-0.38
aF2.0
aF7.6
aF39.6
atp2266
Rp2267
(dp2268
g25
I00
sg31
I01
sg32
I00
sbsg2178
g0
(g46
g47
(lp2269
F0.912
aF0.916
aF0.92
aF0.922
atp2270
Rp2271
(dp2272
g25
I00
sg31
I01
sg32
I00
sbsg2179
g0
(g52
g2
Ntp2273
Rp2274
(dp2275
g25
I00
sg31
I01
sg32
I00
sg42
I125
sbsg2180
g0
(g52
g2
Ntp2276
Rp2277
(dp2278
g25
I00
sg31
I01
sg32
I00
sg42
I105
sbsg2181
g0
(g38
g2
Ntp2279
Rp2280
(dp2281
g25
I00
sg31
I01
sg32
I00
sg42
F0.3305
sbsg2182
g0
(g46
g47
(lp2282
F0.0
atp2283
Rp2284
(dp2285
g25
I00
sg31
I01
sg32
I00
sbsg2183
g0
(g46
g47
(lp2286
F0.0
atp2287
Rp2288
(dp2289
g25
I00
sg31
I01
sg32
I00
sbsg2184
g0
(g38
g2
Ntp2290
Rp2291
(dp2292
g25
I00
sg31
I01
sg32
I00
sg42
F0.0
sbsg2185
g0
(g38
g2
Ntp2293
Rp2294
(dp2295
g25
I00
sg31
I01
sg32
I00
sg42
F0.1
sbsg2186
g0
(g73
g2
Ntp2296
Rp2297
(dp2298
g25
I00
sg31
I01
sg32
I00
sg42
I00
sbsbsg2076
g0
(g693
g2
Ntp2299
Rp2300
(dp2301
g25
I00
sg31
I01
sg32
I00
sg17
(lp2302
g2171
ag2172
ag2173
ag2174
ag2175
ag2176
ag2177
ag2178
ag2179
ag2180
ag2181
ag2182
ag2183
ag2184
ag2185
ag2186
asg26
Nsg2171
g0
(g38
g2
Ntp2303
Rp2304
(dp2305
g25
I00
sg31
I01
sg32
I00
sg42
F9.354
sbsg2172
g0
(g38
g2
Ntp2306
Rp2307
(dp2308
g25
I00
sg31
I01
sg32
I00
sg42
F2.516
sbsg2173
g0
(g46
g47
(lp2309
F0.14
aF0.135
atp2310
Rp2311
(dp2312
g25
I00
sg31
I01
sg32
I00
sbsg2174
g0
(g46
g47
(lp2313
F0.0
aF0.0
atp2314
Rp2315
(dp2316
g25
I00
sg31
I01
sg32
I00
sbsg2175
g0
(g52
g2
Ntp2317
Rp2318
(dp2319
g25
I00
sg31
I01
sg32
I00
sg42
I-9999
sbsg2176
g0
(g52
g2
Ntp2320
Rp2321
(dp2322
g25
I00
sg31
I01
sg32
I00
sg42
I0
sbsg2177
g0
(g46
g47
(lp2323
F-0.87
aF1.4
aF7.8
aF-29.6
atp2324
Rp2325
(dp2326
g25
I00
sg31
I01
sg32
I00
sbsg2178
g0
(g46
g47
(lp2327
F0.359
aF0.358
aF0.36
aF0.367
atp2328
Rp2329
(dp2330
g25
I00
sg31
I01
sg32
I00
sbsg2179
g0
(g52
g2
Ntp2331
Rp2332
(dp2333
g25
I00
sg31
I01
sg32
I00
sg42
I301
sbsg2180
g0
(g52
g2
Ntp2334
Rp2335
(dp2336
g25
I00
sg31
I01
sg32
I00
sg42
I301
sbsg2181
g0
(g38
g2
Ntp2337
Rp2338
(dp2339
g25
I00
sg31
I01
sg32
I00
sg42
F0.0
sbsg2182
g0
(g46
g47
(lp2340
F0.0
atp2341
Rp2342
(dp2343
g25
I00
sg31
I01
sg32
I00
sbsg2183
g0
(g46
g47
(lp2344
F0.0
atp2345
Rp2346
(dp2347
g25
I00
sg31
I01
sg32
I00
sbsg2184
g0
(g38
g2
Ntp2348
Rp2349
(dp2350
g25
I00
sg31
I01
sg32
I00
sg42
F0.0
sbsg2185
g0
(g38
g2
Ntp2351
Rp2352
(dp2353
g25
I00
sg31
I01
sg32
I00
sg42
F0.1
sbsg2186
g0
(g73
g2
Ntp2354
Rp2355
(dp2356
g25
I00
sg31
I01
sg32
I00
sg42
I00
sbsbsg2077
g0
(g693
g2
Ntp2357
Rp2358
(dp2359
g25
I00
sg31
I01
sg32
I00
sg17
(lp2360
g2171
ag2172
ag2173
ag2174
ag2175
ag2176
ag2177
ag2178
ag2179
ag2180
ag2181
ag2182
ag2183
ag2184
ag2185
ag2186
asg26
Nsg2171
g0
(g38
g2
Ntp2361
Rp2362
(dp2363
g25
I00
sg31
I01
sg32
I00
sg42
F12.06
sbsg2172
g0
(g38
g2
Ntp2364
Rp2365
(dp2366
g25
I00
sg31
I01
sg32
I00
sg42
F0.6285
sbsg2173
g0
(g46
g47
(lp2367
F0.006
aF0.0087
atp2368
Rp2369
(dp2370
g25
I00
sg31
I01
sg32
I00
sbsg2174
g0
(g46
g47
(lp2371
F0.0
aF0.0
atp2372
Rp2373
(dp2374
g25
I00
sg31
I01
sg32
I00
sbsg2175
g0
(g52
g2
Ntp2375
Rp2376
(dp2377
g25
I00
sg31
I01
sg32
I00
sg42
I24
sbsg2176
g0
(g52
g2
Ntp2378
Rp2379
(dp2380
g25
I00
sg31
I01
sg32
I00
sg42
I0
sbsg2177
g0
(g46
g47
(lp2381
F-0.44
aF1.4
aF7.1
aF38.5
atp2382
Rp2383
(dp2384
g25
I00
sg31
I01
sg32
I00
sbsg2178
g0
(g46
g47
(lp2385
F0.907
aF0.915
aF0.92
aF0.921
atp2386
Rp2387
(dp2388
g25
I00
sg31
I01
sg32
I00
sbsg2179
g0
(g52
g2
Ntp2389
Rp2390
(dp2391
g25
I00
sg31
I01
sg32
I00
sg42
I201
sbsg2180
g0
(g52
g2
Ntp2392
Rp2393
(dp2394
g25
I00
sg31
I01
sg32
I00
sg42
I201
sbsg2181
g0
(g38
g2
Ntp2395
Rp2396
(dp2397
g25
I00
sg31
I01
sg32
I00
sg42
F4.0
sbsg2182
g0
(g46
g47
(lp2398
F0.0
atp2399
Rp2400
(dp2401
g25
I00
sg31
I01
sg32
I00
sbsg2183
g0
(g46
g47
(lp2402
F0.0
atp2403
Rp2404
(dp2405
g25
I00
sg31
I01
sg32
I00
sbsg2184
g0
(g38
g2
Ntp2406
Rp2407
(dp2408
g25
I00
sg31
I01
sg32
I00
sg42
F0.0
sbsg2185
g0
(g38
g2
Ntp2409
Rp2410
(dp2411
g25
I00
sg31
I01
sg32
I00
sg42
F0.1
sbsg2186
g0
(g73
g2
Ntp2412
Rp2413
(dp2414
g25
I00
sg31
I01
sg32
I00
sg42
I00
sbsbsg2078
g0
(g693
g2
Ntp2415
Rp2416
(dp2417
g25
I00
sg31
I01
sg32
I00
sg17
(lp2418
g2171
ag2172
ag2173
ag2174
ag2175
ag2176
ag2177
ag2178
ag2179
ag2180
ag2181
ag2182
ag2183
ag2184
ag2185
ag2186
aVradiationDamage
p2419
asg26
Nsg2171
g0
(g38
g2
Ntp2420
Rp2421
(dp2422
g25
I00
sg31
I01
sg32
I00
sg42
F17.3
sbsg2172
g0
(g38
g2
Ntp2423
Rp2424
(dp2425
g25
I00
sg31
I01
sg32
I00
sg42
F1.5
sbsg2173
g0
(g46
g47
(lp2426
F0.0006252
atp2427
Rp2428
(dp2429
g25
I00
sg31
I01
sg32
I00
sbsg2174
g0
(g46
g47
(lp2430
I0
atp2431
Rp2432
(dp2433
g25
I00
sg31
I01
sg32
I00
sbsg2175
g0
(g52
g2
Ntp2434
Rp2435
(dp2436
g25
I00
sg31
I01
sg32
I00
sg42
I16
sbsg2176
g0
(g52
g2
Ntp2437
Rp2438
(dp2439
g25
I00
sg31
I01
sg32
I00
sg42
I2
sbsg2177
g0
(g46
g47
(lp2440
F0.0
aF0.0
aF0.0
aF0.0
atp2441
Rp2442
(dp2443
g25
I00
sg31
I01
sg32
I00
sbsg2178
g0
(g46
g47
(lp2444
F0.05376
aF0.05376
aF0.05376
aF0.05376
atp2445
Rp2446
(dp2447
g25
I00
sg31
I01
sg32
I00
sbsg2179
g0
(g52
g2
Ntp2448
Rp2449
(dp2450
g25
I00
sg31
I01
sg32
I00
sg42
I206
sbsg2180
g0
(g52
g2
Ntp2451
Rp2452
(dp2453
g25
I00
sg31
I01
sg32
I00
sg42
I208
sbsg2181
g0
(g38
g2
Ntp2454
Rp2455
(dp2456
g25
I00
sg31
I01
sg32
I00
sg42
F40.0
sbsg2182
g0
(g46
g47
(lp2457
F0.01
aF0.015
atp2458
Rp2459
(dp2460
g25
I00
sg31
I01
sg32
I00
sbsg2183
g0
(g46
g47
(lp2461
F0.26
aF0.254
atp2462
Rp2463
(dp2464
g25
I00
sg31
I01
sg32
I00
sbsg2184
g0
(g38
g2
Ntp2465
Rp2466
(dp2467
g25
I00
sg31
I01
sg32
I00
sg42
F0.0
sbsg2185
g0
(g38
g2
Ntp2468
Rp2469
(dp2470
g25
I00
sg31
I01
sg32
I00
sg42
F0.1
sbsg2186
g0
(g73
g2
Ntp2471
Rp2472
(dp2473
g25
I00
sg31
I01
sg32
I00
sg42
I01
sbsg2419
g0
(g693
g2
Ntp2474
Rp2475
(dp2476
g25
I00
sg31
I01
sg32
I00
sg17
(lp2477
VtemperatureBase
p2478
aVtemperatureNew
p2479
aVintlumiOffset
p2480
aVdepVsTemp
p2481
aVintlumiToNeutrons
p2482
aVdepVsNeutrons
p2483
asg26
Nsg2478
g0
(g38
g2
Ntp2484
Rp2485
(dp2486
g25
I00
sg31
I01
sg32
I00
sg42
I20
sbsg2479
g0
(g38
g2
Ntp2487
Rp2488
(dp2489
g25
I00
sg31
I01
sg32
I00
sg42
I-5
sbsg2480
g0
(g38
g2
Ntp2490
Rp2491
(dp2492
g25
I00
sg31
I01
sg32
I00
sg42
I150
sbsg2481
g0
(g38
g2
Ntp2493
Rp2494
(dp2495
g25
I00
sg31
I01
sg32
I00
sg42
F0.0631
sbsg2482
g0
(g38
g2
Ntp2496
Rp2497
(dp2498
g25
I00
sg31
I01
sg32
I00
sg42
F367000000.0
sbsg2483
g0
(g46
g47
(lp2499
F5.543e-10
aF8.012e-10
atp2500
Rp2501
(dp2502
g25
I00
sg31
I01
sg32
I00
sbsbsbsg2079
g0
(g693
g2
Ntp2503
Rp2504
(dp2505
g25
I00
sg31
I01
sg32
I00
sg17
(lp2506
g2171
ag2172
ag2173
ag2174
ag2175
ag2176
ag2177
ag2178
ag2179
ag2180
ag2181
ag2182
ag2183
ag2184
ag2185
ag2186
ag2419
asg26
Nsg2171
g0
(g38
g2
Ntp2507
Rp2508
(dp2509
g25
I00
sg31
I01
sg32
I00
sg42
F17.3
sbsg2172
g0
(g38
g2
Ntp2510
Rp2511
(dp2512
g25
I00
sg31
I01
sg32
I00
sg42
F1.5
sbsg2173
g0
(g46
g47
(lp2513
F0.0006252
atp2514
Rp2515
(dp2516
g25
I00
sg31
I01
sg32
I00
sbsg2174
g0
(g46
g47
(lp2517
I0
atp2518
Rp2519
(dp2520
g25
I00
sg31
I01
sg32
I00
sbsg2175
g0
(g52
g2
Ntp2521
Rp2522
(dp2523
g25
I00
sg31
I01
sg32
I00
sg42
I16
sbsg2176
g0
(g52
g2
Ntp2524
Rp2525
(dp2526
g25
I00
sg31
I01
sg32
I00
sg42
I2
sbsg2177
g0
(g46
g47
(lp2527
F0.0
aF0.0
aF0.0
aF0.0
atp2528
Rp2529
(dp2530
g25
I00
sg31
I01
sg32
I00
sbsg2178
g0
(g46
g47
(lp2531
F0.05376
aF0.05376
aF0.05376
aF0.05376
atp2532
Rp2533
(dp2534
g25
I00
sg31
I01
sg32
I00
sbsg2179
g0
(g52
g2
Ntp2535
Rp2536
(dp2537
g25
I00
sg31
I01
sg32
I00
sg42
I206
sbsg2180
g0
(g52
g2
Ntp2538
Rp2539
(dp2540
g25
I00
sg31
I01
sg32
I00
sg42
I208
sbsg2181
g0
(g38
g2
Ntp2541
Rp2542
(dp2543
g25
I00
sg31
I01
sg32
I00
sg42
F40.0
sbsg2182
g0
(g46
g47
(lp2544
F0.01
aF0.015
atp2545
Rp2546
(dp2547
g25
I00
sg31
I01
sg32
I00
sbsg2183
g0
(g46
g47
(lp2548
F0.26
aF0.254
atp2549
Rp2550
(dp2551
g25
I00
sg31
I01
sg32
I00
sbsg2184
g0
(g38
g2
Ntp2552
Rp2553
(dp2554
g25
I00
sg31
I01
sg32
I00
sg42
F0.0
sbsg2185
g0
(g38
g2
Ntp2555
Rp2556
(dp2557
g25
I00
sg31
I01
sg32
I00
sg42
F0.1
sbsg2186
g0
(g73
g2
Ntp2558
Rp2559
(dp2560
g25
I00
sg31
I01
sg32
I00
sg42
I01
sbsg2419
g0
(g693
g2
Ntp2561
Rp2562
(dp2563
g25
I00
sg31
I01
sg32
I00
sg17
(lp2564
g2478
ag2479
ag2480
ag2481
ag2482
ag2483
asg26
Nsg2478
g0
(g38
g2
Ntp2565
Rp2566
(dp2567
g25
I00
sg31
I01
sg32
I00
sg42
I20
sbsg2479
g0
(g38
g2
Ntp2568
Rp2569
(dp2570
g25
I00
sg31
I01
sg32
I00
sg42
I5
sbsg2480
g0
(g38
g2
Ntp2571
Rp2572
(dp2573
g25
I00
sg31
I01
sg32
I00
sg42
I75
sbsg2481
g0
(g38
g2
Ntp2574
Rp2575
(dp2576
g25
I00
sg31
I01
sg32
I00
sg42
F0.0631
sbsg2482
g0
(g38
g2
Ntp2577
Rp2578
(dp2579
g25
I00
sg31
I01
sg32
I00
sg42
F29200000.0
sbsg2483
g0
(g46
g47
(lp2580
F5.543e-10
aF8.012e-10
atp2581
Rp2582
(dp2583
g25
I00
sg31
I01
sg32
I00
sbsbsbsg2080
g0
(g693
g2
Ntp2584
Rp2585
(dp2586
g25
I00
sg31
I01
sg32
I00
sg17
(lp2587
g2171
ag2172
ag2173
ag2174
ag2175
ag2176
ag2177
ag2178
ag2179
ag2180
ag2181
ag2182
ag2183
ag2184
ag2185
ag2186
asg26
Nsg2171
g0
(g38
g2
Ntp2588
Rp2589
(dp2590
g25
I00
sg31
I01
sg32
I00
sg42
F13.33
sbsg2172
g0
(g38
g2
Ntp2591
Rp2592
(dp2593
g25
I00
sg31
I01
sg32
I00
sg42
F3.33
sbsg2173
g0
(g46
g47
(lp2594
F0.14
aF0.135
atp2595
Rp2596
(dp2597
g25
I00
sg31
I01
sg32
I00
sbsg2174
g0
(g46
g47
(lp2598
F0.0
aF0.0
atp2599
Rp2600
(dp2601
g25
I00
sg31
I01
sg32
I00
sbsg2175
g0
(g52
g2
Ntp2602
Rp2603
(dp2604
g25
I00
sg31
I01
sg32
I00
sg42
I-9999
sbsg2176
g0
(g52
g2
Ntp2605
Rp2606
(dp2607
g25
I00
sg31
I01
sg32
I00
sg42
I1
sbsg2177
g0
(g46
g47
(lp2608
F0.0697
aF-0.7405
aF12.38
aF-671.9
atp2609
Rp2610
(dp2611
g25
I00
sg31
I01
sg32
I00
sbsg2178
g0
(g46
g47
(lp2612
F0.297
aF0.298
aF0.298
aF0.313
atp2613
Rp2614
(dp2615
g25
I00
sg31
I01
sg32
I00
sbsg2179
g0
(g52
g2
Ntp2616
Rp2617
(dp2618
g25
I00
sg31
I01
sg32
I00
sg42
I301
sbsg2180
g0
(g52
g2
Ntp2619
Rp2620
(dp2621
g25
I00
sg31
I01
sg32
I00
sg42
I301
sbsg2181
g0
(g38
g2
Ntp2622
Rp2623
(dp2624
g25
I00
sg31
I01
sg32
I00
sg42
F0.0
sbsg2182
g0
(g46
g47
(lp2625
F0.0
atp2626
Rp2627
(dp2628
g25
I00
sg31
I01
sg32
I00
sbsg2183
g0
(g46
g47
(lp2629
F0.0
atp2630
Rp2631
(dp2632
g25
I00
sg31
I01
sg32
I00
sbsg2184
g0
(g38
g2
Ntp2633
Rp2634
(dp2635
g25
I00
sg31
I01
sg32
I00
sg42
F0.0
sbsg2185
g0
(g38
g2
Ntp2636
Rp2637
(dp2638
g25
I00
sg31
I01
sg32
I00
sg42
F0.1
sbsg2186
g0
(g73
g2
Ntp2639
Rp2640
(dp2641
g25
I00
sg31
I01
sg32
I00
sg42
I00
sbsbsg2081
g0
(g691
g47
(lp2642
g0
(g693
g2
Ntp2643
Rp2644
(dp2645
g25
I00
sg31
I01
sg32
I00
sg17
(lp2646
Vpixels
p2647
aVcrosstalk
p2648
aVnonlin1
p2649
aVnonlin2
p2650
aVnonlin3
p2651
asg26
Nsg2647
g0
(g52
g2
Ntp2652
Rp2653
(dp2654
g25
I00
sg31
I01
sg32
I00
sg42
I36000
sbsg2648
g0
(g38
g2
Ntp2655
Rp2656
(dp2657
g25
I00
sg31
I01
sg32
I00
sg42
F0.0
sbsg2649
g0
(g38
g2
Ntp2658
Rp2659
(dp2660
g25
I00
sg31
I01
sg32
I00
sg42
F1.0
sbsg2650
g0
(g38
g2
Ntp2661
Rp2662
(dp2663
g25
I00
sg31
I01
sg32
I00
sg42
F0.0
sbsg2651
g0
(g38
g2
Ntp2664
Rp2665
(dp2666
g25
I00
sg31
I01
sg32
I00
sg42
F0.0
sbsbag0
(g693
g2
Ntp2667
Rp2668
(dp2669
g25
I00
sg31
I01
sg32
I00
sg17
(lp2670
g2647
ag2648
ag2649
ag2650
ag2651
asg26
Nsg2647
g0
(g52
g2
Ntp2671
Rp2672
(dp2673
g25
I00
sg31
I01
sg32
I00
sg42
I2500
sbsg2648
g0
(g38
g2
Ntp2674
Rp2675
(dp2676
g25
I00
sg31
I01
sg32
I00
sg42
F0.0
sbsg2649
g0
(g38
g2
Ntp2677
Rp2678
(dp2679
g25
I00
sg31
I01
sg32
I00
sg42
F1.0
sbsg2650
g0
(g38
g2
Ntp2680
Rp2681
(dp2682
g25
I00
sg31
I01
sg32
I00
sg42
F0.0
sbsg2651
g0
(g38
g2
Ntp2683
Rp2684
(dp2685
g25
I00
sg31
I01
sg32
I00
sg42
F0.0
sbsbag0
(g693
g2
Ntp2686
Rp2687
(dp2688
g25
I00
sg31
I01
sg32
I00
sg17
(lp2689
g2647
ag2648
ag2649
ag2650
ag2651
asg26
Nsg2647
g0
(g52
g2
Ntp2690
Rp2691
(dp2692
g25
I00
sg31
I01
sg32
I00
sg42
I27370
sbsg2648
g0
(g38
g2
Ntp2693
Rp2694
(dp2695
g25
I00
sg31
I01
sg32
I00
sg42
F0.17
sbsg2649
g0
(g38
g2
Ntp2696
Rp2697
(dp2698
g25
I00
sg31
I01
sg32
I00
sg42
F1.00985
sbsg2650
g0
(g38
g2
Ntp2699
Rp2700
(dp2701
g25
I00
sg31
I01
sg32
I00
sg42
F7.84089e-06
sbsg2651
g0
(g38
g2
Ntp2702
Rp2703
(dp2704
g25
I00
sg31
I01
sg32
I00
sg42
F2.86282e-10
sbsbag0
(g693
g2
Ntp2705
Rp2706
(dp2707
g25
I00
sg31
I01
sg32
I00
sg17
(lp2708
g2647
ag2648
ag2649
ag2650
ag2651
asg26
Nsg2647
g0
(g52
g2
Ntp2709
Rp2710
(dp2711
g25
I00
sg31
I01
sg32
I00
sg42
I38018
sbsg2648
g0
(g38
g2
Ntp2712
Rp2713
(dp2714
g25
I00
sg31
I01
sg32
I00
sg42
F0.196
sbsg2649
g0
(g38
g2
Ntp2715
Rp2716
(dp2717
g25
I00
sg31
I01
sg32
I00
sg42
F1.00546
sbsg2650
g0
(g38
g2
Ntp2718
Rp2719
(dp2720
g25
I00
sg31
I01
sg32
I00
sg42
F6.40239e-06
sbsg2651
g0
(g38
g2
Ntp2721
Rp2722
(dp2723
g25
I00
sg31
I01
sg32
I00
sg42
F1.27011e-10
sbsbag0
(g693
g2
Ntp2724
Rp2725
(dp2726
g25
I00
sg31
I01
sg32
I00
sg17
(lp2727
g2647
ag2648
ag2649
ag2650
ag2651
asg26
Nsg2647
g0
(g52
g2
Ntp2728
Rp2729
(dp2730
g25
I00
sg31
I01
sg32
I00
sg42
I27370
sbsg2648
g0
(g38
g2
Ntp2731
Rp2732
(dp2733
g25
I00
sg31
I01
sg32
I00
sg42
F0.17
sbsg2649
g0
(g38
g2
Ntp2734
Rp2735
(dp2736
g25
I00
sg31
I01
sg32
I00
sg42
F1.00985
sbsg2650
g0
(g38
g2
Ntp2737
Rp2738
(dp2739
g25
I00
sg31
I01
sg32
I00
sg42
F7.84089e-06
sbsg2651
g0
(g38
g2
Ntp2740
Rp2741
(dp2742
g25
I00
sg31
I01
sg32
I00
sg42
F2.86282e-10
sbsbag0
(g693
g2
Ntp2743
Rp2744
(dp2745
g25
I00
sg31
I01
sg32
I00
sg17
(lp2746
g2647
ag2648
ag2649
ag2650
ag2651
asg26
Nsg2647
g0
(g52
g2
Ntp2747
Rp2748
(dp2749
g25
I00
sg31
I01
sg32
I00
sg42
I38018
sbsg2648
g0
(g38
g2
Ntp2750
Rp2751
(dp2752
g25
I00
sg31
I01
sg32
I00
sg42
F0.196
sbsg2649
g0
(g38
g2
Ntp2753
Rp2754
(dp2755
g25
I00
sg31
I01
sg32
I00
sg42
F1.00546
sbsg2650
g0
(g38
g2
Ntp2756
Rp2757
(dp2758
g25
I00
sg31
I01
sg32
I00
sg42
F6.40239e-06
sbsg2651
g0
(g38
g2
Ntp2759
Rp2760
(dp2761
g25
I00
sg31
I01
sg32
I00
sg42
F1.27011e-10
sbsbag0
(g693
g2
Ntp2762
Rp2763
(dp2764
g25
I00
sg31
I01
sg32
I00
sg17
(lp2765
g2647
ag2648
ag2649
ag2650
ag2651
asg26
Nsg2647
g0
(g52
g2
Ntp2766
Rp2767
(dp2768
g25
I00
sg31
I01
sg32
I00
sg42
I0
sbsg2648
g0
(g38
g2
Ntp2769
Rp2770
(dp2771
g25
I00
sg31
I01
sg32
I00
sg42
F0.0
sbsg2649
g0
(g38
g2
Ntp2772
Rp2773
(dp2774
g25
I00
sg31
I01
sg32
I00
sg42
F1.0
sbsg2650
g0
(g38
g2
Ntp2775
Rp2776
(dp2777
g25
I00
sg31
I01
sg32
I00
sg42
F0.0
sbsg2651
g0
(g38
g2
Ntp2778
Rp2779
(dp2780
g25
I00
sg31
I01
sg32
I00
sg42
F0.0
sbsbatp2781
Rp2782
(dp2783
g25
I00
sg31
I01
sg32
I00
sg451
I1
sbsg59
V/cvmfs/cms.cern.ch/el8_amd64_gcc11/cms/cmssw-patch/CMSSW_13_2_5_patch1/src/CalibCalorimetry/HcalPlugins/python/Hcal_Conditions_forGlobalTag_cff.py
p2784
sg61
I16
sg62
g2049
sbssV_Process__esproducers
p2785
(dp2786
VCSCGeometryESModule
p2787
g0
(cFWCore.ParameterSet.Modules
ESProducer
p2788
g2
Ntp2789
Rp2790
(dp2791
g15
g2787
sg17
(lp2792
VfromDDD
p2793
aVfromDD4hep
p2794
aValignmentsLabel
p2795
ag1884
aVuseRealWireGeometry
p2796
aVuseOnlyWiresInME1a
p2797
aVuseGangedStripsInME1a
p2798
aVuseCentreTIOffsets
p2799
aVapplyAlignment
p2800
aVdebugV
p2801
asg25
I00
sg26
Nsg2793
g0
(g73
g2
Ntp2802
Rp2803
(dp2804
g25
I00
sg31
I01
sg32
I00
sg42
I00
sbsg32
I00
sg2794
g0
(g73
g2
Ntp2805
Rp2806
(dp2807
g25
I00
sg31
I01
sg32
I00
sg42
I00
sbsg2795
g0
(g121
g2
Ntp2808
Rp2809
(dp2810
g25
I00
sg31
I01
sg32
I00
sg42
g36
sbsg1884
g0
(g121
g2
Ntp2811
Rp2812
(dp2813
g25
I00
sg31
I01
sg32
I00
sg42
g36
sbsg2796
g0
(g73
g2
Ntp2814
Rp2815
(dp2816
g25
I00
sg31
I01
sg32
I00
sg42
I01
sbsg2797
g0
(g73
g2
Ntp2817
Rp2818
(dp2819
g25
I00
sg31
I01
sg32
I00
sg42
I00
sbsg2798
g0
(g73
g2
Ntp2820
Rp2821
(dp2822
g25
I00
sg31
I01
sg32
I00
sg42
I01
sbsg2799
g0
(g73
g2
Ntp2823
Rp2824
(dp2825
g25
I00
sg31
I01
sg32
I00
sg42
I00
sbsg2800
g0
(g73
g2
Ntp2826
Rp2827
(dp2828
g25
I00
sg31
I01
sg32
I00
sg42
I01
sbsg2801
g0
(g73
g2
Ntp2829
Rp2830
(dp2831
g25
I00
sg31
I00
sg32
I00
sg42
I00
sbsg59
g660
sg61
I55
sg62
g2787
sbsVCaloGeometryBuilder
p2832
g0
(g2788
g2
Ntp2833
Rp2834
(dp2835
g15
g2832
sg17
(lp2836
VSelectedCalos
p2837
asg25
I00
sg26
Nsg2837
g0
(g105
g47
(lp2838
VHCAL
p2839
aVZDC
p2840
aVCASTOR
p2841
aVEcalBarrel
p2842
aVEcalEndcap
p2843
aVEcalPreshower
p2844
aVTOWER
p2845
atp2846
Rp2847
(dp2848
g25
I00
sg31
I01
sg32
I00
sg451
I1
sbsg32
I00
sg59
g660
sg61
I55
sg62
g2832
sbsVCaloTopologyBuilder
p2849
g0
(g2788
g2
Ntp2850
Rp2851
(dp2852
g15
g2849
sg17
(lp2853
sg25
I00
sg26
Nsg32
I00
sg59
g660
sg61
I55
sg62
g2849
sbsVCaloTowerGeometryFromDBEP
p2854
g0
(g2788
g2
Ntp2855
Rp2856
(dp2857
g15
g2854
sg17
(lp2858
g2800
asg25
I00
sg26
Nsg2800
g0
(g73
g2
Ntp2859
Rp2860
(dp2861
g25
I00
sg31
I01
sg32
I00
sg42
I00
sbsg32
I00
sg59
g660
sg61
I55
sg62
g2854
sbsVCaloTowerTopologyEP
p2862
g0
(g2788
g2
Ntp2863
Rp2864
(dp2865
g15
g2862
sg17
(lp2866
sg25
I00
sg26
Nsg32
I00
sg59
g660
sg61
I55
sg62
g2862
sbsVCastorGeometryFromDBEP
p2867
g0
(g2788
g2
Ntp2868
Rp2869
(dp2870
g15
g2867
sg17
(lp2871
g2800
asg25
I00
sg26
Nsg2800
g0
(g73
g2
Ntp2872
Rp2873
(dp2874
g25
I00
sg31
I01
sg32
I00
sg42
I00
sbsg32
I00
sg59
g660
sg61
I55
sg62
g2867
sbsVDTGeometryESModule
p2875
g0
(g2788
g2
Ntp2876
Rp2877
(dp2878
g15
g2875
sg17
(lp2879
g2793
ag2794
aVDDDetector
p2880
ag2795
ag1884
aVattribute
p2881
aVvalue
p2882
ag2800
asg25
I00
sg26
Nsg2793
g0
(g73
g2
Ntp2883
Rp2884
(dp2885
g25
I00
sg31
I01
sg32
I01
sg42
I00
sbsg32
I01
sg2794
g0
(g73
g2
Ntp2886
Rp2887
(dp2888
g25
I00
sg31
I01
sg32
I00
sg42
I00
sbsg2880
g0
(cFWCore.ParameterSet.Types
ESInputTag
p2889
g2
Ntp2890
Rp2891
(dp2892
g25
I00
sg31
I01
sg32
I00
sV_ESInputTag__moduleLabel
p2893
g36
sV_ESInputTag__data
p2894
g36
sbsg2795
g0
(g121
g2
Ntp2895
Rp2896
(dp2897
g25
I00
sg31
I01
sg32
I00
sg42
g36
sbsg1884
g0
(g121
g2
Ntp2898
Rp2899
(dp2900
g25
I00
sg31
I01
sg32
I00
sg42
g36
sbsg2881
g0
(g121
g2
Ntp2901
Rp2902
(dp2903
g25
I00
sg31
I01
sg32
I00
sg42
VMuStructure
p2904
sbsg2882
g0
(g121
g2
Ntp2905
Rp2906
(dp2907
g25
I00
sg31
I01
sg32
I00
sg42
VMuonBarrelDT
p2908
sbsg2800
g0
(g73
g2
Ntp2909
Rp2910
(dp2911
g25
I00
sg31
I01
sg32
I00
sg42
I01
sbsg59
g660
sg61
I55
sg62
g2875
sbsVEcalBarrelGeometryFromDBEP
p2912
g0
(g2788
g2
Ntp2913
Rp2914
(dp2915
g15
g2912
sg17
(lp2916
g2800
asg25
I00
sg26
Nsg2800
g0
(g73
g2
Ntp2917
Rp2918
(dp2919
g25
I00
sg31
I01
sg32
I01
sg42
I01
sbsg32
I01
sg59
g660
sg61
I55
sg62
g2912
sbsVEcalElectronicsMappingBuilder
p2920
g0
(g2788
g2
Ntp2921
Rp2922
(dp2923
g15
g2920
sg17
(lp2924
sg25
I00
sg26
Nsg32
I00
sg59
g660
sg61
I55
sg62
g2920
sbsVEcalEndcapGeometryFromDBEP
p2925
g0
(g2788
g2
Ntp2926
Rp2927
(dp2928
g15
g2925
sg17
(lp2929
g2800
asg25
I00
sg26
Nsg2800
g0
(g73
g2
Ntp2930
Rp2931
(dp2932
g25
I00
sg31
I01
sg32
I01
sg42
I01
sbsg32
I01
sg59
g660
sg61
I55
sg62
g2925
sbsVEcalPreshowerGeometryFromDBEP
p2933
g0
(g2788
g2
Ntp2934
Rp2935
(dp2936
g15
g2933
sg17
(lp2937
g2800
asg25
I00
sg26
Nsg2800
g0
(g73
g2
Ntp2938
Rp2939
(dp2940
g25
I00
sg31
I01
sg32
I01
sg42
I01
sbsg32
I01
sg59
g660
sg61
I55
sg62
g2933
sbsVEcalTrigTowerConstituentsMapBuilder
p2941
g0
(g2788
g2
Ntp2942
Rp2943
(dp2944
g15
g2941
sg17
(lp2945
VMapFile
p2946
asg25
I00
sg26
Nsg2946
g0
(g121
g2
Ntp2947
Rp2948
(dp2949
g25
I00
sg31
I00
sg32
I00
sg42
VGeometry/EcalMapping/data/EndCap_TTMap.txt
p2950
sbsg32
I00
sg59
g660
sg61
I55
sg62
g2941
sbsVGlobalTrackingGeometryESProducer
p2951
g0
(g2788
g2
Ntp2952
Rp2953
(dp2954
g15
g2951
sg17
(lp2955
sg25
I00
sg26
Nsg32
I00
sg59
g660
sg61
I55
sg62
g2951
sbsVHcalAlignmentEP
p2956
g0
(g2788
g2
Ntp2957
Rp2958
(dp2959
g15
g2956
sg17
(lp2960
sg25
I00
sg26
Nsg32
I00
sg59
g660
sg61
I55
sg62
g2956
sbsVHcalGeometryFromDBEP
p2961
g0
(g2788
g2
Ntp2962
Rp2963
(dp2964
g15
g2961
sg17
(lp2965
g2800
asg25
I00
sg26
Nsg2800
g0
(g73
g2
Ntp2966
Rp2967
(dp2968
g25
I00
sg31
I01
sg32
I01
sg42
I01
sbsg32
I01
sg59
g660
sg61
I55
sg62
g2961
sbsVMuonDetLayerGeometryESProducer
p2969
g0
(g2788
g2
Ntp2970
Rp2971
(dp2972
g15
g2969
sg17
(lp2973
sg25
I00
sg26
Nsg32
I00
sg59
g660
sg61
I55
sg62
g2969
sbsVRPCGeometryESModule
p2974
g0
(g2788
g2
Ntp2975
Rp2976
(dp2977
g15
g2974
sg17
(lp2978
g2793
ag2794
asg25
I00
sg26
Nsg2793
g0
(g73
g2
Ntp2979
Rp2980
(dp2981
g25
I00
sg31
I00
sg32
I00
sg42
I00
sbsg32
I00
sg2794
g0
(g73
g2
Ntp2982
Rp2983
(dp2984
g25
I00
sg31
I00
sg32
I00
sg42
I00
sbsg59
g660
sg61
I55
sg62
g2974
sbsVTrackerRecoGeometryESProducer
p2985
g0
(g2788
g2
Ntp2986
Rp2987
(dp2988
g15
g2985
sg17
(lp2989
VusePhase2Stacks
p2990
asg25
I00
sg26
Nsg2990
g0
(g73
g2
Ntp2991
Rp2992
(dp2993
g25
I00
sg31
I01
sg32
I00
sg42
I00
sbsg32
I00
sg59
g660
sg61
I55
sg62
g2985
sbsVZdcGeometryFromDBEP
p2994
g0
(g2788
g2
Ntp2995
Rp2996
(dp2997
g15
g2994
sg17
(lp2998
g2800
asg25
I00
sg26
Nsg2800
g0
(g73
g2
Ntp2999
Rp3000
(dp3001
g25
I00
sg31
I01
sg32
I00
sg42
I00
sbsg32
I00
sg59
g660
sg61
I55
sg62
g2994
sbsVfakeForIdealAlignment
p3002
g0
(g2788
g2
Ntp3003
Rp3004
(dp3005
g15
VFakeAlignmentProducer
p3006
sg17
(lp3007
g1884
asg25
I00
sg26
Nsg1884
g0
(g121
g2
Ntp3008
Rp3009
(dp3010
g25
I00
sg31
I01
sg32
I01
sg42
VfakeForIdeal
p3011
sbsg32
I01
sg59
V/cvmfs/cms.cern.ch/el8_amd64_gcc11/cms/cmssw-patch/CMSSW_13_2_5_patch1/src/Alignment/CommonAlignmentProducer/python/fakeForIdealAlignmentProducer_cfi.py
p3012
sg61
I5
sg62
g3002
sbsVhcalDDDRecConstants
p3013
g0
(g2788
g2
Ntp3014
Rp3015
(dp3016
g15
VHcalDDDRecConstantsESModule
p3017
sg17
(lp3018
g1884
asg25
I00
sg26
Nsg1884
g0
(g121
g2
Ntp3019
Rp3020
(dp3021
g25
I00
sg31
I01
sg32
I00
sg42
g36
sbsg32
I00
sg59
g660
sg61
I55
sg62
g3013
sbsVhcalDDDSimConstants
p3022
g0
(g2788
g2
Ntp3023
Rp3024
(dp3025
g15
VHcalDDDSimConstantsESModule
p3026
sg17
(lp3027
g1884
asg25
I00
sg26
Nsg1884
g0
(g121
g2
Ntp3028
Rp3029
(dp3030
g25
I00
sg31
I01
sg32
I00
sg42
g36
sbsg32
I00
sg59
g660
sg61
I55
sg62
g3022
sbsVhcalTopologyIdeal
p3031
g0
(g2788
g2
Ntp3032
Rp3033
(dp3034
g15
VHcalTopologyIdealEP
p3035
sg17
(lp3036
VExclude
p3037
aVMergePosition
p3038
ag1884
asg25
I00
sg26
Nsg3037
g0
(g121
g2
Ntp3039
Rp3040
(dp3041
g25
I00
sg31
I00
sg32
I00
sg42
g36
sbsg32
I00
sg3038
g0
(g73
g2
Ntp3042
Rp3043
(dp3044
g25
I00
sg31
I00
sg32
I00
sg42
I00
sbsg1884
g0
(g121
g2
Ntp3045
Rp3046
(dp3047
g25
I00
sg31
I01
sg32
I00
sg42
g36
sbsg59
g660
sg61
I55
sg62
g3031
sbsVidealForDigiCSCGeometry
p3048
g0
(g2788
g2
Ntp3049
Rp3050
(dp3051
g15
g2787
sg17
(lp3052
g2793
ag2794
ag2795
ag1884
ag2796
ag2797
ag2798
ag2799
ag2800
ag2801
asg25
I00
sg26
Nsg2793
g0
(g73
g2
Ntp3053
Rp3054
(dp3055
g25
I00
sg31
I01
sg32
I00
sg42
I00
sbsg32
I01
sg2794
g0
(g73
g2
Ntp3056
Rp3057
(dp3058
g25
I00
sg31
I01
sg32
I00
sg42
I00
sbsg2795
g0
(g121
g2
Ntp3059
Rp3060
(dp3061
g25
I00
sg31
I01
sg32
I01
sg42
g3011
sbsg1884
g0
(g121
g2
Ntp3062
Rp3063
(dp3064
g25
I00
sg31
I01
sg32
I01
sg42
VidealForDigi
p3065
sbsg2796
g0
(g73
g2
Ntp3066
Rp3067
(dp3068
g25
I00
sg31
I01
sg32
I00
sg42
I01
sbsg2797
g0
(g73
g2
Ntp3069
Rp3070
(dp3071
g25
I00
sg31
I01
sg32
I00
sg42
I00
sbsg2798
g0
(g73
g2
Ntp3072
Rp3073
(dp3074
g25
I00
sg31
I01
sg32
I00
sg42
I01
sbsg2799
g0
(g73
g2
Ntp3075
Rp3076
(dp3077
g25
I00
sg31
I01
sg32
I00
sg42
I00
sbsg2800
g0
(g73
g2
Ntp3078
Rp3079
(dp3080
g25
I00
sg31
I01
sg32
I01
sg42
I00
sbsg2801
g0
(g73
g2
Ntp3081
Rp3082
(dp3083
g25
I00
sg31
I00
sg32
I00
sg42
I00
sbsg59
V/cvmfs/cms.cern.ch/el8_amd64_gcc11/cms/cmssw-patch/CMSSW_13_2_5_patch1/src/Geometry/CSCGeometryBuilder/python/idealForDigiCscGeometryDB_cff.py
p3084
sg61
I8
sg62
g3048
sbsVidealForDigiDTGeometry
p3085
g0
(g2788
g2
Ntp3086
Rp3087
(dp3088
g15
g2875
sg17
(lp3089
g2793
ag2794
ag2880
ag2795
ag1884
ag2881
ag2882
ag2800
asg25
I00
sg26
Nsg2793
g0
(g73
g2
Ntp3090
Rp3091
(dp3092
g25
I00
sg31
I01
sg32
I01
sg42
I00
sbsg32
I01
sg2794
g0
(g73
g2
Ntp3093
Rp3094
(dp3095
g25
I00
sg31
I01
sg32
I00
sg42
I00
sbsg2880
g0
(g2889
g2
Ntp3096
Rp3097
(dp3098
g25
I00
sg31
I01
sg32
I00
sg2893
g36
sg2894
g36
sbsg2795
g0
(g121
g2
Ntp3099
Rp3100
(dp3101
g25
I00
sg31
I01
sg32
I01
sg42
g3011
sbsg1884
g0
(g121
g2
Ntp3102
Rp3103
(dp3104
g25
I00
sg31
I01
sg32
I01
sg42
g3065
sbsg2881
g0
(g121
g2
Ntp3105
Rp3106
(dp3107
g25
I00
sg31
I01
sg32
I00
sg42
g2904
sbsg2882
g0
(g121
g2
Ntp3108
Rp3109
(dp3110
g25
I00
sg31
I01
sg32
I00
sg42
g2908
sbsg2800
g0
(g73
g2
Ntp3111
Rp3112
(dp3113
g25
I00
sg31
I01
sg32
I01
sg42
I00
sbsg59
V/cvmfs/cms.cern.ch/el8_amd64_gcc11/cms/cmssw-patch/CMSSW_13_2_5_patch1/src/Geometry/DTGeometryBuilder/python/idealForDigiDtGeometryDB_cff.py
p3114
sg61
I8
sg62
g3085
sbsVidealForDigiTrackerGeometry
p3115
g0
(g2788
g2
Ntp3116
Rp3117
(dp3118
g15
VTrackerDigiGeometryESModule
p3119
sg17
(lp3120
g1884
ag2793
ag2800
ag2795
asg25
I00
sg26
Nsg1884
g0
(g121
g2
Ntp3121
Rp3122
(dp3123
g25
I00
sg31
I01
sg32
I01
sg42
g3065
sbsg32
I01
sg2793
g0
(g73
g2
Ntp3124
Rp3125
(dp3126
g25
I00
sg31
I01
sg32
I00
sg42
I00
sbsg2800
g0
(g73
g2
Ntp3127
Rp3128
(dp3129
g25
I00
sg31
I01
sg32
I01
sg42
I00
sbsg2795
g0
(g121
g2
Ntp3130
Rp3131
(dp3132
g25
I00
sg31
I01
sg32
I01
sg42
g3011
sbsg59
V/cvmfs/cms.cern.ch/el8_amd64_gcc11/cms/cmssw-patch/CMSSW_13_2_5_patch1/src/Geometry/TrackerGeometryBuilder/python/idealForDigiTrackerGeometryDB_cff.py
p3133
sg61
I8
sg62
g3115
sbsVmuonGeometryConstants
p3134
g0
(g2788
g2
Ntp3135
Rp3136
(dp3137
g15
VMuonGeometryConstantsESModule
p3138
sg17
(lp3139
g2794
ag1884
asg25
I00
sg26
Nsg2794
g0
(g73
g2
Ntp3140
Rp3141
(dp3142
g25
I00
sg31
I01
sg32
I00
sg42
I00
sbsg32
I00
sg1884
g0
(g121
g2
Ntp3143
Rp3144
(dp3145
g25
I00
sg31
I01
sg32
I00
sg42
g36
sbsg59
g660
sg61
I55
sg62
g3134
sbsVtrackerGeometryDB
p3146
g0
(g2788
g2
Ntp3147
Rp3148
(dp3149
g15
g3119
sg17
(lp3150
g1884
ag2793
ag2800
ag2795
asg25
I00
sg26
Nsg1884
g0
(g121
g2
Ntp3151
Rp3152
(dp3153
g25
I00
sg31
I01
sg32
I00
sg42
g36
sbsg32
I00
sg2793
g0
(g73
g2
Ntp3154
Rp3155
(dp3156
g25
I00
sg31
I01
sg32
I00
sg42
I00
sbsg2800
g0
(g73
g2
Ntp3157
Rp3158
(dp3159
g25
I00
sg31
I01
sg32
I00
sg42
I01
sbsg2795
g0
(g121
g2
Ntp3160
Rp3161
(dp3162
g25
I00
sg31
I01
sg32
I00
sg42
g36
sbsg59
g660
sg61
I55
sg62
g3146
sbsVtrackerNumberingGeometryDB
p3163
g0
(g2788
g2
Ntp3164
Rp3165
(dp3166
g15
VTrackerGeometricDetESModule
p3167
sg17
(lp3168
g2793
ag2794
ag1884
asg25
I00
sg26
Nsg2793
g0
(g73
g2
Ntp3169
Rp3170
(dp3171
g25
I00
sg31
I01
sg32
I00
sg42
I00
sbsg32
I00
sg2794
g0
(g73
g2
Ntp3172
Rp3173
(dp3174
g25
I00
sg31
I01
sg32
I00
sg42
I00
sbsg1884
g0
(g121
g2
Ntp3175
Rp3176
(dp3177
g25
I00
sg31
I01
sg32
I00
sg42
g36
sbsg59
g660
sg61
I55
sg62
g3163
sbsVtrackerTopology
p3178
g0
(g2788
g2
Ntp3179
Rp3180
(dp3181
g15
VTrackerTopologyEP
p3182
sg17
(lp3183
g1884
asg25
I00
sg26
Nsg1884
g0
(g121
g2
Ntp3184
Rp3185
(dp3186
g25
I00
sg31
I01
sg32
I00
sg42
g36
sbsg32
I00
sg59
g660
sg61
I55
sg62
g3178
sbsVMuonNumberingInitialization
p3187
g0
(g2788
g2
Ntp3188
Rp3189
(dp3190
g15
g3187
sg17
(lp3191
sg25
I00
sg26
Nsg32
I00
sg59
g660
sg61
I55
sg62
g3187
sbsVXMLFromDBSource
p3192
g0
(g2788
g2
Ntp3193
Rp3194
(dp3195
g15
VXMLIdealGeometryESProducer
p3196
sg17
(lp3197
VrootDDName
p3198
ag1838
asg25
I00
sg26
Nsg3198
g0
(g121
g2
Ntp3199
Rp3200
(dp3201
g25
I00
sg31
I01
sg32
I00
sg42
Vcms:OCMS
p3202
sbsg32
I00
sg1838
g0
(g121
g2
Ntp3203
Rp3204
(dp3205
g25
I00
sg31
I01
sg32
I00
sg42
VExtended
p3206
sbsg59
g660
sg61
I55
sg62
g3192
sbsVcaloSimulationParameters
p3207
g0
(g2788
g2
Ntp3208
Rp3209
(dp3210
g15
VCaloSimParametersESModule
p3211
sg17
(lp3212
g2794
ag1884
asg25
I00
sg26
Nsg2794
g0
(g73
g2
Ntp3213
Rp3214
(dp3215
g25
I00
sg31
I01
sg32
I00
sg42
I00
sbsg32
I00
sg1884
g0
(g121
g2
Ntp3216
Rp3217
(dp3218
g25
I00
sg31
I01
sg32
I00
sg42
g36
sbsg59
g660
sg61
I55
sg62
g3207
sbsVecalSimulationParametersEB
p3219
g0
(g2788
g2
Ntp3220
Rp3221
(dp3222
g15
VEcalSimParametersESModule
p3223
sg17
(lp3224
g2794
aVname
p3225
ag1884
asg25
I00
sg26
Nsg2794
g0
(g73
g2
Ntp3226
Rp3227
(dp3228
g25
I00
sg31
I01
sg32
I00
sg42
I00
sbsg32
I00
sg3225
g0
(g121
g2
Ntp3229
Rp3230
(dp3231
g25
I00
sg31
I01
sg32
I00
sg42
VEcalHitsEB
p3232
sbsg1884
g0
(g121
g2
Ntp3233
Rp3234
(dp3235
g25
I00
sg31
I01
sg32
I00
sg42
g36
sbsg59
g660
sg61
I55
sg62
g3219
sbsVecalSimulationParametersEE
p3236
g0
(g2788
g2
Ntp3237
Rp3238
(dp3239
g15
g3223
sg17
(lp3240
g2794
ag3225
ag1884
asg25
I00
sg26
Nsg2794
g0
(g73
g2
Ntp3241
Rp3242
(dp3243
g25
I00
sg31
I01
sg32
I00
sg42
I00
sbsg32
I00
sg3225
g0
(g121
g2
Ntp3244
Rp3245
(dp3246
g25
I00
sg31
I01
sg32
I01
sg42
VEcalHitsEE
p3247
sbsg1884
g0
(g121
g2
Ntp3248
Rp3249
(dp3250
g25
I00
sg31
I01
sg32
I00
sg42
g36
sbsg59
V/cvmfs/cms.cern.ch/el8_amd64_gcc11/cms/cmssw-patch/CMSSW_13_2_5_patch1/src/Geometry/EcalCommonData/python/ecalSimulationParameters_cff.py
p3251
sg61
I11
sg62
g3236
sbsVecalSimulationParametersES
p3252
g0
(g2788
g2
Ntp3253
Rp3254
(dp3255
g15
g3223
sg17
(lp3256
g2794
ag3225
ag1884
asg25
I00
sg26
Nsg2794
g0
(g73
g2
Ntp3257
Rp3258
(dp3259
g25
I00
sg31
I01
sg32
I00
sg42
I00
sbsg32
I00
sg3225
g0
(g121
g2
Ntp3260
Rp3261
(dp3262
g25
I00
sg31
I01
sg32
I01
sg42
VEcalHitsES
p3263
sbsg1884
g0
(g121
g2
Ntp3264
Rp3265
(dp3266
g25
I00
sg31
I01
sg32
I00
sg42
g36
sbsg59
g3251
sg61
I14
sg62
g3252
sbsVhcalSimulationConstants
p3267
g0
(g2788
g2
Ntp3268
Rp3269
(dp3270
g15
VHcalSimulationConstantsESModule
p3271
sg17
(lp3272
g1884
asg25
I00
sg26
Nsg1884
g0
(g121
g2
Ntp3273
Rp3274
(dp3275
g25
I00
sg31
I01
sg32
I00
sg42
g36
sbsg32
I00
sg59
g660
sg61
I55
sg62
g3267
sbsVhcalSimulationParameters
p3276
g0
(g2788
g2
Ntp3277
Rp3278
(dp3279
g15
VHcalSimParametersESModule
p3280
sg17
(lp3281
g2794
ag1884
asg25
I00
sg26
Nsg2794
g0
(g73
g2
Ntp3282
Rp3283
(dp3284
g25
I00
sg31
I01
sg32
I00
sg42
I00
sbsg32
I00
sg1884
g0
(g121
g2
Ntp3285
Rp3286
(dp3287
g25
I00
sg31
I01
sg32
I00
sg42
g36
sbsg59
g660
sg61
I55
sg62
g3276
sbsVmuonOffsetESProducer
p3288
g0
(g2788
g2
Ntp3289
Rp3290
(dp3291
g15
VMuonOffsetESProducer
p3292
sg17
(lp3293
g2794
aVnames
p3294
ag1884
asg25
I00
sg26
Nsg2794
g0
(g73
g2
Ntp3295
Rp3296
(dp3297
g25
I00
sg31
I01
sg32
I00
sg42
I00
sbsg32
I00
sg3294
g0
(g105
g47
(lp3298
VMuonCommonNumbering
p3299
aVMuonBarrel
p3300
aVMuonEndcap
p3301
aVMuonBarrelWheels
p3302
aVMuonBarrelStation1
p3303
aVMuonBarrelStation2
p3304
aVMuonBarrelStation3
p3305
aVMuonBarrelStation4
p3306
aVMuonBarrelSuperLayer
p3307
aVMuonBarrelLayer
p3308
aVMuonBarrelWire
p3309
aVMuonRpcPlane1I
p3310
aVMuonRpcPlane1O
p3311
aVMuonRpcPlane2I
p3312
aVMuonRpcPlane2O
p3313
aVMuonRpcPlane3S
p3314
aVMuonRpcPlane4
p3315
aVMuonRpcChamberLeft
p3316
aVMuonRpcChamberMiddle
p3317
aVMuonRpcChamberRight
p3318
aVMuonRpcEndcap1
p3319
aVMuonRpcEndcap2
p3320
aVMuonRpcEndcap3
p3321
aVMuonRpcEndcap4
p3322
aVMuonRpcEndcapSector
p3323
aVMuonRpcEndcapChamberB1
p3324
aVMuonRpcEndcapChamberB2
p3325
aVMuonRpcEndcapChamberB3
p3326
aVMuonRpcEndcapChamberC1
p3327
aVMuonRpcEndcapChamberC2
p3328
aVMuonRpcEndcapChamberC3
p3329
aVMuonRpcEndcapChamberE1
p3330
aVMuonRpcEndcapChamberE2
p3331
aVMuonRpcEndcapChamberE3
p3332
aVMuonRpcEndcapChamberF1
p3333
aVMuonRpcEndcapChamberF2
p3334
aVMuonRpcEndcapChamberF3
p3335
aVMuonEndcapStation1
p3336
aVMuonEndcapStation2
p3337
aVMuonEndcapStation3
p3338
aVMuonEndcapStation4
p3339
aVMuonEndcapSubrings
p3340
aVMuonEndcapSectors
p3341
aVMuonEndcapLayers
p3342
aVMuonEndcapRing1
p3343
aVMuonEndcapRing2
p3344
aVMuonEndcapRing3
p3345
aVMuonEndcapRingA
p3346
aVMuonGEMEndcap
p3347
aVMuonGEMSector
p3348
aVMuonGEMChamber
p3349
atp3350
Rp3351
(dp3352
g25
I00
sg31
I01
sg32
I00
sg451
I1
sbsg1884
g0
(g121
g2
Ntp3353
Rp3354
(dp3355
g25
I00
sg31
I01
sg32
I00
sg42
g36
sbsg59
g660
sg61
I55
sg62
g3288
sbsVParabolicParametrizedMagneticFieldProducer
p3356
g0
(g2788
g2
Ntp3357
Rp3358
(dp3359
g15
VAutoParametrizedMagneticFieldProducer
p3360
sg17
(lp3361
Vversion
p3362
ag1838
aVvalueOverride
p3363
asg25
I00
sg26
Nsg3362
g0
(g121
g2
Ntp3364
Rp3365
(dp3366
g25
I00
sg31
I01
sg32
I00
sg42
VParabolic
p3367
sbsg32
I01
sg1838
g0
(g121
g2
Ntp3368
Rp3369
(dp3370
g25
I00
sg31
I00
sg32
I01
sg42
VParabolicMf
p3371
sbsg3363
g0
(g52
g2
Ntp3372
Rp3373
(dp3374
g25
I00
sg31
I01
sg32
I01
sg42
I18268
sbsg59
g660
sg61
I55
sg62
g3356
sbsVVolumeBasedMagneticFieldESProducer
p3375
g0
(g2788
g2
Ntp3376
Rp3377
(dp3378
g15
VVolumeBasedMagneticFieldESProducerFromDB
p3379
sg17
(lp3380
g1838
aVdebugBuilder
p3381
ag3363
asg25
I00
sg26
Nsg1838
g0
(g121
g2
Ntp3382
Rp3383
(dp3384
g25
I00
sg31
I00
sg32
I00
sg42
g36
sbsg32
I01
sg3381
g0
(g73
g2
Ntp3385
Rp3386
(dp3387
g25
I00
sg31
I00
sg32
I00
sg42
I00
sbsg3363
g0
(g52
g2
Ntp3388
Rp3389
(dp3390
g25
I00
sg31
I01
sg32
I01
sg42
I18268
sbsg59
g660
sg61
I55
sg62
g3375
sbsVCastorDbProducer
p3391
g0
(g2788
g2
Ntp3392
Rp3393
(dp3394
g15
g3391
sg17
(lp3395
g1884
asg25
I00
sg26
Nsg1884
g0
(g121
g2
Ntp3396
Rp3397
(dp3398
g25
I00
sg31
I01
sg32
I00
sg42
g36
sbsg32
I00
sg59
g660
sg61
I55
sg62
g3391
sbsVEcalLaserCorrectionService
p3399
g0
(g2788
g2
Ntp3400
Rp3401
(dp3402
g15
g3399
sg17
(lp3403
VmaxExtrapolationTimeInSec
p3404
asg25
I00
sg26
Nsg3404
g0
(g581
g2
Ntp3405
Rp3406
(dp3407
g25
I00
sg31
I01
sg32
I00
sg42
I0
sbsg32
I00
sg59
g660
sg61
I55
sg62
g3399
sbsVEcalLaserCorrectionServiceMC
p3408
g0
(g2788
g2
Ntp3409
Rp3410
(dp3411
g15
g3408
sg17
(lp3412
g1884
asg25
I00
sg26
Nsg1884
g0
(g121
g2
Ntp3413
Rp3414
(dp3415
g25
I00
sg31
I01
sg32
I00
sg42
g36
sbsg32
I00
sg59
g660
sg61
I55
sg62
g3408
sbsVSiStripRecHitMatcherESProducer
p3416
g0
(g2788
g2
Ntp3417
Rp3418
(dp3419
g15
g3416
sg17
(lp3420
VComponentName
p3421
aVNSigmaInside
p3422
aVPreFilter
p3423
asg25
I00
sg26
Nsg3421
g0
(g121
g2
Ntp3424
Rp3425
(dp3426
g25
I00
sg31
I01
sg32
I00
sg42
VStandardMatcher
p3427
sbsg32
I00
sg3422
g0
(g38
g2
Ntp3428
Rp3429
(dp3430
g25
I00
sg31
I01
sg32
I00
sg42
F3.0
sbsg3423
g0
(g73
g2
Ntp3431
Rp3432
(dp3433
g25
I00
sg31
I01
sg32
I00
sg42
I00
sbsg59
g660
sg61
I55
sg62
g3416
sbsVStripCPEfromTrackAngleESProducer
p3434
g0
(g2788
g2
Ntp3435
Rp3436
(dp3437
g15
VStripCPEESProducer
p3438
sg17
(lp3439
g3421
aVComponentType
p3440
aVparameters
p3441
asg25
I00
sg26
Nsg3421
g0
(g121
g2
Ntp3442
Rp3443
(dp3444
g25
I00
sg31
I01
sg32
I01
sg42
VStripCPEfromTrackAngle
p3445
sbsg32
I00
sg3440
g0
(g121
g2
Ntp3446
Rp3447
(dp3448
g25
I00
sg31
I01
sg32
I01
sg42
g3445
sbsg3441
g0
(g693
g2
Ntp3449
Rp3450
(dp3451
g25
I00
sg31
I01
sg32
I00
sg17
(lp3452
VmLC_P0
p3453
aVmLC_P1
p3454
aVmLC_P2
p3455
aVmTIB_P0
p3456
aVmTIB_P1
p3457
aVmTOB_P0
p3458
aVmTOB_P1
p3459
aVmTID_P0
p3460
aVmTID_P1
p3461
aVmTEC_P0
p3462
aVmTEC_P1
p3463
aVuseLegacyError
p3464
aVmaxChgOneMIP
p3465
asg26
Nsg3453
g0
(g38
g2
Ntp3466
Rp3467
(dp3468
g25
I00
sg31
I01
sg32
I00
sg42
F-0.326
sbsg3454
g0
(g38
g2
Ntp3469
Rp3470
(dp3471
g25
I00
sg31
I01
sg32
I00
sg42
F0.618
sbsg3455
g0
(g38
g2
Ntp3472
Rp3473
(dp3474
g25
I00
sg31
I01
sg32
I00
sg42
F0.3
sbsg3456
g0
(g38
g2
Ntp3475
Rp3476
(dp3477
g25
I00
sg31
I01
sg32
I00
sg42
F-0.742
sbsg3457
g0
(g38
g2
Ntp3478
Rp3479
(dp3480
g25
I00
sg31
I01
sg32
I00
sg42
F0.202
sbsg3458
g0
(g38
g2
Ntp3481
Rp3482
(dp3483
g25
I00
sg31
I01
sg32
I00
sg42
F-1.026
sbsg3459
g0
(g38
g2
Ntp3484
Rp3485
(dp3486
g25
I00
sg31
I01
sg32
I00
sg42
F0.253
sbsg3460
g0
(g38
g2
Ntp3487
Rp3488
(dp3489
g25
I00
sg31
I01
sg32
I00
sg42
F-1.427
sbsg3461
g0
(g38
g2
Ntp3490
Rp3491
(dp3492
g25
I00
sg31
I01
sg32
I00
sg42
F0.433
sbsg3462
g0
(g38
g2
Ntp3493
Rp3494
(dp3495
g25
I00
sg31
I01
sg32
I00
sg42
F-1.885
sbsg3463
g0
(g38
g2
Ntp3496
Rp3497
(dp3498
g25
I00
sg31
I01
sg32
I00
sg42
F0.471
sbsg3464
g0
(g73
g2
Ntp3499
Rp3500
(dp3501
g25
I00
sg31
I01
sg32
I00
sg42
I00
sbsg3465
g0
(g38
g2
Ntp3502
Rp3503
(dp3504
g25
I00
sg31
I01
sg32
I00
sg42
F6000.0
sbsbsg59
V/cvmfs/cms.cern.ch/el8_amd64_gcc11/cms/cmssw-patch/CMSSW_13_2_5_patch1/src/RecoLocalTracker/SiStripRecHitConverter/python/StripCPEfromTrackAngle_cfi.py
p3505
sg61
I4
sg62
g3434
sbsVctppsBeamParametersFromLHCInfoESSource
p3506
g0
(g2788
g2
Ntp3507
Rp3508
(dp3509
g15
VCTPPSBeamParametersFromLHCInfoESSource
p3510
sg17
(lp3511
VlhcInfoLabel
p3512
aVbeamDivX45
p3513
aVbeamDivY45
p3514
aVbeamDivX56
p3515
aVbeamDivY56
p3516
aVvtxOffsetX45
p3517
aVvtxOffsetY45
p3518
aVvtxOffsetZ45
p3519
aVvtxOffsetX56
p3520
aVvtxOffsetY56
p3521
aVvtxOffsetZ56
p3522
aVvtxStddevX
p3523
aVvtxStddevY
p3524
aVvtxStddevZ
p3525
ag1884
asg25
I00
sg26
Nsg3512
g0
(g121
g2
Ntp3526
Rp3527
(dp3528
g25
I00
sg31
I01
sg32
I00
sg42
g36
sbsg32
I00
sg3513
g0
(g38
g2
Ntp3529
Rp3530
(dp3531
g25
I00
sg31
I01
sg32
I00
sg42
F0.1
sbsg3514
g0
(g38
g2
Ntp3532
Rp3533
(dp3534
g25
I00
sg31
I01
sg32
I00
sg42
F0.1
sbsg3515
g0
(g38
g2
Ntp3535
Rp3536
(dp3537
g25
I00
sg31
I01
sg32
I00
sg42
F0.1
sbsg3516
g0
(g38
g2
Ntp3538
Rp3539
(dp3540
g25
I00
sg31
I01
sg32
I00
sg42
F0.1
sbsg3517
g0
(g38
g2
Ntp3541
Rp3542
(dp3543
g25
I00
sg31
I01
sg32
I00
sg42
F0.01
sbsg3518
g0
(g38
g2
Ntp3544
Rp3545
(dp3546
g25
I00
sg31
I01
sg32
I00
sg42
F0.01
sbsg3519
g0
(g38
g2
Ntp3547
Rp3548
(dp3549
g25
I00
sg31
I01
sg32
I00
sg42
F0.01
sbsg3520
g0
(g38
g2
Ntp3550
Rp3551
(dp3552
g25
I00
sg31
I01
sg32
I00
sg42
F0.01
sbsg3521
g0
(g38
g2
Ntp3553
Rp3554
(dp3555
g25
I00
sg31
I01
sg32
I00
sg42
F0.01
sbsg3522
g0
(g38
g2
Ntp3556
Rp3557
(dp3558
g25
I00
sg31
I01
sg32
I00
sg42
F0.01
sbsg3523
g0
(g38
g2
Ntp3559
Rp3560
(dp3561
g25
I00
sg31
I01
sg32
I00
sg42
F0.02
sbsg3524
g0
(g38
g2
Ntp3562
Rp3563
(dp3564
g25
I00
sg31
I01
sg32
I00
sg42
F0.02
sbsg3525
g0
(g38
g2
Ntp3565
Rp3566
(dp3567
g25
I00
sg31
I01
sg32
I00
sg42
F0.02
sbsg1884
g0
(g121
g2
Ntp3568
Rp3569
(dp3570
g25
I00
sg31
I01
sg32
I00
sg42
g36
sbsg59
g660
sg61
I55
sg62
g3506
sbsVctppsInterpolatedOpticalFunctionsESSource
p3571
g0
(g2788
g2
Ntp3572
Rp3573
(dp3574
g15
VCTPPSInterpolatedOpticalFunctionsESSource
p3575
sg17
(lp3576
g3512
aVopticsLabel
p3577
ag1884
asg25
I00
sg26
Nsg3512
g0
(g121
g2
Ntp3578
Rp3579
(dp3580
g25
I00
sg31
I01
sg32
I00
sg42
g36
sbsg32
I01
sg3577
g0
(g121
g2
Ntp3581
Rp3582
(dp3583
g25
I00
sg31
I01
sg32
I00
sg42
g36
sbsg1884
g0
(g121
g2
Ntp3584
Rp3585
(dp3586
g25
I00
sg31
I01
sg32
I00
sg42
g36
sbsg59
g660
sg61
I55
sg62
g3571
sbsVhcal_db_producer
p3587
g0
(g2788
g2
Ntp3588
Rp3589
(dp3590
g15
VHcalDbProducer
p3591
sg17
(lp3592
Vdump
p3593
aVfile
p3594
asg25
I00
sg26
Nsg3593
g0
(g105
g47
(lp3595
g36
atp3596
Rp3597
(dp3598
g25
I00
sg31
I00
sg32
I00
sg451
I1
sbsg32
I00
sg3594
g0
(g121
g2
Ntp3599
Rp3600
(dp3601
g25
I00
sg31
I00
sg32
I00
sg42
g36
sbsg59
g660
sg61
I55
sg62
g3587
sbsVmultipleScatteringParametrisationMakerESProducer
p3602
g0
(g2788
g2
Ntp3603
Rp3604
(dp3605
g15
VMultipleScatteringParametrisationMakerESProducer
p3606
sg17
(lp3607
g1884
asg25
I00
sg26
Nsg1884
g0
(g121
g2
Ntp3608
Rp3609
(dp3610
g25
I00
sg31
I01
sg32
I00
sg42
g36
sbsg32
I00
sg59
g660
sg61
I55
sg62
g3602
sbsVsiPixelQualityESProducer
p3611
g0
(g2788
g2
Ntp3612
Rp3613
(dp3614
g15
VSiPixelQualityESProducer
p3615
sg17
(lp3616
VsiPixelQualityLabel
p3617
aVsiPixelQualityLabel_RawToDigi
p3618
aVListOfRecordToMerge
p3619
ag1884
asg25
I00
sg26
Nsg3617
g0
(g121
g2
Ntp3620
Rp3621
(dp3622
g25
I00
sg31
I01
sg32
I00
sg42
g36
sbsg32
I01
sg3618
g0
(g121
g2
Ntp3623
Rp3624
(dp3625
g25
I00
sg31
I01
sg32
I00
sg42
g36
sbsg3619
g0
(g691
g47
(lp3626
g0
(g693
g2
Ntp3627
Rp3628
(dp3629
g25
I00
sg31
I01
sg32
I00
sg17
(lp3630
g1836
ag1837
asg26
Nsg1836
g0
(g121
g2
Ntp3631
Rp3632
(dp3633
g25
I00
sg31
I01
sg32
I00
sg42
VSiPixelQualityFromDbRcd
p3634
sbsg1837
g0
(g121
g2
Ntp3635
Rp3636
(dp3637
g25
I00
sg31
I01
sg32
I00
sg42
g36
sbsbag0
(g693
g2
Ntp3638
Rp3639
(dp3640
g25
I00
sg31
I01
sg32
I00
sg17
(lp3641
g1836
ag1837
asg26
Nsg1836
g0
(g121
g2
Ntp3642
Rp3643
(dp3644
g25
I00
sg31
I01
sg32
I00
sg42
VSiPixelDetVOffRcd
p3645
sbsg1837
g0
(g121
g2
Ntp3646
Rp3647
(dp3648
g25
I00
sg31
I01
sg32
I00
sg42
g36
sbsbatp3649
Rp3650
(dp3651
g25
I00
sg31
I01
sg32
I00
sg451
I1
sbsg1884
g0
(g121
g2
Ntp3652
Rp3653
(dp3654
g25
I00
sg31
I01
sg32
I00
sg42
g36
sbsg59
g660
sg61
I55
sg62
g3611
sbsVsiStripBackPlaneCorrectionDepESProducer
p3655
g0
(g2788
g2
Ntp3656
Rp3657
(dp3658
g15
VSiStripBackPlaneCorrectionDepESProducer
p3659
sg17
(lp3660
VLatencyRecord
p3661
aVBackPlaneCorrectionPeakMode
p3662
aVBackPlaneCorrectionDeconvMode
p3663
asg25
I00
sg26
Nsg3661
g0
(g693
g2
Ntp3664
Rp3665
(dp3666
g25
I00
sg31
I01
sg32
I00
sg17
(lp3667
g1836
ag1838
asg26
Nsg1836
g0
(g121
g2
Ntp3668
Rp3669
(dp3670
g25
I00
sg31
I01
sg32
I00
sg42
VSiStripLatencyRcd
p3671
sbsg1838
g0
(g121
g2
Ntp3672
Rp3673
(dp3674
g25
I00
sg31
I00
sg32
I00
sg42
g36
sbsbsg32
I00
sg3662
g0
(g693
g2
Ntp3675
Rp3676
(dp3677
g25
I00
sg31
I01
sg32
I00
sg17
(lp3678
g1836
ag1838
asg26
Nsg1836
g0
(g121
g2
Ntp3679
Rp3680
(dp3681
g25
I00
sg31
I01
sg32
I00
sg42
VSiStripBackPlaneCorrectionRcd
p3682
sbsg1838
g0
(g121
g2
Ntp3683
Rp3684
(dp3685
g25
I00
sg31
I00
sg32
I00
sg42
Vpeak
p3686
sbsbsg3663
g0
(g693
g2
Ntp3687
Rp3688
(dp3689
g25
I00
sg31
I01
sg32
I00
sg17
(lp3690
g1836
ag1838
asg26
Nsg1836
g0
(g121
g2
Ntp3691
Rp3692
(dp3693
g25
I00
sg31
I01
sg32
I00
sg42
g3682
sbsg1838
g0
(g121
g2
Ntp3694
Rp3695
(dp3696
g25
I00
sg31
I00
sg32
I00
sg42
Vdeconvolution
p3697
sbsbsg59
g660
sg61
I55
sg62
g3655
sbsVsiStripGainESProducer
p3698
g0
(g2788
g2
Ntp3699
Rp3700
(dp3701
g15
VSiStripGainESProducer
p3702
sg17
(lp3703
g1884
aVprintDebug
p3704
aVAutomaticNormalization
p3705
aVAPVGain
p3706
asg25
I00
sg26
Nsg1884
g0
(g121
g2
Ntp3707
Rp3708
(dp3709
g25
I00
sg31
I01
sg32
I00
sg42
g36
sbsg32
I00
sg3704
g0
(g73
g2
Ntp3710
Rp3711
(dp3712
g25
I00
sg31
I00
sg32
I00
sg42
I00
sbsg3705
g0
(g73
g2
Ntp3713
Rp3714
(dp3715
g25
I00
sg31
I01
sg32
I00
sg42
I00
sbsg3706
g0
(g691
g47
(lp3716
g0
(g693
g2
Ntp3717
Rp3718
(dp3719
g25
I00
sg31
I01
sg32
I00
sg17
(lp3720
VRecord
p3721
aVLabel
p3722
aVNormalizationFactor
p3723
asg26
Nsg3721
g0
(g121
g2
Ntp3724
Rp3725
(dp3726
g25
I00
sg31
I01
sg32
I00
sg42
VSiStripApvGainRcd
p3727
sbsg3722
g0
(g121
g2
Ntp3728
Rp3729
(dp3730
g25
I00
sg31
I00
sg32
I00
sg42
g36
sbsg3723
g0
(g38
g2
Ntp3731
Rp3732
(dp3733
g25
I00
sg31
I00
sg32
I00
sg42
F1.0
sbsbag0
(g693
g2
Ntp3734
Rp3735
(dp3736
g25
I00
sg31
I01
sg32
I00
sg17
(lp3737
g3721
ag3722
ag3723
asg26
Nsg3721
g0
(g121
g2
Ntp3738
Rp3739
(dp3740
g25
I00
sg31
I01
sg32
I00
sg42
VSiStripApvGain2Rcd
p3741
sbsg3722
g0
(g121
g2
Ntp3742
Rp3743
(dp3744
g25
I00
sg31
I00
sg32
I00
sg42
g36
sbsg3723
g0
(g38
g2
Ntp3745
Rp3746
(dp3747
g25
I00
sg31
I00
sg32
I00
sg42
F1.0
sbsbatp3748
Rp3749
(dp3750
g25
I00
sg31
I01
sg32
I00
sg451
I1
sbsg59
g660
sg61
I55
sg62
g3698
sbsVsiStripLorentzAngleDepESProducer
p3751
g0
(g2788
g2
Ntp3752
Rp3753
(dp3754
g15
VSiStripLorentzAngleDepESProducer
p3755
sg17
(lp3756
g3661
aVLorentzAnglePeakMode
p3757
aVLorentzAngleDeconvMode
p3758
asg25
I00
sg26
Nsg3661
g0
(g693
g2
Ntp3759
Rp3760
(dp3761
g25
I00
sg31
I01
sg32
I00
sg17
(lp3762
g1836
ag1838
asg26
Nsg1836
g0
(g121
g2
Ntp3763
Rp3764
(dp3765
g25
I00
sg31
I01
sg32
I00
sg42
g3671
sbsg1838
g0
(g121
g2
Ntp3766
Rp3767
(dp3768
g25
I00
sg31
I00
sg32
I00
sg42
g36
sbsbsg32
I00
sg3757
g0
(g693
g2
Ntp3769
Rp3770
(dp3771
g25
I00
sg31
I01
sg32
I00
sg17
(lp3772
g1836
ag1838
asg26
Nsg1836
g0
(g121
g2
Ntp3773
Rp3774
(dp3775
g25
I00
sg31
I01
sg32
I00
sg42
VSiStripLorentzAngleRcd
p3776
sbsg1838
g0
(g121
g2
Ntp3777
Rp3778
(dp3779
g25
I00
sg31
I00
sg32
I00
sg42
g3686
sbsbsg3758
g0
(g693
g2
Ntp3780
Rp3781
(dp3782
g25
I00
sg31
I01
sg32
I00
sg17
(lp3783
g1836
ag1838
asg26
Nsg1836
g0
(g121
g2
Ntp3784
Rp3785
(dp3786
g25
I00
sg31
I01
sg32
I00
sg42
g3776
sbsg1838
g0
(g121
g2
Ntp3787
Rp3788
(dp3789
g25
I00
sg31
I00
sg32
I00
sg42
g3697
sbsbsg59
g660
sg61
I55
sg62
g3751
sbsVsiStripQualityESProducer
p3790
g0
(g2788
g2
Ntp3791
Rp3792
(dp3793
g15
VSiStripQualityESProducer
p3794
sg17
(lp3795
g1884
ag3619
aVReduceGranularity
p3796
aVThresholdForReducedGranularity
p3797
aVPrintDebugOutput
p3798
aVUseEmptyRunInfo
p3799
asg25
I00
sg26
Nsg1884
g0
(g121
g2
Ntp3800
Rp3801
(dp3802
g25
I00
sg31
I01
sg32
I00
sg42
g36
sbsg32
I01
sg3619
g0
(g691
g47
(lp3803
g0
(g693
g2
Ntp3804
Rp3805
(dp3806
g25
I00
sg31
I01
sg32
I00
sg17
(lp3807
g1836
ag1837
asg26
Nsg1836
g0
(g121
g2
Ntp3808
Rp3809
(dp3810
g25
I00
sg31
I01
sg32
I00
sg42
VSiStripDetVOffRcd
p3811
sbsg1837
g0
(g121
g2
Ntp3812
Rp3813
(dp3814
g25
I00
sg31
I01
sg32
I00
sg42
g36
sbsbag0
(g693
g2
Ntp3815
Rp3816
(dp3817
g25
I00
sg31
I01
sg32
I00
sg17
(lp3818
g1836
ag1837
asg26
Nsg1836
g0
(g121
g2
Ntp3819
Rp3820
(dp3821
g25
I00
sg31
I01
sg32
I00
sg42
VSiStripDetCablingRcd
p3822
sbsg1837
g0
(g121
g2
Ntp3823
Rp3824
(dp3825
g25
I00
sg31
I01
sg32
I00
sg42
g36
sbsbag0
(g693
g2
Ntp3826
Rp3827
(dp3828
g25
I00
sg31
I01
sg32
I00
sg17
(lp3829
g1836
ag1837
asg26
Nsg1836
g0
(g121
g2
Ntp3830
Rp3831
(dp3832
g25
I00
sg31
I01
sg32
I00
sg42
VRunInfoRcd
p3833
sbsg1837
g0
(g121
g2
Ntp3834
Rp3835
(dp3836
g25
I00
sg31
I01
sg32
I00
sg42
g36
sbsbag0
(g693
g2
Ntp3837
Rp3838
(dp3839
g25
I00
sg31
I01
sg32
I00
sg17
(lp3840
g1836
ag1837
asg26
Nsg1836
g0
(g121
g2
Ntp3841
Rp3842
(dp3843
g25
I00
sg31
I01
sg32
I00
sg42
VSiStripBadChannelRcd
p3844
sbsg1837
g0
(g121
g2
Ntp3845
Rp3846
(dp3847
g25
I00
sg31
I01
sg32
I00
sg42
g36
sbsbag0
(g693
g2
Ntp3848
Rp3849
(dp3850
g25
I00
sg31
I01
sg32
I00
sg17
(lp3851
g1836
ag1837
asg26
Nsg1836
g0
(g121
g2
Ntp3852
Rp3853
(dp3854
g25
I00
sg31
I01
sg32
I00
sg42
VSiStripBadFiberRcd
p3855
sbsg1837
g0
(g121
g2
Ntp3856
Rp3857
(dp3858
g25
I00
sg31
I01
sg32
I00
sg42
g36
sbsbag0
(g693
g2
Ntp3859
Rp3860
(dp3861
g25
I00
sg31
I01
sg32
I00
sg17
(lp3862
g1836
ag1837
asg26
Nsg1836
g0
(g121
g2
Ntp3863
Rp3864
(dp3865
g25
I00
sg31
I01
sg32
I00
sg42
VSiStripBadModuleRcd
p3866
sbsg1837
g0
(g121
g2
Ntp3867
Rp3868
(dp3869
g25
I00
sg31
I01
sg32
I00
sg42
g36
sbsbag0
(g693
g2
Ntp3870
Rp3871
(dp3872
g25
I00
sg31
I01
sg32
I00
sg17
(lp3873
g1836
ag1837
asg26
Nsg1836
g0
(g121
g2
Ntp3874
Rp3875
(dp3876
g25
I00
sg31
I01
sg32
I00
sg42
VSiStripBadStripRcd
p3877
sbsg1837
g0
(g121
g2
Ntp3878
Rp3879
(dp3880
g25
I00
sg31
I01
sg32
I00
sg42
g36
sbsbatp3881
Rp3882
(dp3883
g25
I00
sg31
I01
sg32
I00
sg451
I1
sbsg3796
g0
(g73
g2
Ntp3884
Rp3885
(dp3886
g25
I00
sg31
I01
sg32
I00
sg42
I00
sbsg3797
g0
(g38
g2
Ntp3887
Rp3888
(dp3889
g25
I00
sg31
I01
sg32
I00
sg42
F0.3
sbsg3798
g0
(g73
g2
Ntp3890
Rp3891
(dp3892
g25
I00
sg31
I01
sg32
I00
sg42
I00
sbsg3799
g0
(g73
g2
Ntp3893
Rp3894
(dp3895
g25
I00
sg31
I01
sg32
I00
sg42
I00
sbsg59
g660
sg61
I55
sg62
g3790
sbsVsistripconn
p3896
g0
(g2788
g2
Ntp3897
Rp3898
(dp3899
g15
VSiStripConnectivity
p3900
sg17
(lp3901
sg25
I00
sg26
Nsg32
I00
sg59
g660
sg61
I55
sg62
g3896
sbsVstripCPEESProducer
p3902
g0
(g2788
g2
Ntp3903
Rp3904
(dp3905
g15
g3438
sg17
(lp3906
g3421
ag3440
ag3441
asg25
I00
sg26
Nsg3421
g0
(g121
g2
Ntp3907
Rp3908
(dp3909
g25
I00
sg31
I01
sg32
I00
sg42
VstripCPE
p3910
sbsg32
I00
sg3440
g0
(g121
g2
Ntp3911
Rp3912
(dp3913
g25
I00
sg31
I01
sg32
I00
sg42
VSimpleStripCPE
p3914
sbsg3441
g0
(g693
g2
Ntp3915
Rp3916
(dp3917
g25
I00
sg31
I01
sg32
I00
sg17
(lp3918
sg26
Nsbsg59
g660
sg61
I55
sg62
g3902
sbssV_Process__esprefers
p3919
(dp3920
Ves_prefer_hcalHardcode
p3921
g0
(cFWCore.ParameterSet.Modules
ESPrefer
p3922
g2
Ntp3923
Rp3924
(dp3925
g15
g2053
sg17
(lp3926
sg25
I00
sg26
Nsg32
I00
sg59
g660
sg61
I91
sV_targetLabel
p3927
g2049
sg62
g3921
sbssV_Process__aliases
p3928
(dp3929
sV_Process__psets
p3930
(dp3931
VmaxLuminosityBlocks
p3932
g0
(g693
g2
Ntp3933
Rp3934
(dp3935
g25
I00
sg31
I00
sg32
I00
sg17
(lp3936
Vinput
p3937
asg26
Nsg3937
g0
(g52
g2
Ntp3938
Rp3939
(dp3940
g25
I00
sg31
I00
sg32
I00
sg42
I-1
sbsg62
g3932
sbsVnanoDQMIO_perLSoutput
p3941
g0
(g693
g2
Ntp3942
Rp3943
(dp3944
g25
I00
sg31
I01
sg32
I00
sg17
(lp3945
g1230
asg26
Nsg1230
g0
(g105
g47
(lp3946
g1242
ag1243
ag1244
ag1245
ag1246
ag1247
ag1248
ag1249
ag1250
ag1251
ag1252
ag1253
ag1254
ag1255
ag1256
ag1257
ag1258
ag1259
ag1260
ag1261
ag1262
ag1263
ag1264
ag1265
ag1266
ag1267
ag1268
ag1269
ag1270
ag1271
ag1272
ag1273
ag1274
ag1275
ag1276
ag1277
ag1278
ag1279
ag1280
ag1281
ag1282
ag1283
ag1284
ag1285
ag1286
ag1287
ag1288
ag1289
ag1290
ag1291
ag1292
ag1293
ag1294
ag1295
ag1296
ag1297
ag1298
ag1299
ag1300
ag1301
ag1302
ag1303
ag1304
ag1305
ag1306
ag1307
ag1308
ag1309
ag1310
ag1311
ag1312
ag1313
ag1314
ag1315
ag1316
ag1317
ag1318
ag1319
ag1320
ag1321
ag1322
ag1323
ag1324
ag1325
ag1326
ag1327
ag1328
ag1329
ag1330
ag1331
ag1332
ag1333
ag1334
ag1335
ag1336
ag1337
ag1338
ag1339
ag1340
ag1341
ag1342
ag1343
ag1344
ag1345
ag1346
ag1347
ag1348
ag1349
ag1350
ag1351
ag1352
ag1353
ag1354
ag1355
ag1356
ag1357
ag1358
ag1359
ag1360
ag1361
ag1362
ag1363
ag1364
ag1365
ag1366
ag1367
ag1368
ag1369
ag1370
ag1371
ag1372
ag1373
ag1374
ag1375
ag1376
ag1377
ag1378
ag1379
ag1380
ag1381
ag1382
ag1383
ag1384
ag1385
ag1386
ag1387
ag1388
ag1389
ag1390
ag1391
ag1392
ag1393
ag1394
ag1395
ag1396
ag1397
ag1398
ag1399
ag1400
ag1401
ag1402
ag1403
ag1404
ag1405
ag1406
ag1407
ag1408
ag1409
ag1410
ag1411
ag1412
ag1413
ag1414
ag1415
ag1416
ag1417
ag1418
ag1419
ag1420
ag1421
ag1422
ag1423
ag1424
ag1425
ag1426
ag1427
ag1428
ag1429
ag1430
ag1431
ag1432
ag1433
ag1434
ag1435
ag1436
atp3947
Rp3948
(dp3949
g25
I00
sg31
I00
sg32
I00
sg451
I1
sbsg62
g3941
sbsVCondDB
p3950
g0
(g693
g2
Ntp3951
Rp3952
(dp3953
g25
I00
sg31
I01
sg32
I00
sg17
(lp3954
g1783
ag1784
asg26
Nsg1783
g0
(g693
g2
Ntp3955
Rp3956
(dp3957
g25
I00
sg31
I01
sg32
I00
sg17
(lp3958
g1799
ag1800
ag1801
ag1802
ag1803
asg26
Nsg1799
g0
(g121
g2
Ntp3959
Rp3960
(dp3961
g25
I00
sg31
I00
sg32
I00
sg42
g36
sbsg1800
g0
(g52
g2
Ntp3962
Rp3963
(dp3964
g25
I00
sg31
I00
sg32
I00
sg42
I0
sbsg1801
g0
(g121
g2
Ntp3965
Rp3966
(dp3967
g25
I00
sg31
I00
sg32
I00
sg42
g36
sbsg1802
g0
(g52
g2
Ntp3968
Rp3969
(dp3970
g25
I00
sg31
I00
sg32
I00
sg42
I0
sbsg1803
g0
(g52
g2
Ntp3971
Rp3972
(dp3973
g25
I00
sg31
I00
sg32
I00
sg42
I0
sbsbsg1784
g0
(g121
g2
Ntp3974
Rp3975
(dp3976
g25
I00
sg31
I01
sg32
I00
sg42
g36
sbsg62
g3950
sbsg2063
g2114
sVoptions
p3977
g0
(g693
g2
Ntp3978
Rp3979
(dp3980
g25
I00
sg31
I00
sg32
I01
sg17
(lp3981
VnumberOfThreads
p3982
aVnumberOfStreams
p3983
aVnumberOfConcurrentRuns
p3984
aVnumberOfConcurrentLuminosityBlocks
p3985
aVeventSetup
p3986
aVaccelerators
p3987
aVwantSummary
p3988
aVfileMode
p3989
aVforceEventSetupCacheClearOnNewRun
p3990
aVthrowIfIllegalParameter
p3991
aVprintDependencies
p3992
aVdeleteNonConsumedUnscheduledModules
p3993
aVsizeOfStackForThreadsInKB
p3994
aVRethrow
p3995
aVSkipEvent
p3996
aVFailPath
p3997
aVIgnoreCompletely
p3998
aVcanDeleteEarly
p3999
aVholdsReferencesToDeleteEarly
p4000
aVmodulesToIgnoreForDeleteEarly
p4001
aVdumpOptions
p4002
aVallowUnscheduled
p4003
aVemptyRunLumiMode
p4004
aVmakeTriggerResults
p4005
asg26
Nsg3982
g0
(g581
g2
Ntp4006
Rp4007
(dp4008
g25
I00
sg31
I00
sg32
I00
sg42
I1
sbsg3983
g0
(g581
g2
Ntp4009
Rp4010
(dp4011
g25
I00
sg31
I00
sg32
I00
sg42
I0
sbsg3984
g0
(g581
g2
Ntp4012
Rp4013
(dp4014
g25
I00
sg31
I00
sg32
I00
sg42
I1
sbsg3985
g0
(g581
g2
Ntp4015
Rp4016
(dp4017
g25
I00
sg31
I00
sg32
I00
sg42
I0
sbsg3986
g0
(g693
g2
Ntp4018
Rp4019
(dp4020
g25
I00
sg31
I00
sg32
I00
sg17
(lp4021
VnumberOfConcurrentIOVs
p4022
aVforceNumberOfConcurrentIOVs
p4023
asg26
Nsg4022
g0
(g581
g2
Ntp4024
Rp4025
(dp4026
g25
I00
sg31
I00
sg32
I00
sg42
I0
sbsg4023
g0
(g693
g2
Ntp4027
Rp4028
(dp4029
g25
I00
sg31
I00
sg32
I00
sg17
(lp4030
sg26
g0
(cFWCore.ParameterSet.Types
_RequiredParameter
p4031
g2
Ntp4032
Rp4033
(dp4034
g25
I00
sg31
I00
sg32
I00
sg104
g581
sg106
Nsbsbsbsg3987
g0
(g105
g47
(lp4035
V*
p4036
atp4037
Rp4038
(dp4039
g25
I00
sg31
I00
sg32
I00
sg451
I1
sbsg3988
g0
(g73
g2
Ntp4040
Rp4041
(dp4042
g25
I00
sg31
I00
sg32
I00
sg42
I01
sbsg3989
g0
(g121
g2
Ntp4043
Rp4044
(dp4045
g25
I00
sg31
I00
sg32
I00
sg42
VFULLMERGE
p4046
sbsg3990
g0
(g73
g2
Ntp4047
Rp4048
(dp4049
g25
I00
sg31
I00
sg32
I00
sg42
I00
sbsg3991
g0
(g73
g2
Ntp4050
Rp4051
(dp4052
g25
I00
sg31
I00
sg32
I00
sg42
I01
sbsg3992
g0
(g73
g2
Ntp4053
Rp4054
(dp4055
g25
I00
sg31
I00
sg32
I00
sg42
I00
sbsg3993
g0
(g73
g2
Ntp4056
Rp4057
(dp4058
g25
I00
sg31
I00
sg32
I00
sg42
I01
sbsg3994
g0
(g100
g2
Ntp4059
Rp4060
(dp4061
g25
I00
sg31
I00
sg32
I00
sg104
g581
sg106
Nsbsg3995
g0
(g105
g47
(lp4062
tp4063
Rp4064
(dp4065
g25
I00
sg31
I00
sg32
I00
sg451
I1
sbsg3996
g0
(g105
g47
(lp4066
tp4067
Rp4068
(dp4069
g25
I00
sg31
I00
sg32
I00
sg451
I1
sbsg3997
g0
(g105
g47
(lp4070
tp4071
Rp4072
(dp4073
g25
I00
sg31
I00
sg32
I00
sg451
I1
sbsg3998
g0
(g105
g47
(lp4074
tp4075
Rp4076
(dp4077
g25
I00
sg31
I00
sg32
I00
sg451
I1
sbsg3999
g0
(g105
g47
(lp4078
tp4079
Rp4080
(dp4081
g25
I00
sg31
I00
sg32
I00
sg451
I1
sbsg4000
g0
(g691
g47
(lp4082
tp4083
Rp4084
(dp4085
g25
I00
sg31
I00
sg32
I00
sg451
I1
sbsg4001
g0
(g105
g47
(lp4086
tp4087
Rp4088
(dp4089
g25
I00
sg31
I00
sg32
I00
sg451
I1
sbsg4002
g0
(g73
g2
Ntp4090
Rp4091
(dp4092
g25
I00
sg31
I00
sg32
I00
sg42
I00
sbsg4003
g0
(cFWCore.ParameterSet.Types
_ObsoleteParameter
p4093
g2
Ntp4094
Rp4095
(dp4096
g25
I00
sg31
I00
sg32
I00
sg104
g73
sg106
Nsbsg4004
g0
(g4093
g2
Ntp4097
Rp4098
(dp4099
g25
I00
sg31
I00
sg32
I00
sg104
g121
sg106
Nsbsg4005
g0
(g4093
g2
Ntp4100
Rp4101
(dp4102
g25
I00
sg31
I00
sg32
I00
sg104
g73
sg106
Nsbsg62
g3977
sbsVmaxEvents
p4103
g0
(g693
g2
Ntp4104
Rp4105
(dp4106
g25
I00
sg31
I00
sg32
I01
sg17
(lp4107
g3937
ag1191
asg26
Nsg3937
g0
(g100
g2
Ntp4108
Rp4109
(dp4110
g25
I00
sg31
I00
sg32
I00
sg104
g52
sg106
g0
(g52
g2
Ntp4111
Rp4112
(dp4113
g25
I00
sg31
I00
sg32
I00
sg42
I2000
sbsbsg1191
g0
(g100
g2
Ntp4114
Rp4115
(dp4116
g25
I00
sg31
I00
sg32
I00
sg104
g0
(cFWCore.ParameterSet.Types
_AllowedParameterTypes
p4117
g2
Ntp4118
Rp4119
(dp4120
V_AllowedParameterTypes__types
p4121
(g52
g693
tp4122
sV_default
p4123
NsV__name__
p4124
Vallowed(cms.int32,cms.PSet)
p4125
sbsg106
Nsbsg62
g4103
sbssV_Process__vpsets
p4126
(dp4127
sV_cloneToObjectDict
p4128
(dp4129
L140503171373568L
g0
(g693
g2
Ntp4130
Rp4131
(dp4132
g25
I00
sg31
I00
sg32
I00
sg17
(lp4133
g3982
ag3983
ag3984
ag3985
ag3986
ag3987
ag3988
ag3989
ag3990
ag3991
ag3992
ag3993
ag3994
ag3995
ag3996
ag3997
ag3998
ag3999
ag4000
ag4001
ag4002
ag4003
ag4004
ag4005
asg26
Nsg3982
g0
(g581
g2
Ntp4134
Rp4135
(dp4136
g25
I00
sg31
I00
sg32
I00
sg42
I1
sbsg3983
g0
(g581
g2
Ntp4137
Rp4138
(dp4139
g25
I00
sg31
I00
sg32
I00
sg42
I0
sbsg3984
g0
(g581
g2
Ntp4140
Rp4141
(dp4142
g25
I00
sg31
I00
sg32
I00
sg42
I1
sbsg3985
g0
(g581
g2
Ntp4143
Rp4144
(dp4145
g25
I00
sg31
I00
sg32
I00
sg42
I0
sbsg3986
g0
(g693
g2
Ntp4146
Rp4147
(dp4148
g25
I00
sg31
I00
sg32
I00
sg17
(lp4149
g4022
ag4023
asg26
Nsg4022
g0
(g581
g2
Ntp4150
Rp4151
(dp4152
g25
I00
sg31
I00
sg32
I00
sg42
I0
sbsg4023
g0
(g693
g2
Ntp4153
Rp4154
(dp4155
g25
I00
sg31
I00
sg32
I00
sg17
(lp4156
sg26
g0
(g4031
g2
Ntp4157
Rp4158
(dp4159
g25
I00
sg31
I00
sg32
I00
sg104
g581
sg106
Nsbsbsbsg3987
g0
(g105
g47
(lp4160
g4036
atp4161
Rp4162
(dp4163
g25
I00
sg31
I00
sg32
I00
sg451
I1
sbsg3988
g0
(g73
g2
Ntp4164
Rp4165
(dp4166
g25
I00
sg31
I00
sg32
I00
sg42
I00
sbsg3989
g0
(g121
g2
Ntp4167
Rp4168
(dp4169
g25
I00
sg31
I00
sg32
I00
sg42
g4046
sbsg3990
g0
(g73
g2
Ntp4170
Rp4171
(dp4172
g25
I00
sg31
I00
sg32
I00
sg42
I00
sbsg3991
g0
(g73
g2
Ntp4173
Rp4174
(dp4175
g25
I00
sg31
I00
sg32
I00
sg42
I01
sbsg3992
g0
(g73
g2
Ntp4176
Rp4177
(dp4178
g25
I00
sg31
I00
sg32
I00
sg42
I00
sbsg3993
g0
(g73
g2
Ntp4179
Rp4180
(dp4181
g25
I00
sg31
I00
sg32
I00
sg42
I01
sbsg3994
g0
(g100
g2
Ntp4182
Rp4183
(dp4184
g25
I00
sg31
I00
sg32
I00
sg104
g581
sg106
Nsbsg3995
g0
(g105
g47
(lp4185
tp4186
Rp4187
(dp4188
g25
I00
sg31
I00
sg32
I00
sg451
I1
sbsg3996
g0
(g105
g47
(lp4189
tp4190
Rp4191
(dp4192
g25
I00
sg31
I00
sg32
I00
sg451
I1
sbsg3997
g0
(g105
g47
(lp4193
tp4194
Rp4195
(dp4196
g25
I00
sg31
I00
sg32
I00
sg451
I1
sbsg3998
g0
(g105
g47
(lp4197
tp4198
Rp4199
(dp4200
g25
I00
sg31
I00
sg32
I00
sg451
I1
sbsg3999
g0
(g105
g47
(lp4201
tp4202
Rp4203
(dp4204
g25
I00
sg31
I00
sg32
I00
sg451
I1
sbsg4000
g0
(g691
g47
(lp4205
tp4206
Rp4207
(dp4208
g25
I00
sg31
I00
sg32
I00
sg451
I1
sbsg4001
g0
(g105
g47
(lp4209
tp4210
Rp4211
(dp4212
g25
I00
sg31
I00
sg32
I00
sg451
I1
sbsg4002
g0
(g73
g2
Ntp4213
Rp4214
(dp4215
g25
I00
sg31
I00
sg32
I00
sg42
I00
sbsg4003
g0
(g4093
g2
Ntp4216
Rp4217
(dp4218
g25
I00
sg31
I00
sg32
I00
sg104
g73
sg106
Nsbsg4004
g0
(g4093
g2
Ntp4219
Rp4220
(dp4221
g25
I00
sg31
I00
sg32
I00
sg104
g121
sg106
Nsbsg4005
g0
(g4093
g2
Ntp4222
Rp4223
(dp4224
g25
I00
sg31
I00
sg32
I00
sg104
g73
sg106
Nsbsg62
NsbsL140503168318096L
g0
(g693
g2
Ntp4225
Rp4226
(dp4227
g25
I00
sg31
I00
sg32
I00
sg17
(lp4228
g3937
ag1191
asg26
Nsg3937
g0
(g100
g2
Ntp4229
Rp4230
(dp4231
g25
I00
sg31
I00
sg32
I00
sg104
g52
sg106
Nsbsg1191
g0
(g100
g2
Ntp4232
Rp4233
(dp4234
g25
I00
sg31
I00
sg32
I00
sg104
g0
(g4117
g2
Ntp4235
Rp4236
(dp4237
g4121
(g52
g693
tp4238
sg4123
Nsg4124
Vallowed(cms.int32,cms.PSet)
p4239
sbsg106
Nsbsg62
NsbsL140503168318192L
g3934
sL140503171014320L
g2790
sL140503169142688L
g2834
sL140503206438416L
g2851
sL140503167775312L
g2856
sL140503167777760L
g2864
sL140503168406240L
g2869
sL140503170297808L
g2877
sL140503167776368L
g2914
sL140503169141008L
g2922
sL140503167776752L
g2927
sL140503167776080L
g2935
sL140503170935344L
g2943
sL140503206437216L
g2953
sL140503167775264L
g2958
sL140503169142112L
g2963
sL140503206440048L
g2971
sL140503171012928L
g2976
sL140503183107504L
g2987
sL140503167776656L
g2996
sL140503168408880L
g1745
sL140503167756656L
g3004
sL140503167757568L
g3015
sL140503167757760L
g3024
sL140503167777616L
g3033
sL140503167756992L
g3050
sL140503167757184L
g3087
sL140503167755408L
g3117
sL140503169140192L
g3136
sL140503206440672L
g3148
sL140503170296608L
g3165
sL140503206439232L
g3180
sL140503169504448L
g3189
sL140503169504352L
g3194
sL140503184386224L
g3209
sL140503170734016L
g3221
sL140503169504736L
g3238
sL140503169504496L
g3254
sL140503170732672L
g3269
sL140503184387568L
g3278
sL140503184387520L
g3290
sL140503184387664L
g1767
sL140503170636048L
g3943
sL140503168481312L
g470
sL140503183080176L
g3358
sL140503183079408L
g3377
sL140503166249856L
g3393
sL140503184240704L
g3952
sL140503169582464L
g3401
sL140503169583472L
g3410
sL140503169535280L
g1779
sL140503205790672L
g2114
sL140503205792448L
g1881
sL140503165833712L
g3418
sL140503165808208L
g3436
sL140503165865888L
g3508
sL140503165899248L
g3573
sL140503166249568L
g2051
sL140503166249808L
g3924
sL140503169582080L
g3589
sL140503165863056L
g3604
sL140503165862528L
g3613
sL140503165805664L
g3657
sL140503166291344L
g3700
sL140503165804752L
g3753
sL140503165836112L
g3792
sL140503166249712L
g3898
sL140503165807152L
g3904
sL140503165901840L
g477
sL140503168316800L
g3979
sL140503165932016L
g4105
sL140503165933600L
g563
sL140503166015184L
g765
sL140503165759744L
g13
sL140503165730240L
g65
sL140503166015616L
g110
sL140503166016432L
g587
sL140503166017488L
g656
sL140503166016528L
g607
sL140503165567520L
g633
sL140503165692848L
g682
sL140503166017056L
g966
sL140503165761952L
g132
sL140503165759888L
g152
sL140503165763200L
g166
sL140503165774528L
g180
sL140503165762384L
g194
sL140503165759936L
g208
sL140503165763104L
g222
sL140503165728992L
g236
sL140503165762816L
g250
sL140503165760656L
g264
sL140503165762768L
g278
sL140503165728512L
g292
sL140503165775632L
g306
sL140503165763248L
g320
sL140503165761088L
g334
sL140503165773664L
g348
sL140503165692128L
g362
sL140503165763536L
g376
sL140503165761520L
g390
sL140503165774096L
g404
sL140503165692896L
g418
sL140503165934608L
g950
sL140503165784896L
g432
sL140503165787632L
g842
sL140503165786000L
g910
ssV_Process__InExtendCall
p4240
I00
sV_Process__partialschedules
p4241
(dp4242
sV_Process__isStrict
p4243
I00
sV_Process__modifiers
p4244
(tsV_Process__accelerators
p4245
(dp4246
sg3932
g3934
sg978
g981
sg2787
g2790
sg2832
g2834
sg2849
g2851
sg2854
g2856
sg2862
g2864
sg2867
g2869
sg2875
g2877
sg2912
g2914
sg2920
g2922
sg2925
g2927
sg2933
g2935
sg2941
g2943
sg2951
g2953
sg2956
g2958
sg2961
g2963
sg2969
g2971
sg2974
g2976
sg2985
g2987
sg2994
g2996
sg1742
g1745
sg3002
g3004
sg3013
g3015
sg3022
g3024
sg3031
g3033
sg3048
g3050
sg3085
g3087
sg3115
g3117
sg3134
g3136
sg3146
g3148
sg3163
g3165
sg3178
g3180
sg3187
g3189
sg3192
g3194
sg3207
g3209
sg3219
g3221
sg3236
g3238
sg3252
g3254
sg3267
g3269
sg3276
g3278
sg3288
g3290
sg1223
g1225
sg1765
g1767
sg1452
g1454
sg3941
g3943
sg467
g470
sg3356
g3358
sg3375
g3377
sg3391
g3393
sg3950
g3952
sg3399
g3401
sg3408
g3410
sg1777
g1779
sg2063
g2114
sg1879
g1881
sg3416
g3418
sg3434
g3436
sg3506
g3508
sg3571
g3573
sg2049
g2051
sg3921
g3924
sg3587
g3589
sg3602
g3604
sg3611
g3613
sg3655
g3657
sg3698
g3700
sg3751
g3753
sg3790
g3792
sg3896
g3898
sg3902
g3904
sg475
g477
sg3977
g3979
sg4103
g4105
sVsource
p4247
g718
sg720
g718
sg521
g563
sg762
g765
sg10
g13
sg63
g65
sg108
g110
sg80
g587
sg653
g656
sg605
g607
sg631
g633
sg680
g682
sg963
g966
sg130
g132
sg150
g152
sg164
g166
sg178
g180
sg192
g194
sg206
g208
sg220
g222
sg234
g236
sg248
g250
sg262
g264
sg276
g278
sg290
g292
sg304
g306
sg318
g320
sg332
g334
sg346
g348
sg360
g362
sg374
g376
sg388
g390
sg402
g404
sg416
g418
sg947
g950
sg1730
g1732
sg430
g432
sg840
g842
sg907
g910
sb.