(dp0
VServer
p1
Vcmsweb.cern.ch
p2
sVPort
p3
V
p4
sVRequestName
p5
V240424_030809:rpradhan_crab_GeneralTracks_RecoDebug_effCorrectionTest_V1_WithSecMul
p6
sVvoRole
p7
VNULL
p8
sVvoGroup
p9
g4
sVinstance
p10
Vprod
p11
sVOriginalConfig
p12
ccopy_reg
_reconstructor
p13
(cWMCore.Configuration
Configuration
p14
c__builtin__
object
p15
Ntp16
Rp17
(dp18
V_internal_sections
p19
(lp20
VGeneral
p21
aVJobType
p22
aVData
p23
aVSite
p24
asg21
g13
(cWMCore.Configuration
ConfigSection
p25
g15
Ntp26
Rp27
(dp28
V_internal_documentation
p29
g4
sV_internal_name
p30
g21
sV_internal_settings
p31
c__builtin__
set
p32
((lp33
VtransferOutputs
p34
aVtransferLogs
p35
aVworkArea
p36
aVrequestName
p37
atp38
Rp39
sV_internal_docstrings
p40
(dp41
sV_internal_children
p42
g32
((lp43
tp44
Rp45
sV_internal_parent_ref
p46
NsV_internal_skipChecks
p47
I00
sg36
VTrackingStudies_Run3
p48
sg37
VGeneralTracks_RecoDebug_effCorrectionTest_V1_WithSecMul
p49
sg35
I00
sg34
I01
sbsg22
g13
(g25
g15
Ntp50
Rp51
(dp52
g29
g4
sg30
g22
sg31
g32
((lp53
VpluginName
p54
aVinputFiles
p55
aVpsetName
p56
atp57
Rp58
sg40
(dp59
sg42
g32
((lp60
tp61
Rp62
sg46
Nsg47
I00
sg54
VAnalysis
p63
sg56
V../cfg/EfficiecnyTest_genTrk_cfg.py
p64
sg55
(lp65
V../cfg/CentralityTable_HFtowers200_DataPbPb_periHYDJETshape_run3v1302x04_offline_Nominal.db
p66
asbsg23
g13
(g25
g15
Ntp67
Rp68
(dp69
g29
g4
sg30
g23
sg31
g32
((lp70
VoutLFNDirBase
p71
aVoutputDatasetTag
p72
aVinputDataset
p73
aVunitsPerJob
p74
aVpublication
p75
aVinputDBS
p76
aVtotalUnits
p77
aVsplitting
p78
atp79
Rp80
sg40
(dp81
sg42
g32
((lp82
tp83
Rp84
sg46
Nsg47
I00
sg73
V/MinBias_PbPb_5p36TeV_Hydjet_v1/sarteaga-MinBias_PbPb_5p36TeV_Hydjet_RECODEBUG_v5-0e6c11377ba727d4466887a72ad361ed/USER
p85
sg78
VFileBased
p86
sg74
I10
sg77
I-1
sg75
I00
sg76
Vphys03
p87
sg71
V/store/group/phys_heavyions/rpradhan/TrackingEffTables2022PbPbRun
p88
sg72
g49
sbsg24
g13
(g25
g15
Ntp89
Rp90
(dp91
g29
g4
sg30
g24
sg31
g32
((lp92
VstorageSite
p93
atp94
Rp95
sg40
(dp96
sg42
g32
((lp97
tp98
Rp99
sg46
Nsg47
I00
sg93
VT2_CH_CERN
p100
sbsbs.