ccopy_reg
_reconstructor
p0
(cFWCore.ParameterSet.Config
Process
p1
c__builtin__
object
p2
Ntp3
Rp4
(dp5
V_Process__name
p6
VRaghuEffTest
p7
sV_Process__filters
p8
(dp9
VclusterCompatibilityFilter
p10
g0
(cFWCore.ParameterSet.Modules
EDFilter
p11
g2
Ntp12
Rp13
(dp14
V_TypedParameterizable__type
p15
VHIClusterCompatibilityFilter
p16
sV_Parameterizable__parameterNames
p17
(lp18
VcluscomSrc
p19
aVminZ
p20
aVmaxZ
p21
aVclusterPars
p22
aVnhitsTrunc
p23
aVclusterTrunc
p24
asV_isFrozen
p25
I00
sV_Parameterizable__validator
p26
Nsg19
g0
(cFWCore.ParameterSet.Types
InputTag
p27
g2
Ntp28
Rp29
(dp30
g25
I00
sV_ParameterTypeBase__isTracked
p31
I01
sV_isModified
p32
I00
sV_InputTag__moduleLabel
p33
VhiClusterCompatibility
p34
sV_InputTag__productInstance
p35
V
p36
sV_InputTag__processName
p37
g36
sbsg32
I00
sg20
g0
(cFWCore.ParameterSet.Types
double
p38
g2
Ntp39
Rp40
(dp41
g25
I00
sg31
I01
sg32
I00
sV_value
p42
F-20.0
sbsg21
g0
(g38
g2
Ntp43
Rp44
(dp45
g25
I00
sg31
I01
sg32
I00
sg42
F20.05
sbsg22
g0
(cFWCore.ParameterSet.Types
vdouble
p46
c__builtin__
list
p47
(lp48
F0.0
aF0.0045
atp49
Rp50
(dp51
g25
I00
sg31
I01
sg32
I00
sbsg23
g0
(cFWCore.ParameterSet.Types
int32
p52
g2
Ntp53
Rp54
(dp55
g25
I00
sg31
I01
sg32
I00
sg42
I150
sbsg24
g0
(g38
g2
Ntp56
Rp57
(dp58
g25
I00
sg31
I01
sg32
I00
sg42
F2.0
sbsV_filename
p59
V/afs/cern.ch/work/r/rpradhan/Tracking_Studies/newCode_AfterRun3/ForEffTest/CMSSW_13_2_5_patch1/src/HeavyIonsAnalysis/EventAnalysis/python/clusterCompatibilityFilter_cfi.py
p60
sV_lineNumber
p61
I3
sV_Labelable__label
p62
g10
sbsVhltPixelClusterShapeFilter
p63
g0
(g11
g2
Ntp64
Rp65
(dp66
g15
VHLTPixelClusterShapeFilter
p67
sg17
(lp68
VsaveTags
p69
aVinputTag
p70
ag20
ag21
aVzStep
p71
ag22
ag23
ag24
aVmightGet
p72
asg25
I00
sg26
Nsg69
g0
(cFWCore.ParameterSet.Types
bool
p73
g2
Ntp74
Rp75
(dp76
g25
I00
sg31
I01
sg32
I00
sg42
I01
sbsg32
I01
sg70
g0
(g27
g2
Ntp77
Rp78
(dp79
g25
I00
sg31
I01
sg32
I01
sg33
VsiPixelRecHits
p80
sg35
g36
sg37
g36
sbsg20
g0
(g38
g2
Ntp81
Rp82
(dp83
g25
I00
sg31
I01
sg32
I00
sg42
I-20
sbsg21
g0
(g38
g2
Ntp84
Rp85
(dp86
g25
I00
sg31
I01
sg32
I00
sg42
F20.05
sbsg71
g0
(g38
g2
Ntp87
Rp88
(dp89
g25
I00
sg31
I01
sg32
I00
sg42
F0.2
sbsg22
g0
(g46
g47
(lp90
I0
aF0.0045
atp91
Rp92
(dp93
g25
I00
sg31
I01
sg32
I00
sbsg23
g0
(g52
g2
Ntp94
Rp95
(dp96
g25
I00
sg31
I01
sg32
I00
sg42
I150
sbsg24
g0
(g38
g2
Ntp97
Rp98
(dp99
g25
I00
sg31
I01
sg32
I00
sg42
I2
sbsg72
g0
(cFWCore.ParameterSet.Types
_OptionalParameter
p100
g2
Ntp101
Rp102
(dp103
g25
I00
sg31
I00
sg32
I00
sV_ProxyParameter__type
p104
cFWCore.ParameterSet.Types
vstring
p105
sV_ProxyParameter__value
p106
Nsbsg59
V/cvmfs/cms.cern.ch/el8_amd64_gcc11/cms/cmssw-patch/CMSSW_13_2_5_patch1/cfipython/el8_amd64_gcc11/HLTrigger/special/hltPixelClusterShapeFilter_cfi.py
p107
sg61
I3
sg62
g63
sbsVprimaryVertexFilter
p108
g0
(g11
g2
Ntp109
Rp110
(dp111
g15
VVertexSelector
p112
sg17
(lp113
Vsrc
p114
aVcut
p115
aVfilter
p116
asg25
I00
sg26
Nsg114
g0
(g27
g2
Ntp117
Rp118
(dp119
g25
I00
sg31
I01
sg32
I00
sg33
VofflineSlimmedPrimaryVertices
p120
sg35
g36
sg37
g36
sbsg32
I00
sg115
g0
(cFWCore.ParameterSet.Types
string
p121
g2
Ntp122
Rp123
(dp124
g25
I00
sg31
I01
sg32
I00
sg42
V!isFake && abs(z) <= 25 && position.Rho <= 2
p125
sbsg116
g0
(g73
g2
Ntp126
Rp127
(dp128
g25
I00
sg31
I01
sg32
I00
sg42
I01
sbsg59
V/afs/cern.ch/work/r/rpradhan/Tracking_Studies/newCode_AfterRun3/ForEffTest/CMSSW_13_2_5_patch1/src/HeavyIonsAnalysis/EventAnalysis/python/collisionEventSelection_cff.py
p129
sg61
I5
sg62
g108
sbsVphfCoincFilter1Th3
p130
g0
(g11
g2
Ntp131
Rp132
(dp133
g15
VHiHFFilter
p134
sg17
(lp135
VHFfilters
p136
aVthreshold
p137
aVminnumtowers
p138
asg25
I00
sg26
Nsg136
g0
(g27
g2
Ntp139
Rp140
(dp141
g25
I00
sg31
I01
sg32
I00
sg33
VhiHFfilters
p142
sg35
g142
sg37
g36
sbsg32
I00
sg137
g0
(g52
g2
Ntp143
Rp144
(dp145
g25
I00
sg31
I01
sg32
I01
sg42
I3
sbsg138
g0
(g52
g2
Ntp146
Rp147
(dp148
g25
I00
sg31
I01
sg32
I01
sg42
I1
sbsg59
V/afs/cern.ch/work/r/rpradhan/Tracking_Studies/newCode_AfterRun3/ForEffTest/CMSSW_13_2_5_patch1/src/HeavyIonsAnalysis/EventAnalysis/python/hffilter_cfi.py
p149
sg61
I14
sg62
g130
sbsVphfCoincFilter1Th4
p150
g0
(g11
g2
Ntp151
Rp152
(dp153
g15
g134
sg17
(lp154
g136
ag137
ag138
asg25
I00
sg26
Nsg136
g0
(g27
g2
Ntp155
Rp156
(dp157
g25
I00
sg31
I01
sg32
I00
sg33
g142
sg35
g142
sg37
g36
sbsg32
I00
sg137
g0
(g52
g2
Ntp158
Rp159
(dp160
g25
I00
sg31
I01
sg32
I00
sg42
I4
sbsg138
g0
(g52
g2
Ntp161
Rp162
(dp163
g25
I00
sg31
I01
sg32
I01
sg42
I1
sbsg59
g149
sg61
I9
sg62
g150
sbsVphfCoincFilter1Th5
p164
g0
(g11
g2
Ntp165
Rp166
(dp167
g15
g134
sg17
(lp168
g136
ag137
ag138
asg25
I00
sg26
Nsg136
g0
(g27
g2
Ntp169
Rp170
(dp171
g25
I00
sg31
I01
sg32
I00
sg33
g142
sg35
g142
sg37
g36
sbsg32
I00
sg137
g0
(g52
g2
Ntp172
Rp173
(dp174
g25
I00
sg31
I01
sg32
I01
sg42
I5
sbsg138
g0
(g52
g2
Ntp175
Rp176
(dp177
g25
I00
sg31
I01
sg32
I01
sg42
I1
sbsg59
g149
sg61
I20
sg62
g164
sbsVphfCoincFilter1Th6
p178
g0
(g11
g2
Ntp179
Rp180
(dp181
g15
g134
sg17
(lp182
g136
ag137
ag138
asg25
I00
sg26
Nsg136
g0
(g27
g2
Ntp183
Rp184
(dp185
g25
I00
sg31
I01
sg32
I00
sg33
g142
sg35
g142
sg37
g36
sbsg32
I00
sg137
g0
(g52
g2
Ntp186
Rp187
(dp188
g25
I00
sg31
I01
sg32
I01
sg42
I6
sbsg138
g0
(g52
g2
Ntp189
Rp190
(dp191
g25
I00
sg31
I01
sg32
I01
sg42
I1
sbsg59
g149
sg61
I26
sg62
g178
sbsVphfCoincFilter2Th3
p192
g0
(g11
g2
Ntp193
Rp194
(dp195
g15
g134
sg17
(lp196
g136
ag137
ag138
asg25
I00
sg26
Nsg136
g0
(g27
g2
Ntp197
Rp198
(dp199
g25
I00
sg31
I01
sg32
I00
sg33
g142
sg35
g142
sg37
g36
sbsg32
I00
sg137
g0
(g52
g2
Ntp200
Rp201
(dp202
g25
I00
sg31
I01
sg32
I01
sg42
I3
sbsg138
g0
(g52
g2
Ntp203
Rp204
(dp205
g25
I00
sg31
I01
sg32
I00
sg42
I2
sbsg59
g149
sg61
I15
sg62
g192
sbsVphfCoincFilter2Th4
p206
g0
(g11
g2
Ntp207
Rp208
(dp209
g15
g134
sg17
(lp210
g136
ag137
ag138
asg25
I00
sg26
Nsg136
g0
(g27
g2
Ntp211
Rp212
(dp213
g25
I00
sg31
I01
sg32
I00
sg33
g142
sg35
g142
sg37
g36
sbsg32
I00
sg137
g0
(g52
g2
Ntp214
Rp215
(dp216
g25
I00
sg31
I01
sg32
I00
sg42
I4
sbsg138
g0
(g52
g2
Ntp217
Rp218
(dp219
g25
I00
sg31
I01
sg32
I00
sg42
I2
sbsg59
g149
sg61
I3
sg62
g206
sbsVphfCoincFilter2Th5
p220
g0
(g11
g2
Ntp221
Rp222
(dp223
g15
g134
sg17
(lp224
g136
ag137
ag138
asg25
I00
sg26
Nsg136
g0
(g27
g2
Ntp225
Rp226
(dp227
g25
I00
sg31
I01
sg32
I00
sg33
g142
sg35
g142
sg37
g36
sbsg32
I00
sg137
g0
(g52
g2
Ntp228
Rp229
(dp230
g25
I00
sg31
I01
sg32
I01
sg42
I5
sbsg138
g0
(g52
g2
Ntp231
Rp232
(dp233
g25
I00
sg31
I01
sg32
I00
sg42
I2
sbsg59
g149
sg61
I21
sg62
g220
sbsVphfCoincFilter2Th6
p234
g0
(g11
g2
Ntp235
Rp236
(dp237
g15
g134
sg17
(lp238
g136
ag137
ag138
asg25
I00
sg26
Nsg136
g0
(g27
g2
Ntp239
Rp240
(dp241
g25
I00
sg31
I01
sg32
I00
sg33
g142
sg35
g142
sg37
g36
sbsg32
I00
sg137
g0
(g52
g2
Ntp242
Rp243
(dp244
g25
I00
sg31
I01
sg32
I01
sg42
I6
sbsg138
g0
(g52
g2
Ntp245
Rp246
(dp247
g25
I00
sg31
I01
sg32
I00
sg42
I2
sbsg59
g149
sg61
I27
sg62
g234
sbsVphfCoincFilter3Th3
p248
g0
(g11
g2
Ntp249
Rp250
(dp251
g15
g134
sg17
(lp252
g136
ag137
ag138
asg25
I00
sg26
Nsg136
g0
(g27
g2
Ntp253
Rp254
(dp255
g25
I00
sg31
I01
sg32
I00
sg33
g142
sg35
g142
sg37
g36
sbsg32
I00
sg137
g0
(g52
g2
Ntp256
Rp257
(dp258
g25
I00
sg31
I01
sg32
I01
sg42
I3
sbsg138
g0
(g52
g2
Ntp259
Rp260
(dp261
g25
I00
sg31
I01
sg32
I01
sg42
I3
sbsg59
g149
sg61
I16
sg62
g248
sbsVphfCoincFilter3Th4
p262
g0
(g11
g2
Ntp263
Rp264
(dp265
g15
g134
sg17
(lp266
g136
ag137
ag138
asg25
I00
sg26
Nsg136
g0
(g27
g2
Ntp267
Rp268
(dp269
g25
I00
sg31
I01
sg32
I00
sg33
g142
sg35
g142
sg37
g36
sbsg32
I00
sg137
g0
(g52
g2
Ntp270
Rp271
(dp272
g25
I00
sg31
I01
sg32
I00
sg42
I4
sbsg138
g0
(g52
g2
Ntp273
Rp274
(dp275
g25
I00
sg31
I01
sg32
I01
sg42
I3
sbsg59
g149
sg61
I10
sg62
g262
sbsVphfCoincFilter3Th5
p276
g0
(g11
g2
Ntp277
Rp278
(dp279
g15
g134
sg17
(lp280
g136
ag137
ag138
asg25
I00
sg26
Nsg136
g0
(g27
g2
Ntp281
Rp282
(dp283
g25
I00
sg31
I01
sg32
I00
sg33
g142
sg35
g142
sg37
g36
sbsg32
I00
sg137
g0
(g52
g2
Ntp284
Rp285
(dp286
g25
I00
sg31
I01
sg32
I01
sg42
I5
sbsg138
g0
(g52
g2
Ntp287
Rp288
(dp289
g25
I00
sg31
I01
sg32
I01
sg42
I3
sbsg59
g149
sg61
I22
sg62
g276
sbsVphfCoincFilter3Th6
p290
g0
(g11
g2
Ntp291
Rp292
(dp293
g15
g134
sg17
(lp294
g136
ag137
ag138
asg25
I00
sg26
Nsg136
g0
(g27
g2
Ntp295
Rp296
(dp297
g25
I00
sg31
I01
sg32
I00
sg33
g142
sg35
g142
sg37
g36
sbsg32
I00
sg137
g0
(g52
g2
Ntp298
Rp299
(dp300
g25
I00
sg31
I01
sg32
I01
sg42
I6
sbsg138
g0
(g52
g2
Ntp301
Rp302
(dp303
g25
I00
sg31
I01
sg32
I01
sg42
I3
sbsg59
g149
sg61
I28
sg62
g290
sbsVphfCoincFilter4Th2
p304
g0
(g11
g2
Ntp305
Rp306
(dp307
g15
g134
sg17
(lp308
g136
ag137
ag138
asg25
I00
sg26
Nsg136
g0
(g27
g2
Ntp309
Rp310
(dp311
g25
I00
sg31
I01
sg32
I00
sg33
g142
sg35
g142
sg37
g36
sbsg32
I00
sg137
g0
(g52
g2
Ntp312
Rp313
(dp314
g25
I00
sg31
I01
sg32
I01
sg42
I2
sbsg138
g0
(g52
g2
Ntp315
Rp316
(dp317
g25
I00
sg31
I01
sg32
I01
sg42
I4
sbsg59
g149
sg61
I32
sg62
g304
sbsVphfCoincFilter4Th3
p318
g0
(g11
g2
Ntp319
Rp320
(dp321
g15
g134
sg17
(lp322
g136
ag137
ag138
asg25
I00
sg26
Nsg136
g0
(g27
g2
Ntp323
Rp324
(dp325
g25
I00
sg31
I01
sg32
I00
sg33
g142
sg35
g142
sg37
g36
sbsg32
I00
sg137
g0
(g52
g2
Ntp326
Rp327
(dp328
g25
I00
sg31
I01
sg32
I01
sg42
I3
sbsg138
g0
(g52
g2
Ntp329
Rp330
(dp331
g25
I00
sg31
I01
sg32
I01
sg42
I4
sbsg59
g149
sg61
I17
sg62
g318
sbsVphfCoincFilter4Th4
p332
g0
(g11
g2
Ntp333
Rp334
(dp335
g15
g134
sg17
(lp336
g136
ag137
ag138
asg25
I00
sg26
Nsg136
g0
(g27
g2
Ntp337
Rp338
(dp339
g25
I00
sg31
I01
sg32
I00
sg33
g142
sg35
g142
sg37
g36
sbsg32
I00
sg137
g0
(g52
g2
Ntp340
Rp341
(dp342
g25
I00
sg31
I01
sg32
I00
sg42
I4
sbsg138
g0
(g52
g2
Ntp343
Rp344
(dp345
g25
I00
sg31
I01
sg32
I01
sg42
I4
sbsg59
g149
sg61
I11
sg62
g332
sbsVphfCoincFilter4Th5
p346
g0
(g11
g2
Ntp347
Rp348
(dp349
g15
g134
sg17
(lp350
g136
ag137
ag138
asg25
I00
sg26
Nsg136
g0
(g27
g2
Ntp351
Rp352
(dp353
g25
I00
sg31
I01
sg32
I00
sg33
g142
sg35
g142
sg37
g36
sbsg32
I00
sg137
g0
(g52
g2
Ntp354
Rp355
(dp356
g25
I00
sg31
I01
sg32
I01
sg42
I5
sbsg138
g0
(g52
g2
Ntp357
Rp358
(dp359
g25
I00
sg31
I01
sg32
I01
sg42
I4
sbsg59
g149
sg61
I23
sg62
g346
sbsVphfCoincFilter4Th6
p360
g0
(g11
g2
Ntp361
Rp362
(dp363
g15
g134
sg17
(lp364
g136
ag137
ag138
asg25
I00
sg26
Nsg136
g0
(g27
g2
Ntp365
Rp366
(dp367
g25
I00
sg31
I01
sg32
I00
sg33
g142
sg35
g142
sg37
g36
sbsg32
I00
sg137
g0
(g52
g2
Ntp368
Rp369
(dp370
g25
I00
sg31
I01
sg32
I01
sg42
I6
sbsg138
g0
(g52
g2
Ntp371
Rp372
(dp373
g25
I00
sg31
I01
sg32
I01
sg42
I4
sbsg59
g149
sg61
I29
sg62
g360
sbsVphfCoincFilter5Th3
p374
g0
(g11
g2
Ntp375
Rp376
(dp377
g15
g134
sg17
(lp378
g136
ag137
ag138
asg25
I00
sg26
Nsg136
g0
(g27
g2
Ntp379
Rp380
(dp381
g25
I00
sg31
I01
sg32
I00
sg33
g142
sg35
g142
sg37
g36
sbsg32
I00
sg137
g0
(g52
g2
Ntp382
Rp383
(dp384
g25
I00
sg31
I01
sg32
I01
sg42
I3
sbsg138
g0
(g52
g2
Ntp385
Rp386
(dp387
g25
I00
sg31
I01
sg32
I01
sg42
I5
sbsg59
g149
sg61
I18
sg62
g374
sbsVphfCoincFilter5Th4
p388
g0
(g11
g2
Ntp389
Rp390
(dp391
g15
g134
sg17
(lp392
g136
ag137
ag138
asg25
I00
sg26
Nsg136
g0
(g27
g2
Ntp393
Rp394
(dp395
g25
I00
sg31
I01
sg32
I00
sg33
g142
sg35
g142
sg37
g36
sbsg32
I00
sg137
g0
(g52
g2
Ntp396
Rp397
(dp398
g25
I00
sg31
I01
sg32
I00
sg42
I4
sbsg138
g0
(g52
g2
Ntp399
Rp400
(dp401
g25
I00
sg31
I01
sg32
I01
sg42
I5
sbsg59
g149
sg61
I12
sg62
g388
sbsVphfCoincFilter5Th5
p402
g0
(g11
g2
Ntp403
Rp404
(dp405
g15
g134
sg17
(lp406
g136
ag137
ag138
asg25
I00
sg26
Nsg136
g0
(g27
g2
Ntp407
Rp408
(dp409
g25
I00
sg31
I01
sg32
I00
sg33
g142
sg35
g142
sg37
g36
sbsg32
I00
sg137
g0
(g52
g2
Ntp410
Rp411
(dp412
g25
I00
sg31
I01
sg32
I01
sg42
I5
sbsg138
g0
(g52
g2
Ntp413
Rp414
(dp415
g25
I00
sg31
I01
sg32
I01
sg42
I5
sbsg59
g149
sg61
I24
sg62
g402
sbsVphfCoincFilter5Th6
p416
g0
(g11
g2
Ntp417
Rp418
(dp419
g15
g134
sg17
(lp420
g136
ag137
ag138
asg25
I00
sg26
Nsg136
g0
(g27
g2
Ntp421
Rp422
(dp423
g25
I00
sg31
I01
sg32
I00
sg33
g142
sg35
g142
sg37
g36
sbsg32
I00
sg137
g0
(g52
g2
Ntp424
Rp425
(dp426
g25
I00
sg31
I01
sg32
I01
sg42
I6
sbsg138
g0
(g52
g2
Ntp427
Rp428
(dp429
g25
I00
sg31
I01
sg32
I01
sg42
I5
sbsg59
g149
sg61
I30
sg62
g416
sbsVhltMB
p430
g0
(g11
g2
Ntp431
Rp432
(dp433
g15
VHLTHighLevel
p434
sg17
(lp435
VTriggerResultsTag
p436
aVHLTPaths
p437
aVeventSetupPathsKey
p438
aVandOr
p439
aVthrow
p440
ag72
asg25
I00
sg26
Nsg436
g0
(g27
g2
Ntp441
Rp442
(dp443
g25
I00
sg31
I01
sg32
I00
sg33
VTriggerResults
p444
sg35
g36
sg37
VHLT
p445
sbsg32
I01
sg437
g0
(g105
g47
(lp446
VHLT_HIMinimumBiasHF1AND*
p447
atp448
Rp449
(dp450
g25
I00
sg31
I01
sg32
I01
sV_nPerLine
p451
I1
sbsg438
g0
(g121
g2
Ntp452
Rp453
(dp454
g25
I00
sg31
I01
sg32
I00
sg42
g36
sbsg439
g0
(g73
g2
Ntp455
Rp456
(dp457
g25
I00
sg31
I01
sg32
I00
sg42
I01
sbsg440
g0
(g73
g2
Ntp458
Rp459
(dp460
g25
I00
sg31
I01
sg32
I00
sg42
I00
sbsg72
g0
(g100
g2
Ntp461
Rp462
(dp463
g25
I00
sg31
I00
sg32
I00
sg104
g105
sg106
Nsbsg59
V/afs/cern.ch/work/r/rpradhan/Tracking_Studies/newCode_AfterRun3/ForEffTest/CMSSW_13_2_5_patch1/src/Analyzers/RaghuEffTest/cfg/EfficiecnyTest_genTrk_cfg.py
p464
sg61
I125
sg62
g430
sbssV_Process__producers
p465
(dp466
VrandomEngineStateProducer
p467
g0
(cFWCore.ParameterSet.Modules
EDProducer
p468
g2
Ntp469
Rp470
(dp471
g15
VRandomEngineStateProducer
p472
sg17
(lp473
sg25
I00
sg26
Nsg32
I00
sg59
V/cvmfs/cms.cern.ch/el8_amd64_gcc11/cms/cmssw-patch/CMSSW_13_2_5_patch1/src/IOMC/RandomEngine/python/IOMC_cff.py
p474
sg61
I172
sg62
g467
sbsVgeneralAndHiPixelTracks
p475
g0
(g468
g2
Ntp476
Rp477
(dp478
g15
g475
sg17
(lp479
VsrcPFcand
p480
aVchi2Map
p481
aVgenTrackSrc
p482
aVpixTrackSrc
p483
aVvertexSrc
p484
aVcentralitySrc
p485
aVmvaSrc
p486
aVcutWidth
p487
aVtrkRes
p488
aVqualityString
p489
aVdxyErrMax
p490
aVdzErrMax
p491
aVptErrMax
p492
aVnhitsMin
p493
aVchi2nMax
p494
aVchi2nMaxPixel
p495
aVdzErrMaxPixel
p496
aVdxyErrMaxPixel
p497
asg25
I00
sg26
Nsg480
g0
(g27
g2
Ntp498
Rp499
(dp500
g25
I00
sg31
I01
sg32
I00
sg33
VpackedPFCandidates
p501
sg35
g36
sg37
g36
sbsg32
I00
sg481
g0
(g27
g2
Ntp502
Rp503
(dp504
g25
I00
sg31
I01
sg32
I00
sg33
VpackedPFCandidateTrackChi2
p505
sg35
g36
sg37
g36
sbsg482
g0
(g27
g2
Ntp506
Rp507
(dp508
g25
I00
sg31
I01
sg32
I00
sg33
VgeneralTracks
p509
sg35
g36
sg37
g36
sbsg483
g0
(g27
g2
Ntp510
Rp511
(dp512
g25
I00
sg31
I01
sg32
I00
sg33
VhiPixelTracks
p513
sg35
g36
sg37
g36
sbsg484
g0
(g27
g2
Ntp514
Rp515
(dp516
g25
I00
sg31
I01
sg32
I00
sg33
VofflineSlimmedPrimaryVerticesRecovery
p517
sg35
g36
sg37
g36
sbsg485
g0
(g27
g2
Ntp518
Rp519
(dp520
g25
I00
sg31
I01
sg32
I00
sg33
VcentralityBin
p521
sg35
VHFtowers
p522
sg37
g36
sbsg486
g0
(g27
g2
Ntp523
Rp524
(dp525
g25
I00
sg31
I01
sg32
I00
sg33
g509
sg35
VMVAValues
p526
sg37
g36
sbsg487
g0
(g38
g2
Ntp527
Rp528
(dp529
g25
I00
sg31
I01
sg32
I00
sg42
F0.2
sbsg488
g0
(g38
g2
Ntp530
Rp531
(dp532
g25
I00
sg31
I01
sg32
I00
sg42
F0.02
sbsg489
g0
(g121
g2
Ntp533
Rp534
(dp535
g25
I00
sg31
I01
sg32
I00
sg42
VhighPurity
p536
sbsg490
g0
(g38
g2
Ntp537
Rp538
(dp539
g25
I00
sg31
I01
sg32
I00
sg42
F3.0
sbsg491
g0
(g38
g2
Ntp540
Rp541
(dp542
g25
I00
sg31
I01
sg32
I00
sg42
F3.0
sbsg492
g0
(g38
g2
Ntp543
Rp544
(dp545
g25
I00
sg31
I01
sg32
I00
sg42
F0.1
sbsg493
g0
(g52
g2
Ntp546
Rp547
(dp548
g25
I00
sg31
I01
sg32
I00
sg42
I11
sbsg494
g0
(g38
g2
Ntp549
Rp550
(dp551
g25
I00
sg31
I01
sg32
I00
sg42
F0.18
sbsg495
g0
(g38
g2
Ntp552
Rp553
(dp554
g25
I00
sg31
I01
sg32
I00
sg42
F9999.0
sbsg496
g0
(g38
g2
Ntp555
Rp556
(dp557
g25
I00
sg31
I01
sg32
I00
sg42
F20.0
sbsg497
g0
(g38
g2
Ntp558
Rp559
(dp560
g25
I00
sg31
I01
sg32
I00
sg42
F7.0
sbsg59
V/afs/cern.ch/work/r/rpradhan/Tracking_Studies/newCode_AfterRun3/ForEffTest/CMSSW_13_2_5_patch1/src/MergingProducer/generalAndHiPixelTracks/python/MergingPixAndGenProducer_cfi.py
p561
sg61
I3
sg62
g475
sbsg521
g0
(g468
g2
Ntp562
Rp563
(dp564
g15
VCentralityBinProducer
p565
sg17
(lp566
VCentrality
p567
aVcentralityVariable
p568
aVnonDefaultGlauberModel
p569
aVpPbRunFlip
p570
asg25
I00
sg26
Nsg567
g0
(g27
g2
Ntp571
Rp572
(dp573
g25
I00
sg31
I01
sg32
I00
sg33
VhiCentrality
p574
sg35
g36
sg37
g36
sbsg32
I01
sg568
g0
(g121
g2
Ntp575
Rp576
(dp577
g25
I00
sg31
I01
sg32
I00
sg42
g522
sbsg569
g0
(g121
g2
Ntp578
Rp579
(dp580
g25
I00
sg31
I01
sg32
I00
sg42
g36
sbsg570
g0
(cFWCore.ParameterSet.Types
uint32
p581
g2
Ntp582
Rp583
(dp584
g25
I00
sg31
I01
sg32
I00
sg42
I99999999
sbsg59
V/cvmfs/cms.cern.ch/el8_amd64_gcc11/cms/cmssw-patch/CMSSW_13_2_5_patch1/src/RecoHI/HiCentralityAlgos/python/CentralityBin_cfi.py
p585
sg61
I3
sg62
g521
sbsg80
g0
(g468
g2
Ntp586
Rp587
(dp588
g15
VSiPixelRecHitConverter
p589
sg17
(lp590
g114
aVCPE
p591
aVVerboseLevel
p592
asg25
I00
sg26
Nsg114
g0
(g27
g2
Ntp593
Rp594
(dp595
g25
I00
sg31
I01
sg32
I00
sg33
VsiPixelClusters
p596
sg35
g36
sg37
g36
sbsg32
I00
sg591
g0
(g121
g2
Ntp597
Rp598
(dp599
g25
I00
sg31
I01
sg32
I00
sg42
VPixelCPEGeneric
p600
sbsg592
g0
(g52
g2
Ntp601
Rp602
(dp603
g25
I00
sg31
I00
sg32
I00
sg42
I0
sbsg59
V/cvmfs/cms.cern.ch/el8_amd64_gcc11/cms/cmssw-patch/CMSSW_13_2_5_patch1/src/RecoLocalTracker/SiPixelRecHits/python/SiPixelRecHits_cfi.py
p604
sg61
I6
sg62
g80
sbsVsiPixelRecHitsPreSplittingCPU
p605
g0
(g468
g2
Ntp606
Rp607
(dp608
g15
VSiPixelRecHitSoAFromLegacyPhase1
p609
sg17
(lp610
VbeamSpot
p611
ag114
ag591
aVconvertToLegacy
p612
ag72
asg25
I00
sg26
Nsg611
g0
(g27
g2
Ntp613
Rp614
(dp615
g25
I00
sg31
I01
sg32
I00
sg33
VofflineBeamSpot
p616
sg35
g36
sg37
g36
sbsg32
I00
sg114
g0
(g27
g2
Ntp617
Rp618
(dp619
g25
I00
sg31
I01
sg32
I00
sg33
VsiPixelClustersPreSplitting
p620
sg35
g36
sg37
g36
sbsg591
g0
(g121
g2
Ntp621
Rp622
(dp623
g25
I00
sg31
I01
sg32
I00
sg42
VPixelCPEFast
p624
sbsg612
g0
(g73
g2
Ntp625
Rp626
(dp627
g25
I00
sg31
I01
sg32
I01
sg42
I01
sbsg72
g0
(g100
g2
Ntp628
Rp629
(dp630
g25
I00
sg31
I00
sg32
I00
sg104
g105
sg106
Nsbsg59
g604
sg61
I29
sg62
g605
sbsVsiPixelRecHitsPreSplittingCUDA
p631
g0
(g468
g2
Ntp632
Rp633
(dp634
g15
VSiPixelRecHitCUDAPhase1
p635
sg17
(lp636
g611
ag114
ag591
ag72
asg25
I00
sg26
Nsg611
g0
(g27
g2
Ntp637
Rp638
(dp639
g25
I00
sg31
I01
sg32
I01
sg33
VofflineBeamSpotToCUDA
p640
sg35
g36
sg37
g36
sbsg32
I00
sg114
g0
(g27
g2
Ntp641
Rp642
(dp643
g25
I00
sg31
I01
sg32
I00
sg33
VsiPixelClustersPreSplittingCUDA
p644
sg35
g36
sg37
g36
sbsg591
g0
(g121
g2
Ntp645
Rp646
(dp647
g25
I00
sg31
I01
sg32
I00
sg42
g624
sbsg72
g0
(g100
g2
Ntp648
Rp649
(dp650
g25
I00
sg31
I00
sg32
I00
sg104
g105
sg106
Nsbsg59
g604
sg61
I54
sg62
g631
sbssV_Process__switchproducers
p651
(dp652
VsiPixelRecHitsPreSplitting
p653
g0
(cHeterogeneousCore.CUDACore.SwitchProducerCUDA
SwitchProducerCUDA
p654
g2
Ntp655
Rp656
(dp657
g15
Nsg17
(lp658
Vcpu
p659
asg25
I00
sg26
Nsg32
I00
sg59
V/cvmfs/cms.cern.ch/el8_amd64_gcc11/cms/cmssw-patch/CMSSW_13_2_5_patch1/src/FWCore/ParameterSet/python/Modules.py
p660
sg61
I250
sV_caseFunctionDict
p661
(dp662
g659
cFWCore.ParameterSet.Modules
_switch_cpu
p663
sVcuda
p664
cHeterogeneousCore.CUDACore.SwitchProducerCUDA
_switch_cuda
p665
ssg659
g0
(g468
g2
Ntp666
Rp667
(dp668
g15
g589
sg17
(lp669
g114
ag591
ag592
asg25
I00
sg26
Nsg114
g0
(g27
g2
Ntp670
Rp671
(dp672
g25
I00
sg31
I01
sg32
I01
sg33
g620
sg35
g36
sg37
g36
sbsg32
I00
sg591
g0
(g121
g2
Ntp673
Rp674
(dp675
g25
I00
sg31
I01
sg32
I00
sg42
g600
sbsg592
g0
(g52
g2
Ntp676
Rp677
(dp678
g25
I00
sg31
I00
sg32
I00
sg42
I0
sbsg59
g604
sg61
I14
sg62
VsiPixelRecHitsPreSplitting@cpu
p679
sbsg62
g653
sbsVsiPixelRecHitsPreSplittingSoA
p680
g0
(g654
g2
Ntp681
Rp682
(dp683
g15
Nsg17
(lp684
g659
asg25
I00
sg26
Nsg32
I00
sg59
g660
sg61
I250
sg661
(dp685
g659
g663
sg664
g665
ssg659
g0
(cFWCore.ParameterSet.Types
EDAlias
p686
g2
Ntp687
Rp688
(dp689
g17
(lp690
g605
asg25
I00
sg26
Nsg605
g0
(cFWCore.ParameterSet.Types
VPSet
p691
g47
(lp692
g0
(cFWCore.ParameterSet.Types
PSet
p693
g2
Ntp694
Rp695
(dp696
g25
I00
sg31
I01
sg32
I00
sg17
(lp697
Vtype
p698
asg26
Nsg698
g0
(g121
g2
Ntp699
Rp700
(dp701
g25
I00
sg31
I01
sg32
I00
sg42
VpixelTopologyPhase1TrackingRecHitSoAHost
p702
sbsbag0
(g693
g2
Ntp703
Rp704
(dp705
g25
I00
sg31
I01
sg32
I00
sg17
(lp706
g698
asg26
Nsg698
g0
(g121
g2
Ntp707
Rp708
(dp709
g25
I00
sg31
I01
sg32
I00
sg42
VuintAsHostProduct
p710
sbsbatp711
Rp712
(dp713
g25
I00
sg31
I01
sg32
I00
sg451
I1
sbsg32
I00
sg62
VsiPixelRecHitsPreSplittingSoA@cpu
p714
sbsg62
g680
sbssV_Process__source
p715
g0
(cFWCore.ParameterSet.Modules
Source
p716
g2
Ntp717
Rp718
(dp719
g15
VPoolSource
p720
sg17
(lp721
VfileNames
p722
aVduplicateCheckMode
p723
aVskipBadFiles
p724
asg25
I00
sg26
Nsg722
g0
(g105
g47
(lp725
V/store/user/sarteaga/MinBias_PbPb_5p36TeV_Hydjet_v1/MinBias_PbPb_5p36TeV_Hydjet_MINIAOD_v5/231024_131749/0000/miniaod_1.root
p726
atp727
Rp728
(dp729
g25
I00
sg31
I00
sg32
I00
sg451
I1
sbsg32
I00
sg723
g0
(g121
g2
Ntp730
Rp731
(dp732
g25
I00
sg31
I00
sg32
I00
sg42
VnoDuplicateCheck
p733
sbsg724
g0
(g73
g2
Ntp734
Rp735
(dp736
g25
I00
sg31
I00
sg32
I00
sg42
I01
sbsg59
g660
sg61
I195
sbsV_Process__looper
p737
NsV_Process__subProcesses
p738
(lp739
sV_Process__schedule
p740
NsV_Process__analyzers
p741
(dp742
VhiEvtAnalyzer
p743
g0
(cFWCore.ParameterSet.Modules
EDAnalyzer
p744
g2
Ntp745
Rp746
(dp747
g15
VHiEvtAnalyzer
p748
sg17
(lp749
VCentralitySrc
p750
aVCentralityBinSrc
p751
aVpfCandidateSrc
p752
aVEvtPlane
p753
aVEvtPlaneFlat
p754
aVHiMC
p755
aVVertex
p756
ag136
aVdoCentrality
p757
aVdoEvtPlane
p758
aVdoEvtPlaneFlat
p759
aVdoVertex
p760
aVdoMC
p761
aVdoHiMC
p762
aVuseHepMC
p763
aVdoHFfilters
p764
aVevtPlaneLevel
p765
asg25
I00
sg26
Nsg750
g0
(g27
g2
Ntp766
Rp767
(dp768
g25
I00
sg31
I01
sg32
I00
sg33
g574
sg35
g36
sg37
g36
sbsg32
I00
sg751
g0
(g27
g2
Ntp769
Rp770
(dp771
g25
I00
sg31
I01
sg32
I00
sg33
g521
sg35
g522
sg37
g36
sbsg752
g0
(g27
g2
Ntp772
Rp773
(dp774
g25
I00
sg31
I01
sg32
I00
sg33
g501
sg35
g36
sg37
g36
sbsg753
g0
(g27
g2
Ntp775
Rp776
(dp777
g25
I00
sg31
I01
sg32
I00
sg33
VhiEvtPlane
p778
sg35
g36
sg37
g36
sbsg754
g0
(g27
g2
Ntp779
Rp780
(dp781
g25
I00
sg31
I01
sg32
I00
sg33
VhiEvtPlaneFlat
p782
sg35
g36
sg37
g36
sbsg755
g0
(g27
g2
Ntp783
Rp784
(dp785
g25
I00
sg31
I01
sg32
I00
sg33
VheavyIon
p786
sg35
g36
sg37
g36
sbsg756
g0
(g27
g2
Ntp787
Rp788
(dp789
g25
I00
sg31
I01
sg32
I00
sg33
g120
sg35
g36
sg37
g36
sbsg136
g0
(g27
g2
Ntp790
Rp791
(dp792
g25
I00
sg31
I01
sg32
I00
sg33
g142
sg35
g142
sg37
g36
sbsg757
g0
(g73
g2
Ntp793
Rp794
(dp795
g25
I00
sg31
I01
sg32
I00
sg42
I01
sbsg758
g0
(g73
g2
Ntp796
Rp797
(dp798
g25
I00
sg31
I01
sg32
I00
sg42
I01
sbsg759
g0
(g73
g2
Ntp799
Rp800
(dp801
g25
I00
sg31
I01
sg32
I00
sg42
I01
sbsg760
g0
(g73
g2
Ntp802
Rp803
(dp804
g25
I00
sg31
I01
sg32
I00
sg42
I01
sbsg761
g0
(g73
g2
Ntp805
Rp806
(dp807
g25
I00
sg31
I01
sg32
I00
sg42
I00
sbsg762
g0
(g73
g2
Ntp808
Rp809
(dp810
g25
I00
sg31
I01
sg32
I00
sg42
I00
sbsg763
g0
(g73
g2
Ntp811
Rp812
(dp813
g25
I00
sg31
I01
sg32
I00
sg42
I00
sbsg764
g0
(g73
g2
Ntp814
Rp815
(dp816
g25
I00
sg31
I01
sg32
I00
sg42
I01
sbsg765
g0
(g52
g2
Ntp817
Rp818
(dp819
g25
I00
sg31
I01
sg32
I00
sg42
I0
sbsg59
V/afs/cern.ch/work/r/rpradhan/Tracking_Studies/newCode_AfterRun3/ForEffTest/CMSSW_13_2_5_patch1/src/HeavyIonsAnalysis/EventAnalysis/python/hievtanalyzer_data_cfi.py
p820
sg61
I3
sg62
g743
sbsVdefaultCPDC
p821
g0
(g744
g2
Ntp822
Rp823
(dp824
g15
g7
sg17
(lp825
Vtracks
p826
aVtracksgen
p827
aVtrackschi2
p828
aVvertex
p829
aVcentralitybin
p830
aVzminVtx
p831
aVzmaxVtx
p832
aVfGeneral
p833
aVpTBins
p834
aVetaBins
p835
aVcentbins
p836
aValgoParameters
p837
asg25
I00
sg26
Nsg826
g0
(g27
g2
Ntp838
Rp839
(dp840
g25
I00
sg31
I01
sg32
I00
sg33
g501
sg35
g36
sg37
g36
sbsg32
I00
sg827
g0
(g27
g2
Ntp841
Rp842
(dp843
g25
I00
sg31
I01
sg32
I00
sg33
VpackedGenParticles
p844
sg35
g36
sg37
g36
sbsg828
g0
(g27
g2
Ntp845
Rp846
(dp847
g25
I00
sg31
I01
sg32
I00
sg33
g505
sg35
g36
sg37
g36
sbsg829
g0
(g27
g2
Ntp848
Rp849
(dp850
g25
I00
sg31
I01
sg32
I00
sg33
g120
sg35
g36
sg37
g36
sbsg830
g0
(g27
g2
Ntp851
Rp852
(dp853
g25
I00
sg31
I01
sg32
I00
sg33
g521
sg35
g522
sg37
g36
sbsg831
g0
(g38
g2
Ntp854
Rp855
(dp856
g25
I00
sg31
I00
sg32
I00
sg42
F-15.0
sbsg832
g0
(g38
g2
Ntp857
Rp858
(dp859
g25
I00
sg31
I00
sg32
I00
sg42
F15.0
sbsg833
g0
(g27
g2
Ntp860
Rp861
(dp862
g25
I00
sg31
I00
sg32
I00
sg33
VGeneral_TrackEff_3D_nhits0_noChi2Cut_ptGt10ptResoCut_Nominal_V0.root
p863
sg35
g36
sg37
g36
sbsg834
g0
(g46
g47
(lp864
F0.0
aF0.05
aF0.1
aF0.15
aF0.2
aF0.25
aF0.3
aF0.35
aF0.4
aF0.45
aF0.5
aF0.55
aF0.6
aF0.65
aF0.7
aF0.75
aF0.8
aF0.85
aF0.9
aF0.95
aF1.0
aF1.05
aF1.1
aF1.15
aF1.2
aF1.3
aF1.4
aF1.5
aF1.6
aF1.7
aF1.8
aF1.9
aF2.0
aF2.5
aF3.0
atp865
Rp866
(dp867
g25
I00
sg31
I00
sg32
I00
sbsg835
g0
(g46
g47
(lp868
F-3.0
aF-2.4
aF-2.0
aF-1.6
aF-1.2
aF-0.8
aF-0.4
aF0.0
aF0.4
aF0.8
aF1.2
aF1.6
aF2.0
aF2.4
aF3.0
atp869
Rp870
(dp871
g25
I00
sg31
I00
sg32
I00
sbsg836
g0
(g46
g47
(lp872
F0.0
aF20.0
aF40.0
aF60.0
aF80.0
aF100.0
aF120.0
aF140.0
aF160.0
aF180.0
aF200.0
atp873
Rp874
(dp875
g25
I00
sg31
I00
sg32
I00
sbsg837
g0
(cFWCore.ParameterSet.Types
vint32
p876
g47
(lp877
I0
aI1
aI2
aI3
aI4
aI5
aI6
aI7
aI8
aI9
aI10
aI11
aI12
aI13
aI14
aI15
aI16
aI17
aI18
aI19
aI20
aI21
aI22
aI23
aI24
aI25
aI26
aI27
aI28
aI29
aI30
aI31
aI32
aI33
aI34
aI35
aI36
aI37
aI38
aI39
aI40
aI41
aI42
aI43
aI44
aI45
aI46
atp878
Rp879
(dp880
g25
I00
sg31
I01
sg32
I00
sbsg59
V/afs/cern.ch/work/r/rpradhan/Tracking_Studies/newCode_AfterRun3/ForEffTest/CMSSW_13_2_5_patch1/src/Analyzers/RaghuEffTest/python/RaghuEffTest_cfi.py
p881
sg61
I3
sg62
g821
sbssV_Process__outputmodules
p882
(dp883
sV_Process__paths
p884
g0
(cFWCore.ParameterSet.DictTypes
SortedKeysDict
p885
c__builtin__
dict
p886
(dp887
Vp
p888
g0
(cFWCore.ParameterSet.SequenceTypes
Path
p889
g2
Ntp890
Rp891
(dp892
g25
I00
sV_seq
p893
g0
(cFWCore.ParameterSet.SequenceTypes
_SequenceCollection
p894
g2
Ntp895
Rp896
(dp897
V_collection
p898
(lp899
g432
ag563
ag823
asbsg32
I00
sV_tasks
p900
g0
(cFWCore.ParameterSet.OrderedSet
OrderedSet
p901
g2
Ntp902
Rp903
(dp904
Vend
p905
(lp906
Nag906
ag906
asVmap
p907
(dp908
sbsg62
g888
sbstp909
Rp910
(dp911
Vlist
p912
(lp913
g888
asbsV_Process__endpaths
p914
g0
(g885
g886
(dp915
tp916
Rp917
(dp918
g912
(lp919
sbsV_Process__finalpaths
p920
g0
(g885
g886
(dp921
tp922
Rp923
(dp924
g912
(lp925
sbsV_Process__sequences
p926
(dp927
VeventFilter
p928
g0
(cFWCore.ParameterSet.SequenceTypes
Sequence
p929
g2
Ntp930
Rp931
(dp932
g25
I00
sg893
g0
(g894
g2
Ntp933
Rp934
(dp935
g898
(lp936
g208
ag110
ag13
asbsg32
I00
sg900
g0
(g901
g2
Ntp937
Rp938
(dp939
g905
(lp940
Nag940
ag940
asg907
(dp941
sbsg62
g928
sbssV_Process__tasks
p942
(dp943
VsiPixelRecHitsPreSplittingTask
p944
g0
(cFWCore.ParameterSet.SequenceTypes
Task
p945
g2
Ntp946
Rp947
(dp948
g898
g0
(g901
g2
Ntp949
Rp950
(dp951
g905
(lp952
Na(lp953
g656
ag952
ag952
aag953
asg907
(dp954
g656
g953
ssbsg62
g944
sbssV_Process__conditionaltasks
p955
(dp956
sV_Process__services
p957
(dp958
VMessageLogger
p959
g0
(cFWCore.ParameterSet.Modules
Service
p960
g2
Ntp961
Rp962
(dp963
g15
g959
sg17
(lp964
VsuppressWarning
p965
aVsuppressFwkInfo
p966
aVsuppressInfo
p967
aVsuppressDebug
p968
aVdebugModules
p969
aVcout
p970
aVdefault
p971
aVcerr
p972
aVfiles
p973
asg25
I00
sg26
g0
(g100
g2
Ntp974
Rp975
(dp976
g25
I00
sg31
I00
sg32
I00
sg104
g0
(cFWCore.ParameterSet.Types
_PSetTemplate
p977
g2
Ntp978
Rp979
(dp980
V_pset
p981
g0
(g693
g2
Ntp982
Rp983
(dp984
g25
I00
sg31
I01
sg32
I00
sg17
(lp985
VreportEvery
p986
aVlimit
p987
aVtimespan
p988
asg26
Nsg986
g0
(g52
g2
Ntp989
Rp990
(dp991
g25
I00
sg31
I00
sg32
I00
sg42
I1
sbsg987
g0
(g100
g2
Ntp992
Rp993
(dp994
g25
I00
sg31
I00
sg32
I00
sg104
g52
sg106
Nsbsg988
g0
(g100
g2
Ntp995
Rp996
(dp997
g25
I00
sg31
I00
sg32
I00
sg104
g52
sg106
NsbsbsV_PSetTemplate__value
p998
Nsbsg106
Nsbsg965
g0
(g105
g47
(lp999
tp1000
Rp1001
(dp1002
g25
I00
sg31
I00
sg32
I00
sg451
I1
sbsg32
I00
sg966
g0
(g105
g47
(lp1003
tp1004
Rp1005
(dp1006
g25
I00
sg31
I00
sg32
I00
sg451
I1
sbsg967
g0
(g105
g47
(lp1007
tp1008
Rp1009
(dp1010
g25
I00
sg31
I00
sg32
I00
sg451
I1
sbsg968
g0
(g105
g47
(lp1011
tp1012
Rp1013
(dp1014
g25
I00
sg31
I00
sg32
I00
sg451
I1
sbsg969
g0
(g105
g47
(lp1015
tp1016
Rp1017
(dp1018
g25
I00
sg31
I00
sg32
I00
sg451
I1
sbsg970
g0
(g693
g2
Ntp1019
Rp1020
(dp1021
g25
I00
sg31
I00
sg32
I00
sg17
(lp1022
VnoLineBreaks
p1023
aVnoTimeStamps
p1024
aVlineLength
p1025
ag137
aVstatisticsThreshold
p1026
aVenableStatistics
p1027
aVresetStatistics
p1028
aVenable
p1029
asg26
g975
sg1023
g0
(g100
g2
Ntp1030
Rp1031
(dp1032
g25
I00
sg31
I00
sg32
I00
sg104
g73
sg106
Nsbsg1024
g0
(g100
g2
Ntp1033
Rp1034
(dp1035
g25
I00
sg31
I00
sg32
I00
sg104
g73
sg106
Nsbsg1025
g0
(g100
g2
Ntp1036
Rp1037
(dp1038
g25
I00
sg31
I00
sg32
I00
sg104
g52
sg106
Nsbsg137
g0
(g100
g2
Ntp1039
Rp1040
(dp1041
g25
I00
sg31
I00
sg32
I00
sg104
g121
sg106
Nsbsg1026
g0
(g100
g2
Ntp1042
Rp1043
(dp1044
g25
I00
sg31
I00
sg32
I00
sg104
g121
sg106
Nsbsg1027
g0
(g73
g2
Ntp1045
Rp1046
(dp1047
g25
I00
sg31
I00
sg32
I00
sg42
I00
sbsg1028
g0
(g73
g2
Ntp1048
Rp1049
(dp1050
g25
I00
sg31
I00
sg32
I00
sg42
I00
sbsg1029
g0
(g73
g2
Ntp1051
Rp1052
(dp1053
g25
I00
sg31
I00
sg32
I00
sg42
I00
sbsbsg971
g0
(g693
g2
Ntp1054
Rp1055
(dp1056
g25
I00
sg31
I00
sg32
I00
sg17
(lp1057
g986
ag987
ag988
ag1023
ag1024
ag1025
ag137
ag1026
asg26
g975
sg986
g0
(g52
g2
Ntp1058
Rp1059
(dp1060
g25
I00
sg31
I00
sg32
I00
sg42
I1
sbsg987
g0
(g100
g2
Ntp1061
Rp1062
(dp1063
g25
I00
sg31
I00
sg32
I00
sg104
g52
sg106
Nsbsg988
g0
(g100
g2
Ntp1064
Rp1065
(dp1066
g25
I00
sg31
I00
sg32
I00
sg104
g52
sg106
Nsbsg1023
g0
(g73
g2
Ntp1067
Rp1068
(dp1069
g25
I00
sg31
I00
sg32
I00
sg42
I00
sbsg1024
g0
(g73
g2
Ntp1070
Rp1071
(dp1072
g25
I00
sg31
I00
sg32
I00
sg42
I00
sbsg1025
g0
(g52
g2
Ntp1073
Rp1074
(dp1075
g25
I00
sg31
I00
sg32
I00
sg42
I80
sbsg137
g0
(g121
g2
Ntp1076
Rp1077
(dp1078
g25
I00
sg31
I00
sg32
I00
sg42
VINFO
p1079
sbsg1026
g0
(g121
g2
Ntp1080
Rp1081
(dp1082
g25
I00
sg31
I00
sg32
I00
sg42
g1079
sbsbsg972
g0
(g693
g2
Ntp1083
Rp1084
(dp1085
g25
I00
sg31
I00
sg32
I00
sg17
(lp1086
g1023
ag1024
ag1025
ag137
ag1026
ag1029
ag1027
ag1028
ag1079
aVFwkReport
p1087
ag971
aVRoot_NoDictionary
p1088
aVFwkSummary
p1089
asg26
g975
sg1023
g0
(g100
g2
Ntp1090
Rp1091
(dp1092
g25
I00
sg31
I00
sg32
I00
sg104
g73
sg106
Nsbsg1024
g0
(g73
g2
Ntp1093
Rp1094
(dp1095
g25
I00
sg31
I00
sg32
I00
sg42
I00
sbsg1025
g0
(g100
g2
Ntp1096
Rp1097
(dp1098
g25
I00
sg31
I00
sg32
I00
sg104
g52
sg106
Nsbsg137
g0
(g121
g2
Ntp1099
Rp1100
(dp1101
g25
I00
sg31
I00
sg32
I00
sg42
g1079
sbsg1026
g0
(g121
g2
Ntp1102
Rp1103
(dp1104
g25
I00
sg31
I00
sg32
I00
sg42
VWARNING
p1105
sbsg1029
g0
(g73
g2
Ntp1106
Rp1107
(dp1108
g25
I00
sg31
I00
sg32
I00
sg42
I01
sbsg1027
g0
(g73
g2
Ntp1109
Rp1110
(dp1111
g25
I00
sg31
I00
sg32
I00
sg42
I00
sbsg1028
g0
(g73
g2
Ntp1112
Rp1113
(dp1114
g25
I00
sg31
I00
sg32
I00
sg42
I00
sbsg1079
g0
(g693
g2
Ntp1115
Rp1116
(dp1117
g25
I00
sg31
I00
sg32
I00
sg17
(lp1118
g987
asg26
Nsg987
g0
(g52
g2
Ntp1119
Rp1120
(dp1121
g25
I00
sg31
I00
sg32
I00
sg42
I0
sbsbsg1087
g0
(g693
g2
Ntp1122
Rp1123
(dp1124
g25
I00
sg31
I00
sg32
I01
sg17
(lp1125
g986
ag987
asg26
Nsg986
g0
(g52
g2
Ntp1126
Rp1127
(dp1128
g25
I00
sg31
I00
sg32
I01
sg42
I100
sbsg987
g0
(g52
g2
Ntp1129
Rp1130
(dp1131
g25
I00
sg31
I00
sg32
I00
sg42
I10000000
sbsbsg971
g0
(g693
g2
Ntp1132
Rp1133
(dp1134
g25
I00
sg31
I00
sg32
I00
sg17
(lp1135
g987
asg26
Nsg987
g0
(g52
g2
Ntp1136
Rp1137
(dp1138
g25
I00
sg31
I00
sg32
I00
sg42
I10000000
sbsbsg1088
g0
(g693
g2
Ntp1139
Rp1140
(dp1141
g25
I00
sg31
I00
sg32
I00
sg17
(lp1142
g987
asg26
Nsg987
g0
(g52
g2
Ntp1143
Rp1144
(dp1145
g25
I00
sg31
I00
sg32
I00
sg42
I0
sbsbsg1089
g0
(g693
g2
Ntp1146
Rp1147
(dp1148
g25
I00
sg31
I00
sg32
I00
sg17
(lp1149
g986
ag987
asg26
Nsg986
g0
(g52
g2
Ntp1150
Rp1151
(dp1152
g25
I00
sg31
I00
sg32
I00
sg42
I1
sbsg987
g0
(g52
g2
Ntp1153
Rp1154
(dp1155
g25
I00
sg31
I00
sg32
I00
sg42
I10000000
sbsbsbsg973
g0
(g693
g2
Ntp1156
Rp1157
(dp1158
g25
I00
sg31
I00
sg32
I00
sg17
(lp1159
sg26
g0
(g100
g2
Ntp1160
Rp1161
(dp1162
g25
I00
sg31
I00
sg32
I00
sg104
g0
(g977
g2
Ntp1163
Rp1164
(dp1165
g981
g0
(g693
g2
Ntp1166
Rp1167
(dp1168
g25
I00
sg31
I01
sg32
I00
sg17
(lp1169
g1023
ag1024
ag1025
ag137
ag1026
ag1027
ag1028
aVfilename
p1170
aVextension
p1171
aVoutput
p1172
asg26
g975
sg1023
g0
(g100
g2
Ntp1173
Rp1174
(dp1175
g25
I00
sg31
I00
sg32
I00
sg104
g73
sg106
Nsbsg1024
g0
(g100
g2
Ntp1176
Rp1177
(dp1178
g25
I00
sg31
I00
sg32
I00
sg104
g73
sg106
Nsbsg1025
g0
(g100
g2
Ntp1179
Rp1180
(dp1181
g25
I00
sg31
I00
sg32
I00
sg104
g52
sg106
Nsbsg137
g0
(g100
g2
Ntp1182
Rp1183
(dp1184
g25
I00
sg31
I00
sg32
I00
sg104
g121
sg106
Nsbsg1026
g0
(g100
g2
Ntp1185
Rp1186
(dp1187
g25
I00
sg31
I00
sg32
I00
sg104
g121
sg106
Nsbsg1027
g0
(g73
g2
Ntp1188
Rp1189
(dp1190
g25
I00
sg31
I00
sg32
I00
sg42
I00
sbsg1028
g0
(g73
g2
Ntp1191
Rp1192
(dp1193
g25
I00
sg31
I00
sg32
I00
sg42
I00
sbsg1170
g0
(g100
g2
Ntp1194
Rp1195
(dp1196
g25
I00
sg31
I00
sg32
I00
sg104
g121
sg106
Nsbsg1171
g0
(g100
g2
Ntp1197
Rp1198
(dp1199
g25
I00
sg31
I00
sg32
I00
sg104
g121
sg106
Nsbsg1172
g0
(g100
g2
Ntp1200
Rp1201
(dp1202
g25
I00
sg31
I00
sg32
I00
sg104
g121
sg106
Nsbsbsg998
Nsbsg106
Nsbsbsg59
g660
sg61
I13
sV_inProcess
p1203
I00
sbsVDQMStore
p1204
g0
(g960
g2
Ntp1205
Rp1206
(dp1207
g15
g1204
sg17
(lp1208
Vverbose
p1209
aVsaveByLumi
p1210
aVMEsToSave
p1211
aVtrackME
p1212
aVassertLegacySafe
p1213
aVenableMultiThread
p1214
aVonlineMode
p1215
asg25
I00
sg26
Nsg1209
g0
(g52
g2
Ntp1216
Rp1217
(dp1218
g25
I00
sg31
I00
sg32
I00
sg42
I0
sbsg32
I00
sg1210
g0
(g73
g2
Ntp1219
Rp1220
(dp1221
g25
I00
sg31
I00
sg32
I00
sg42
I00
sbsg1211
g0
(g105
g47
(lp1222
VHcal/DigiTask/Occupancy/depth/depth1
p1223
aVHcal/DigiTask/Occupancy/depth/depth2
p1224
aVHcal/DigiTask/Occupancy/depth/depth3
p1225
aVHcal/DigiTask/Occupancy/depth/depth4
p1226
aVHcal/DigiTask/Occupancy/depth/depth5
p1227
aVHcal/DigiTask/Occupancy/depth/depth6
p1228
aVHcal/DigiTask/Occupancy/depth/depth7
p1229
aVHcal/DigiTask/Occupancy/depth/depthHO
p1230
aVHcal/DigiTask/OccupancyCut/depth/depth1
p1231
aVHcal/DigiTask/OccupancyCut/depth/depth2
p1232
aVHcal/DigiTask/OccupancyCut/depth/depth3
p1233
aVHcal/DigiTask/OccupancyCut/depth/depth4
p1234
aVHcal/DigiTask/OccupancyCut/depth/depth5
p1235
aVHcal/DigiTask/OccupancyCut/depth/depth6
p1236
aVHcal/DigiTask/OccupancyCut/depth/depth7
p1237
aVHcal/DigiTask/OccupancyCut/depth/depthHO
p1238
aVEcalBarrel/EBOccupancyTask/EBOT digi occupancy
p1239
aVEcalEndcap/EEOccupancyTask/EEOT digi occupancy EE -
p1240
aVEcalEndcap/EEOccupancyTask/EEOT digi occupancy EE +
p1241
aVEcalBarrel/EBOccupancyTask/EBOT DCC entries
p1242
aVEcalEndcap/EEOccupancyTask/EEOT DCC entries
p1243
aVEcal/EventInfo/processedEvents
p1244
aVPixelPhase1/Tracks/charge_PXBarrel
p1245
aVPixelPhase1/Tracks/charge_PXForward
p1246
aVPixelPhase1/Tracks/PXBarrel/charge_PXLayer_1
p1247
aVPixelPhase1/Tracks/PXBarrel/charge_PXLayer_2
p1248
aVPixelPhase1/Tracks/PXBarrel/charge_PXLayer_3
p1249
aVPixelPhase1/Tracks/PXBarrel/charge_PXLayer_4
p1250
aVPixelPhase1/Tracks/PXForward/charge_PXDisk_+1
p1251
aVPixelPhase1/Tracks/PXForward/charge_PXDisk_+2
p1252
aVPixelPhase1/Tracks/PXForward/charge_PXDisk_+3
p1253
aVPixelPhase1/Tracks/PXForward/charge_PXDisk_-1
p1254
aVPixelPhase1/Tracks/PXForward/charge_PXDisk_-2
p1255
aVPixelPhase1/Tracks/PXForward/charge_PXDisk_-3
p1256
aVPixelPhase1/Tracks/PXBarrel/size_PXLayer_1
p1257
aVPixelPhase1/Tracks/PXBarrel/size_PXLayer_2
p1258
aVPixelPhase1/Tracks/PXBarrel/size_PXLayer_3
p1259
aVPixelPhase1/Tracks/PXBarrel/size_PXLayer_4
p1260
aVPixelPhase1/Tracks/PXForward/size_PXDisk_+1
p1261
aVPixelPhase1/Tracks/PXForward/size_PXDisk_+2
p1262
aVPixelPhase1/Tracks/PXForward/size_PXDisk_+3
p1263
aVPixelPhase1/Tracks/PXForward/size_PXDisk_-1
p1264
aVPixelPhase1/Tracks/PXForward/size_PXDisk_-2
p1265
aVPixelPhase1/Tracks/PXForward/size_PXDisk_-3
p1266
aVHLT/Vertexing/hltPixelVertices/hltPixelVertices/goodvtxNbr
p1267
aVHLT/Tracking/ValidationWRTOffline/hltMergedWrtHighPurityPV/mon_eta
p1268
aVHLT/Tracking/ValidationWRTOffline/hltMergedWrtHighPurityPV/mon_hits
p1269
aVHLT/Tracking/ValidationWRTOffline/hltMergedWrtHighPurityPV/mon_phi
p1270
aVHLT/Tracking/ValidationWRTOffline/hltMergedWrtHighPurityPV/mon_pt
p1271
aVHLT/Tracking/ValidationWRTOffline/hltMergedWrtHighPurityPV/mon_unMatched_eta
p1272
aVHLT/Tracking/ValidationWRTOffline/hltMergedWrtHighPurityPV/mon_unMatched_hits
p1273
aVHLT/Tracking/ValidationWRTOffline/hltMergedWrtHighPurityPV/mon_unMatched_phi
p1274
aVHLT/Tracking/ValidationWRTOffline/hltMergedWrtHighPurityPV/mon_unMatched_pt
p1275
aVHLT/Tracking/ValidationWRTOffline/hltMergedWrtHighPurityPV/ref_eta
p1276
aVHLT/Tracking/ValidationWRTOffline/hltMergedWrtHighPurityPV/ref_hits
p1277
aVHLT/Tracking/ValidationWRTOffline/hltMergedWrtHighPurityPV/ref_matched_eta
p1278
aVHLT/Tracking/ValidationWRTOffline/hltMergedWrtHighPurityPV/ref_matched_hits
p1279
aVHLT/Tracking/ValidationWRTOffline/hltMergedWrtHighPurityPV/ref_matched_phi
p1280
aVHLT/Tracking/ValidationWRTOffline/hltMergedWrtHighPurityPV/ref_matched_pt
p1281
aVHLT/Tracking/ValidationWRTOffline/hltMergedWrtHighPurityPV/ref_phi
p1282
aVHLT/Tracking/ValidationWRTOffline/hltMergedWrtHighPurityPV/ref_pt
p1283
aVHLT/Tracking/pixelTracks/GeneralProperties/Chi2Prob_GenTk
p1284
aVHLT/Tracking/pixelTracks/GeneralProperties/Chi2oNDFVsEta_ImpactPoint_GenTk
p1285
aVHLT/Tracking/pixelTracks/GeneralProperties/DeltaZToPVZoom_GenTk
p1286
aVHLT/Tracking/pixelTracks/GeneralProperties/DistanceOfClosestApproachToPVVsPhi_GenTk
p1287
aVHLT/Tracking/pixelTracks/GeneralProperties/DistanceOfClosestApproachToPVZoom_GenTk
p1288
aVHLT/Tracking/pixelTracks/GeneralProperties/NumberOfTracks_GenTk
p1289
aVHLT/Tracking/tracks/GeneralProperties/Chi2Prob_GenTk
p1290
aVHLT/Tracking/tracks/GeneralProperties/Chi2oNDFVsEta_ImpactPoint_GenTk
p1291
aVHLT/Tracking/tracks/GeneralProperties/DeltaZToPVZoom_GenTk
p1292
aVHLT/Tracking/tracks/GeneralProperties/DistanceOfClosestApproachToPVVsPhi_GenTk
p1293
aVHLT/Tracking/tracks/GeneralProperties/DistanceOfClosestApproachToPVZoom_GenTk
p1294
aVHLT/Tracking/tracks/GeneralProperties/NumberOfTracks_GenTk
p1295
aVHLT/Tracking/tracks/LUMIanalysis/NumberEventsVsLUMI
p1296
aVHLT/Tracking/tracks/PUmonitoring/NumberEventsVsGoodPVtx
p1297
aVPixelPhase1/Tracks/num_clusters_ontrack_PXBarrel
p1298
aVPixelPhase1/Tracks/num_clusters_ontrack_PXForward
p1299
aVPixelPhase1/Tracks/clusterposition_zphi_ontrack
p1300
aVPixelPhase1/Tracks/PXBarrel/clusterposition_zphi_ontrack_PXLayer_1
p1301
aVPixelPhase1/Tracks/PXBarrel/clusterposition_zphi_ontrack_PXLayer_2
p1302
aVPixelPhase1/Tracks/PXBarrel/clusterposition_zphi_ontrack_PXLayer_3
p1303
aVPixelPhase1/Tracks/PXBarrel/clusterposition_zphi_ontrack_PXLayer_4
p1304
aVPixelPhase1/Tracks/PXForward/clusterposition_xy_ontrack_PXDisk_+1
p1305
aVPixelPhase1/Tracks/PXForward/clusterposition_xy_ontrack_PXDisk_+2
p1306
aVPixelPhase1/Tracks/PXForward/clusterposition_xy_ontrack_PXDisk_+3
p1307
aVPixelPhase1/Tracks/PXForward/clusterposition_xy_ontrack_PXDisk_-1
p1308
aVPixelPhase1/Tracks/PXForward/clusterposition_xy_ontrack_PXDisk_-2
p1309
aVPixelPhase1/Tracks/PXForward/clusterposition_xy_ontrack_PXDisk_-3
p1310
aVSiStrip/MechanicalView/TEC/PLUS/wheel_1/NormalizedHitResiduals_TEC__wheel__1
p1311
aVSiStrip/MechanicalView/TEC/PLUS/wheel_2/NormalizedHitResiduals_TEC__wheel__2
p1312
aVSiStrip/MechanicalView/TEC/PLUS/wheel_3/NormalizedHitResiduals_TEC__wheel__3
p1313
aVSiStrip/MechanicalView/TEC/PLUS/wheel_4/NormalizedHitResiduals_TEC__wheel__4
p1314
aVSiStrip/MechanicalView/TEC/PLUS/wheel_5/NormalizedHitResiduals_TEC__wheel__5
p1315
aVSiStrip/MechanicalView/TEC/PLUS/wheel_6/NormalizedHitResiduals_TEC__wheel__6
p1316
aVSiStrip/MechanicalView/TEC/PLUS/wheel_7/NormalizedHitResiduals_TEC__wheel__7
p1317
aVSiStrip/MechanicalView/TEC/PLUS/wheel_8/NormalizedHitResiduals_TEC__wheel__8
p1318
aVSiStrip/MechanicalView/TEC/PLUS/wheel_9/NormalizedHitResiduals_TEC__wheel__9
p1319
aVSiStrip/MechanicalView/TEC/MINUS/wheel_1/NormalizedHitResiduals_TEC__wheel__1
p1320
aVSiStrip/MechanicalView/TEC/MINUS/wheel_2/NormalizedHitResiduals_TEC__wheel__2
p1321
aVSiStrip/MechanicalView/TEC/MINUS/wheel_3/NormalizedHitResiduals_TEC__wheel__3
p1322
aVSiStrip/MechanicalView/TEC/MINUS/wheel_4/NormalizedHitResiduals_TEC__wheel__4
p1323
aVSiStrip/MechanicalView/TEC/MINUS/wheel_5/NormalizedHitResiduals_TEC__wheel__5
p1324
aVSiStrip/MechanicalView/TEC/MINUS/wheel_6/NormalizedHitResiduals_TEC__wheel__6
p1325
aVSiStrip/MechanicalView/TEC/MINUS/wheel_7/NormalizedHitResiduals_TEC__wheel__7
p1326
aVSiStrip/MechanicalView/TEC/MINUS/wheel_8/NormalizedHitResiduals_TEC__wheel__8
p1327
aVSiStrip/MechanicalView/TEC/MINUS/wheel_9/NormalizedHitResiduals_TEC__wheel__9
p1328
aVSiStrip/MechanicalView/TEC/PLUS/wheel_1/Summary_ClusterStoNCorr__OnTrack__TEC__PLUS__wheel__1
p1329
aVSiStrip/MechanicalView/TEC/PLUS/wheel_2/Summary_ClusterStoNCorr__OnTrack__TEC__PLUS__wheel__2
p1330
aVSiStrip/MechanicalView/TEC/PLUS/wheel_3/Summary_ClusterStoNCorr__OnTrack__TEC__PLUS__wheel__3
p1331
aVSiStrip/MechanicalView/TEC/PLUS/wheel_4/Summary_ClusterStoNCorr__OnTrack__TEC__PLUS__wheel__4
p1332
aVSiStrip/MechanicalView/TEC/PLUS/wheel_5/Summary_ClusterStoNCorr__OnTrack__TEC__PLUS__wheel__5
p1333
aVSiStrip/MechanicalView/TEC/PLUS/wheel_6/Summary_ClusterStoNCorr__OnTrack__TEC__PLUS__wheel__6
p1334
aVSiStrip/MechanicalView/TEC/PLUS/wheel_7/Summary_ClusterStoNCorr__OnTrack__TEC__PLUS__wheel__7
p1335
aVSiStrip/MechanicalView/TEC/PLUS/wheel_8/Summary_ClusterStoNCorr__OnTrack__TEC__PLUS__wheel__8
p1336
aVSiStrip/MechanicalView/TEC/PLUS/wheel_9/Summary_ClusterStoNCorr__OnTrack__TEC__PLUS__wheel__9
p1337
aVSiStrip/MechanicalView/TEC/MINUS/wheel_1/Summary_ClusterStoNCorr__OnTrack__TEC__MINUS__wheel__1
p1338
aVSiStrip/MechanicalView/TEC/MINUS/wheel_2/Summary_ClusterStoNCorr__OnTrack__TEC__MINUS__wheel__2
p1339
aVSiStrip/MechanicalView/TEC/MINUS/wheel_3/Summary_ClusterStoNCorr__OnTrack__TEC__MINUS__wheel__3
p1340
aVSiStrip/MechanicalView/TEC/MINUS/wheel_4/Summary_ClusterStoNCorr__OnTrack__TEC__MINUS__wheel__4
p1341
aVSiStrip/MechanicalView/TEC/MINUS/wheel_5/Summary_ClusterStoNCorr__OnTrack__TEC__MINUS__wheel__5
p1342
aVSiStrip/MechanicalView/TEC/MINUS/wheel_6/Summary_ClusterStoNCorr__OnTrack__TEC__MINUS__wheel__6
p1343
aVSiStrip/MechanicalView/TEC/MINUS/wheel_7/Summary_ClusterStoNCorr__OnTrack__TEC__MINUS__wheel__7
p1344
aVSiStrip/MechanicalView/TEC/MINUS/wheel_8/Summary_ClusterStoNCorr__OnTrack__TEC__MINUS__wheel__8
p1345
aVSiStrip/MechanicalView/TEC/MINUS/wheel_9/Summary_ClusterStoNCorr__OnTrack__TEC__MINUS__wheel__9
p1346
aVSiStrip/MechanicalView/TIB/layer_1/NormalizedHitResiduals_TIB__Layer__1
p1347
aVSiStrip/MechanicalView/TIB/layer_2/NormalizedHitResiduals_TIB__Layer__2
p1348
aVSiStrip/MechanicalView/TIB/layer_3/NormalizedHitResiduals_TIB__Layer__3
p1349
aVSiStrip/MechanicalView/TIB/layer_4/NormalizedHitResiduals_TIB__Layer__4
p1350
aVSiStrip/MechanicalView/TIB/layer_1/Summary_ClusterStoNCorr__OnTrack__TIB__layer__1
p1351
aVSiStrip/MechanicalView/TIB/layer_2/Summary_ClusterStoNCorr__OnTrack__TIB__layer__2
p1352
aVSiStrip/MechanicalView/TIB/layer_3/Summary_ClusterStoNCorr__OnTrack__TIB__layer__3
p1353
aVSiStrip/MechanicalView/TIB/layer_4/Summary_ClusterStoNCorr__OnTrack__TIB__layer__4
p1354
aVSiStrip/MechanicalView/TID/PLUS/wheel_1/NormalizedHitResiduals_TID__wheel__1
p1355
aVSiStrip/MechanicalView/TID/PLUS/wheel_2/NormalizedHitResiduals_TID__wheel__2
p1356
aVSiStrip/MechanicalView/TID/PLUS/wheel_3/NormalizedHitResiduals_TID__wheel__3
p1357
aVSiStrip/MechanicalView/TID/MINUS/wheel_1/NormalizedHitResiduals_TID__wheel__1
p1358
aVSiStrip/MechanicalView/TID/MINUS/wheel_2/NormalizedHitResiduals_TID__wheel__2
p1359
aVSiStrip/MechanicalView/TID/MINUS/wheel_3/NormalizedHitResiduals_TID__wheel__3
p1360
aVSiStrip/MechanicalView/TID/PLUS/wheel_1/Summary_ClusterStoNCorr__OnTrack__TID__PLUS__wheel__1
p1361
aVSiStrip/MechanicalView/TID/PLUS/wheel_2/Summary_ClusterStoNCorr__OnTrack__TID__PLUS__wheel__2
p1362
aVSiStrip/MechanicalView/TID/PLUS/wheel_3/Summary_ClusterStoNCorr__OnTrack__TID__PLUS__wheel__3
p1363
aVSiStrip/MechanicalView/TID/MINUS/wheel_1/Summary_ClusterStoNCorr__OnTrack__TID__MINUS__wheel__1
p1364
aVSiStrip/MechanicalView/TID/MINUS/wheel_2/Summary_ClusterStoNCorr__OnTrack__TID__MINUS__wheel__2
p1365
aVSiStrip/MechanicalView/TID/MINUS/wheel_3/Summary_ClusterStoNCorr__OnTrack__TID__MINUS__wheel__3
p1366
aVSiStrip/MechanicalView/TOB/layer_1/NormalizedHitResiduals_TOB__Layer__1
p1367
aVSiStrip/MechanicalView/TOB/layer_2/NormalizedHitResiduals_TOB__Layer__2
p1368
aVSiStrip/MechanicalView/TOB/layer_3/NormalizedHitResiduals_TOB__Layer__3
p1369
aVSiStrip/MechanicalView/TOB/layer_4/NormalizedHitResiduals_TOB__Layer__4
p1370
aVSiStrip/MechanicalView/TOB/layer_5/NormalizedHitResiduals_TOB__Layer__5
p1371
aVSiStrip/MechanicalView/TOB/layer_6/NormalizedHitResiduals_TOB__Layer__6
p1372
aVSiStrip/MechanicalView/TOB/layer_1/Summary_ClusterStoNCorr__OnTrack__TOB__layer__1
p1373
aVSiStrip/MechanicalView/TOB/layer_2/Summary_ClusterStoNCorr__OnTrack__TOB__layer__2
p1374
aVSiStrip/MechanicalView/TOB/layer_3/Summary_ClusterStoNCorr__OnTrack__TOB__layer__3
p1375
aVSiStrip/MechanicalView/TOB/layer_4/Summary_ClusterStoNCorr__OnTrack__TOB__layer__4
p1376
aVSiStrip/MechanicalView/TOB/layer_5/Summary_ClusterStoNCorr__OnTrack__TOB__layer__5
p1377
aVSiStrip/MechanicalView/TOB/layer_6/Summary_ClusterStoNCorr__OnTrack__TOB__layer__6
p1378
aVSiStrip/MechanicalView/MainDiagonal Position
p1379
aVSiStrip/MechanicalView/NumberOfClustersInPixel
p1380
aVSiStrip/MechanicalView/NumberOfClustersInStrip
p1381
aVTracking/TrackParameters/generalTracks/LSanalysis/Chi2oNDF_lumiFlag_GenTk
p1382
aVTracking/TrackParameters/generalTracks/LSanalysis/NumberOfRecHitsPerTrack_lumiFlag_GenTk
p1383
aVTracking/TrackParameters/generalTracks/LSanalysis/NumberOfTracks_lumiFlag_GenTk
p1384
aVTracking/TrackParameters/highPurityTracks/pt_1/GeneralProperties/SIPDxyToPV_GenTk
p1385
aVTracking/TrackParameters/highPurityTracks/pt_1/GeneralProperties/SIPDzToPV_GenTk
p1386
aVTracking/TrackParameters/highPurityTracks/pt_1/GeneralProperties/SIP3DToPV_GenTk
p1387
aVTracking/TrackParameters/generalTracks/HitProperties/NumberOfMissingOuterRecHitsPerTrack_GenTk
p1388
aVTracking/TrackParameters/generalTracks/HitProperties/NumberMORecHitsPerTrackVsPt_GenTk
p1389
aVOfflinePV/offlinePrimaryVertices/tagVtxProb
p1390
aVOfflinePV/offlinePrimaryVertices/tagType
p1391
aVOfflinePV/Resolution/PV/pull_x
p1392
aVOfflinePV/Resolution/PV/pull_y
p1393
aVOfflinePV/Resolution/PV/pull_z
p1394
aVJetMET/Jet/Cleanedak4PFJetsCHS/CHFrac_highPt_Barrel
p1395
aVJetMET/Jet/Cleanedak4PFJetsCHS/CHFrac_highPt_EndCap
p1396
aVJetMET/Jet/Cleanedak4PFJetsCHS/CHFrac_mediumPt_Barrel
p1397
aVJetMET/Jet/Cleanedak4PFJetsCHS/CHFrac_mediumPt_EndCap
p1398
aVJetMET/Jet/Cleanedak4PFJetsCHS/CHFrac_lowPt_Barrel
p1399
aVJetMET/Jet/Cleanedak4PFJetsCHS/CHFrac_lowPt_EndCap
p1400
aVJetMET/Jet/Cleanedak4PFJetsCHS/ChMultiplicity_highPt_Barrel
p1401
aVJetMET/Jet/Cleanedak4PFJetsCHS/ChMultiplicity_highPt_EndCap
p1402
aVJetMET/Jet/Cleanedak4PFJetsCHS/ChMultiplicity_mediumPt_Barrel
p1403
aVJetMET/Jet/Cleanedak4PFJetsCHS/ChMultiplicity_mediumPt_EndCap
p1404
aVJetMET/Jet/Cleanedak4PFJetsCHS/ChMultiplicity_lowPt_Barrel
p1405
aVJetMET/Jet/Cleanedak4PFJetsCHS/ChMultiplicity_lowPt_EndCap
p1406
aVJetMET/Jet/Cleanedak4PFJetsCHS/Constituents
p1407
aVJetMET/Jet/Cleanedak4PFJetsCHS/Eta
p1408
aVJetMET/Jet/Cleanedak4PFJetsCHS/Eta_uncor
p1409
aVJetMET/Jet/Cleanedak4PFJetsCHS/JetEnergyCorr
p1410
aVJetMET/Jet/Cleanedak4PFJetsCHS/NJets
p1411
aVJetMET/Jet/Cleanedak4PFJetsCHS/Phi
p1412
aVJetMET/Jet/Cleanedak4PFJetsCHS/Phi_Barrel
p1413
aVJetMET/Jet/Cleanedak4PFJetsCHS/Phi_EndCap
p1414
aVJetMET/Jet/Cleanedak4PFJetsCHS/Pt
p1415
aVJetMET/MET/pfMETT1/Cleaned/METSig
p1416
aVJetMET/vertices
p1417
atp1418
Rp1419
(dp1420
g25
I00
sg31
I00
sg32
I00
sg451
I1
sbsg1212
g0
(g121
g2
Ntp1421
Rp1422
(dp1423
g25
I00
sg31
I00
sg32
I00
sg42
g36
sbsg1213
g0
(g73
g2
Ntp1424
Rp1425
(dp1426
g25
I00
sg31
I00
sg32
I00
sg42
I00
sbsg1214
g0
(g73
g2
Ntp1427
Rp1428
(dp1429
g25
I00
sg31
I00
sg32
I00
sg42
I01
sbsg1215
g0
(g73
g2
Ntp1430
Rp1431
(dp1432
g25
I00
sg31
I00
sg32
I00
sg42
I00
sbsg59
g660
sg61
I13
sg1203
I01
sbsVRandomNumberGeneratorService
p1433
g0
(g960
g2
Ntp1434
Rp1435
(dp1436
g15
g1433
sg17
(lp1437
VexternalLHEProducer
p1438
aVgenerator
p1439
aVVtxSmeared
p1440
aVLHCTransport
p1441
aVhiSignalLHCTransport
p1442
aVg4SimHits
p1443
aVmix
p1444
aVmixData
p1445
aVsimSiStripDigiSimLink
p1446
aVsimMuonDTDigis
p1447
aVsimMuonCSCDigis
p1448
aVsimMuonRPCDigis
p1449
aVhiSignal
p1450
aVhiSignalG4SimHits
p1451
aVfamosPileUp
p1452
aVmixGenPU
p1453
aVmixSimCaloHits
p1454
aVmixRecoTracks
p1455
aVfastSimProducer
p1456
aVfastTrackerRecHits
p1457
aVecalRecHit
p1458
aVecalPreshowerRecHit
p1459
aVhbhereco
p1460
aVhoreco
p1461
aVhfreco
p1462
aVparamMuons
p1463
aVl1ParamMuons
p1464
aVMuonSimHits
p1465
aVCTPPSFastRecHits
p1466
aVsimBeamSpotFilter
p1467
aVRPixDetDigitizer
p1468
aVRPSiDetDigitizer
p1469
aVsaveFileName
p1470
asg25
I00
sg26
Nsg1438
g0
(g693
g2
Ntp1471
Rp1472
(dp1473
g25
I00
sg31
I01
sg32
I00
sg17
(lp1474
VinitialSeed
p1475
aVengineName
p1476
asg26
Nsg1475
g0
(g581
g2
Ntp1477
Rp1478
(dp1479
g25
I00
sg31
I00
sg32
I00
sg42
I234567
sbsg1476
g0
(g121
g2
Ntp1480
Rp1481
(dp1482
g25
I00
sg31
I00
sg32
I00
sg42
VMixMaxRng
p1483
sbsbsg32
I00
sg1439
g0
(g693
g2
Ntp1484
Rp1485
(dp1486
g25
I00
sg31
I01
sg32
I00
sg17
(lp1487
g1475
ag1476
asg26
Nsg1475
g0
(g581
g2
Ntp1488
Rp1489
(dp1490
g25
I00
sg31
I00
sg32
I00
sg42
I123456789
sbsg1476
g1481
sbsg1440
g0
(g693
g2
Ntp1491
Rp1492
(dp1493
g25
I00
sg31
I01
sg32
I00
sg17
(lp1494
g1475
ag1476
asg26
Nsg1475
g0
(g581
g2
Ntp1495
Rp1496
(dp1497
g25
I00
sg31
I00
sg32
I00
sg42
I98765432
sbsg1476
g1481
sbsg1441
g0
(g693
g2
Ntp1498
Rp1499
(dp1500
g25
I00
sg31
I01
sg32
I00
sg17
(lp1501
g1475
ag1476
asg26
Nsg1475
g0
(g581
g2
Ntp1502
Rp1503
(dp1504
g25
I00
sg31
I00
sg32
I00
sg42
I87654321
sbsg1476
g0
(g121
g2
Ntp1505
Rp1506
(dp1507
g25
I00
sg31
I00
sg32
I00
sg42
VTRandom3
p1508
sbsbsg1442
g0
(g693
g2
Ntp1509
Rp1510
(dp1511
g25
I00
sg31
I01
sg32
I00
sg17
(lp1512
g1475
ag1476
asg26
Nsg1475
g0
(g581
g2
Ntp1513
Rp1514
(dp1515
g25
I00
sg31
I00
sg32
I00
sg42
I88776655
sbsg1476
g0
(g121
g2
Ntp1516
Rp1517
(dp1518
g25
I00
sg31
I00
sg32
I00
sg42
g1483
sbsbsg1443
g0
(g693
g2
Ntp1519
Rp1520
(dp1521
g25
I00
sg31
I01
sg32
I00
sg17
(lp1522
g1475
ag1476
asg26
Nsg1475
g0
(g581
g2
Ntp1523
Rp1524
(dp1525
g25
I00
sg31
I00
sg32
I00
sg42
I11
sbsg1476
g1481
sbsg1444
g0
(g693
g2
Ntp1526
Rp1527
(dp1528
g25
I00
sg31
I01
sg32
I00
sg17
(lp1529
g1475
ag1476
asg26
Nsg1475
g0
(g581
g2
Ntp1530
Rp1531
(dp1532
g25
I00
sg31
I00
sg32
I00
sg42
I12345
sbsg1476
g1481
sbsg1445
g0
(g693
g2
Ntp1533
Rp1534
(dp1535
g25
I00
sg31
I01
sg32
I00
sg17
(lp1536
g1475
ag1476
asg26
Nsg1475
g0
(g581
g2
Ntp1537
Rp1538
(dp1539
g25
I00
sg31
I00
sg32
I00
sg42
I12345
sbsg1476
g1481
sbsg1446
g0
(g693
g2
Ntp1540
Rp1541
(dp1542
g25
I00
sg31
I01
sg32
I00
sg17
(lp1543
g1475
ag1476
asg26
Nsg1475
g0
(g581
g2
Ntp1544
Rp1545
(dp1546
g25
I00
sg31
I00
sg32
I00
sg42
I1234567
sbsg1476
g1481
sbsg1447
g0
(g693
g2
Ntp1547
Rp1548
(dp1549
g25
I00
sg31
I01
sg32
I00
sg17
(lp1550
g1475
ag1476
asg26
Nsg1475
g0
(g581
g2
Ntp1551
Rp1552
(dp1553
g25
I00
sg31
I00
sg32
I00
sg42
I1234567
sbsg1476
g1481
sbsg1448
g0
(g693
g2
Ntp1554
Rp1555
(dp1556
g25
I00
sg31
I01
sg32
I00
sg17
(lp1557
g1475
ag1476
asg26
Nsg1475
g0
(g581
g2
Ntp1558
Rp1559
(dp1560
g25
I00
sg31
I00
sg32
I00
sg42
I11223344
sbsg1476
g1481
sbsg1449
g0
(g693
g2
Ntp1561
Rp1562
(dp1563
g25
I00
sg31
I01
sg32
I00
sg17
(lp1564
g1475
ag1476
asg26
Nsg1475
g0
(g581
g2
Ntp1565
Rp1566
(dp1567
g25
I00
sg31
I00
sg32
I00
sg42
I1234567
sbsg1476
g1481
sbsg1450
g0
(g693
g2
Ntp1568
Rp1569
(dp1570
g25
I00
sg31
I01
sg32
I00
sg17
(lp1571
g1475
ag1476
asg26
Nsg1475
g0
(g581
g2
Ntp1572
Rp1573
(dp1574
g25
I00
sg31
I00
sg32
I00
sg42
I123456789
sbsg1476
g1481
sbsg1451
g0
(g693
g2
Ntp1575
Rp1576
(dp1577
g25
I00
sg31
I01
sg32
I00
sg17
(lp1578
g1475
ag1476
asg26
Nsg1475
g0
(g581
g2
Ntp1579
Rp1580
(dp1581
g25
I00
sg31
I00
sg32
I00
sg42
I11
sbsg1476
g1481
sbsg1452
g0
(g693
g2
Ntp1582
Rp1583
(dp1584
g25
I00
sg31
I01
sg32
I00
sg17
(lp1585
g1475
ag1476
asg26
Nsg1475
g0
(g581
g2
Ntp1586
Rp1587
(dp1588
g25
I00
sg31
I00
sg32
I00
sg42
I918273
sbsg1476
g1517
sbsg1453
g0
(g693
g2
Ntp1589
Rp1590
(dp1591
g25
I00
sg31
I01
sg32
I00
sg17
(lp1592
g1475
ag1476
asg26
Nsg1475
g0
(g581
g2
Ntp1593
Rp1594
(dp1595
g25
I00
sg31
I00
sg32
I00
sg42
I918273
sbsg1476
g1517
sbsg1454
g0
(g693
g2
Ntp1596
Rp1597
(dp1598
g25
I00
sg31
I01
sg32
I00
sg17
(lp1599
g1475
ag1476
asg26
Nsg1475
g0
(g581
g2
Ntp1600
Rp1601
(dp1602
g25
I00
sg31
I00
sg32
I00
sg42
I918273
sbsg1476
g1517
sbsg1455
g0
(g693
g2
Ntp1603
Rp1604
(dp1605
g25
I00
sg31
I01
sg32
I00
sg17
(lp1606
g1475
ag1476
asg26
Nsg1475
g0
(g581
g2
Ntp1607
Rp1608
(dp1609
g25
I00
sg31
I00
sg32
I00
sg42
I918273
sbsg1476
g1517
sbsg1456
g0
(g693
g2
Ntp1610
Rp1611
(dp1612
g25
I00
sg31
I01
sg32
I00
sg17
(lp1613
g1475
ag1476
asg26
Nsg1475
g0
(g581
g2
Ntp1614
Rp1615
(dp1616
g25
I00
sg31
I00
sg32
I00
sg42
I13579
sbsg1476
g1517
sbsg1457
g0
(g693
g2
Ntp1617
Rp1618
(dp1619
g25
I00
sg31
I01
sg32
I00
sg17
(lp1620
g1475
ag1476
asg26
Nsg1475
g0
(g581
g2
Ntp1621
Rp1622
(dp1623
g25
I00
sg31
I00
sg32
I00
sg42
I24680
sbsg1476
g1517
sbsg1458
g0
(g693
g2
Ntp1624
Rp1625
(dp1626
g25
I00
sg31
I01
sg32
I00
sg17
(lp1627
g1475
ag1476
asg26
Nsg1475
g0
(g581
g2
Ntp1628
Rp1629
(dp1630
g25
I00
sg31
I00
sg32
I00
sg42
I654321
sbsg1476
g1517
sbsg1459
g0
(g693
g2
Ntp1631
Rp1632
(dp1633
g25
I00
sg31
I01
sg32
I00
sg17
(lp1634
g1475
ag1476
asg26
Nsg1475
g0
(g581
g2
Ntp1635
Rp1636
(dp1637
g25
I00
sg31
I00
sg32
I00
sg42
I6541321
sbsg1476
g1517
sbsg1460
g0
(g693
g2
Ntp1638
Rp1639
(dp1640
g25
I00
sg31
I01
sg32
I00
sg17
(lp1641
g1475
ag1476
asg26
Nsg1475
g0
(g581
g2
Ntp1642
Rp1643
(dp1644
g25
I00
sg31
I00
sg32
I00
sg42
I541321
sbsg1476
g1517
sbsg1461
g0
(g693
g2
Ntp1645
Rp1646
(dp1647
g25
I00
sg31
I01
sg32
I00
sg17
(lp1648
g1475
ag1476
asg26
Nsg1475
g0
(g581
g2
Ntp1649
Rp1650
(dp1651
g25
I00
sg31
I00
sg32
I00
sg42
I541321
sbsg1476
g1517
sbsg1462
g0
(g693
g2
Ntp1652
Rp1653
(dp1654
g25
I00
sg31
I01
sg32
I00
sg17
(lp1655
g1475
ag1476
asg26
Nsg1475
g0
(g581
g2
Ntp1656
Rp1657
(dp1658
g25
I00
sg31
I00
sg32
I00
sg42
I541321
sbsg1476
g1517
sbsg1463
g0
(g693
g2
Ntp1659
Rp1660
(dp1661
g25
I00
sg31
I01
sg32
I00
sg17
(lp1662
g1475
ag1476
asg26
Nsg1475
g0
(g581
g2
Ntp1663
Rp1664
(dp1665
g25
I00
sg31
I00
sg32
I00
sg42
I54525
sbsg1476
g1517
sbsg1464
g0
(g693
g2
Ntp1666
Rp1667
(dp1668
g25
I00
sg31
I01
sg32
I00
sg17
(lp1669
g1475
ag1476
asg26
Nsg1475
g0
(g581
g2
Ntp1670
Rp1671
(dp1672
g25
I00
sg31
I00
sg32
I00
sg42
I6453209
sbsg1476
g1517
sbsg1465
g0
(g693
g2
Ntp1673
Rp1674
(dp1675
g25
I00
sg31
I01
sg32
I00
sg17
(lp1676
g1475
ag1476
asg26
Nsg1475
g0
(g581
g2
Ntp1677
Rp1678
(dp1679
g25
I00
sg31
I00
sg32
I00
sg42
I987346
sbsg1476
g1517
sbsg1466
g0
(g693
g2
Ntp1680
Rp1681
(dp1682
g25
I00
sg31
I01
sg32
I00
sg17
(lp1683
g1475
ag1476
asg26
Nsg1475
g0
(g581
g2
Ntp1684
Rp1685
(dp1686
g25
I00
sg31
I00
sg32
I00
sg42
I1357987
sbsg1476
g1517
sbsg1467
g0
(g693
g2
Ntp1687
Rp1688
(dp1689
g25
I00
sg31
I01
sg32
I00
sg17
(lp1690
g1475
ag1476
asg26
Nsg1475
g0
(g581
g2
Ntp1691
Rp1692
(dp1693
g25
I00
sg31
I00
sg32
I00
sg42
I87654321
sbsg1476
g1481
sbsg1468
g0
(g693
g2
Ntp1694
Rp1695
(dp1696
g25
I00
sg31
I01
sg32
I00
sg17
(lp1697
g1475
ag1476
asg26
Nsg1475
g0
(g581
g2
Ntp1698
Rp1699
(dp1700
g25
I00
sg31
I00
sg32
I00
sg42
I137137
sbsg1476
g1481
sbsg1469
g0
(g693
g2
Ntp1701
Rp1702
(dp1703
g25
I00
sg31
I01
sg32
I00
sg17
(lp1704
g1475
ag1476
asg26
Nsg1475
g0
(g581
g2
Ntp1705
Rp1706
(dp1707
g25
I00
sg31
I00
sg32
I00
sg42
I137137
sbsg1476
g1481
sbsg1470
g0
(g121
g2
Ntp1708
Rp1709
(dp1710
g25
I00
sg31
I00
sg32
I00
sg42
g36
sbsg59
g660
sg61
I13
sg1203
I01
sbsVTFileService
p1711
g0
(g960
g2
Ntp1712
Rp1713
(dp1714
g15
g1711
sg17
(lp1715
VfileName
p1716
asg25
I00
sg26
Nsg1716
g0
(g121
g2
Ntp1717
Rp1718
(dp1719
g25
I00
sg31
I01
sg32
I00
sg42
VEff_test_nopTresChi2_nhits0_AOD.root
p1720
sbsg32
I00
sg59
g660
sg61
I13
sg1203
I01
sbssV_Process__essources
p1721
(dp1722
Veegeom
p1723
g0
(cFWCore.ParameterSet.Modules
ESSource
p1724
g2
Ntp1725
Rp1726
(dp1727
g15
VEmptyESSource
p1728
sg17
(lp1729
VrecordName
p1730
aViovIsRunNotTime
p1731
aVfirstValid
p1732
asg25
I00
sg26
Nsg1730
g0
(g121
g2
Ntp1733
Rp1734
(dp1735
g25
I00
sg31
I01
sg32
I00
sg42
VEcalMappingRcd
p1736
sbsg32
I00
sg1731
g0
(g73
g2
Ntp1737
Rp1738
(dp1739
g25
I00
sg31
I01
sg32
I00
sg42
I01
sbsg1732
g0
(cFWCore.ParameterSet.Types
vuint32
p1740
g47
(lp1741
I1
atp1742
Rp1743
(dp1744
g25
I00
sg31
I01
sg32
I00
sbsg59
V/cvmfs/cms.cern.ch/el8_amd64_gcc11/cms/cmssw-patch/CMSSW_13_2_5_patch1/src/Geometry/EcalMapping/python/EcalMappingRecord_cfi.py
p1745
sg61
I3
sg62
g1723
sbsVHepPDTESSource
p1746
g0
(g1724
g2
Ntp1747
Rp1748
(dp1749
g15
g1746
sg17
(lp1750
VpdtFileName
p1751
asg25
I00
sg26
Nsg1751
g0
(cFWCore.ParameterSet.Types
FileInPath
p1752
g2
Ntp1753
Rp1754
(dp1755
g25
I00
sg31
I01
sg32
I00
sg42
VSimGeneral/HepPDTESSource/data/pythiaparticle.tbl
p1756
sbsg32
I00
sg59
V/cvmfs/cms.cern.ch/el8_amd64_gcc11/cms/cmssw-patch/CMSSW_13_2_5_patch1/src/SimGeneral/HepPDTESSource/python/pythiapdt_cfi.py
p1757
sg61
I3
sg62
g1746
sbsVGlobalTag
p1758
g0
(g1724
g2
Ntp1759
Rp1760
(dp1761
g15
VPoolDBESSource
p1762
sg17
(lp1763
VDBParameters
p1764
aVconnect
p1765
aVglobaltag
p1766
aVsnapshotTime
p1767
aVtoGet
p1768
aVDumpStat
p1769
aVReconnectEachRun
p1770
aVRefreshAlways
p1771
aVRefreshEachRun
p1772
aVRefreshOpenIOVs
p1773
aVpfnPostfix
p1774
aVpfnPrefix
p1775
asg25
I00
sg26
Nsg1764
g0
(g693
g2
Ntp1776
Rp1777
(dp1778
g25
I00
sg31
I01
sg32
I00
sg17
(lp1779
VauthenticationPath
p1780
aVauthenticationSystem
p1781
aVsecurity
p1782
aVmessageLevel
p1783
aVconnectionTimeout
p1784
asg26
Nsg1780
g0
(g121
g2
Ntp1785
Rp1786
(dp1787
g25
I00
sg31
I00
sg32
I00
sg42
g36
sbsg1781
g0
(g52
g2
Ntp1788
Rp1789
(dp1790
g25
I00
sg31
I00
sg32
I00
sg42
I0
sbsg1782
g0
(g121
g2
Ntp1791
Rp1792
(dp1793
g25
I00
sg31
I00
sg32
I00
sg42
g36
sbsg1783
g0
(g52
g2
Ntp1794
Rp1795
(dp1796
g25
I00
sg31
I00
sg32
I00
sg42
I0
sbsg1784
g0
(g52
g2
Ntp1797
Rp1798
(dp1799
g25
I00
sg31
I00
sg32
I00
sg42
I0
sbsbsg32
I01
sg1765
g0
(g121
g2
Ntp1800
Rp1801
(dp1802
g25
I00
sg31
I01
sg32
I00
sg42
Vfrontier://FrontierProd/CMS_CONDITIONS
p1803
sbsg1766
g0
(g121
g2
Ntp1804
Rp1805
(dp1806
g25
I00
sg31
I01
sg32
I00
sg42
V132X_mcRun3_2023_realistic_HI_v5
p1807
sbsg1767
g0
(g121
g2
Ntp1808
Rp1809
(dp1810
g25
I00
sg31
I01
sg32
I00
sg42
V9999-12-31 23:59:59.000
p1811
sbsg1768
g0
(g691
g47
(lp1812
g0
(g693
g2
Ntp1813
Rp1814
(dp1815
g25
I00
sg31
I01
sg32
I00
sg17
(lp1816
Vrecord
p1817
aVtag
p1818
ag1765
aVlabel
p1819
asg26
Nsg1817
g0
(g121
g2
Ntp1820
Rp1821
(dp1822
g25
I00
sg31
I01
sg32
I00
sg42
VHeavyIonRcd
p1823
sbsg1818
g0
(g121
g2
Ntp1824
Rp1825
(dp1826
g25
I00
sg31
I01
sg32
I00
sg42
VCentralityTable_HFtowers200_DataPbPb_periHYDJETshape_run3v1302x04_offline_Nominal
p1827
sbsg1765
g0
(g121
g2
Ntp1828
Rp1829
(dp1830
g25
I00
sg31
I01
sg32
I00
sg42
Vsqlite_file:CentralityTable_HFtowers200_DataPbPb_periHYDJETshape_run3v1302x04_offline_Nominal.db
p1831
sbsg1819
g0
(g121
g2
Ntp1832
Rp1833
(dp1834
g25
I00
sg31
I00
sg32
I00
sg42
g522
sbsbatp1835
Rp1836
(dp1837
g25
I00
sg31
I01
sg32
I00
sg451
I1
sbsg1769
g0
(g73
g2
Ntp1838
Rp1839
(dp1840
g25
I00
sg31
I00
sg32
I00
sg42
I00
sbsg1770
g0
(g73
g2
Ntp1841
Rp1842
(dp1843
g25
I00
sg31
I00
sg32
I00
sg42
I00
sbsg1771
g0
(g73
g2
Ntp1844
Rp1845
(dp1846
g25
I00
sg31
I00
sg32
I00
sg42
I00
sbsg1772
g0
(g73
g2
Ntp1847
Rp1848
(dp1849
g25
I00
sg31
I00
sg32
I00
sg42
I00
sbsg1773
g0
(g73
g2
Ntp1850
Rp1851
(dp1852
g25
I00
sg31
I00
sg32
I00
sg42
I00
sbsg1774
g0
(g121
g2
Ntp1853
Rp1854
(dp1855
g25
I00
sg31
I00
sg32
I00
sg42
g36
sbsg1775
g0
(g121
g2
Ntp1856
Rp1857
(dp1858
g25
I00
sg31
I00
sg32
I00
sg42
g36
sbsg59
V/cvmfs/cms.cern.ch/el8_amd64_gcc11/cms/cmssw-patch/CMSSW_13_2_5_patch1/src/CondCore/ESSources/python/CondDBESSource_cfi.py
p1859
sg61
I8
sg62
g1758
sbsVHcalTimeSlewEP
p1860
g0
(g1724
g2
Ntp1861
Rp1862
(dp1863
g15
g1860
sg17
(lp1864
VappendToDataLabel
p1865
aVtimeSlewParametersM2
p1866
aVtimeSlewParametersM3
p1867
asg25
I00
sg26
Nsg1865
g0
(g121
g2
Ntp1868
Rp1869
(dp1870
g25
I00
sg31
I01
sg32
I00
sg42
VHBHE
p1871
sbsg32
I00
sg1866
g0
(g691
g47
(lp1872
g0
(g693
g2
Ntp1873
Rp1874
(dp1875
g25
I00
sg31
I01
sg32
I00
sg17
(lp1876
Vtzero
p1877
aVslope
p1878
aVtmax
p1879
asg26
Nsg1877
g0
(g38
g2
Ntp1880
Rp1881
(dp1882
g25
I00
sg31
I01
sg32
I00
sg42
F23.960177
sbsg1878
g0
(g38
g2
Ntp1883
Rp1884
(dp1885
g25
I00
sg31
I01
sg32
I00
sg42
F-3.178648
sbsg1879
g0
(g38
g2
Ntp1886
Rp1887
(dp1888
g25
I00
sg31
I01
sg32
I00
sg42
F16.0
sbsbag0
(g693
g2
Ntp1889
Rp1890
(dp1891
g25
I00
sg31
I01
sg32
I00
sg17
(lp1892
g1877
ag1878
ag1879
asg26
Nsg1877
g0
(g38
g2
Ntp1893
Rp1894
(dp1895
g25
I00
sg31
I01
sg32
I00
sg42
F11.977461
sbsg1878
g0
(g38
g2
Ntp1896
Rp1897
(dp1898
g25
I00
sg31
I01
sg32
I00
sg42
F-1.5610227
sbsg1879
g0
(g38
g2
Ntp1899
Rp1900
(dp1901
g25
I00
sg31
I01
sg32
I00
sg42
F10.0
sbsbag0
(g693
g2
Ntp1902
Rp1903
(dp1904
g25
I00
sg31
I01
sg32
I00
sg17
(lp1905
g1877
ag1878
ag1879
asg26
Nsg1877
g0
(g38
g2
Ntp1906
Rp1907
(dp1908
g25
I00
sg31
I01
sg32
I00
sg42
F9.109694
sbsg1878
g0
(g38
g2
Ntp1909
Rp1910
(dp1911
g25
I00
sg31
I01
sg32
I00
sg42
F-1.075824
sbsg1879
g0
(g38
g2
Ntp1912
Rp1913
(dp1914
g25
I00
sg31
I01
sg32
I00
sg42
F6.25
sbsbatp1915
Rp1916
(dp1917
g25
I00
sg31
I01
sg32
I00
sg451
I1
sbsg1867
g0
(g691
g47
(lp1918
g0
(g693
g2
Ntp1919
Rp1920
(dp1921
g25
I00
sg31
I01
sg32
I00
sg17
(lp1922
Vcap
p1923
aVtspar0
p1924
aVtspar1
p1925
aVtspar2
p1926
aVtspar0_siPM
p1927
aVtspar1_siPM
p1928
aVtspar2_siPM
p1929
asg26
Nsg1923
g0
(g38
g2
Ntp1930
Rp1931
(dp1932
g25
I00
sg31
I01
sg32
I00
sg42
F6.0
sbsg1924
g0
(g38
g2
Ntp1933
Rp1934
(dp1935
g25
I00
sg31
I01
sg32
I00
sg42
F12.2999
sbsg1925
g0
(g38
g2
Ntp1936
Rp1937
(dp1938
g25
I00
sg31
I01
sg32
I00
sg42
F-2.19142
sbsg1926
g0
(g38
g2
Ntp1939
Rp1940
(dp1941
g25
I00
sg31
I01
sg32
I00
sg42
F0.0
sbsg1927
g0
(g38
g2
Ntp1942
Rp1943
(dp1944
g25
I00
sg31
I01
sg32
I00
sg42
F0.0
sbsg1928
g0
(g38
g2
Ntp1945
Rp1946
(dp1947
g25
I00
sg31
I01
sg32
I00
sg42
F0.0
sbsg1929
g0
(g38
g2
Ntp1948
Rp1949
(dp1950
g25
I00
sg31
I01
sg32
I00
sg42
F0.0
sbsbag0
(g693
g2
Ntp1951
Rp1952
(dp1953
g25
I00
sg31
I01
sg32
I00
sg17
(lp1954
g1923
ag1924
ag1925
ag1926
ag1927
ag1928
ag1929
asg26
Nsg1923
g0
(g38
g2
Ntp1955
Rp1956
(dp1957
g25
I00
sg31
I01
sg32
I00
sg42
F6.0
sbsg1924
g0
(g38
g2
Ntp1958
Rp1959
(dp1960
g25
I00
sg31
I01
sg32
I00
sg42
F15.5
sbsg1925
g0
(g38
g2
Ntp1961
Rp1962
(dp1963
g25
I00
sg31
I01
sg32
I00
sg42
F-3.2
sbsg1926
g0
(g38
g2
Ntp1964
Rp1965
(dp1966
g25
I00
sg31
I01
sg32
I00
sg42
F32.0
sbsg1927
g0
(g38
g2
Ntp1967
Rp1968
(dp1969
g25
I00
sg31
I01
sg32
I00
sg42
F0.0
sbsg1928
g0
(g38
g2
Ntp1970
Rp1971
(dp1972
g25
I00
sg31
I01
sg32
I00
sg42
F0.0
sbsg1929
g0
(g38
g2
Ntp1973
Rp1974
(dp1975
g25
I00
sg31
I01
sg32
I00
sg42
F0.0
sbsbag0
(g693
g2
Ntp1976
Rp1977
(dp1978
g25
I00
sg31
I01
sg32
I00
sg17
(lp1979
g1923
ag1924
ag1925
ag1926
ag1927
ag1928
ag1929
asg26
Nsg1923
g0
(g38
g2
Ntp1980
Rp1981
(dp1982
g25
I00
sg31
I01
sg32
I00
sg42
F6.0
sbsg1924
g0
(g38
g2
Ntp1983
Rp1984
(dp1985
g25
I00
sg31
I01
sg32
I00
sg42
F12.2999
sbsg1925
g0
(g38
g2
Ntp1986
Rp1987
(dp1988
g25
I00
sg31
I01
sg32
I00
sg42
F-2.19142
sbsg1926
g0
(g38
g2
Ntp1989
Rp1990
(dp1991
g25
I00
sg31
I01
sg32
I00
sg42
F0.0
sbsg1927
g0
(g38
g2
Ntp1992
Rp1993
(dp1994
g25
I00
sg31
I01
sg32
I00
sg42
F0.0
sbsg1928
g0
(g38
g2
Ntp1995
Rp1996
(dp1997
g25
I00
sg31
I01
sg32
I00
sg42
F0.0
sbsg1929
g0
(g38
g2
Ntp1998
Rp1999
(dp2000
g25
I00
sg31
I01
sg32
I00
sg42
F0.0
sbsbag0
(g693
g2
Ntp2001
Rp2002
(dp2003
g25
I00
sg31
I01
sg32
I00
sg17
(lp2004
g1923
ag1924
ag1925
ag1926
ag1927
ag1928
ag1929
asg26
Nsg1923
g0
(g38
g2
Ntp2005
Rp2006
(dp2007
g25
I00
sg31
I01
sg32
I00
sg42
F6.0
sbsg1924
g0
(g38
g2
Ntp2008
Rp2009
(dp2010
g25
I00
sg31
I01
sg32
I00
sg42
F12.2999
sbsg1925
g0
(g38
g2
Ntp2011
Rp2012
(dp2013
g25
I00
sg31
I01
sg32
I00
sg42
F-2.19142
sbsg1926
g0
(g38
g2
Ntp2014
Rp2015
(dp2016
g25
I00
sg31
I01
sg32
I00
sg42
F0.0
sbsg1927
g0
(g38
g2
Ntp2017
Rp2018
(dp2019
g25
I00
sg31
I01
sg32
I00
sg42
F0.0
sbsg1928
g0
(g38
g2
Ntp2020
Rp2021
(dp2022
g25
I00
sg31
I01
sg32
I00
sg42
F0.0
sbsg1929
g0
(g38
g2
Ntp2023
Rp2024
(dp2025
g25
I00
sg31
I01
sg32
I00
sg42
F0.0
sbsbatp2026
Rp2027
(dp2028
g25
I00
sg31
I01
sg32
I00
sg451
I1
sbsg59
V/cvmfs/cms.cern.ch/el8_amd64_gcc11/cms/cmssw-patch/CMSSW_13_2_5_patch1/src/CalibCalorimetry/HcalPlugins/python/HcalTimeSlew_cff.py
p2029
sg61
I3
sg62
g1860
sbsVes_hardcode
p2030
g0
(g1724
g2
Ntp2031
Rp2032
(dp2033
g15
VHcalHardcodeCalibrations
p2034
sg17
(lp2035
g1768
aViLumi
p2036
aVHBRecalibration
p2037
aVHBreCalibCutoff
p2038
aVHBmeanenergies
p2039
aVHERecalibration
p2040
aVHEreCalibCutoff
p2041
aVHEmeanenergies
p2042
aVHFRecalibration
p2043
aVHFRecalParameterBlock
p2044
aVGainWidthsForTrigPrims
p2045
aVuseHBUpgrade
p2046
aVuseHEUpgrade
p2047
aVuseHFUpgrade
p2048
aVuseHOUpgrade
p2049
aVtestHFQIE10
p2050
aVtestHEPlan1
p2051
aVkillHE
p2052
aVuseLayer0Weight
p2053
aVuseIeta18depth1
p2054
aVhb
p2055
aVhe
p2056
aVhf
p2057
aVho
p2058
aVhbUpgrade
p2059
aVheUpgrade
p2060
aVhfUpgrade
p2061
aVSiPMCharacteristics
p2062
asg25
I00
sg26
Nsg1768
g0
(g105
g47
(lp2063
VGainWidths
p2064
atp2065
Rp2066
(dp2067
g25
I00
sg31
I00
sg32
I00
sg451
I1
sbsg32
I00
sg2036
g0
(g38
g2
Ntp2068
Rp2069
(dp2070
g25
I00
sg31
I01
sg32
I00
sg42
F-1.0
sbsg2037
g0
(g73
g2
Ntp2071
Rp2072
(dp2073
g25
I00
sg31
I01
sg32
I00
sg42
I00
sbsg2038
g0
(g38
g2
Ntp2074
Rp2075
(dp2076
g25
I00
sg31
I01
sg32
I00
sg42
F20.0
sbsg2039
g0
(g1752
g2
Ntp2077
Rp2078
(dp2079
g25
I00
sg31
I01
sg32
I00
sg42
VCalibCalorimetry/HcalPlugins/data/meanenergiesHB.txt
p2080
sbsg2040
g0
(g73
g2
Ntp2081
Rp2082
(dp2083
g25
I00
sg31
I01
sg32
I00
sg42
I00
sbsg2041
g0
(g38
g2
Ntp2084
Rp2085
(dp2086
g25
I00
sg31
I01
sg32
I00
sg42
F20.0
sbsg2042
g0
(g1752
g2
Ntp2087
Rp2088
(dp2089
g25
I00
sg31
I01
sg32
I00
sg42
VCalibCalorimetry/HcalPlugins/data/meanenergiesHE.txt
p2090
sbsg2043
g0
(g73
g2
Ntp2091
Rp2092
(dp2093
g25
I00
sg31
I01
sg32
I00
sg42
I00
sbsg2044
g0
(g693
g2
Ntp2094
Rp2095
(dp2096
g25
I00
sg31
I01
sg32
I00
sg17
(lp2097
VHFdepthOneParameterA
p2098
aVHFdepthOneParameterB
p2099
aVHFdepthTwoParameterA
p2100
aVHFdepthTwoParameterB
p2101
asg26
Nsg2098
g0
(g46
g47
(lp2102
F0.004123
aF0.00602
aF0.008201
aF0.010489
aF0.013379
aF0.016997
aF0.021464
aF0.027371
aF0.034195
aF0.044807
aF0.058939
aF0.125497
atp2103
Rp2104
(dp2105
g25
I00
sg31
I01
sg32
I00
sbsg2099
g0
(g46
g47
(lp2106
F-4e-06
aF-2e-06
aF0.0
aF4e-06
aF1.5e-05
aF2.6e-05
aF6.3e-05
aF8.4e-05
aF0.00016
aF0.000107
aF0.000425
aF0.000209
atp2107
Rp2108
(dp2109
g25
I00
sg31
I01
sg32
I00
sbsg2100
g0
(g46
g47
(lp2110
F0.002861
aF0.004168
aF0.0064
aF0.008388
aF0.011601
aF0.014425
aF0.018633
aF0.023232
aF0.028274
aF0.035447
aF0.051579
aF0.086593
atp2111
Rp2112
(dp2113
g25
I00
sg31
I01
sg32
I00
sbsg2101
g0
(g46
g47
(lp2114
F-2e-06
aF-0.0
aF-7e-06
aF-6e-06
aF-2e-06
aF1e-06
aF1.9e-05
aF3.1e-05
aF6.7e-05
aF1.2e-05
aF0.000157
aF-3e-06
atp2115
Rp2116
(dp2117
g25
I00
sg31
I01
sg32
I00
sbsg62
g2044
sbsg2045
g0
(g73
g2
Ntp2118
Rp2119
(dp2120
g25
I00
sg31
I01
sg32
I00
sg42
I00
sbsg2046
g0
(g73
g2
Ntp2121
Rp2122
(dp2123
g25
I00
sg31
I01
sg32
I00
sg42
I00
sbsg2047
g0
(g73
g2
Ntp2124
Rp2125
(dp2126
g25
I00
sg31
I01
sg32
I00
sg42
I00
sbsg2048
g0
(g73
g2
Ntp2127
Rp2128
(dp2129
g25
I00
sg31
I01
sg32
I00
sg42
I00
sbsg2049
g0
(g73
g2
Ntp2130
Rp2131
(dp2132
g25
I00
sg31
I01
sg32
I00
sg42
I01
sbsg2050
g0
(g73
g2
Ntp2133
Rp2134
(dp2135
g25
I00
sg31
I01
sg32
I00
sg42
I00
sbsg2051
g0
(g73
g2
Ntp2136
Rp2137
(dp2138
g25
I00
sg31
I01
sg32
I00
sg42
I00
sbsg2052
g0
(g73
g2
Ntp2139
Rp2140
(dp2141
g25
I00
sg31
I01
sg32
I00
sg42
I00
sbsg2053
g0
(g73
g2
Ntp2142
Rp2143
(dp2144
g25
I00
sg31
I01
sg32
I00
sg42
I00
sbsg2054
g0
(g73
g2
Ntp2145
Rp2146
(dp2147
g25
I00
sg31
I01
sg32
I00
sg42
I01
sbsg2055
g0
(g693
g2
Ntp2148
Rp2149
(dp2150
g25
I00
sg31
I01
sg32
I00
sg17
(lp2151
Vpedestal
p2152
aVpedestalWidth
p2153
aVgain
p2154
aVgainWidth
p2155
aVzsThreshold
p2156
aVqieType
p2157
aVqieOffset
p2158
aVqieSlope
p2159
aVmcShape
p2160
aVrecoShape
p2161
aVphotoelectronsToAnalog
p2162
aVdarkCurrent
p2163
aVnoiseCorrelation
p2164
aVnoiseThreshold
p2165
aVseedThreshold
p2166
aVdoRadiationDamage
p2167
asg26
Nsg2152
g0
(g38
g2
Ntp2168
Rp2169
(dp2170
g25
I00
sg31
I01
sg32
I00
sg42
F3.285
sbsg2153
g0
(g38
g2
Ntp2171
Rp2172
(dp2173
g25
I00
sg31
I01
sg32
I00
sg42
F0.809
sbsg2154
g0
(g46
g47
(lp2174
F0.19
atp2175
Rp2176
(dp2177
g25
I00
sg31
I01
sg32
I00
sbsg2155
g0
(g46
g47
(lp2178
F0.0
atp2179
Rp2180
(dp2181
g25
I00
sg31
I01
sg32
I00
sbsg2156
g0
(g52
g2
Ntp2182
Rp2183
(dp2184
g25
I00
sg31
I01
sg32
I00
sg42
I8
sbsg2157
g0
(g52
g2
Ntp2185
Rp2186
(dp2187
g25
I00
sg31
I01
sg32
I00
sg42
I0
sbsg2158
g0
(g46
g47
(lp2188
F-0.49
aF1.8
aF7.2
aF37.9
atp2189
Rp2190
(dp2191
g25
I00
sg31
I01
sg32
I00
sbsg2159
g0
(g46
g47
(lp2192
F0.912
aF0.917
aF0.922
aF0.923
atp2193
Rp2194
(dp2195
g25
I00
sg31
I01
sg32
I00
sbsg2160
g0
(g52
g2
Ntp2196
Rp2197
(dp2198
g25
I00
sg31
I01
sg32
I00
sg42
I125
sbsg2161
g0
(g52
g2
Ntp2199
Rp2200
(dp2201
g25
I00
sg31
I01
sg32
I00
sg42
I105
sbsg2162
g0
(g38
g2
Ntp2202
Rp2203
(dp2204
g25
I00
sg31
I01
sg32
I00
sg42
F0.3305
sbsg2163
g0
(g46
g47
(lp2205
F0.0
atp2206
Rp2207
(dp2208
g25
I00
sg31
I01
sg32
I00
sbsg2164
g0
(g46
g47
(lp2209
F0.0
atp2210
Rp2211
(dp2212
g25
I00
sg31
I01
sg32
I00
sbsg2165
g0
(g38
g2
Ntp2213
Rp2214
(dp2215
g25
I00
sg31
I01
sg32
I00
sg42
F0.0
sbsg2166
g0
(g38
g2
Ntp2216
Rp2217
(dp2218
g25
I00
sg31
I01
sg32
I00
sg42
F0.1
sbsg2167
g0
(g73
g2
Ntp2219
Rp2220
(dp2221
g25
I00
sg31
I01
sg32
I00
sg42
I00
sbsbsg2056
g0
(g693
g2
Ntp2222
Rp2223
(dp2224
g25
I00
sg31
I01
sg32
I00
sg17
(lp2225
g2152
ag2153
ag2154
ag2155
ag2156
ag2157
ag2158
ag2159
ag2160
ag2161
ag2162
ag2163
ag2164
ag2165
ag2166
ag2167
asg26
Nsg2152
g0
(g38
g2
Ntp2226
Rp2227
(dp2228
g25
I00
sg31
I01
sg32
I00
sg42
F3.163
sbsg2153
g0
(g38
g2
Ntp2229
Rp2230
(dp2231
g25
I00
sg31
I01
sg32
I00
sg42
F0.9698
sbsg2154
g0
(g46
g47
(lp2232
F0.23
atp2233
Rp2234
(dp2235
g25
I00
sg31
I01
sg32
I00
sbsg2155
g0
(g46
g47
(lp2236
I0
atp2237
Rp2238
(dp2239
g25
I00
sg31
I01
sg32
I00
sbsg2156
g0
(g52
g2
Ntp2240
Rp2241
(dp2242
g25
I00
sg31
I01
sg32
I00
sg42
I9
sbsg2157
g0
(g52
g2
Ntp2243
Rp2244
(dp2245
g25
I00
sg31
I01
sg32
I00
sg42
I0
sbsg2158
g0
(g46
g47
(lp2246
F-0.38
aF2.0
aF7.6
aF39.6
atp2247
Rp2248
(dp2249
g25
I00
sg31
I01
sg32
I00
sbsg2159
g0
(g46
g47
(lp2250
F0.912
aF0.916
aF0.92
aF0.922
atp2251
Rp2252
(dp2253
g25
I00
sg31
I01
sg32
I00
sbsg2160
g0
(g52
g2
Ntp2254
Rp2255
(dp2256
g25
I00
sg31
I01
sg32
I00
sg42
I125
sbsg2161
g0
(g52
g2
Ntp2257
Rp2258
(dp2259
g25
I00
sg31
I01
sg32
I00
sg42
I105
sbsg2162
g0
(g38
g2
Ntp2260
Rp2261
(dp2262
g25
I00
sg31
I01
sg32
I00
sg42
F0.3305
sbsg2163
g0
(g46
g47
(lp2263
F0.0
atp2264
Rp2265
(dp2266
g25
I00
sg31
I01
sg32
I00
sbsg2164
g0
(g46
g47
(lp2267
F0.0
atp2268
Rp2269
(dp2270
g25
I00
sg31
I01
sg32
I00
sbsg2165
g0
(g38
g2
Ntp2271
Rp2272
(dp2273
g25
I00
sg31
I01
sg32
I00
sg42
F0.0
sbsg2166
g0
(g38
g2
Ntp2274
Rp2275
(dp2276
g25
I00
sg31
I01
sg32
I00
sg42
F0.1
sbsg2167
g0
(g73
g2
Ntp2277
Rp2278
(dp2279
g25
I00
sg31
I01
sg32
I00
sg42
I00
sbsbsg2057
g0
(g693
g2
Ntp2280
Rp2281
(dp2282
g25
I00
sg31
I01
sg32
I00
sg17
(lp2283
g2152
ag2153
ag2154
ag2155
ag2156
ag2157
ag2158
ag2159
ag2160
ag2161
ag2162
ag2163
ag2164
ag2165
ag2166
ag2167
asg26
Nsg2152
g0
(g38
g2
Ntp2284
Rp2285
(dp2286
g25
I00
sg31
I01
sg32
I00
sg42
F9.354
sbsg2153
g0
(g38
g2
Ntp2287
Rp2288
(dp2289
g25
I00
sg31
I01
sg32
I00
sg42
F2.516
sbsg2154
g0
(g46
g47
(lp2290
F0.14
aF0.135
atp2291
Rp2292
(dp2293
g25
I00
sg31
I01
sg32
I00
sbsg2155
g0
(g46
g47
(lp2294
F0.0
aF0.0
atp2295
Rp2296
(dp2297
g25
I00
sg31
I01
sg32
I00
sbsg2156
g0
(g52
g2
Ntp2298
Rp2299
(dp2300
g25
I00
sg31
I01
sg32
I00
sg42
I-9999
sbsg2157
g0
(g52
g2
Ntp2301
Rp2302
(dp2303
g25
I00
sg31
I01
sg32
I00
sg42
I0
sbsg2158
g0
(g46
g47
(lp2304
F-0.87
aF1.4
aF7.8
aF-29.6
atp2305
Rp2306
(dp2307
g25
I00
sg31
I01
sg32
I00
sbsg2159
g0
(g46
g47
(lp2308
F0.359
aF0.358
aF0.36
aF0.367
atp2309
Rp2310
(dp2311
g25
I00
sg31
I01
sg32
I00
sbsg2160
g0
(g52
g2
Ntp2312
Rp2313
(dp2314
g25
I00
sg31
I01
sg32
I00
sg42
I301
sbsg2161
g0
(g52
g2
Ntp2315
Rp2316
(dp2317
g25
I00
sg31
I01
sg32
I00
sg42
I301
sbsg2162
g0
(g38
g2
Ntp2318
Rp2319
(dp2320
g25
I00
sg31
I01
sg32
I00
sg42
F0.0
sbsg2163
g0
(g46
g47
(lp2321
F0.0
atp2322
Rp2323
(dp2324
g25
I00
sg31
I01
sg32
I00
sbsg2164
g0
(g46
g47
(lp2325
F0.0
atp2326
Rp2327
(dp2328
g25
I00
sg31
I01
sg32
I00
sbsg2165
g0
(g38
g2
Ntp2329
Rp2330
(dp2331
g25
I00
sg31
I01
sg32
I00
sg42
F0.0
sbsg2166
g0
(g38
g2
Ntp2332
Rp2333
(dp2334
g25
I00
sg31
I01
sg32
I00
sg42
F0.1
sbsg2167
g0
(g73
g2
Ntp2335
Rp2336
(dp2337
g25
I00
sg31
I01
sg32
I00
sg42
I00
sbsbsg2058
g0
(g693
g2
Ntp2338
Rp2339
(dp2340
g25
I00
sg31
I01
sg32
I00
sg17
(lp2341
g2152
ag2153
ag2154
ag2155
ag2156
ag2157
ag2158
ag2159
ag2160
ag2161
ag2162
ag2163
ag2164
ag2165
ag2166
ag2167
asg26
Nsg2152
g0
(g38
g2
Ntp2342
Rp2343
(dp2344
g25
I00
sg31
I01
sg32
I00
sg42
F12.06
sbsg2153
g0
(g38
g2
Ntp2345
Rp2346
(dp2347
g25
I00
sg31
I01
sg32
I00
sg42
F0.6285
sbsg2154
g0
(g46
g47
(lp2348
F0.006
aF0.0087
atp2349
Rp2350
(dp2351
g25
I00
sg31
I01
sg32
I00
sbsg2155
g0
(g46
g47
(lp2352
F0.0
aF0.0
atp2353
Rp2354
(dp2355
g25
I00
sg31
I01
sg32
I00
sbsg2156
g0
(g52
g2
Ntp2356
Rp2357
(dp2358
g25
I00
sg31
I01
sg32
I00
sg42
I24
sbsg2157
g0
(g52
g2
Ntp2359
Rp2360
(dp2361
g25
I00
sg31
I01
sg32
I00
sg42
I0
sbsg2158
g0
(g46
g47
(lp2362
F-0.44
aF1.4
aF7.1
aF38.5
atp2363
Rp2364
(dp2365
g25
I00
sg31
I01
sg32
I00
sbsg2159
g0
(g46
g47
(lp2366
F0.907
aF0.915
aF0.92
aF0.921
atp2367
Rp2368
(dp2369
g25
I00
sg31
I01
sg32
I00
sbsg2160
g0
(g52
g2
Ntp2370
Rp2371
(dp2372
g25
I00
sg31
I01
sg32
I00
sg42
I201
sbsg2161
g0
(g52
g2
Ntp2373
Rp2374
(dp2375
g25
I00
sg31
I01
sg32
I00
sg42
I201
sbsg2162
g0
(g38
g2
Ntp2376
Rp2377
(dp2378
g25
I00
sg31
I01
sg32
I00
sg42
F4.0
sbsg2163
g0
(g46
g47
(lp2379
F0.0
atp2380
Rp2381
(dp2382
g25
I00
sg31
I01
sg32
I00
sbsg2164
g0
(g46
g47
(lp2383
F0.0
atp2384
Rp2385
(dp2386
g25
I00
sg31
I01
sg32
I00
sbsg2165
g0
(g38
g2
Ntp2387
Rp2388
(dp2389
g25
I00
sg31
I01
sg32
I00
sg42
F0.0
sbsg2166
g0
(g38
g2
Ntp2390
Rp2391
(dp2392
g25
I00
sg31
I01
sg32
I00
sg42
F0.1
sbsg2167
g0
(g73
g2
Ntp2393
Rp2394
(dp2395
g25
I00
sg31
I01
sg32
I00
sg42
I00
sbsbsg2059
g0
(g693
g2
Ntp2396
Rp2397
(dp2398
g25
I00
sg31
I01
sg32
I00
sg17
(lp2399
g2152
ag2153
ag2154
ag2155
ag2156
ag2157
ag2158
ag2159
ag2160
ag2161
ag2162
ag2163
ag2164
ag2165
ag2166
ag2167
aVradiationDamage
p2400
asg26
Nsg2152
g0
(g38
g2
Ntp2401
Rp2402
(dp2403
g25
I00
sg31
I01
sg32
I00
sg42
F17.3
sbsg2153
g0
(g38
g2
Ntp2404
Rp2405
(dp2406
g25
I00
sg31
I01
sg32
I00
sg42
F1.5
sbsg2154
g0
(g46
g47
(lp2407
F0.0006252
atp2408
Rp2409
(dp2410
g25
I00
sg31
I01
sg32
I00
sbsg2155
g0
(g46
g47
(lp2411
I0
atp2412
Rp2413
(dp2414
g25
I00
sg31
I01
sg32
I00
sbsg2156
g0
(g52
g2
Ntp2415
Rp2416
(dp2417
g25
I00
sg31
I01
sg32
I00
sg42
I16
sbsg2157
g0
(g52
g2
Ntp2418
Rp2419
(dp2420
g25
I00
sg31
I01
sg32
I00
sg42
I2
sbsg2158
g0
(g46
g47
(lp2421
F0.0
aF0.0
aF0.0
aF0.0
atp2422
Rp2423
(dp2424
g25
I00
sg31
I01
sg32
I00
sbsg2159
g0
(g46
g47
(lp2425
F0.05376
aF0.05376
aF0.05376
aF0.05376
atp2426
Rp2427
(dp2428
g25
I00
sg31
I01
sg32
I00
sbsg2160
g0
(g52
g2
Ntp2429
Rp2430
(dp2431
g25
I00
sg31
I01
sg32
I00
sg42
I206
sbsg2161
g0
(g52
g2
Ntp2432
Rp2433
(dp2434
g25
I00
sg31
I01
sg32
I00
sg42
I208
sbsg2162
g0
(g38
g2
Ntp2435
Rp2436
(dp2437
g25
I00
sg31
I01
sg32
I00
sg42
F40.0
sbsg2163
g0
(g46
g47
(lp2438
F0.01
aF0.015
atp2439
Rp2440
(dp2441
g25
I00
sg31
I01
sg32
I00
sbsg2164
g0
(g46
g47
(lp2442
F0.26
aF0.254
atp2443
Rp2444
(dp2445
g25
I00
sg31
I01
sg32
I00
sbsg2165
g0
(g38
g2
Ntp2446
Rp2447
(dp2448
g25
I00
sg31
I01
sg32
I00
sg42
F0.0
sbsg2166
g0
(g38
g2
Ntp2449
Rp2450
(dp2451
g25
I00
sg31
I01
sg32
I00
sg42
F0.1
sbsg2167
g0
(g73
g2
Ntp2452
Rp2453
(dp2454
g25
I00
sg31
I01
sg32
I00
sg42
I01
sbsg2400
g0
(g693
g2
Ntp2455
Rp2456
(dp2457
g25
I00
sg31
I01
sg32
I00
sg17
(lp2458
VtemperatureBase
p2459
aVtemperatureNew
p2460
aVintlumiOffset
p2461
aVdepVsTemp
p2462
aVintlumiToNeutrons
p2463
aVdepVsNeutrons
p2464
asg26
Nsg2459
g0
(g38
g2
Ntp2465
Rp2466
(dp2467
g25
I00
sg31
I01
sg32
I00
sg42
I20
sbsg2460
g0
(g38
g2
Ntp2468
Rp2469
(dp2470
g25
I00
sg31
I01
sg32
I00
sg42
I-5
sbsg2461
g0
(g38
g2
Ntp2471
Rp2472
(dp2473
g25
I00
sg31
I01
sg32
I00
sg42
I150
sbsg2462
g0
(g38
g2
Ntp2474
Rp2475
(dp2476
g25
I00
sg31
I01
sg32
I00
sg42
F0.0631
sbsg2463
g0
(g38
g2
Ntp2477
Rp2478
(dp2479
g25
I00
sg31
I01
sg32
I00
sg42
F367000000.0
sbsg2464
g0
(g46
g47
(lp2480
F5.543e-10
aF8.012e-10
atp2481
Rp2482
(dp2483
g25
I00
sg31
I01
sg32
I00
sbsbsbsg2060
g0
(g693
g2
Ntp2484
Rp2485
(dp2486
g25
I00
sg31
I01
sg32
I00
sg17
(lp2487
g2152
ag2153
ag2154
ag2155
ag2156
ag2157
ag2158
ag2159
ag2160
ag2161
ag2162
ag2163
ag2164
ag2165
ag2166
ag2167
ag2400
asg26
Nsg2152
g0
(g38
g2
Ntp2488
Rp2489
(dp2490
g25
I00
sg31
I01
sg32
I00
sg42
F17.3
sbsg2153
g0
(g38
g2
Ntp2491
Rp2492
(dp2493
g25
I00
sg31
I01
sg32
I00
sg42
F1.5
sbsg2154
g0
(g46
g47
(lp2494
F0.0006252
atp2495
Rp2496
(dp2497
g25
I00
sg31
I01
sg32
I00
sbsg2155
g0
(g46
g47
(lp2498
I0
atp2499
Rp2500
(dp2501
g25
I00
sg31
I01
sg32
I00
sbsg2156
g0
(g52
g2
Ntp2502
Rp2503
(dp2504
g25
I00
sg31
I01
sg32
I00
sg42
I16
sbsg2157
g0
(g52
g2
Ntp2505
Rp2506
(dp2507
g25
I00
sg31
I01
sg32
I00
sg42
I2
sbsg2158
g0
(g46
g47
(lp2508
F0.0
aF0.0
aF0.0
aF0.0
atp2509
Rp2510
(dp2511
g25
I00
sg31
I01
sg32
I00
sbsg2159
g0
(g46
g47
(lp2512
F0.05376
aF0.05376
aF0.05376
aF0.05376
atp2513
Rp2514
(dp2515
g25
I00
sg31
I01
sg32
I00
sbsg2160
g0
(g52
g2
Ntp2516
Rp2517
(dp2518
g25
I00
sg31
I01
sg32
I00
sg42
I206
sbsg2161
g0
(g52
g2
Ntp2519
Rp2520
(dp2521
g25
I00
sg31
I01
sg32
I00
sg42
I208
sbsg2162
g0
(g38
g2
Ntp2522
Rp2523
(dp2524
g25
I00
sg31
I01
sg32
I00
sg42
F40.0
sbsg2163
g0
(g46
g47
(lp2525
F0.01
aF0.015
atp2526
Rp2527
(dp2528
g25
I00
sg31
I01
sg32
I00
sbsg2164
g0
(g46
g47
(lp2529
F0.26
aF0.254
atp2530
Rp2531
(dp2532
g25
I00
sg31
I01
sg32
I00
sbsg2165
g0
(g38
g2
Ntp2533
Rp2534
(dp2535
g25
I00
sg31
I01
sg32
I00
sg42
F0.0
sbsg2166
g0
(g38
g2
Ntp2536
Rp2537
(dp2538
g25
I00
sg31
I01
sg32
I00
sg42
F0.1
sbsg2167
g0
(g73
g2
Ntp2539
Rp2540
(dp2541
g25
I00
sg31
I01
sg32
I00
sg42
I01
sbsg2400
g0
(g693
g2
Ntp2542
Rp2543
(dp2544
g25
I00
sg31
I01
sg32
I00
sg17
(lp2545
g2459
ag2460
ag2461
ag2462
ag2463
ag2464
asg26
Nsg2459
g0
(g38
g2
Ntp2546
Rp2547
(dp2548
g25
I00
sg31
I01
sg32
I00
sg42
I20
sbsg2460
g0
(g38
g2
Ntp2549
Rp2550
(dp2551
g25
I00
sg31
I01
sg32
I00
sg42
I5
sbsg2461
g0
(g38
g2
Ntp2552
Rp2553
(dp2554
g25
I00
sg31
I01
sg32
I00
sg42
I75
sbsg2462
g0
(g38
g2
Ntp2555
Rp2556
(dp2557
g25
I00
sg31
I01
sg32
I00
sg42
F0.0631
sbsg2463
g0
(g38
g2
Ntp2558
Rp2559
(dp2560
g25
I00
sg31
I01
sg32
I00
sg42
F29200000.0
sbsg2464
g0
(g46
g47
(lp2561
F5.543e-10
aF8.012e-10
atp2562
Rp2563
(dp2564
g25
I00
sg31
I01
sg32
I00
sbsbsbsg2061
g0
(g693
g2
Ntp2565
Rp2566
(dp2567
g25
I00
sg31
I01
sg32
I00
sg17
(lp2568
g2152
ag2153
ag2154
ag2155
ag2156
ag2157
ag2158
ag2159
ag2160
ag2161
ag2162
ag2163
ag2164
ag2165
ag2166
ag2167
asg26
Nsg2152
g0
(g38
g2
Ntp2569
Rp2570
(dp2571
g25
I00
sg31
I01
sg32
I00
sg42
F13.33
sbsg2153
g0
(g38
g2
Ntp2572
Rp2573
(dp2574
g25
I00
sg31
I01
sg32
I00
sg42
F3.33
sbsg2154
g0
(g46
g47
(lp2575
F0.14
aF0.135
atp2576
Rp2577
(dp2578
g25
I00
sg31
I01
sg32
I00
sbsg2155
g0
(g46
g47
(lp2579
F0.0
aF0.0
atp2580
Rp2581
(dp2582
g25
I00
sg31
I01
sg32
I00
sbsg2156
g0
(g52
g2
Ntp2583
Rp2584
(dp2585
g25
I00
sg31
I01
sg32
I00
sg42
I-9999
sbsg2157
g0
(g52
g2
Ntp2586
Rp2587
(dp2588
g25
I00
sg31
I01
sg32
I00
sg42
I1
sbsg2158
g0
(g46
g47
(lp2589
F0.0697
aF-0.7405
aF12.38
aF-671.9
atp2590
Rp2591
(dp2592
g25
I00
sg31
I01
sg32
I00
sbsg2159
g0
(g46
g47
(lp2593
F0.297
aF0.298
aF0.298
aF0.313
atp2594
Rp2595
(dp2596
g25
I00
sg31
I01
sg32
I00
sbsg2160
g0
(g52
g2
Ntp2597
Rp2598
(dp2599
g25
I00
sg31
I01
sg32
I00
sg42
I301
sbsg2161
g0
(g52
g2
Ntp2600
Rp2601
(dp2602
g25
I00
sg31
I01
sg32
I00
sg42
I301
sbsg2162
g0
(g38
g2
Ntp2603
Rp2604
(dp2605
g25
I00
sg31
I01
sg32
I00
sg42
F0.0
sbsg2163
g0
(g46
g47
(lp2606
F0.0
atp2607
Rp2608
(dp2609
g25
I00
sg31
I01
sg32
I00
sbsg2164
g0
(g46
g47
(lp2610
F0.0
atp2611
Rp2612
(dp2613
g25
I00
sg31
I01
sg32
I00
sbsg2165
g0
(g38
g2
Ntp2614
Rp2615
(dp2616
g25
I00
sg31
I01
sg32
I00
sg42
F0.0
sbsg2166
g0
(g38
g2
Ntp2617
Rp2618
(dp2619
g25
I00
sg31
I01
sg32
I00
sg42
F0.1
sbsg2167
g0
(g73
g2
Ntp2620
Rp2621
(dp2622
g25
I00
sg31
I01
sg32
I00
sg42
I00
sbsbsg2062
g0
(g691
g47
(lp2623
g0
(g693
g2
Ntp2624
Rp2625
(dp2626
g25
I00
sg31
I01
sg32
I00
sg17
(lp2627
Vpixels
p2628
aVcrosstalk
p2629
aVnonlin1
p2630
aVnonlin2
p2631
aVnonlin3
p2632
asg26
Nsg2628
g0
(g52
g2
Ntp2633
Rp2634
(dp2635
g25
I00
sg31
I01
sg32
I00
sg42
I36000
sbsg2629
g0
(g38
g2
Ntp2636
Rp2637
(dp2638
g25
I00
sg31
I01
sg32
I00
sg42
F0.0
sbsg2630
g0
(g38
g2
Ntp2639
Rp2640
(dp2641
g25
I00
sg31
I01
sg32
I00
sg42
F1.0
sbsg2631
g0
(g38
g2
Ntp2642
Rp2643
(dp2644
g25
I00
sg31
I01
sg32
I00
sg42
F0.0
sbsg2632
g0
(g38
g2
Ntp2645
Rp2646
(dp2647
g25
I00
sg31
I01
sg32
I00
sg42
F0.0
sbsbag0
(g693
g2
Ntp2648
Rp2649
(dp2650
g25
I00
sg31
I01
sg32
I00
sg17
(lp2651
g2628
ag2629
ag2630
ag2631
ag2632
asg26
Nsg2628
g0
(g52
g2
Ntp2652
Rp2653
(dp2654
g25
I00
sg31
I01
sg32
I00
sg42
I2500
sbsg2629
g0
(g38
g2
Ntp2655
Rp2656
(dp2657
g25
I00
sg31
I01
sg32
I00
sg42
F0.0
sbsg2630
g0
(g38
g2
Ntp2658
Rp2659
(dp2660
g25
I00
sg31
I01
sg32
I00
sg42
F1.0
sbsg2631
g0
(g38
g2
Ntp2661
Rp2662
(dp2663
g25
I00
sg31
I01
sg32
I00
sg42
F0.0
sbsg2632
g0
(g38
g2
Ntp2664
Rp2665
(dp2666
g25
I00
sg31
I01
sg32
I00
sg42
F0.0
sbsbag0
(g693
g2
Ntp2667
Rp2668
(dp2669
g25
I00
sg31
I01
sg32
I00
sg17
(lp2670
g2628
ag2629
ag2630
ag2631
ag2632
asg26
Nsg2628
g0
(g52
g2
Ntp2671
Rp2672
(dp2673
g25
I00
sg31
I01
sg32
I00
sg42
I27370
sbsg2629
g0
(g38
g2
Ntp2674
Rp2675
(dp2676
g25
I00
sg31
I01
sg32
I00
sg42
F0.17
sbsg2630
g0
(g38
g2
Ntp2677
Rp2678
(dp2679
g25
I00
sg31
I01
sg32
I00
sg42
F1.00985
sbsg2631
g0
(g38
g2
Ntp2680
Rp2681
(dp2682
g25
I00
sg31
I01
sg32
I00
sg42
F7.84089e-06
sbsg2632
g0
(g38
g2
Ntp2683
Rp2684
(dp2685
g25
I00
sg31
I01
sg32
I00
sg42
F2.86282e-10
sbsbag0
(g693
g2
Ntp2686
Rp2687
(dp2688
g25
I00
sg31
I01
sg32
I00
sg17
(lp2689
g2628
ag2629
ag2630
ag2631
ag2632
asg26
Nsg2628
g0
(g52
g2
Ntp2690
Rp2691
(dp2692
g25
I00
sg31
I01
sg32
I00
sg42
I38018
sbsg2629
g0
(g38
g2
Ntp2693
Rp2694
(dp2695
g25
I00
sg31
I01
sg32
I00
sg42
F0.196
sbsg2630
g0
(g38
g2
Ntp2696
Rp2697
(dp2698
g25
I00
sg31
I01
sg32
I00
sg42
F1.00546
sbsg2631
g0
(g38
g2
Ntp2699
Rp2700
(dp2701
g25
I00
sg31
I01
sg32
I00
sg42
F6.40239e-06
sbsg2632
g0
(g38
g2
Ntp2702
Rp2703
(dp2704
g25
I00
sg31
I01
sg32
I00
sg42
F1.27011e-10
sbsbag0
(g693
g2
Ntp2705
Rp2706
(dp2707
g25
I00
sg31
I01
sg32
I00
sg17
(lp2708
g2628
ag2629
ag2630
ag2631
ag2632
asg26
Nsg2628
g0
(g52
g2
Ntp2709
Rp2710
(dp2711
g25
I00
sg31
I01
sg32
I00
sg42
I27370
sbsg2629
g0
(g38
g2
Ntp2712
Rp2713
(dp2714
g25
I00
sg31
I01
sg32
I00
sg42
F0.17
sbsg2630
g0
(g38
g2
Ntp2715
Rp2716
(dp2717
g25
I00
sg31
I01
sg32
I00
sg42
F1.00985
sbsg2631
g0
(g38
g2
Ntp2718
Rp2719
(dp2720
g25
I00
sg31
I01
sg32
I00
sg42
F7.84089e-06
sbsg2632
g0
(g38
g2
Ntp2721
Rp2722
(dp2723
g25
I00
sg31
I01
sg32
I00
sg42
F2.86282e-10
sbsbag0
(g693
g2
Ntp2724
Rp2725
(dp2726
g25
I00
sg31
I01
sg32
I00
sg17
(lp2727
g2628
ag2629
ag2630
ag2631
ag2632
asg26
Nsg2628
g0
(g52
g2
Ntp2728
Rp2729
(dp2730
g25
I00
sg31
I01
sg32
I00
sg42
I38018
sbsg2629
g0
(g38
g2
Ntp2731
Rp2732
(dp2733
g25
I00
sg31
I01
sg32
I00
sg42
F0.196
sbsg2630
g0
(g38
g2
Ntp2734
Rp2735
(dp2736
g25
I00
sg31
I01
sg32
I00
sg42
F1.00546
sbsg2631
g0
(g38
g2
Ntp2737
Rp2738
(dp2739
g25
I00
sg31
I01
sg32
I00
sg42
F6.40239e-06
sbsg2632
g0
(g38
g2
Ntp2740
Rp2741
(dp2742
g25
I00
sg31
I01
sg32
I00
sg42
F1.27011e-10
sbsbag0
(g693
g2
Ntp2743
Rp2744
(dp2745
g25
I00
sg31
I01
sg32
I00
sg17
(lp2746
g2628
ag2629
ag2630
ag2631
ag2632
asg26
Nsg2628
g0
(g52
g2
Ntp2747
Rp2748
(dp2749
g25
I00
sg31
I01
sg32
I00
sg42
I0
sbsg2629
g0
(g38
g2
Ntp2750
Rp2751
(dp2752
g25
I00
sg31
I01
sg32
I00
sg42
F0.0
sbsg2630
g0
(g38
g2
Ntp2753
Rp2754
(dp2755
g25
I00
sg31
I01
sg32
I00
sg42
F1.0
sbsg2631
g0
(g38
g2
Ntp2756
Rp2757
(dp2758
g25
I00
sg31
I01
sg32
I00
sg42
F0.0
sbsg2632
g0
(g38
g2
Ntp2759
Rp2760
(dp2761
g25
I00
sg31
I01
sg32
I00
sg42
F0.0
sbsbatp2762
Rp2763
(dp2764
g25
I00
sg31
I01
sg32
I00
sg451
I1
sbsg59
V/cvmfs/cms.cern.ch/el8_amd64_gcc11/cms/cmssw-patch/CMSSW_13_2_5_patch1/src/CalibCalorimetry/HcalPlugins/python/Hcal_Conditions_forGlobalTag_cff.py
p2765
sg61
I16
sg62
g2030
sbssV_Process__esproducers
p2766
(dp2767
VCSCGeometryESModule
p2768
g0
(cFWCore.ParameterSet.Modules
ESProducer
p2769
g2
Ntp2770
Rp2771
(dp2772
g15
g2768
sg17
(lp2773
VfromDDD
p2774
aVfromDD4hep
p2775
aValignmentsLabel
p2776
ag1865
aVuseRealWireGeometry
p2777
aVuseOnlyWiresInME1a
p2778
aVuseGangedStripsInME1a
p2779
aVuseCentreTIOffsets
p2780
aVapplyAlignment
p2781
aVdebugV
p2782
asg25
I00
sg26
Nsg2774
g0
(g73
g2
Ntp2783
Rp2784
(dp2785
g25
I00
sg31
I01
sg32
I00
sg42
I00
sbsg32
I00
sg2775
g0
(g73
g2
Ntp2786
Rp2787
(dp2788
g25
I00
sg31
I01
sg32
I00
sg42
I00
sbsg2776
g0
(g121
g2
Ntp2789
Rp2790
(dp2791
g25
I00
sg31
I01
sg32
I00
sg42
g36
sbsg1865
g0
(g121
g2
Ntp2792
Rp2793
(dp2794
g25
I00
sg31
I01
sg32
I00
sg42
g36
sbsg2777
g0
(g73
g2
Ntp2795
Rp2796
(dp2797
g25
I00
sg31
I01
sg32
I00
sg42
I01
sbsg2778
g0
(g73
g2
Ntp2798
Rp2799
(dp2800
g25
I00
sg31
I01
sg32
I00
sg42
I00
sbsg2779
g0
(g73
g2
Ntp2801
Rp2802
(dp2803
g25
I00
sg31
I01
sg32
I00
sg42
I01
sbsg2780
g0
(g73
g2
Ntp2804
Rp2805
(dp2806
g25
I00
sg31
I01
sg32
I00
sg42
I00
sbsg2781
g0
(g73
g2
Ntp2807
Rp2808
(dp2809
g25
I00
sg31
I01
sg32
I00
sg42
I01
sbsg2782
g0
(g73
g2
Ntp2810
Rp2811
(dp2812
g25
I00
sg31
I00
sg32
I00
sg42
I00
sbsg59
g660
sg61
I55
sg62
g2768
sbsVCaloGeometryBuilder
p2813
g0
(g2769
g2
Ntp2814
Rp2815
(dp2816
g15
g2813
sg17
(lp2817
VSelectedCalos
p2818
asg25
I00
sg26
Nsg2818
g0
(g105
g47
(lp2819
VHCAL
p2820
aVZDC
p2821
aVCASTOR
p2822
aVEcalBarrel
p2823
aVEcalEndcap
p2824
aVEcalPreshower
p2825
aVTOWER
p2826
atp2827
Rp2828
(dp2829
g25
I00
sg31
I01
sg32
I00
sg451
I1
sbsg32
I00
sg59
g660
sg61
I55
sg62
g2813
sbsVCaloTopologyBuilder
p2830
g0
(g2769
g2
Ntp2831
Rp2832
(dp2833
g15
g2830
sg17
(lp2834
sg25
I00
sg26
Nsg32
I00
sg59
g660
sg61
I55
sg62
g2830
sbsVCaloTowerGeometryFromDBEP
p2835
g0
(g2769
g2
Ntp2836
Rp2837
(dp2838
g15
g2835
sg17
(lp2839
g2781
asg25
I00
sg26
Nsg2781
g0
(g73
g2
Ntp2840
Rp2841
(dp2842
g25
I00
sg31
I01
sg32
I00
sg42
I00
sbsg32
I00
sg59
g660
sg61
I55
sg62
g2835
sbsVCaloTowerTopologyEP
p2843
g0
(g2769
g2
Ntp2844
Rp2845
(dp2846
g15
g2843
sg17
(lp2847
sg25
I00
sg26
Nsg32
I00
sg59
g660
sg61
I55
sg62
g2843
sbsVCastorGeometryFromDBEP
p2848
g0
(g2769
g2
Ntp2849
Rp2850
(dp2851
g15
g2848
sg17
(lp2852
g2781
asg25
I00
sg26
Nsg2781
g0
(g73
g2
Ntp2853
Rp2854
(dp2855
g25
I00
sg31
I01
sg32
I00
sg42
I00
sbsg32
I00
sg59
g660
sg61
I55
sg62
g2848
sbsVDTGeometryESModule
p2856
g0
(g2769
g2
Ntp2857
Rp2858
(dp2859
g15
g2856
sg17
(lp2860
g2774
ag2775
aVDDDetector
p2861
ag2776
ag1865
aVattribute
p2862
aVvalue
p2863
ag2781
asg25
I00
sg26
Nsg2774
g0
(g73
g2
Ntp2864
Rp2865
(dp2866
g25
I00
sg31
I01
sg32
I01
sg42
I00
sbsg32
I01
sg2775
g0
(g73
g2
Ntp2867
Rp2868
(dp2869
g25
I00
sg31
I01
sg32
I00
sg42
I00
sbsg2861
g0
(cFWCore.ParameterSet.Types
ESInputTag
p2870
g2
Ntp2871
Rp2872
(dp2873
g25
I00
sg31
I01
sg32
I00
sV_ESInputTag__moduleLabel
p2874
g36
sV_ESInputTag__data
p2875
g36
sbsg2776
g0
(g121
g2
Ntp2876
Rp2877
(dp2878
g25
I00
sg31
I01
sg32
I00
sg42
g36
sbsg1865
g0
(g121
g2
Ntp2879
Rp2880
(dp2881
g25
I00
sg31
I01
sg32
I00
sg42
g36
sbsg2862
g0
(g121
g2
Ntp2882
Rp2883
(dp2884
g25
I00
sg31
I01
sg32
I00
sg42
VMuStructure
p2885
sbsg2863
g0
(g121
g2
Ntp2886
Rp2887
(dp2888
g25
I00
sg31
I01
sg32
I00
sg42
VMuonBarrelDT
p2889
sbsg2781
g0
(g73
g2
Ntp2890
Rp2891
(dp2892
g25
I00
sg31
I01
sg32
I00
sg42
I01
sbsg59
g660
sg61
I55
sg62
g2856
sbsVEcalBarrelGeometryFromDBEP
p2893
g0
(g2769
g2
Ntp2894
Rp2895
(dp2896
g15
g2893
sg17
(lp2897
g2781
asg25
I00
sg26
Nsg2781
g0
(g73
g2
Ntp2898
Rp2899
(dp2900
g25
I00
sg31
I01
sg32
I01
sg42
I01
sbsg32
I01
sg59
g660
sg61
I55
sg62
g2893
sbsVEcalElectronicsMappingBuilder
p2901
g0
(g2769
g2
Ntp2902
Rp2903
(dp2904
g15
g2901
sg17
(lp2905
sg25
I00
sg26
Nsg32
I00
sg59
g660
sg61
I55
sg62
g2901
sbsVEcalEndcapGeometryFromDBEP
p2906
g0
(g2769
g2
Ntp2907
Rp2908
(dp2909
g15
g2906
sg17
(lp2910
g2781
asg25
I00
sg26
Nsg2781
g0
(g73
g2
Ntp2911
Rp2912
(dp2913
g25
I00
sg31
I01
sg32
I01
sg42
I01
sbsg32
I01
sg59
g660
sg61
I55
sg62
g2906
sbsVEcalPreshowerGeometryFromDBEP
p2914
g0
(g2769
g2
Ntp2915
Rp2916
(dp2917
g15
g2914
sg17
(lp2918
g2781
asg25
I00
sg26
Nsg2781
g0
(g73
g2
Ntp2919
Rp2920
(dp2921
g25
I00
sg31
I01
sg32
I01
sg42
I01
sbsg32
I01
sg59
g660
sg61
I55
sg62
g2914
sbsVEcalTrigTowerConstituentsMapBuilder
p2922
g0
(g2769
g2
Ntp2923
Rp2924
(dp2925
g15
g2922
sg17
(lp2926
VMapFile
p2927
asg25
I00
sg26
Nsg2927
g0
(g121
g2
Ntp2928
Rp2929
(dp2930
g25
I00
sg31
I00
sg32
I00
sg42
VGeometry/EcalMapping/data/EndCap_TTMap.txt
p2931
sbsg32
I00
sg59
g660
sg61
I55
sg62
g2922
sbsVGlobalTrackingGeometryESProducer
p2932
g0
(g2769
g2
Ntp2933
Rp2934
(dp2935
g15
g2932
sg17
(lp2936
sg25
I00
sg26
Nsg32
I00
sg59
g660
sg61
I55
sg62
g2932
sbsVHcalAlignmentEP
p2937
g0
(g2769
g2
Ntp2938
Rp2939
(dp2940
g15
g2937
sg17
(lp2941
sg25
I00
sg26
Nsg32
I00
sg59
g660
sg61
I55
sg62
g2937
sbsVHcalGeometryFromDBEP
p2942
g0
(g2769
g2
Ntp2943
Rp2944
(dp2945
g15
g2942
sg17
(lp2946
g2781
asg25
I00
sg26
Nsg2781
g0
(g73
g2
Ntp2947
Rp2948
(dp2949
g25
I00
sg31
I01
sg32
I01
sg42
I01
sbsg32
I01
sg59
g660
sg61
I55
sg62
g2942
sbsVMuonDetLayerGeometryESProducer
p2950
g0
(g2769
g2
Ntp2951
Rp2952
(dp2953
g15
g2950
sg17
(lp2954
sg25
I00
sg26
Nsg32
I00
sg59
g660
sg61
I55
sg62
g2950
sbsVRPCGeometryESModule
p2955
g0
(g2769
g2
Ntp2956
Rp2957
(dp2958
g15
g2955
sg17
(lp2959
g2774
ag2775
asg25
I00
sg26
Nsg2774
g0
(g73
g2
Ntp2960
Rp2961
(dp2962
g25
I00
sg31
I00
sg32
I00
sg42
I00
sbsg32
I00
sg2775
g0
(g73
g2
Ntp2963
Rp2964
(dp2965
g25
I00
sg31
I00
sg32
I00
sg42
I00
sbsg59
g660
sg61
I55
sg62
g2955
sbsVTrackerRecoGeometryESProducer
p2966
g0
(g2769
g2
Ntp2967
Rp2968
(dp2969
g15
g2966
sg17
(lp2970
VusePhase2Stacks
p2971
asg25
I00
sg26
Nsg2971
g0
(g73
g2
Ntp2972
Rp2973
(dp2974
g25
I00
sg31
I01
sg32
I00
sg42
I00
sbsg32
I00
sg59
g660
sg61
I55
sg62
g2966
sbsVZdcGeometryFromDBEP
p2975
g0
(g2769
g2
Ntp2976
Rp2977
(dp2978
g15
g2975
sg17
(lp2979
g2781
asg25
I00
sg26
Nsg2781
g0
(g73
g2
Ntp2980
Rp2981
(dp2982
g25
I00
sg31
I01
sg32
I00
sg42
I00
sbsg32
I00
sg59
g660
sg61
I55
sg62
g2975
sbsVfakeForIdealAlignment
p2983
g0
(g2769
g2
Ntp2984
Rp2985
(dp2986
g15
VFakeAlignmentProducer
p2987
sg17
(lp2988
g1865
asg25
I00
sg26
Nsg1865
g0
(g121
g2
Ntp2989
Rp2990
(dp2991
g25
I00
sg31
I01
sg32
I01
sg42
VfakeForIdeal
p2992
sbsg32
I01
sg59
V/cvmfs/cms.cern.ch/el8_amd64_gcc11/cms/cmssw-patch/CMSSW_13_2_5_patch1/src/Alignment/CommonAlignmentProducer/python/fakeForIdealAlignmentProducer_cfi.py
p2993
sg61
I5
sg62
g2983
sbsVhcalDDDRecConstants
p2994
g0
(g2769
g2
Ntp2995
Rp2996
(dp2997
g15
VHcalDDDRecConstantsESModule
p2998
sg17
(lp2999
g1865
asg25
I00
sg26
Nsg1865
g0
(g121
g2
Ntp3000
Rp3001
(dp3002
g25
I00
sg31
I01
sg32
I00
sg42
g36
sbsg32
I00
sg59
g660
sg61
I55
sg62
g2994
sbsVhcalDDDSimConstants
p3003
g0
(g2769
g2
Ntp3004
Rp3005
(dp3006
g15
VHcalDDDSimConstantsESModule
p3007
sg17
(lp3008
g1865
asg25
I00
sg26
Nsg1865
g0
(g121
g2
Ntp3009
Rp3010
(dp3011
g25
I00
sg31
I01
sg32
I00
sg42
g36
sbsg32
I00
sg59
g660
sg61
I55
sg62
g3003
sbsVhcalTopologyIdeal
p3012
g0
(g2769
g2
Ntp3013
Rp3014
(dp3015
g15
VHcalTopologyIdealEP
p3016
sg17
(lp3017
VExclude
p3018
aVMergePosition
p3019
ag1865
asg25
I00
sg26
Nsg3018
g0
(g121
g2
Ntp3020
Rp3021
(dp3022
g25
I00
sg31
I00
sg32
I00
sg42
g36
sbsg32
I00
sg3019
g0
(g73
g2
Ntp3023
Rp3024
(dp3025
g25
I00
sg31
I00
sg32
I00
sg42
I00
sbsg1865
g0
(g121
g2
Ntp3026
Rp3027
(dp3028
g25
I00
sg31
I01
sg32
I00
sg42
g36
sbsg59
g660
sg61
I55
sg62
g3012
sbsVidealForDigiCSCGeometry
p3029
g0
(g2769
g2
Ntp3030
Rp3031
(dp3032
g15
g2768
sg17
(lp3033
g2774
ag2775
ag2776
ag1865
ag2777
ag2778
ag2779
ag2780
ag2781
ag2782
asg25
I00
sg26
Nsg2774
g0
(g73
g2
Ntp3034
Rp3035
(dp3036
g25
I00
sg31
I01
sg32
I00
sg42
I00
sbsg32
I01
sg2775
g0
(g73
g2
Ntp3037
Rp3038
(dp3039
g25
I00
sg31
I01
sg32
I00
sg42
I00
sbsg2776
g0
(g121
g2
Ntp3040
Rp3041
(dp3042
g25
I00
sg31
I01
sg32
I01
sg42
g2992
sbsg1865
g0
(g121
g2
Ntp3043
Rp3044
(dp3045
g25
I00
sg31
I01
sg32
I01
sg42
VidealForDigi
p3046
sbsg2777
g0
(g73
g2
Ntp3047
Rp3048
(dp3049
g25
I00
sg31
I01
sg32
I00
sg42
I01
sbsg2778
g0
(g73
g2
Ntp3050
Rp3051
(dp3052
g25
I00
sg31
I01
sg32
I00
sg42
I00
sbsg2779
g0
(g73
g2
Ntp3053
Rp3054
(dp3055
g25
I00
sg31
I01
sg32
I00
sg42
I01
sbsg2780
g0
(g73
g2
Ntp3056
Rp3057
(dp3058
g25
I00
sg31
I01
sg32
I00
sg42
I00
sbsg2781
g0
(g73
g2
Ntp3059
Rp3060
(dp3061
g25
I00
sg31
I01
sg32
I01
sg42
I00
sbsg2782
g0
(g73
g2
Ntp3062
Rp3063
(dp3064
g25
I00
sg31
I00
sg32
I00
sg42
I00
sbsg59
V/cvmfs/cms.cern.ch/el8_amd64_gcc11/cms/cmssw-patch/CMSSW_13_2_5_patch1/src/Geometry/CSCGeometryBuilder/python/idealForDigiCscGeometryDB_cff.py
p3065
sg61
I8
sg62
g3029
sbsVidealForDigiDTGeometry
p3066
g0
(g2769
g2
Ntp3067
Rp3068
(dp3069
g15
g2856
sg17
(lp3070
g2774
ag2775
ag2861
ag2776
ag1865
ag2862
ag2863
ag2781
asg25
I00
sg26
Nsg2774
g0
(g73
g2
Ntp3071
Rp3072
(dp3073
g25
I00
sg31
I01
sg32
I01
sg42
I00
sbsg32
I01
sg2775
g0
(g73
g2
Ntp3074
Rp3075
(dp3076
g25
I00
sg31
I01
sg32
I00
sg42
I00
sbsg2861
g0
(g2870
g2
Ntp3077
Rp3078
(dp3079
g25
I00
sg31
I01
sg32
I00
sg2874
g36
sg2875
g36
sbsg2776
g0
(g121
g2
Ntp3080
Rp3081
(dp3082
g25
I00
sg31
I01
sg32
I01
sg42
g2992
sbsg1865
g0
(g121
g2
Ntp3083
Rp3084
(dp3085
g25
I00
sg31
I01
sg32
I01
sg42
g3046
sbsg2862
g0
(g121
g2
Ntp3086
Rp3087
(dp3088
g25
I00
sg31
I01
sg32
I00
sg42
g2885
sbsg2863
g0
(g121
g2
Ntp3089
Rp3090
(dp3091
g25
I00
sg31
I01
sg32
I00
sg42
g2889
sbsg2781
g0
(g73
g2
Ntp3092
Rp3093
(dp3094
g25
I00
sg31
I01
sg32
I01
sg42
I00
sbsg59
V/cvmfs/cms.cern.ch/el8_amd64_gcc11/cms/cmssw-patch/CMSSW_13_2_5_patch1/src/Geometry/DTGeometryBuilder/python/idealForDigiDtGeometryDB_cff.py
p3095
sg61
I8
sg62
g3066
sbsVidealForDigiTrackerGeometry
p3096
g0
(g2769
g2
Ntp3097
Rp3098
(dp3099
g15
VTrackerDigiGeometryESModule
p3100
sg17
(lp3101
g1865
ag2774
ag2781
ag2776
asg25
I00
sg26
Nsg1865
g0
(g121
g2
Ntp3102
Rp3103
(dp3104
g25
I00
sg31
I01
sg32
I01
sg42
g3046
sbsg32
I01
sg2774
g0
(g73
g2
Ntp3105
Rp3106
(dp3107
g25
I00
sg31
I01
sg32
I00
sg42
I00
sbsg2781
g0
(g73
g2
Ntp3108
Rp3109
(dp3110
g25
I00
sg31
I01
sg32
I01
sg42
I00
sbsg2776
g0
(g121
g2
Ntp3111
Rp3112
(dp3113
g25
I00
sg31
I01
sg32
I01
sg42
g2992
sbsg59
V/cvmfs/cms.cern.ch/el8_amd64_gcc11/cms/cmssw-patch/CMSSW_13_2_5_patch1/src/Geometry/TrackerGeometryBuilder/python/idealForDigiTrackerGeometryDB_cff.py
p3114
sg61
I8
sg62
g3096
sbsVmuonGeometryConstants
p3115
g0
(g2769
g2
Ntp3116
Rp3117
(dp3118
g15
VMuonGeometryConstantsESModule
p3119
sg17
(lp3120
g2775
ag1865
asg25
I00
sg26
Nsg2775
g0
(g73
g2
Ntp3121
Rp3122
(dp3123
g25
I00
sg31
I01
sg32
I00
sg42
I00
sbsg32
I00
sg1865
g0
(g121
g2
Ntp3124
Rp3125
(dp3126
g25
I00
sg31
I01
sg32
I00
sg42
g36
sbsg59
g660
sg61
I55
sg62
g3115
sbsVtrackerGeometryDB
p3127
g0
(g2769
g2
Ntp3128
Rp3129
(dp3130
g15
g3100
sg17
(lp3131
g1865
ag2774
ag2781
ag2776
asg25
I00
sg26
Nsg1865
g0
(g121
g2
Ntp3132
Rp3133
(dp3134
g25
I00
sg31
I01
sg32
I00
sg42
g36
sbsg32
I00
sg2774
g0
(g73
g2
Ntp3135
Rp3136
(dp3137
g25
I00
sg31
I01
sg32
I00
sg42
I00
sbsg2781
g0
(g73
g2
Ntp3138
Rp3139
(dp3140
g25
I00
sg31
I01
sg32
I00
sg42
I01
sbsg2776
g0
(g121
g2
Ntp3141
Rp3142
(dp3143
g25
I00
sg31
I01
sg32
I00
sg42
g36
sbsg59
g660
sg61
I55
sg62
g3127
sbsVtrackerNumberingGeometryDB
p3144
g0
(g2769
g2
Ntp3145
Rp3146
(dp3147
g15
VTrackerGeometricDetESModule
p3148
sg17
(lp3149
g2774
ag2775
ag1865
asg25
I00
sg26
Nsg2774
g0
(g73
g2
Ntp3150
Rp3151
(dp3152
g25
I00
sg31
I01
sg32
I00
sg42
I00
sbsg32
I00
sg2775
g0
(g73
g2
Ntp3153
Rp3154
(dp3155
g25
I00
sg31
I01
sg32
I00
sg42
I00
sbsg1865
g0
(g121
g2
Ntp3156
Rp3157
(dp3158
g25
I00
sg31
I01
sg32
I00
sg42
g36
sbsg59
g660
sg61
I55
sg62
g3144
sbsVtrackerTopology
p3159
g0
(g2769
g2
Ntp3160
Rp3161
(dp3162
g15
VTrackerTopologyEP
p3163
sg17
(lp3164
g1865
asg25
I00
sg26
Nsg1865
g0
(g121
g2
Ntp3165
Rp3166
(dp3167
g25
I00
sg31
I01
sg32
I00
sg42
g36
sbsg32
I00
sg59
g660
sg61
I55
sg62
g3159
sbsVMuonNumberingInitialization
p3168
g0
(g2769
g2
Ntp3169
Rp3170
(dp3171
g15
g3168
sg17
(lp3172
sg25
I00
sg26
Nsg32
I00
sg59
g660
sg61
I55
sg62
g3168
sbsVXMLFromDBSource
p3173
g0
(g2769
g2
Ntp3174
Rp3175
(dp3176
g15
VXMLIdealGeometryESProducer
p3177
sg17
(lp3178
VrootDDName
p3179
ag1819
asg25
I00
sg26
Nsg3179
g0
(g121
g2
Ntp3180
Rp3181
(dp3182
g25
I00
sg31
I01
sg32
I00
sg42
Vcms:OCMS
p3183
sbsg32
I00
sg1819
g0
(g121
g2
Ntp3184
Rp3185
(dp3186
g25
I00
sg31
I01
sg32
I00
sg42
VExtended
p3187
sbsg59
g660
sg61
I55
sg62
g3173
sbsVcaloSimulationParameters
p3188
g0
(g2769
g2
Ntp3189
Rp3190
(dp3191
g15
VCaloSimParametersESModule
p3192
sg17
(lp3193
g2775
ag1865
asg25
I00
sg26
Nsg2775
g0
(g73
g2
Ntp3194
Rp3195
(dp3196
g25
I00
sg31
I01
sg32
I00
sg42
I00
sbsg32
I00
sg1865
g0
(g121
g2
Ntp3197
Rp3198
(dp3199
g25
I00
sg31
I01
sg32
I00
sg42
g36
sbsg59
g660
sg61
I55
sg62
g3188
sbsVecalSimulationParametersEB
p3200
g0
(g2769
g2
Ntp3201
Rp3202
(dp3203
g15
VEcalSimParametersESModule
p3204
sg17
(lp3205
g2775
aVname
p3206
ag1865
asg25
I00
sg26
Nsg2775
g0
(g73
g2
Ntp3207
Rp3208
(dp3209
g25
I00
sg31
I01
sg32
I00
sg42
I00
sbsg32
I00
sg3206
g0
(g121
g2
Ntp3210
Rp3211
(dp3212
g25
I00
sg31
I01
sg32
I00
sg42
VEcalHitsEB
p3213
sbsg1865
g0
(g121
g2
Ntp3214
Rp3215
(dp3216
g25
I00
sg31
I01
sg32
I00
sg42
g36
sbsg59
g660
sg61
I55
sg62
g3200
sbsVecalSimulationParametersEE
p3217
g0
(g2769
g2
Ntp3218
Rp3219
(dp3220
g15
g3204
sg17
(lp3221
g2775
ag3206
ag1865
asg25
I00
sg26
Nsg2775
g0
(g73
g2
Ntp3222
Rp3223
(dp3224
g25
I00
sg31
I01
sg32
I00
sg42
I00
sbsg32
I00
sg3206
g0
(g121
g2
Ntp3225
Rp3226
(dp3227
g25
I00
sg31
I01
sg32
I01
sg42
VEcalHitsEE
p3228
sbsg1865
g0
(g121
g2
Ntp3229
Rp3230
(dp3231
g25
I00
sg31
I01
sg32
I00
sg42
g36
sbsg59
V/cvmfs/cms.cern.ch/el8_amd64_gcc11/cms/cmssw-patch/CMSSW_13_2_5_patch1/src/Geometry/EcalCommonData/python/ecalSimulationParameters_cff.py
p3232
sg61
I11
sg62
g3217
sbsVecalSimulationParametersES
p3233
g0
(g2769
g2
Ntp3234
Rp3235
(dp3236
g15
g3204
sg17
(lp3237
g2775
ag3206
ag1865
asg25
I00
sg26
Nsg2775
g0
(g73
g2
Ntp3238
Rp3239
(dp3240
g25
I00
sg31
I01
sg32
I00
sg42
I00
sbsg32
I00
sg3206
g0
(g121
g2
Ntp3241
Rp3242
(dp3243
g25
I00
sg31
I01
sg32
I01
sg42
VEcalHitsES
p3244
sbsg1865
g0
(g121
g2
Ntp3245
Rp3246
(dp3247
g25
I00
sg31
I01
sg32
I00
sg42
g36
sbsg59
g3232
sg61
I14
sg62
g3233
sbsVhcalSimulationConstants
p3248
g0
(g2769
g2
Ntp3249
Rp3250
(dp3251
g15
VHcalSimulationConstantsESModule
p3252
sg17
(lp3253
g1865
asg25
I00
sg26
Nsg1865
g0
(g121
g2
Ntp3254
Rp3255
(dp3256
g25
I00
sg31
I01
sg32
I00
sg42
g36
sbsg32
I00
sg59
g660
sg61
I55
sg62
g3248
sbsVhcalSimulationParameters
p3257
g0
(g2769
g2
Ntp3258
Rp3259
(dp3260
g15
VHcalSimParametersESModule
p3261
sg17
(lp3262
g2775
ag1865
asg25
I00
sg26
Nsg2775
g0
(g73
g2
Ntp3263
Rp3264
(dp3265
g25
I00
sg31
I01
sg32
I00
sg42
I00
sbsg32
I00
sg1865
g0
(g121
g2
Ntp3266
Rp3267
(dp3268
g25
I00
sg31
I01
sg32
I00
sg42
g36
sbsg59
g660
sg61
I55
sg62
g3257
sbsVmuonOffsetESProducer
p3269
g0
(g2769
g2
Ntp3270
Rp3271
(dp3272
g15
VMuonOffsetESProducer
p3273
sg17
(lp3274
g2775
aVnames
p3275
ag1865
asg25
I00
sg26
Nsg2775
g0
(g73
g2
Ntp3276
Rp3277
(dp3278
g25
I00
sg31
I01
sg32
I00
sg42
I00
sbsg32
I00
sg3275
g0
(g105
g47
(lp3279
VMuonCommonNumbering
p3280
aVMuonBarrel
p3281
aVMuonEndcap
p3282
aVMuonBarrelWheels
p3283
aVMuonBarrelStation1
p3284
aVMuonBarrelStation2
p3285
aVMuonBarrelStation3
p3286
aVMuonBarrelStation4
p3287
aVMuonBarrelSuperLayer
p3288
aVMuonBarrelLayer
p3289
aVMuonBarrelWire
p3290
aVMuonRpcPlane1I
p3291
aVMuonRpcPlane1O
p3292
aVMuonRpcPlane2I
p3293
aVMuonRpcPlane2O
p3294
aVMuonRpcPlane3S
p3295
aVMuonRpcPlane4
p3296
aVMuonRpcChamberLeft
p3297
aVMuonRpcChamberMiddle
p3298
aVMuonRpcChamberRight
p3299
aVMuonRpcEndcap1
p3300
aVMuonRpcEndcap2
p3301
aVMuonRpcEndcap3
p3302
aVMuonRpcEndcap4
p3303
aVMuonRpcEndcapSector
p3304
aVMuonRpcEndcapChamberB1
p3305
aVMuonRpcEndcapChamberB2
p3306
aVMuonRpcEndcapChamberB3
p3307
aVMuonRpcEndcapChamberC1
p3308
aVMuonRpcEndcapChamberC2
p3309
aVMuonRpcEndcapChamberC3
p3310
aVMuonRpcEndcapChamberE1
p3311
aVMuonRpcEndcapChamberE2
p3312
aVMuonRpcEndcapChamberE3
p3313
aVMuonRpcEndcapChamberF1
p3314
aVMuonRpcEndcapChamberF2
p3315
aVMuonRpcEndcapChamberF3
p3316
aVMuonEndcapStation1
p3317
aVMuonEndcapStation2
p3318
aVMuonEndcapStation3
p3319
aVMuonEndcapStation4
p3320
aVMuonEndcapSubrings
p3321
aVMuonEndcapSectors
p3322
aVMuonEndcapLayers
p3323
aVMuonEndcapRing1
p3324
aVMuonEndcapRing2
p3325
aVMuonEndcapRing3
p3326
aVMuonEndcapRingA
p3327
aVMuonGEMEndcap
p3328
aVMuonGEMSector
p3329
aVMuonGEMChamber
p3330
atp3331
Rp3332
(dp3333
g25
I00
sg31
I01
sg32
I00
sg451
I1
sbsg1865
g0
(g121
g2
Ntp3334
Rp3335
(dp3336
g25
I00
sg31
I01
sg32
I00
sg42
g36
sbsg59
g660
sg61
I55
sg62
g3269
sbsVParabolicParametrizedMagneticFieldProducer
p3337
g0
(g2769
g2
Ntp3338
Rp3339
(dp3340
g15
VAutoParametrizedMagneticFieldProducer
p3341
sg17
(lp3342
Vversion
p3343
ag1819
aVvalueOverride
p3344
asg25
I00
sg26
Nsg3343
g0
(g121
g2
Ntp3345
Rp3346
(dp3347
g25
I00
sg31
I01
sg32
I00
sg42
VParabolic
p3348
sbsg32
I01
sg1819
g0
(g121
g2
Ntp3349
Rp3350
(dp3351
g25
I00
sg31
I00
sg32
I01
sg42
VParabolicMf
p3352
sbsg3344
g0
(g52
g2
Ntp3353
Rp3354
(dp3355
g25
I00
sg31
I01
sg32
I01
sg42
I18268
sbsg59
g660
sg61
I55
sg62
g3337
sbsVVolumeBasedMagneticFieldESProducer
p3356
g0
(g2769
g2
Ntp3357
Rp3358
(dp3359
g15
VVolumeBasedMagneticFieldESProducerFromDB
p3360
sg17
(lp3361
g1819
aVdebugBuilder
p3362
ag3344
asg25
I00
sg26
Nsg1819
g0
(g121
g2
Ntp3363
Rp3364
(dp3365
g25
I00
sg31
I00
sg32
I00
sg42
g36
sbsg32
I01
sg3362
g0
(g73
g2
Ntp3366
Rp3367
(dp3368
g25
I00
sg31
I00
sg32
I00
sg42
I00
sbsg3344
g0
(g52
g2
Ntp3369
Rp3370
(dp3371
g25
I00
sg31
I01
sg32
I01
sg42
I18268
sbsg59
g660
sg61
I55
sg62
g3356
sbsVCastorDbProducer
p3372
g0
(g2769
g2
Ntp3373
Rp3374
(dp3375
g15
g3372
sg17
(lp3376
g1865
asg25
I00
sg26
Nsg1865
g0
(g121
g2
Ntp3377
Rp3378
(dp3379
g25
I00
sg31
I01
sg32
I00
sg42
g36
sbsg32
I00
sg59
g660
sg61
I55
sg62
g3372
sbsVEcalLaserCorrectionService
p3380
g0
(g2769
g2
Ntp3381
Rp3382
(dp3383
g15
g3380
sg17
(lp3384
VmaxExtrapolationTimeInSec
p3385
asg25
I00
sg26
Nsg3385
g0
(g581
g2
Ntp3386
Rp3387
(dp3388
g25
I00
sg31
I01
sg32
I00
sg42
I0
sbsg32
I00
sg59
g660
sg61
I55
sg62
g3380
sbsVEcalLaserCorrectionServiceMC
p3389
g0
(g2769
g2
Ntp3390
Rp3391
(dp3392
g15
g3389
sg17
(lp3393
g1865
asg25
I00
sg26
Nsg1865
g0
(g121
g2
Ntp3394
Rp3395
(dp3396
g25
I00
sg31
I01
sg32
I00
sg42
g36
sbsg32
I00
sg59
g660
sg61
I55
sg62
g3389
sbsVSiStripRecHitMatcherESProducer
p3397
g0
(g2769
g2
Ntp3398
Rp3399
(dp3400
g15
g3397
sg17
(lp3401
VComponentName
p3402
aVNSigmaInside
p3403
aVPreFilter
p3404
asg25
I00
sg26
Nsg3402
g0
(g121
g2
Ntp3405
Rp3406
(dp3407
g25
I00
sg31
I01
sg32
I00
sg42
VStandardMatcher
p3408
sbsg32
I00
sg3403
g0
(g38
g2
Ntp3409
Rp3410
(dp3411
g25
I00
sg31
I01
sg32
I00
sg42
F3.0
sbsg3404
g0
(g73
g2
Ntp3412
Rp3413
(dp3414
g25
I00
sg31
I01
sg32
I00
sg42
I00
sbsg59
g660
sg61
I55
sg62
g3397
sbsVStripCPEfromTrackAngleESProducer
p3415
g0
(g2769
g2
Ntp3416
Rp3417
(dp3418
g15
VStripCPEESProducer
p3419
sg17
(lp3420
g3402
aVComponentType
p3421
aVparameters
p3422
asg25
I00
sg26
Nsg3402
g0
(g121
g2
Ntp3423
Rp3424
(dp3425
g25
I00
sg31
I01
sg32
I01
sg42
VStripCPEfromTrackAngle
p3426
sbsg32
I00
sg3421
g0
(g121
g2
Ntp3427
Rp3428
(dp3429
g25
I00
sg31
I01
sg32
I01
sg42
g3426
sbsg3422
g0
(g693
g2
Ntp3430
Rp3431
(dp3432
g25
I00
sg31
I01
sg32
I00
sg17
(lp3433
VmLC_P0
p3434
aVmLC_P1
p3435
aVmLC_P2
p3436
aVmTIB_P0
p3437
aVmTIB_P1
p3438
aVmTOB_P0
p3439
aVmTOB_P1
p3440
aVmTID_P0
p3441
aVmTID_P1
p3442
aVmTEC_P0
p3443
aVmTEC_P1
p3444
aVuseLegacyError
p3445
aVmaxChgOneMIP
p3446
asg26
Nsg3434
g0
(g38
g2
Ntp3447
Rp3448
(dp3449
g25
I00
sg31
I01
sg32
I00
sg42
F-0.326
sbsg3435
g0
(g38
g2
Ntp3450
Rp3451
(dp3452
g25
I00
sg31
I01
sg32
I00
sg42
F0.618
sbsg3436
g0
(g38
g2
Ntp3453
Rp3454
(dp3455
g25
I00
sg31
I01
sg32
I00
sg42
F0.3
sbsg3437
g0
(g38
g2
Ntp3456
Rp3457
(dp3458
g25
I00
sg31
I01
sg32
I00
sg42
F-0.742
sbsg3438
g0
(g38
g2
Ntp3459
Rp3460
(dp3461
g25
I00
sg31
I01
sg32
I00
sg42
F0.202
sbsg3439
g0
(g38
g2
Ntp3462
Rp3463
(dp3464
g25
I00
sg31
I01
sg32
I00
sg42
F-1.026
sbsg3440
g0
(g38
g2
Ntp3465
Rp3466
(dp3467
g25
I00
sg31
I01
sg32
I00
sg42
F0.253
sbsg3441
g0
(g38
g2
Ntp3468
Rp3469
(dp3470
g25
I00
sg31
I01
sg32
I00
sg42
F-1.427
sbsg3442
g0
(g38
g2
Ntp3471
Rp3472
(dp3473
g25
I00
sg31
I01
sg32
I00
sg42
F0.433
sbsg3443
g0
(g38
g2
Ntp3474
Rp3475
(dp3476
g25
I00
sg31
I01
sg32
I00
sg42
F-1.885
sbsg3444
g0
(g38
g2
Ntp3477
Rp3478
(dp3479
g25
I00
sg31
I01
sg32
I00
sg42
F0.471
sbsg3445
g0
(g73
g2
Ntp3480
Rp3481
(dp3482
g25
I00
sg31
I01
sg32
I00
sg42
I00
sbsg3446
g0
(g38
g2
Ntp3483
Rp3484
(dp3485
g25
I00
sg31
I01
sg32
I00
sg42
F6000.0
sbsbsg59
V/cvmfs/cms.cern.ch/el8_amd64_gcc11/cms/cmssw-patch/CMSSW_13_2_5_patch1/src/RecoLocalTracker/SiStripRecHitConverter/python/StripCPEfromTrackAngle_cfi.py
p3486
sg61
I4
sg62
g3415
sbsVctppsBeamParametersFromLHCInfoESSource
p3487
g0
(g2769
g2
Ntp3488
Rp3489
(dp3490
g15
VCTPPSBeamParametersFromLHCInfoESSource
p3491
sg17
(lp3492
VlhcInfoLabel
p3493
aVbeamDivX45
p3494
aVbeamDivY45
p3495
aVbeamDivX56
p3496
aVbeamDivY56
p3497
aVvtxOffsetX45
p3498
aVvtxOffsetY45
p3499
aVvtxOffsetZ45
p3500
aVvtxOffsetX56
p3501
aVvtxOffsetY56
p3502
aVvtxOffsetZ56
p3503
aVvtxStddevX
p3504
aVvtxStddevY
p3505
aVvtxStddevZ
p3506
ag1865
asg25
I00
sg26
Nsg3493
g0
(g121
g2
Ntp3507
Rp3508
(dp3509
g25
I00
sg31
I01
sg32
I00
sg42
g36
sbsg32
I00
sg3494
g0
(g38
g2
Ntp3510
Rp3511
(dp3512
g25
I00
sg31
I01
sg32
I00
sg42
F0.1
sbsg3495
g0
(g38
g2
Ntp3513
Rp3514
(dp3515
g25
I00
sg31
I01
sg32
I00
sg42
F0.1
sbsg3496
g0
(g38
g2
Ntp3516
Rp3517
(dp3518
g25
I00
sg31
I01
sg32
I00
sg42
F0.1
sbsg3497
g0
(g38
g2
Ntp3519
Rp3520
(dp3521
g25
I00
sg31
I01
sg32
I00
sg42
F0.1
sbsg3498
g0
(g38
g2
Ntp3522
Rp3523
(dp3524
g25
I00
sg31
I01
sg32
I00
sg42
F0.01
sbsg3499
g0
(g38
g2
Ntp3525
Rp3526
(dp3527
g25
I00
sg31
I01
sg32
I00
sg42
F0.01
sbsg3500
g0
(g38
g2
Ntp3528
Rp3529
(dp3530
g25
I00
sg31
I01
sg32
I00
sg42
F0.01
sbsg3501
g0
(g38
g2
Ntp3531
Rp3532
(dp3533
g25
I00
sg31
I01
sg32
I00
sg42
F0.01
sbsg3502
g0
(g38
g2
Ntp3534
Rp3535
(dp3536
g25
I00
sg31
I01
sg32
I00
sg42
F0.01
sbsg3503
g0
(g38
g2
Ntp3537
Rp3538
(dp3539
g25
I00
sg31
I01
sg32
I00
sg42
F0.01
sbsg3504
g0
(g38
g2
Ntp3540
Rp3541
(dp3542
g25
I00
sg31
I01
sg32
I00
sg42
F0.02
sbsg3505
g0
(g38
g2
Ntp3543
Rp3544
(dp3545
g25
I00
sg31
I01
sg32
I00
sg42
F0.02
sbsg3506
g0
(g38
g2
Ntp3546
Rp3547
(dp3548
g25
I00
sg31
I01
sg32
I00
sg42
F0.02
sbsg1865
g0
(g121
g2
Ntp3549
Rp3550
(dp3551
g25
I00
sg31
I01
sg32
I00
sg42
g36
sbsg59
g660
sg61
I55
sg62
g3487
sbsVctppsInterpolatedOpticalFunctionsESSource
p3552
g0
(g2769
g2
Ntp3553
Rp3554
(dp3555
g15
VCTPPSInterpolatedOpticalFunctionsESSource
p3556
sg17
(lp3557
g3493
aVopticsLabel
p3558
ag1865
asg25
I00
sg26
Nsg3493
g0
(g121
g2
Ntp3559
Rp3560
(dp3561
g25
I00
sg31
I01
sg32
I00
sg42
g36
sbsg32
I01
sg3558
g0
(g121
g2
Ntp3562
Rp3563
(dp3564
g25
I00
sg31
I01
sg32
I00
sg42
g36
sbsg1865
g0
(g121
g2
Ntp3565
Rp3566
(dp3567
g25
I00
sg31
I01
sg32
I00
sg42
g36
sbsg59
g660
sg61
I55
sg62
g3552
sbsVhcal_db_producer
p3568
g0
(g2769
g2
Ntp3569
Rp3570
(dp3571
g15
VHcalDbProducer
p3572
sg17
(lp3573
Vdump
p3574
aVfile
p3575
asg25
I00
sg26
Nsg3574
g0
(g105
g47
(lp3576
g36
atp3577
Rp3578
(dp3579
g25
I00
sg31
I00
sg32
I00
sg451
I1
sbsg32
I00
sg3575
g0
(g121
g2
Ntp3580
Rp3581
(dp3582
g25
I00
sg31
I00
sg32
I00
sg42
g36
sbsg59
g660
sg61
I55
sg62
g3568
sbsVmultipleScatteringParametrisationMakerESProducer
p3583
g0
(g2769
g2
Ntp3584
Rp3585
(dp3586
g15
VMultipleScatteringParametrisationMakerESProducer
p3587
sg17
(lp3588
g1865
asg25
I00
sg26
Nsg1865
g0
(g121
g2
Ntp3589
Rp3590
(dp3591
g25
I00
sg31
I01
sg32
I00
sg42
g36
sbsg32
I00
sg59
g660
sg61
I55
sg62
g3583
sbsVsiPixelQualityESProducer
p3592
g0
(g2769
g2
Ntp3593
Rp3594
(dp3595
g15
VSiPixelQualityESProducer
p3596
sg17
(lp3597
VsiPixelQualityLabel
p3598
aVsiPixelQualityLabel_RawToDigi
p3599
aVListOfRecordToMerge
p3600
ag1865
asg25
I00
sg26
Nsg3598
g0
(g121
g2
Ntp3601
Rp3602
(dp3603
g25
I00
sg31
I01
sg32
I00
sg42
g36
sbsg32
I01
sg3599
g0
(g121
g2
Ntp3604
Rp3605
(dp3606
g25
I00
sg31
I01
sg32
I00
sg42
g36
sbsg3600
g0
(g691
g47
(lp3607
g0
(g693
g2
Ntp3608
Rp3609
(dp3610
g25
I00
sg31
I01
sg32
I00
sg17
(lp3611
g1817
ag1818
asg26
Nsg1817
g0
(g121
g2
Ntp3612
Rp3613
(dp3614
g25
I00
sg31
I01
sg32
I00
sg42
VSiPixelQualityFromDbRcd
p3615
sbsg1818
g0
(g121
g2
Ntp3616
Rp3617
(dp3618
g25
I00
sg31
I01
sg32
I00
sg42
g36
sbsbag0
(g693
g2
Ntp3619
Rp3620
(dp3621
g25
I00
sg31
I01
sg32
I00
sg17
(lp3622
g1817
ag1818
asg26
Nsg1817
g0
(g121
g2
Ntp3623
Rp3624
(dp3625
g25
I00
sg31
I01
sg32
I00
sg42
VSiPixelDetVOffRcd
p3626
sbsg1818
g0
(g121
g2
Ntp3627
Rp3628
(dp3629
g25
I00
sg31
I01
sg32
I00
sg42
g36
sbsbatp3630
Rp3631
(dp3632
g25
I00
sg31
I01
sg32
I00
sg451
I1
sbsg1865
g0
(g121
g2
Ntp3633
Rp3634
(dp3635
g25
I00
sg31
I01
sg32
I00
sg42
g36
sbsg59
g660
sg61
I55
sg62
g3592
sbsVsiStripBackPlaneCorrectionDepESProducer
p3636
g0
(g2769
g2
Ntp3637
Rp3638
(dp3639
g15
VSiStripBackPlaneCorrectionDepESProducer
p3640
sg17
(lp3641
VLatencyRecord
p3642
aVBackPlaneCorrectionPeakMode
p3643
aVBackPlaneCorrectionDeconvMode
p3644
asg25
I00
sg26
Nsg3642
g0
(g693
g2
Ntp3645
Rp3646
(dp3647
g25
I00
sg31
I01
sg32
I00
sg17
(lp3648
g1817
ag1819
asg26
Nsg1817
g0
(g121
g2
Ntp3649
Rp3650
(dp3651
g25
I00
sg31
I01
sg32
I00
sg42
VSiStripLatencyRcd
p3652
sbsg1819
g0
(g121
g2
Ntp3653
Rp3654
(dp3655
g25
I00
sg31
I00
sg32
I00
sg42
g36
sbsbsg32
I00
sg3643
g0
(g693
g2
Ntp3656
Rp3657
(dp3658
g25
I00
sg31
I01
sg32
I00
sg17
(lp3659
g1817
ag1819
asg26
Nsg1817
g0
(g121
g2
Ntp3660
Rp3661
(dp3662
g25
I00
sg31
I01
sg32
I00
sg42
VSiStripBackPlaneCorrectionRcd
p3663
sbsg1819
g0
(g121
g2
Ntp3664
Rp3665
(dp3666
g25
I00
sg31
I00
sg32
I00
sg42
Vpeak
p3667
sbsbsg3644
g0
(g693
g2
Ntp3668
Rp3669
(dp3670
g25
I00
sg31
I01
sg32
I00
sg17
(lp3671
g1817
ag1819
asg26
Nsg1817
g0
(g121
g2
Ntp3672
Rp3673
(dp3674
g25
I00
sg31
I01
sg32
I00
sg42
g3663
sbsg1819
g0
(g121
g2
Ntp3675
Rp3676
(dp3677
g25
I00
sg31
I00
sg32
I00
sg42
Vdeconvolution
p3678
sbsbsg59
g660
sg61
I55
sg62
g3636
sbsVsiStripGainESProducer
p3679
g0
(g2769
g2
Ntp3680
Rp3681
(dp3682
g15
VSiStripGainESProducer
p3683
sg17
(lp3684
g1865
aVprintDebug
p3685
aVAutomaticNormalization
p3686
aVAPVGain
p3687
asg25
I00
sg26
Nsg1865
g0
(g121
g2
Ntp3688
Rp3689
(dp3690
g25
I00
sg31
I01
sg32
I00
sg42
g36
sbsg32
I00
sg3685
g0
(g73
g2
Ntp3691
Rp3692
(dp3693
g25
I00
sg31
I00
sg32
I00
sg42
I00
sbsg3686
g0
(g73
g2
Ntp3694
Rp3695
(dp3696
g25
I00
sg31
I01
sg32
I00
sg42
I00
sbsg3687
g0
(g691
g47
(lp3697
g0
(g693
g2
Ntp3698
Rp3699
(dp3700
g25
I00
sg31
I01
sg32
I00
sg17
(lp3701
VRecord
p3702
aVLabel
p3703
aVNormalizationFactor
p3704
asg26
Nsg3702
g0
(g121
g2
Ntp3705
Rp3706
(dp3707
g25
I00
sg31
I01
sg32
I00
sg42
VSiStripApvGainRcd
p3708
sbsg3703
g0
(g121
g2
Ntp3709
Rp3710
(dp3711
g25
I00
sg31
I00
sg32
I00
sg42
g36
sbsg3704
g0
(g38
g2
Ntp3712
Rp3713
(dp3714
g25
I00
sg31
I00
sg32
I00
sg42
F1.0
sbsbag0
(g693
g2
Ntp3715
Rp3716
(dp3717
g25
I00
sg31
I01
sg32
I00
sg17
(lp3718
g3702
ag3703
ag3704
asg26
Nsg3702
g0
(g121
g2
Ntp3719
Rp3720
(dp3721
g25
I00
sg31
I01
sg32
I00
sg42
VSiStripApvGain2Rcd
p3722
sbsg3703
g0
(g121
g2
Ntp3723
Rp3724
(dp3725
g25
I00
sg31
I00
sg32
I00
sg42
g36
sbsg3704
g0
(g38
g2
Ntp3726
Rp3727
(dp3728
g25
I00
sg31
I00
sg32
I00
sg42
F1.0
sbsbatp3729
Rp3730
(dp3731
g25
I00
sg31
I01
sg32
I00
sg451
I1
sbsg59
g660
sg61
I55
sg62
g3679
sbsVsiStripLorentzAngleDepESProducer
p3732
g0
(g2769
g2
Ntp3733
Rp3734
(dp3735
g15
VSiStripLorentzAngleDepESProducer
p3736
sg17
(lp3737
g3642
aVLorentzAnglePeakMode
p3738
aVLorentzAngleDeconvMode
p3739
asg25
I00
sg26
Nsg3642
g0
(g693
g2
Ntp3740
Rp3741
(dp3742
g25
I00
sg31
I01
sg32
I00
sg17
(lp3743
g1817
ag1819
asg26
Nsg1817
g0
(g121
g2
Ntp3744
Rp3745
(dp3746
g25
I00
sg31
I01
sg32
I00
sg42
g3652
sbsg1819
g0
(g121
g2
Ntp3747
Rp3748
(dp3749
g25
I00
sg31
I00
sg32
I00
sg42
g36
sbsbsg32
I00
sg3738
g0
(g693
g2
Ntp3750
Rp3751
(dp3752
g25
I00
sg31
I01
sg32
I00
sg17
(lp3753
g1817
ag1819
asg26
Nsg1817
g0
(g121
g2
Ntp3754
Rp3755
(dp3756
g25
I00
sg31
I01
sg32
I00
sg42
VSiStripLorentzAngleRcd
p3757
sbsg1819
g0
(g121
g2
Ntp3758
Rp3759
(dp3760
g25
I00
sg31
I00
sg32
I00
sg42
g3667
sbsbsg3739
g0
(g693
g2
Ntp3761
Rp3762
(dp3763
g25
I00
sg31
I01
sg32
I00
sg17
(lp3764
g1817
ag1819
asg26
Nsg1817
g0
(g121
g2
Ntp3765
Rp3766
(dp3767
g25
I00
sg31
I01
sg32
I00
sg42
g3757
sbsg1819
g0
(g121
g2
Ntp3768
Rp3769
(dp3770
g25
I00
sg31
I00
sg32
I00
sg42
g3678
sbsbsg59
g660
sg61
I55
sg62
g3732
sbsVsiStripQualityESProducer
p3771
g0
(g2769
g2
Ntp3772
Rp3773
(dp3774
g15
VSiStripQualityESProducer
p3775
sg17
(lp3776
g1865
ag3600
aVReduceGranularity
p3777
aVThresholdForReducedGranularity
p3778
aVPrintDebugOutput
p3779
aVUseEmptyRunInfo
p3780
asg25
I00
sg26
Nsg1865
g0
(g121
g2
Ntp3781
Rp3782
(dp3783
g25
I00
sg31
I01
sg32
I00
sg42
g36
sbsg32
I01
sg3600
g0
(g691
g47
(lp3784
g0
(g693
g2
Ntp3785
Rp3786
(dp3787
g25
I00
sg31
I01
sg32
I00
sg17
(lp3788
g1817
ag1818
asg26
Nsg1817
g0
(g121
g2
Ntp3789
Rp3790
(dp3791
g25
I00
sg31
I01
sg32
I00
sg42
VSiStripDetVOffRcd
p3792
sbsg1818
g0
(g121
g2
Ntp3793
Rp3794
(dp3795
g25
I00
sg31
I01
sg32
I00
sg42
g36
sbsbag0
(g693
g2
Ntp3796
Rp3797
(dp3798
g25
I00
sg31
I01
sg32
I00
sg17
(lp3799
g1817
ag1818
asg26
Nsg1817
g0
(g121
g2
Ntp3800
Rp3801
(dp3802
g25
I00
sg31
I01
sg32
I00
sg42
VSiStripDetCablingRcd
p3803
sbsg1818
g0
(g121
g2
Ntp3804
Rp3805
(dp3806
g25
I00
sg31
I01
sg32
I00
sg42
g36
sbsbag0
(g693
g2
Ntp3807
Rp3808
(dp3809
g25
I00
sg31
I01
sg32
I00
sg17
(lp3810
g1817
ag1818
asg26
Nsg1817
g0
(g121
g2
Ntp3811
Rp3812
(dp3813
g25
I00
sg31
I01
sg32
I00
sg42
VRunInfoRcd
p3814
sbsg1818
g0
(g121
g2
Ntp3815
Rp3816
(dp3817
g25
I00
sg31
I01
sg32
I00
sg42
g36
sbsbag0
(g693
g2
Ntp3818
Rp3819
(dp3820
g25
I00
sg31
I01
sg32
I00
sg17
(lp3821
g1817
ag1818
asg26
Nsg1817
g0
(g121
g2
Ntp3822
Rp3823
(dp3824
g25
I00
sg31
I01
sg32
I00
sg42
VSiStripBadChannelRcd
p3825
sbsg1818
g0
(g121
g2
Ntp3826
Rp3827
(dp3828
g25
I00
sg31
I01
sg32
I00
sg42
g36
sbsbag0
(g693
g2
Ntp3829
Rp3830
(dp3831
g25
I00
sg31
I01
sg32
I00
sg17
(lp3832
g1817
ag1818
asg26
Nsg1817
g0
(g121
g2
Ntp3833
Rp3834
(dp3835
g25
I00
sg31
I01
sg32
I00
sg42
VSiStripBadFiberRcd
p3836
sbsg1818
g0
(g121
g2
Ntp3837
Rp3838
(dp3839
g25
I00
sg31
I01
sg32
I00
sg42
g36
sbsbag0
(g693
g2
Ntp3840
Rp3841
(dp3842
g25
I00
sg31
I01
sg32
I00
sg17
(lp3843
g1817
ag1818
asg26
Nsg1817
g0
(g121
g2
Ntp3844
Rp3845
(dp3846
g25
I00
sg31
I01
sg32
I00
sg42
VSiStripBadModuleRcd
p3847
sbsg1818
g0
(g121
g2
Ntp3848
Rp3849
(dp3850
g25
I00
sg31
I01
sg32
I00
sg42
g36
sbsbag0
(g693
g2
Ntp3851
Rp3852
(dp3853
g25
I00
sg31
I01
sg32
I00
sg17
(lp3854
g1817
ag1818
asg26
Nsg1817
g0
(g121
g2
Ntp3855
Rp3856
(dp3857
g25
I00
sg31
I01
sg32
I00
sg42
VSiStripBadStripRcd
p3858
sbsg1818
g0
(g121
g2
Ntp3859
Rp3860
(dp3861
g25
I00
sg31
I01
sg32
I00
sg42
g36
sbsbatp3862
Rp3863
(dp3864
g25
I00
sg31
I01
sg32
I00
sg451
I1
sbsg3777
g0
(g73
g2
Ntp3865
Rp3866
(dp3867
g25
I00
sg31
I01
sg32
I00
sg42
I00
sbsg3778
g0
(g38
g2
Ntp3868
Rp3869
(dp3870
g25
I00
sg31
I01
sg32
I00
sg42
F0.3
sbsg3779
g0
(g73
g2
Ntp3871
Rp3872
(dp3873
g25
I00
sg31
I01
sg32
I00
sg42
I00
sbsg3780
g0
(g73
g2
Ntp3874
Rp3875
(dp3876
g25
I00
sg31
I01
sg32
I00
sg42
I00
sbsg59
g660
sg61
I55
sg62
g3771
sbsVsistripconn
p3877
g0
(g2769
g2
Ntp3878
Rp3879
(dp3880
g15
VSiStripConnectivity
p3881
sg17
(lp3882
sg25
I00
sg26
Nsg32
I00
sg59
g660
sg61
I55
sg62
g3877
sbsVstripCPEESProducer
p3883
g0
(g2769
g2
Ntp3884
Rp3885
(dp3886
g15
g3419
sg17
(lp3887
g3402
ag3421
ag3422
asg25
I00
sg26
Nsg3402
g0
(g121
g2
Ntp3888
Rp3889
(dp3890
g25
I00
sg31
I01
sg32
I00
sg42
VstripCPE
p3891
sbsg32
I00
sg3421
g0
(g121
g2
Ntp3892
Rp3893
(dp3894
g25
I00
sg31
I01
sg32
I00
sg42
VSimpleStripCPE
p3895
sbsg3422
g0
(g693
g2
Ntp3896
Rp3897
(dp3898
g25
I00
sg31
I01
sg32
I00
sg17
(lp3899
sg26
Nsbsg59
g660
sg61
I55
sg62
g3883
sbssV_Process__esprefers
p3900
(dp3901
Ves_prefer_hcalHardcode
p3902
g0
(cFWCore.ParameterSet.Modules
ESPrefer
p3903
g2
Ntp3904
Rp3905
(dp3906
g15
g2034
sg17
(lp3907
sg25
I00
sg26
Nsg32
I00
sg59
g660
sg61
I91
sV_targetLabel
p3908
g2030
sg62
g3902
sbssV_Process__aliases
p3909
(dp3910
sV_Process__psets
p3911
(dp3912
VmaxLuminosityBlocks
p3913
g0
(g693
g2
Ntp3914
Rp3915
(dp3916
g25
I00
sg31
I00
sg32
I00
sg17
(lp3917
Vinput
p3918
asg26
Nsg3918
g0
(g52
g2
Ntp3919
Rp3920
(dp3921
g25
I00
sg31
I00
sg32
I00
sg42
I-1
sbsg62
g3913
sbsVnanoDQMIO_perLSoutput
p3922
g0
(g693
g2
Ntp3923
Rp3924
(dp3925
g25
I00
sg31
I01
sg32
I00
sg17
(lp3926
g1211
asg26
Nsg1211
g0
(g105
g47
(lp3927
g1223
ag1224
ag1225
ag1226
ag1227
ag1228
ag1229
ag1230
ag1231
ag1232
ag1233
ag1234
ag1235
ag1236
ag1237
ag1238
ag1239
ag1240
ag1241
ag1242
ag1243
ag1244
ag1245
ag1246
ag1247
ag1248
ag1249
ag1250
ag1251
ag1252
ag1253
ag1254
ag1255
ag1256
ag1257
ag1258
ag1259
ag1260
ag1261
ag1262
ag1263
ag1264
ag1265
ag1266
ag1267
ag1268
ag1269
ag1270
ag1271
ag1272
ag1273
ag1274
ag1275
ag1276
ag1277
ag1278
ag1279
ag1280
ag1281
ag1282
ag1283
ag1284
ag1285
ag1286
ag1287
ag1288
ag1289
ag1290
ag1291
ag1292
ag1293
ag1294
ag1295
ag1296
ag1297
ag1298
ag1299
ag1300
ag1301
ag1302
ag1303
ag1304
ag1305
ag1306
ag1307
ag1308
ag1309
ag1310
ag1311
ag1312
ag1313
ag1314
ag1315
ag1316
ag1317
ag1318
ag1319
ag1320
ag1321
ag1322
ag1323
ag1324
ag1325
ag1326
ag1327
ag1328
ag1329
ag1330
ag1331
ag1332
ag1333
ag1334
ag1335
ag1336
ag1337
ag1338
ag1339
ag1340
ag1341
ag1342
ag1343
ag1344
ag1345
ag1346
ag1347
ag1348
ag1349
ag1350
ag1351
ag1352
ag1353
ag1354
ag1355
ag1356
ag1357
ag1358
ag1359
ag1360
ag1361
ag1362
ag1363
ag1364
ag1365
ag1366
ag1367
ag1368
ag1369
ag1370
ag1371
ag1372
ag1373
ag1374
ag1375
ag1376
ag1377
ag1378
ag1379
ag1380
ag1381
ag1382
ag1383
ag1384
ag1385
ag1386
ag1387
ag1388
ag1389
ag1390
ag1391
ag1392
ag1393
ag1394
ag1395
ag1396
ag1397
ag1398
ag1399
ag1400
ag1401
ag1402
ag1403
ag1404
ag1405
ag1406
ag1407
ag1408
ag1409
ag1410
ag1411
ag1412
ag1413
ag1414
ag1415
ag1416
ag1417
atp3928
Rp3929
(dp3930
g25
I00
sg31
I00
sg32
I00
sg451
I1
sbsg62
g3922
sbsVCondDB
p3931
g0
(g693
g2
Ntp3932
Rp3933
(dp3934
g25
I00
sg31
I01
sg32
I00
sg17
(lp3935
g1764
ag1765
asg26
Nsg1764
g0
(g693
g2
Ntp3936
Rp3937
(dp3938
g25
I00
sg31
I01
sg32
I00
sg17
(lp3939
g1780
ag1781
ag1782
ag1783
ag1784
asg26
Nsg1780
g0
(g121
g2
Ntp3940
Rp3941
(dp3942
g25
I00
sg31
I00
sg32
I00
sg42
g36
sbsg1781
g0
(g52
g2
Ntp3943
Rp3944
(dp3945
g25
I00
sg31
I00
sg32
I00
sg42
I0
sbsg1782
g0
(g121
g2
Ntp3946
Rp3947
(dp3948
g25
I00
sg31
I00
sg32
I00
sg42
g36
sbsg1783
g0
(g52
g2
Ntp3949
Rp3950
(dp3951
g25
I00
sg31
I00
sg32
I00
sg42
I0
sbsg1784
g0
(g52
g2
Ntp3952
Rp3953
(dp3954
g25
I00
sg31
I00
sg32
I00
sg42
I0
sbsbsg1765
g0
(g121
g2
Ntp3955
Rp3956
(dp3957
g25
I00
sg31
I01
sg32
I00
sg42
g36
sbsg62
g3931
sbsg2044
g2095
sVoptions
p3958
g0
(g693
g2
Ntp3959
Rp3960
(dp3961
g25
I00
sg31
I00
sg32
I01
sg17
(lp3962
VnumberOfThreads
p3963
aVnumberOfStreams
p3964
aVnumberOfConcurrentRuns
p3965
aVnumberOfConcurrentLuminosityBlocks
p3966
aVeventSetup
p3967
aVaccelerators
p3968
aVwantSummary
p3969
aVfileMode
p3970
aVforceEventSetupCacheClearOnNewRun
p3971
aVthrowIfIllegalParameter
p3972
aVprintDependencies
p3973
aVdeleteNonConsumedUnscheduledModules
p3974
aVsizeOfStackForThreadsInKB
p3975
aVRethrow
p3976
aVSkipEvent
p3977
aVFailPath
p3978
aVIgnoreCompletely
p3979
aVcanDeleteEarly
p3980
aVholdsReferencesToDeleteEarly
p3981
aVmodulesToIgnoreForDeleteEarly
p3982
aVdumpOptions
p3983
aVallowUnscheduled
p3984
aVemptyRunLumiMode
p3985
aVmakeTriggerResults
p3986
asg26
Nsg3963
g0
(g581
g2
Ntp3987
Rp3988
(dp3989
g25
I00
sg31
I00
sg32
I00
sg42
I1
sbsg3964
g0
(g581
g2
Ntp3990
Rp3991
(dp3992
g25
I00
sg31
I00
sg32
I00
sg42
I0
sbsg3965
g0
(g581
g2
Ntp3993
Rp3994
(dp3995
g25
I00
sg31
I00
sg32
I00
sg42
I1
sbsg3966
g0
(g581
g2
Ntp3996
Rp3997
(dp3998
g25
I00
sg31
I00
sg32
I00
sg42
I0
sbsg3967
g0
(g693
g2
Ntp3999
Rp4000
(dp4001
g25
I00
sg31
I00
sg32
I00
sg17
(lp4002
VnumberOfConcurrentIOVs
p4003
aVforceNumberOfConcurrentIOVs
p4004
asg26
Nsg4003
g0
(g581
g2
Ntp4005
Rp4006
(dp4007
g25
I00
sg31
I00
sg32
I00
sg42
I0
sbsg4004
g0
(g693
g2
Ntp4008
Rp4009
(dp4010
g25
I00
sg31
I00
sg32
I00
sg17
(lp4011
sg26
g0
(cFWCore.ParameterSet.Types
_RequiredParameter
p4012
g2
Ntp4013
Rp4014
(dp4015
g25
I00
sg31
I00
sg32
I00
sg104
g581
sg106
Nsbsbsbsg3968
g0
(g105
g47
(lp4016
V*
p4017
atp4018
Rp4019
(dp4020
g25
I00
sg31
I00
sg32
I00
sg451
I1
sbsg3969
g0
(g73
g2
Ntp4021
Rp4022
(dp4023
g25
I00
sg31
I00
sg32
I00
sg42
I01
sbsg3970
g0
(g121
g2
Ntp4024
Rp4025
(dp4026
g25
I00
sg31
I00
sg32
I00
sg42
VFULLMERGE
p4027
sbsg3971
g0
(g73
g2
Ntp4028
Rp4029
(dp4030
g25
I00
sg31
I00
sg32
I00
sg42
I00
sbsg3972
g0
(g73
g2
Ntp4031
Rp4032
(dp4033
g25
I00
sg31
I00
sg32
I00
sg42
I01
sbsg3973
g0
(g73
g2
Ntp4034
Rp4035
(dp4036
g25
I00
sg31
I00
sg32
I00
sg42
I00
sbsg3974
g0
(g73
g2
Ntp4037
Rp4038
(dp4039
g25
I00
sg31
I00
sg32
I00
sg42
I01
sbsg3975
g0
(g100
g2
Ntp4040
Rp4041
(dp4042
g25
I00
sg31
I00
sg32
I00
sg104
g581
sg106
Nsbsg3976
g0
(g105
g47
(lp4043
tp4044
Rp4045
(dp4046
g25
I00
sg31
I00
sg32
I00
sg451
I1
sbsg3977
g0
(g105
g47
(lp4047
tp4048
Rp4049
(dp4050
g25
I00
sg31
I00
sg32
I00
sg451
I1
sbsg3978
g0
(g105
g47
(lp4051
tp4052
Rp4053
(dp4054
g25
I00
sg31
I00
sg32
I00
sg451
I1
sbsg3979
g0
(g105
g47
(lp4055
tp4056
Rp4057
(dp4058
g25
I00
sg31
I00
sg32
I00
sg451
I1
sbsg3980
g0
(g105
g47
(lp4059
tp4060
Rp4061
(dp4062
g25
I00
sg31
I00
sg32
I00
sg451
I1
sbsg3981
g0
(g691
g47
(lp4063
tp4064
Rp4065
(dp4066
g25
I00
sg31
I00
sg32
I00
sg451
I1
sbsg3982
g0
(g105
g47
(lp4067
tp4068
Rp4069
(dp4070
g25
I00
sg31
I00
sg32
I00
sg451
I1
sbsg3983
g0
(g73
g2
Ntp4071
Rp4072
(dp4073
g25
I00
sg31
I00
sg32
I00
sg42
I00
sbsg3984
g0
(cFWCore.ParameterSet.Types
_ObsoleteParameter
p4074
g2
Ntp4075
Rp4076
(dp4077
g25
I00
sg31
I00
sg32
I00
sg104
g73
sg106
Nsbsg3985
g0
(g4074
g2
Ntp4078
Rp4079
(dp4080
g25
I00
sg31
I00
sg32
I00
sg104
g121
sg106
Nsbsg3986
g0
(g4074
g2
Ntp4081
Rp4082
(dp4083
g25
I00
sg31
I00
sg32
I00
sg104
g73
sg106
Nsbsg62
g3958
sbsVmaxEvents
p4084
g0
(g693
g2
Ntp4085
Rp4086
(dp4087
g25
I00
sg31
I00
sg32
I01
sg17
(lp4088
g3918
ag1172
asg26
Nsg3918
g0
(g100
g2
Ntp4089
Rp4090
(dp4091
g25
I00
sg31
I00
sg32
I00
sg104
g52
sg106
g0
(g52
g2
Ntp4092
Rp4093
(dp4094
g25
I00
sg31
I00
sg32
I00
sg42
I100
sbsbsg1172
g0
(g100
g2
Ntp4095
Rp4096
(dp4097
g25
I00
sg31
I00
sg32
I00
sg104
g0
(cFWCore.ParameterSet.Types
_AllowedParameterTypes
p4098
g2
Ntp4099
Rp4100
(dp4101
V_AllowedParameterTypes__types
p4102
(g52
g693
tp4103
sV_default
p4104
NsV__name__
p4105
Vallowed(cms.int32,cms.PSet)
p4106
sbsg106
Nsbsg62
g4084
sbssV_Process__vpsets
p4107
(dp4108
sV_cloneToObjectDict
p4109
(dp4110
L140500302791968L
g0
(g693
g2
Ntp4111
Rp4112
(dp4113
g25
I00
sg31
I00
sg32
I00
sg17
(lp4114
g3963
ag3964
ag3965
ag3966
ag3967
ag3968
ag3969
ag3970
ag3971
ag3972
ag3973
ag3974
ag3975
ag3976
ag3977
ag3978
ag3979
ag3980
ag3981
ag3982
ag3983
ag3984
ag3985
ag3986
asg26
Nsg3963
g0
(g581
g2
Ntp4115
Rp4116
(dp4117
g25
I00
sg31
I00
sg32
I00
sg42
I1
sbsg3964
g0
(g581
g2
Ntp4118
Rp4119
(dp4120
g25
I00
sg31
I00
sg32
I00
sg42
I0
sbsg3965
g0
(g581
g2
Ntp4121
Rp4122
(dp4123
g25
I00
sg31
I00
sg32
I00
sg42
I1
sbsg3966
g0
(g581
g2
Ntp4124
Rp4125
(dp4126
g25
I00
sg31
I00
sg32
I00
sg42
I0
sbsg3967
g0
(g693
g2
Ntp4127
Rp4128
(dp4129
g25
I00
sg31
I00
sg32
I00
sg17
(lp4130
g4003
ag4004
asg26
Nsg4003
g0
(g581
g2
Ntp4131
Rp4132
(dp4133
g25
I00
sg31
I00
sg32
I00
sg42
I0
sbsg4004
g0
(g693
g2
Ntp4134
Rp4135
(dp4136
g25
I00
sg31
I00
sg32
I00
sg17
(lp4137
sg26
g0
(g4012
g2
Ntp4138
Rp4139
(dp4140
g25
I00
sg31
I00
sg32
I00
sg104
g581
sg106
Nsbsbsbsg3968
g0
(g105
g47
(lp4141
g4017
atp4142
Rp4143
(dp4144
g25
I00
sg31
I00
sg32
I00
sg451
I1
sbsg3969
g0
(g73
g2
Ntp4145
Rp4146
(dp4147
g25
I00
sg31
I00
sg32
I00
sg42
I00
sbsg3970
g0
(g121
g2
Ntp4148
Rp4149
(dp4150
g25
I00
sg31
I00
sg32
I00
sg42
g4027
sbsg3971
g0
(g73
g2
Ntp4151
Rp4152
(dp4153
g25
I00
sg31
I00
sg32
I00
sg42
I00
sbsg3972
g0
(g73
g2
Ntp4154
Rp4155
(dp4156
g25
I00
sg31
I00
sg32
I00
sg42
I01
sbsg3973
g0
(g73
g2
Ntp4157
Rp4158
(dp4159
g25
I00
sg31
I00
sg32
I00
sg42
I00
sbsg3974
g0
(g73
g2
Ntp4160
Rp4161
(dp4162
g25
I00
sg31
I00
sg32
I00
sg42
I01
sbsg3975
g0
(g100
g2
Ntp4163
Rp4164
(dp4165
g25
I00
sg31
I00
sg32
I00
sg104
g581
sg106
Nsbsg3976
g0
(g105
g47
(lp4166
tp4167
Rp4168
(dp4169
g25
I00
sg31
I00
sg32
I00
sg451
I1
sbsg3977
g0
(g105
g47
(lp4170
tp4171
Rp4172
(dp4173
g25
I00
sg31
I00
sg32
I00
sg451
I1
sbsg3978
g0
(g105
g47
(lp4174
tp4175
Rp4176
(dp4177
g25
I00
sg31
I00
sg32
I00
sg451
I1
sbsg3979
g0
(g105
g47
(lp4178
tp4179
Rp4180
(dp4181
g25
I00
sg31
I00
sg32
I00
sg451
I1
sbsg3980
g0
(g105
g47
(lp4182
tp4183
Rp4184
(dp4185
g25
I00
sg31
I00
sg32
I00
sg451
I1
sbsg3981
g0
(g691
g47
(lp4186
tp4187
Rp4188
(dp4189
g25
I00
sg31
I00
sg32
I00
sg451
I1
sbsg3982
g0
(g105
g47
(lp4190
tp4191
Rp4192
(dp4193
g25
I00
sg31
I00
sg32
I00
sg451
I1
sbsg3983
g0
(g73
g2
Ntp4194
Rp4195
(dp4196
g25
I00
sg31
I00
sg32
I00
sg42
I00
sbsg3984
g0
(g4074
g2
Ntp4197
Rp4198
(dp4199
g25
I00
sg31
I00
sg32
I00
sg104
g73
sg106
Nsbsg3985
g0
(g4074
g2
Ntp4200
Rp4201
(dp4202
g25
I00
sg31
I00
sg32
I00
sg104
g121
sg106
Nsbsg3986
g0
(g4074
g2
Ntp4203
Rp4204
(dp4205
g25
I00
sg31
I00
sg32
I00
sg104
g73
sg106
Nsbsg62
NsbsL140500297529424L
g0
(g693
g2
Ntp4206
Rp4207
(dp4208
g25
I00
sg31
I00
sg32
I00
sg17
(lp4209
g3918
ag1172
asg26
Nsg3918
g0
(g100
g2
Ntp4210
Rp4211
(dp4212
g25
I00
sg31
I00
sg32
I00
sg104
g52
sg106
Nsbsg1172
g0
(g100
g2
Ntp4213
Rp4214
(dp4215
g25
I00
sg31
I00
sg32
I00
sg104
g0
(g4098
g2
Ntp4216
Rp4217
(dp4218
g4102
(g52
g693
tp4219
sg4104
Nsg4105
Vallowed(cms.int32,cms.PSet)
p4220
sbsg106
Nsbsg62
NsbsL140500297529328L
g3915
sL140500297871568L
g2771
sL140500301126144L
g2815
sL140500298433776L
g2832
sL140500298366400L
g2837
sL140500298365728L
g2845
sL140500300573616L
g2850
sL140500313594752L
g2858
sL140500298366928L
g2895
sL140500298433824L
g2903
sL140500298363664L
g2908
sL140500298366592L
g2916
sL140500298434976L
g2924
sL140500298435360L
g2934
sL140500298364720L
g2939
sL140500301124560L
g2944
sL140500298434016L
g2952
sL140500297872096L
g2957
sL140500300231632L
g2968
sL140500298364096L
g2977
sL140500300572704L
g1726
sL140500300487936L
g2985
sL140500300574672L
g2996
sL140500300573280L
g3005
sL140500298363520L
g3014
sL140500300572320L
g3031
sL140500300573232L
g3068
sL140500300572272L
g3098
sL140500301124320L
g3117
sL140500298432576L
g3129
sL140500300765648L
g3146
sL140500298434496L
g3161
sL140500311496160L
g3170
sL140500311497840L
g3175
sL140500302515408L
g3190
sL140500311496832L
g3202
sL140500335619136L
g3219
sL140500311498272L
g3235
sL140500302516032L
g3250
sL140500302514880L
g3259
sL140500302513488L
g3271
sL140500335720240L
g1748
sL140500297981040L
g3924
sL140500299105136L
g470
sL140500299516656L
g3339
sL140500312057120L
g3358
sL140500298090336L
g3374
sL140500300728160L
g3933
sL140500300872432L
g3382
sL140500300870704L
g3391
sL140500300730224L
g1760
sL140500314222944L
g2095
sL140500314225968L
g1862
sL140500295578144L
g3399
sL140500296072832L
g3417
sL140500295606224L
g3489
sL140500295647776L
g3554
sL140500298092496L
g2032
sL140500298090384L
g3905
sL140500300869888L
g3570
sL140500295603392L
g3585
sL140500295602864L
g3594
sL140500296070288L
g3638
sL140500296035776L
g3681
sL140500296069376L
g3734
sL140500295580544L
g3773
sL140500298090480L
g3879
sL140500296071776L
g3885
sL140500295650320L
g477
sL140500297527504L
g3960
sL140500295680544L
g4086
sL140500295682128L
g563
sL140500295755520L
g746
sL140500295504176L
g13
sL140500295474672L
g65
sL140500295755952L
g110
sL140500295756768L
g587
sL140500295757392L
g656
sL140500295756864L
g607
sL140500295311952L
g633
sL140500295433184L
g682
sL140500295314928L
g947
sL140500295506384L
g132
sL140500295504320L
g152
sL140500295507632L
g166
sL140500295514864L
g180
sL140500295506816L
g194
sL140500295504368L
g208
sL140500295507200L
g222
sL140500295473424L
g236
sL140500295507248L
g250
sL140500295505088L
g264
sL140500295513568L
g278
sL140500295472944L
g292
sL140500295515968L
g306
sL140500295507680L
g320
sL140500295505520L
g334
sL140500295514000L
g348
sL140500295432464L
g362
sL140500295507536L
g376
sL140500295505952L
g390
sL140500295514432L
g404
sL140500295433232L
g418
sL140500295683136L
g931
sL140500295525232L
g432
sL140500295527968L
g823
sL140500295526336L
g891
ssV_Process__InExtendCall
p4221
I00
sV_Process__partialschedules
p4222
(dp4223
sV_Process__isStrict
p4224
I00
sV_Process__modifiers
p4225
(tsV_Process__accelerators
p4226
(dp4227
sg3913
g3915
sg959
g962
sg2768
g2771
sg2813
g2815
sg2830
g2832
sg2835
g2837
sg2843
g2845
sg2848
g2850
sg2856
g2858
sg2893
g2895
sg2901
g2903
sg2906
g2908
sg2914
g2916
sg2922
g2924
sg2932
g2934
sg2937
g2939
sg2942
g2944
sg2950
g2952
sg2955
g2957
sg2966
g2968
sg2975
g2977
sg1723
g1726
sg2983
g2985
sg2994
g2996
sg3003
g3005
sg3012
g3014
sg3029
g3031
sg3066
g3068
sg3096
g3098
sg3115
g3117
sg3127
g3129
sg3144
g3146
sg3159
g3161
sg3168
g3170
sg3173
g3175
sg3188
g3190
sg3200
g3202
sg3217
g3219
sg3233
g3235
sg3248
g3250
sg3257
g3259
sg3269
g3271
sg1204
g1206
sg1746
g1748
sg1433
g1435
sg3922
g3924
sg467
g470
sg3337
g3339
sg3356
g3358
sg3372
g3374
sg3931
g3933
sg3380
g3382
sg3389
g3391
sg1758
g1760
sg2044
g2095
sg1860
g1862
sg3397
g3399
sg3415
g3417
sg3487
g3489
sg3552
g3554
sg2030
g2032
sg3902
g3905
sg3568
g3570
sg3583
g3585
sg3592
g3594
sg3636
g3638
sg3679
g3681
sg3732
g3734
sg3771
g3773
sg3877
g3879
sg3883
g3885
sg475
g477
sg3958
g3960
sg4084
g4086
sVsource
p4228
g718
sg720
g718
sg521
g563
sg743
g746
sg10
g13
sg63
g65
sg108
g110
sg80
g587
sg653
g656
sg605
g607
sg631
g633
sg680
g682
sg944
g947
sg130
g132
sg150
g152
sg164
g166
sg178
g180
sg192
g194
sg206
g208
sg220
g222
sg234
g236
sg248
g250
sg262
g264
sg276
g278
sg290
g292
sg304
g306
sg318
g320
sg332
g334
sg346
g348
sg360
g362
sg374
g376
sg388
g390
sg402
g404
sg416
g418
sg928
g931
sg1711
g1713
sg430
g432
sg821
g823
sg888
g891
sb.