ccopy_reg
_reconstructor
p0
(cFWCore.ParameterSet.Config
Process
p1
c__builtin__
object
p2
Ntp3
Rp4
(dp5
V_Process__name
p6
VRaghuEffTest
p7
sV_Process__filters
p8
(dp9
VclusterCompatibilityFilter
p10
g0
(cFWCore.ParameterSet.Modules
EDFilter
p11
g2
Ntp12
Rp13
(dp14
V_TypedParameterizable__type
p15
VHIClusterCompatibilityFilter
p16
sV_Parameterizable__parameterNames
p17
(lp18
VcluscomSrc
p19
aVminZ
p20
aVmaxZ
p21
aVclusterPars
p22
aVnhitsTrunc
p23
aVclusterTrunc
p24
asV_isFrozen
p25
I00
sV_Parameterizable__validator
p26
Nsg19
g0
(cFWCore.ParameterSet.Types
InputTag
p27
g2
Ntp28
Rp29
(dp30
g25
I00
sV_ParameterTypeBase__isTracked
p31
I01
sV_isModified
p32
I00
sV_InputTag__moduleLabel
p33
VhiClusterCompatibility
p34
sV_InputTag__productInstance
p35
V
p36
sV_InputTag__processName
p37
g36
sbsg32
I00
sg20
g0
(cFWCore.ParameterSet.Types
double
p38
g2
Ntp39
Rp40
(dp41
g25
I00
sg31
I01
sg32
I00
sV_value
p42
F-20.0
sbsg21
g0
(g38
g2
Ntp43
Rp44
(dp45
g25
I00
sg31
I01
sg32
I00
sg42
F20.05
sbsg22
g0
(cFWCore.ParameterSet.Types
vdouble
p46
c__builtin__
list
p47
(lp48
F0.0
aF0.0045
atp49
Rp50
(dp51
g25
I00
sg31
I01
sg32
I00
sbsg23
g0
(cFWCore.ParameterSet.Types
int32
p52
g2
Ntp53
Rp54
(dp55
g25
I00
sg31
I01
sg32
I00
sg42
I150
sbsg24
g0
(g38
g2
Ntp56
Rp57
(dp58
g25
I00
sg31
I01
sg32
I00
sg42
F2.0
sbsV_filename
p59
V/afs/cern.ch/work/r/rpradhan/Tracking_Studies/newCode_AfterRun3/ForEffTest/CMSSW_13_2_5_patch1/src/HeavyIonsAnalysis/EventAnalysis/python/clusterCompatibilityFilter_cfi.py
p60
sV_lineNumber
p61
I3
sV_Labelable__label
p62
g10
sbsVhltPixelClusterShapeFilter
p63
g0
(g11
g2
Ntp64
Rp65
(dp66
g15
VHLTPixelClusterShapeFilter
p67
sg17
(lp68
VsaveTags
p69
aVinputTag
p70
ag20
ag21
aVzStep
p71
ag22
ag23
ag24
aVmightGet
p72
asg25
I00
sg26
Nsg69
g0
(cFWCore.ParameterSet.Types
bool
p73
g2
Ntp74
Rp75
(dp76
g25
I00
sg31
I01
sg32
I00
sg42
I01
sbsg32
I01
sg70
g0
(g27
g2
Ntp77
Rp78
(dp79
g25
I00
sg31
I01
sg32
I01
sg33
VsiPixelRecHits
p80
sg35
g36
sg37
g36
sbsg20
g0
(g38
g2
Ntp81
Rp82
(dp83
g25
I00
sg31
I01
sg32
I00
sg42
I-20
sbsg21
g0
(g38
g2
Ntp84
Rp85
(dp86
g25
I00
sg31
I01
sg32
I00
sg42
F20.05
sbsg71
g0
(g38
g2
Ntp87
Rp88
(dp89
g25
I00
sg31
I01
sg32
I00
sg42
F0.2
sbsg22
g0
(g46
g47
(lp90
I0
aF0.0045
atp91
Rp92
(dp93
g25
I00
sg31
I01
sg32
I00
sbsg23
g0
(g52
g2
Ntp94
Rp95
(dp96
g25
I00
sg31
I01
sg32
I00
sg42
I150
sbsg24
g0
(g38
g2
Ntp97
Rp98
(dp99
g25
I00
sg31
I01
sg32
I00
sg42
I2
sbsg72
g0
(cFWCore.ParameterSet.Types
_OptionalParameter
p100
g2
Ntp101
Rp102
(dp103
g25
I00
sg31
I00
sg32
I00
sV_ProxyParameter__type
p104
cFWCore.ParameterSet.Types
vstring
p105
sV_ProxyParameter__value
p106
Nsbsg59
V/cvmfs/cms.cern.ch/el8_amd64_gcc11/cms/cmssw-patch/CMSSW_13_2_5_patch1/cfipython/el8_amd64_gcc11/HLTrigger/special/hltPixelClusterShapeFilter_cfi.py
p107
sg61
I3
sg62
g63
sbsVprimaryVertexFilter
p108
g0
(g11
g2
Ntp109
Rp110
(dp111
g15
VVertexSelector
p112
sg17
(lp113
Vsrc
p114
aVcut
p115
aVfilter
p116
asg25
I00
sg26
Nsg114
g0
(g27
g2
Ntp117
Rp118
(dp119
g25
I00
sg31
I01
sg32
I00
sg33
VofflineSlimmedPrimaryVertices
p120
sg35
g36
sg37
g36
sbsg32
I00
sg115
g0
(cFWCore.ParameterSet.Types
string
p121
g2
Ntp122
Rp123
(dp124
g25
I00
sg31
I01
sg32
I00
sg42
V!isFake && abs(z) <= 25 && position.Rho <= 2
p125
sbsg116
g0
(g73
g2
Ntp126
Rp127
(dp128
g25
I00
sg31
I01
sg32
I00
sg42
I01
sbsg59
V/afs/cern.ch/work/r/rpradhan/Tracking_Studies/newCode_AfterRun3/ForEffTest/CMSSW_13_2_5_patch1/src/HeavyIonsAnalysis/EventAnalysis/python/collisionEventSelection_cff.py
p129
sg61
I5
sg62
g108
sbsVphfCoincFilter1Th3
p130
g0
(g11
g2
Ntp131
Rp132
(dp133
g15
VHiHFFilter
p134
sg17
(lp135
VHFfilters
p136
aVthreshold
p137
aVminnumtowers
p138
asg25
I00
sg26
Nsg136
g0
(g27
g2
Ntp139
Rp140
(dp141
g25
I00
sg31
I01
sg32
I00
sg33
VhiHFfilters
p142
sg35
g142
sg37
g36
sbsg32
I00
sg137
g0
(g52
g2
Ntp143
Rp144
(dp145
g25
I00
sg31
I01
sg32
I01
sg42
I3
sbsg138
g0
(g52
g2
Ntp146
Rp147
(dp148
g25
I00
sg31
I01
sg32
I01
sg42
I1
sbsg59
V/afs/cern.ch/work/r/rpradhan/Tracking_Studies/newCode_AfterRun3/ForEffTest/CMSSW_13_2_5_patch1/src/HeavyIonsAnalysis/EventAnalysis/python/hffilter_cfi.py
p149
sg61
I14
sg62
g130
sbsVphfCoincFilter1Th4
p150
g0
(g11
g2
Ntp151
Rp152
(dp153
g15
g134
sg17
(lp154
g136
ag137
ag138
asg25
I00
sg26
Nsg136
g0
(g27
g2
Ntp155
Rp156
(dp157
g25
I00
sg31
I01
sg32
I00
sg33
g142
sg35
g142
sg37
g36
sbsg32
I00
sg137
g0
(g52
g2
Ntp158
Rp159
(dp160
g25
I00
sg31
I01
sg32
I00
sg42
I4
sbsg138
g0
(g52
g2
Ntp161
Rp162
(dp163
g25
I00
sg31
I01
sg32
I01
sg42
I1
sbsg59
g149
sg61
I9
sg62
g150
sbsVphfCoincFilter1Th5
p164
g0
(g11
g2
Ntp165
Rp166
(dp167
g15
g134
sg17
(lp168
g136
ag137
ag138
asg25
I00
sg26
Nsg136
g0
(g27
g2
Ntp169
Rp170
(dp171
g25
I00
sg31
I01
sg32
I00
sg33
g142
sg35
g142
sg37
g36
sbsg32
I00
sg137
g0
(g52
g2
Ntp172
Rp173
(dp174
g25
I00
sg31
I01
sg32
I01
sg42
I5
sbsg138
g0
(g52
g2
Ntp175
Rp176
(dp177
g25
I00
sg31
I01
sg32
I01
sg42
I1
sbsg59
g149
sg61
I20
sg62
g164
sbsVphfCoincFilter1Th6
p178
g0
(g11
g2
Ntp179
Rp180
(dp181
g15
g134
sg17
(lp182
g136
ag137
ag138
asg25
I00
sg26
Nsg136
g0
(g27
g2
Ntp183
Rp184
(dp185
g25
I00
sg31
I01
sg32
I00
sg33
g142
sg35
g142
sg37
g36
sbsg32
I00
sg137
g0
(g52
g2
Ntp186
Rp187
(dp188
g25
I00
sg31
I01
sg32
I01
sg42
I6
sbsg138
g0
(g52
g2
Ntp189
Rp190
(dp191
g25
I00
sg31
I01
sg32
I01
sg42
I1
sbsg59
g149
sg61
I26
sg62
g178
sbsVphfCoincFilter2Th3
p192
g0
(g11
g2
Ntp193
Rp194
(dp195
g15
g134
sg17
(lp196
g136
ag137
ag138
asg25
I00
sg26
Nsg136
g0
(g27
g2
Ntp197
Rp198
(dp199
g25
I00
sg31
I01
sg32
I00
sg33
g142
sg35
g142
sg37
g36
sbsg32
I00
sg137
g0
(g52
g2
Ntp200
Rp201
(dp202
g25
I00
sg31
I01
sg32
I01
sg42
I3
sbsg138
g0
(g52
g2
Ntp203
Rp204
(dp205
g25
I00
sg31
I01
sg32
I00
sg42
I2
sbsg59
g149
sg61
I15
sg62
g192
sbsVphfCoincFilter2Th4
p206
g0
(g11
g2
Ntp207
Rp208
(dp209
g15
g134
sg17
(lp210
g136
ag137
ag138
asg25
I00
sg26
Nsg136
g0
(g27
g2
Ntp211
Rp212
(dp213
g25
I00
sg31
I01
sg32
I00
sg33
g142
sg35
g142
sg37
g36
sbsg32
I00
sg137
g0
(g52
g2
Ntp214
Rp215
(dp216
g25
I00
sg31
I01
sg32
I00
sg42
I4
sbsg138
g0
(g52
g2
Ntp217
Rp218
(dp219
g25
I00
sg31
I01
sg32
I00
sg42
I2
sbsg59
g149
sg61
I3
sg62
g206
sbsVphfCoincFilter2Th5
p220
g0
(g11
g2
Ntp221
Rp222
(dp223
g15
g134
sg17
(lp224
g136
ag137
ag138
asg25
I00
sg26
Nsg136
g0
(g27
g2
Ntp225
Rp226
(dp227
g25
I00
sg31
I01
sg32
I00
sg33
g142
sg35
g142
sg37
g36
sbsg32
I00
sg137
g0
(g52
g2
Ntp228
Rp229
(dp230
g25
I00
sg31
I01
sg32
I01
sg42
I5
sbsg138
g0
(g52
g2
Ntp231
Rp232
(dp233
g25
I00
sg31
I01
sg32
I00
sg42
I2
sbsg59
g149
sg61
I21
sg62
g220
sbsVphfCoincFilter2Th6
p234
g0
(g11
g2
Ntp235
Rp236
(dp237
g15
g134
sg17
(lp238
g136
ag137
ag138
asg25
I00
sg26
Nsg136
g0
(g27
g2
Ntp239
Rp240
(dp241
g25
I00
sg31
I01
sg32
I00
sg33
g142
sg35
g142
sg37
g36
sbsg32
I00
sg137
g0
(g52
g2
Ntp242
Rp243
(dp244
g25
I00
sg31
I01
sg32
I01
sg42
I6
sbsg138
g0
(g52
g2
Ntp245
Rp246
(dp247
g25
I00
sg31
I01
sg32
I00
sg42
I2
sbsg59
g149
sg61
I27
sg62
g234
sbsVphfCoincFilter3Th3
p248
g0
(g11
g2
Ntp249
Rp250
(dp251
g15
g134
sg17
(lp252
g136
ag137
ag138
asg25
I00
sg26
Nsg136
g0
(g27
g2
Ntp253
Rp254
(dp255
g25
I00
sg31
I01
sg32
I00
sg33
g142
sg35
g142
sg37
g36
sbsg32
I00
sg137
g0
(g52
g2
Ntp256
Rp257
(dp258
g25
I00
sg31
I01
sg32
I01
sg42
I3
sbsg138
g0
(g52
g2
Ntp259
Rp260
(dp261
g25
I00
sg31
I01
sg32
I01
sg42
I3
sbsg59
g149
sg61
I16
sg62
g248
sbsVphfCoincFilter3Th4
p262
g0
(g11
g2
Ntp263
Rp264
(dp265
g15
g134
sg17
(lp266
g136
ag137
ag138
asg25
I00
sg26
Nsg136
g0
(g27
g2
Ntp267
Rp268
(dp269
g25
I00
sg31
I01
sg32
I00
sg33
g142
sg35
g142
sg37
g36
sbsg32
I00
sg137
g0
(g52
g2
Ntp270
Rp271
(dp272
g25
I00
sg31
I01
sg32
I00
sg42
I4
sbsg138
g0
(g52
g2
Ntp273
Rp274
(dp275
g25
I00
sg31
I01
sg32
I01
sg42
I3
sbsg59
g149
sg61
I10
sg62
g262
sbsVphfCoincFilter3Th5
p276
g0
(g11
g2
Ntp277
Rp278
(dp279
g15
g134
sg17
(lp280
g136
ag137
ag138
asg25
I00
sg26
Nsg136
g0
(g27
g2
Ntp281
Rp282
(dp283
g25
I00
sg31
I01
sg32
I00
sg33
g142
sg35
g142
sg37
g36
sbsg32
I00
sg137
g0
(g52
g2
Ntp284
Rp285
(dp286
g25
I00
sg31
I01
sg32
I01
sg42
I5
sbsg138
g0
(g52
g2
Ntp287
Rp288
(dp289
g25
I00
sg31
I01
sg32
I01
sg42
I3
sbsg59
g149
sg61
I22
sg62
g276
sbsVphfCoincFilter3Th6
p290
g0
(g11
g2
Ntp291
Rp292
(dp293
g15
g134
sg17
(lp294
g136
ag137
ag138
asg25
I00
sg26
Nsg136
g0
(g27
g2
Ntp295
Rp296
(dp297
g25
I00
sg31
I01
sg32
I00
sg33
g142
sg35
g142
sg37
g36
sbsg32
I00
sg137
g0
(g52
g2
Ntp298
Rp299
(dp300
g25
I00
sg31
I01
sg32
I01
sg42
I6
sbsg138
g0
(g52
g2
Ntp301
Rp302
(dp303
g25
I00
sg31
I01
sg32
I01
sg42
I3
sbsg59
g149
sg61
I28
sg62
g290
sbsVphfCoincFilter4Th2
p304
g0
(g11
g2
Ntp305
Rp306
(dp307
g15
g134
sg17
(lp308
g136
ag137
ag138
asg25
I00
sg26
Nsg136
g0
(g27
g2
Ntp309
Rp310
(dp311
g25
I00
sg31
I01
sg32
I00
sg33
g142
sg35
g142
sg37
g36
sbsg32
I00
sg137
g0
(g52
g2
Ntp312
Rp313
(dp314
g25
I00
sg31
I01
sg32
I01
sg42
I2
sbsg138
g0
(g52
g2
Ntp315
Rp316
(dp317
g25
I00
sg31
I01
sg32
I01
sg42
I4
sbsg59
g149
sg61
I32
sg62
g304
sbsVphfCoincFilter4Th3
p318
g0
(g11
g2
Ntp319
Rp320
(dp321
g15
g134
sg17
(lp322
g136
ag137
ag138
asg25
I00
sg26
Nsg136
g0
(g27
g2
Ntp323
Rp324
(dp325
g25
I00
sg31
I01
sg32
I00
sg33
g142
sg35
g142
sg37
g36
sbsg32
I00
sg137
g0
(g52
g2
Ntp326
Rp327
(dp328
g25
I00
sg31
I01
sg32
I01
sg42
I3
sbsg138
g0
(g52
g2
Ntp329
Rp330
(dp331
g25
I00
sg31
I01
sg32
I01
sg42
I4
sbsg59
g149
sg61
I17
sg62
g318
sbsVphfCoincFilter4Th4
p332
g0
(g11
g2
Ntp333
Rp334
(dp335
g15
g134
sg17
(lp336
g136
ag137
ag138
asg25
I00
sg26
Nsg136
g0
(g27
g2
Ntp337
Rp338
(dp339
g25
I00
sg31
I01
sg32
I00
sg33
g142
sg35
g142
sg37
g36
sbsg32
I00
sg137
g0
(g52
g2
Ntp340
Rp341
(dp342
g25
I00
sg31
I01
sg32
I00
sg42
I4
sbsg138
g0
(g52
g2
Ntp343
Rp344
(dp345
g25
I00
sg31
I01
sg32
I01
sg42
I4
sbsg59
g149
sg61
I11
sg62
g332
sbsVphfCoincFilter4Th5
p346
g0
(g11
g2
Ntp347
Rp348
(dp349
g15
g134
sg17
(lp350
g136
ag137
ag138
asg25
I00
sg26
Nsg136
g0
(g27
g2
Ntp351
Rp352
(dp353
g25
I00
sg31
I01
sg32
I00
sg33
g142
sg35
g142
sg37
g36
sbsg32
I00
sg137
g0
(g52
g2
Ntp354
Rp355
(dp356
g25
I00
sg31
I01
sg32
I01
sg42
I5
sbsg138
g0
(g52
g2
Ntp357
Rp358
(dp359
g25
I00
sg31
I01
sg32
I01
sg42
I4
sbsg59
g149
sg61
I23
sg62
g346
sbsVphfCoincFilter4Th6
p360
g0
(g11
g2
Ntp361
Rp362
(dp363
g15
g134
sg17
(lp364
g136
ag137
ag138
asg25
I00
sg26
Nsg136
g0
(g27
g2
Ntp365
Rp366
(dp367
g25
I00
sg31
I01
sg32
I00
sg33
g142
sg35
g142
sg37
g36
sbsg32
I00
sg137
g0
(g52
g2
Ntp368
Rp369
(dp370
g25
I00
sg31
I01
sg32
I01
sg42
I6
sbsg138
g0
(g52
g2
Ntp371
Rp372
(dp373
g25
I00
sg31
I01
sg32
I01
sg42
I4
sbsg59
g149
sg61
I29
sg62
g360
sbsVphfCoincFilter5Th3
p374
g0
(g11
g2
Ntp375
Rp376
(dp377
g15
g134
sg17
(lp378
g136
ag137
ag138
asg25
I00
sg26
Nsg136
g0
(g27
g2
Ntp379
Rp380
(dp381
g25
I00
sg31
I01
sg32
I00
sg33
g142
sg35
g142
sg37
g36
sbsg32
I00
sg137
g0
(g52
g2
Ntp382
Rp383
(dp384
g25
I00
sg31
I01
sg32
I01
sg42
I3
sbsg138
g0
(g52
g2
Ntp385
Rp386
(dp387
g25
I00
sg31
I01
sg32
I01
sg42
I5
sbsg59
g149
sg61
I18
sg62
g374
sbsVphfCoincFilter5Th4
p388
g0
(g11
g2
Ntp389
Rp390
(dp391
g15
g134
sg17
(lp392
g136
ag137
ag138
asg25
I00
sg26
Nsg136
g0
(g27
g2
Ntp393
Rp394
(dp395
g25
I00
sg31
I01
sg32
I00
sg33
g142
sg35
g142
sg37
g36
sbsg32
I00
sg137
g0
(g52
g2
Ntp396
Rp397
(dp398
g25
I00
sg31
I01
sg32
I00
sg42
I4
sbsg138
g0
(g52
g2
Ntp399
Rp400
(dp401
g25
I00
sg31
I01
sg32
I01
sg42
I5
sbsg59
g149
sg61
I12
sg62
g388
sbsVphfCoincFilter5Th5
p402
g0
(g11
g2
Ntp403
Rp404
(dp405
g15
g134
sg17
(lp406
g136
ag137
ag138
asg25
I00
sg26
Nsg136
g0
(g27
g2
Ntp407
Rp408
(dp409
g25
I00
sg31
I01
sg32
I00
sg33
g142
sg35
g142
sg37
g36
sbsg32
I00
sg137
g0
(g52
g2
Ntp410
Rp411
(dp412
g25
I00
sg31
I01
sg32
I01
sg42
I5
sbsg138
g0
(g52
g2
Ntp413
Rp414
(dp415
g25
I00
sg31
I01
sg32
I01
sg42
I5
sbsg59
g149
sg61
I24
sg62
g402
sbsVphfCoincFilter5Th6
p416
g0
(g11
g2
Ntp417
Rp418
(dp419
g15
g134
sg17
(lp420
g136
ag137
ag138
asg25
I00
sg26
Nsg136
g0
(g27
g2
Ntp421
Rp422
(dp423
g25
I00
sg31
I01
sg32
I00
sg33
g142
sg35
g142
sg37
g36
sbsg32
I00
sg137
g0
(g52
g2
Ntp424
Rp425
(dp426
g25
I00
sg31
I01
sg32
I01
sg42
I6
sbsg138
g0
(g52
g2
Ntp427
Rp428
(dp429
g25
I00
sg31
I01
sg32
I01
sg42
I5
sbsg59
g149
sg61
I30
sg62
g416
sbsVhltMB
p430
g0
(g11
g2
Ntp431
Rp432
(dp433
g15
VHLTHighLevel
p434
sg17
(lp435
VTriggerResultsTag
p436
aVHLTPaths
p437
aVeventSetupPathsKey
p438
aVandOr
p439
aVthrow
p440
ag72
asg25
I00
sg26
Nsg436
g0
(g27
g2
Ntp441
Rp442
(dp443
g25
I00
sg31
I01
sg32
I00
sg33
VTriggerResults
p444
sg35
g36
sg37
VHLT
p445
sbsg32
I01
sg437
g0
(g105
g47
(lp446
VHLT_HIMinimumBiasHF1AND*
p447
atp448
Rp449
(dp450
g25
I00
sg31
I01
sg32
I01
sV_nPerLine
p451
I1
sbsg438
g0
(g121
g2
Ntp452
Rp453
(dp454
g25
I00
sg31
I01
sg32
I00
sg42
g36
sbsg439
g0
(g73
g2
Ntp455
Rp456
(dp457
g25
I00
sg31
I01
sg32
I00
sg42
I01
sbsg440
g0
(g73
g2
Ntp458
Rp459
(dp460
g25
I00
sg31
I01
sg32
I00
sg42
I00
sbsg72
g0
(g100
g2
Ntp461
Rp462
(dp463
g25
I00
sg31
I00
sg32
I00
sg104
g105
sg106
Nsbsg59
V/afs/cern.ch/work/r/rpradhan/Tracking_Studies/newCode_AfterRun3/ForEffTest/CMSSW_13_2_5_patch1/src/Analyzers/RaghuEffTest/cfg/EfficiecnyTest_genTrk_cfg.py
p464
sg61
I123
sg62
g430
sbssV_Process__producers
p465
(dp466
VrandomEngineStateProducer
p467
g0
(cFWCore.ParameterSet.Modules
EDProducer
p468
g2
Ntp469
Rp470
(dp471
g15
VRandomEngineStateProducer
p472
sg17
(lp473
sg25
I00
sg26
Nsg32
I00
sg59
V/cvmfs/cms.cern.ch/el8_amd64_gcc11/cms/cmssw-patch/CMSSW_13_2_5_patch1/src/IOMC/RandomEngine/python/IOMC_cff.py
p474
sg61
I172
sg62
g467
sbsVgeneralAndHiPixelTracks
p475
g0
(g468
g2
Ntp476
Rp477
(dp478
g15
g475
sg17
(lp479
VsrcPFcand
p480
aVchi2Map
p481
aVgenTrackSrc
p482
aVpixTrackSrc
p483
aVvertexSrc
p484
aVcentralitySrc
p485
aVmvaSrc
p486
aVcutWidth
p487
aVtrkRes
p488
aVqualityString
p489
aVdxyErrMax
p490
aVdzErrMax
p491
aVptErrMax
p492
aVnhitsMin
p493
aVchi2nMax
p494
aVchi2nMaxPixel
p495
aVdzErrMaxPixel
p496
aVdxyErrMaxPixel
p497
asg25
I00
sg26
Nsg480
g0
(g27
g2
Ntp498
Rp499
(dp500
g25
I00
sg31
I01
sg32
I00
sg33
VpackedPFCandidates
p501
sg35
g36
sg37
g36
sbsg32
I00
sg481
g0
(g27
g2
Ntp502
Rp503
(dp504
g25
I00
sg31
I01
sg32
I00
sg33
VpackedPFCandidateTrackChi2
p505
sg35
g36
sg37
g36
sbsg482
g0
(g27
g2
Ntp506
Rp507
(dp508
g25
I00
sg31
I01
sg32
I00
sg33
VgeneralTracks
p509
sg35
g36
sg37
g36
sbsg483
g0
(g27
g2
Ntp510
Rp511
(dp512
g25
I00
sg31
I01
sg32
I00
sg33
VhiPixelTracks
p513
sg35
g36
sg37
g36
sbsg484
g0
(g27
g2
Ntp514
Rp515
(dp516
g25
I00
sg31
I01
sg32
I00
sg33
VofflineSlimmedPrimaryVerticesRecovery
p517
sg35
g36
sg37
g36
sbsg485
g0
(g27
g2
Ntp518
Rp519
(dp520
g25
I00
sg31
I01
sg32
I00
sg33
VcentralityBin
p521
sg35
VHFtowers
p522
sg37
g36
sbsg486
g0
(g27
g2
Ntp523
Rp524
(dp525
g25
I00
sg31
I01
sg32
I00
sg33
g509
sg35
VMVAValues
p526
sg37
g36
sbsg487
g0
(g38
g2
Ntp527
Rp528
(dp529
g25
I00
sg31
I01
sg32
I00
sg42
F0.2
sbsg488
g0
(g38
g2
Ntp530
Rp531
(dp532
g25
I00
sg31
I01
sg32
I00
sg42
F0.02
sbsg489
g0
(g121
g2
Ntp533
Rp534
(dp535
g25
I00
sg31
I01
sg32
I00
sg42
VhighPurity
p536
sbsg490
g0
(g38
g2
Ntp537
Rp538
(dp539
g25
I00
sg31
I01
sg32
I00
sg42
F3.0
sbsg491
g0
(g38
g2
Ntp540
Rp541
(dp542
g25
I00
sg31
I01
sg32
I00
sg42
F3.0
sbsg492
g0
(g38
g2
Ntp543
Rp544
(dp545
g25
I00
sg31
I01
sg32
I00
sg42
F0.1
sbsg493
g0
(g52
g2
Ntp546
Rp547
(dp548
g25
I00
sg31
I01
sg32
I00
sg42
I11
sbsg494
g0
(g38
g2
Ntp549
Rp550
(dp551
g25
I00
sg31
I01
sg32
I00
sg42
F0.18
sbsg495
g0
(g38
g2
Ntp552
Rp553
(dp554
g25
I00
sg31
I01
sg32
I00
sg42
F9999.0
sbsg496
g0
(g38
g2
Ntp555
Rp556
(dp557
g25
I00
sg31
I01
sg32
I00
sg42
F20.0
sbsg497
g0
(g38
g2
Ntp558
Rp559
(dp560
g25
I00
sg31
I01
sg32
I00
sg42
F7.0
sbsg59
V/afs/cern.ch/work/r/rpradhan/Tracking_Studies/newCode_AfterRun3/ForEffTest/CMSSW_13_2_5_patch1/src/MergingProducer/generalAndHiPixelTracks/python/MergingPixAndGenProducer_cfi.py
p561
sg61
I3
sg62
g475
sbsg521
g0
(g468
g2
Ntp562
Rp563
(dp564
g15
VCentralityBinProducer
p565
sg17
(lp566
VCentrality
p567
aVcentralityVariable
p568
aVnonDefaultGlauberModel
p569
aVpPbRunFlip
p570
asg25
I00
sg26
Nsg567
g0
(g27
g2
Ntp571
Rp572
(dp573
g25
I00
sg31
I01
sg32
I00
sg33
VhiCentrality
p574
sg35
g36
sg37
g36
sbsg32
I01
sg568
g0
(g121
g2
Ntp575
Rp576
(dp577
g25
I00
sg31
I01
sg32
I00
sg42
g522
sbsg569
g0
(g121
g2
Ntp578
Rp579
(dp580
g25
I00
sg31
I01
sg32
I00
sg42
g36
sbsg570
g0
(cFWCore.ParameterSet.Types
uint32
p581
g2
Ntp582
Rp583
(dp584
g25
I00
sg31
I01
sg32
I00
sg42
I99999999
sbsg59
V/cvmfs/cms.cern.ch/el8_amd64_gcc11/cms/cmssw-patch/CMSSW_13_2_5_patch1/src/RecoHI/HiCentralityAlgos/python/CentralityBin_cfi.py
p585
sg61
I3
sg62
g521
sbsg80
g0
(g468
g2
Ntp586
Rp587
(dp588
g15
VSiPixelRecHitConverter
p589
sg17
(lp590
g114
aVCPE
p591
aVVerboseLevel
p592
asg25
I00
sg26
Nsg114
g0
(g27
g2
Ntp593
Rp594
(dp595
g25
I00
sg31
I01
sg32
I00
sg33
VsiPixelClusters
p596
sg35
g36
sg37
g36
sbsg32
I00
sg591
g0
(g121
g2
Ntp597
Rp598
(dp599
g25
I00
sg31
I01
sg32
I00
sg42
VPixelCPEGeneric
p600
sbsg592
g0
(g52
g2
Ntp601
Rp602
(dp603
g25
I00
sg31
I00
sg32
I00
sg42
I0
sbsg59
V/cvmfs/cms.cern.ch/el8_amd64_gcc11/cms/cmssw-patch/CMSSW_13_2_5_patch1/src/RecoLocalTracker/SiPixelRecHits/python/SiPixelRecHits_cfi.py
p604
sg61
I6
sg62
g80
sbsVsiPixelRecHitsPreSplittingCPU
p605
g0
(g468
g2
Ntp606
Rp607
(dp608
g15
VSiPixelRecHitSoAFromLegacyPhase1
p609
sg17
(lp610
VbeamSpot
p611
ag114
ag591
aVconvertToLegacy
p612
ag72
asg25
I00
sg26
Nsg611
g0
(g27
g2
Ntp613
Rp614
(dp615
g25
I00
sg31
I01
sg32
I00
sg33
VofflineBeamSpot
p616
sg35
g36
sg37
g36
sbsg32
I00
sg114
g0
(g27
g2
Ntp617
Rp618
(dp619
g25
I00
sg31
I01
sg32
I00
sg33
VsiPixelClustersPreSplitting
p620
sg35
g36
sg37
g36
sbsg591
g0
(g121
g2
Ntp621
Rp622
(dp623
g25
I00
sg31
I01
sg32
I00
sg42
VPixelCPEFast
p624
sbsg612
g0
(g73
g2
Ntp625
Rp626
(dp627
g25
I00
sg31
I01
sg32
I01
sg42
I01
sbsg72
g0
(g100
g2
Ntp628
Rp629
(dp630
g25
I00
sg31
I00
sg32
I00
sg104
g105
sg106
Nsbsg59
g604
sg61
I29
sg62
g605
sbsVsiPixelRecHitsPreSplittingCUDA
p631
g0
(g468
g2
Ntp632
Rp633
(dp634
g15
VSiPixelRecHitCUDAPhase1
p635
sg17
(lp636
g611
ag114
ag591
ag72
asg25
I00
sg26
Nsg611
g0
(g27
g2
Ntp637
Rp638
(dp639
g25
I00
sg31
I01
sg32
I01
sg33
VofflineBeamSpotToCUDA
p640
sg35
g36
sg37
g36
sbsg32
I00
sg114
g0
(g27
g2
Ntp641
Rp642
(dp643
g25
I00
sg31
I01
sg32
I00
sg33
VsiPixelClustersPreSplittingCUDA
p644
sg35
g36
sg37
g36
sbsg591
g0
(g121
g2
Ntp645
Rp646
(dp647
g25
I00
sg31
I01
sg32
I00
sg42
g624
sbsg72
g0
(g100
g2
Ntp648
Rp649
(dp650
g25
I00
sg31
I00
sg32
I00
sg104
g105
sg106
Nsbsg59
g604
sg61
I54
sg62
g631
sbssV_Process__switchproducers
p651
(dp652
VsiPixelRecHitsPreSplitting
p653
g0
(cHeterogeneousCore.CUDACore.SwitchProducerCUDA
SwitchProducerCUDA
p654
g2
Ntp655
Rp656
(dp657
g15
Nsg17
(lp658
Vcpu
p659
asg25
I00
sg26
Nsg32
I00
sg59
V/cvmfs/cms.cern.ch/el8_amd64_gcc11/cms/cmssw-patch/CMSSW_13_2_5_patch1/src/FWCore/ParameterSet/python/Modules.py
p660
sg61
I250
sV_caseFunctionDict
p661
(dp662
g659
cFWCore.ParameterSet.Modules
_switch_cpu
p663
sVcuda
p664
cHeterogeneousCore.CUDACore.SwitchProducerCUDA
_switch_cuda
p665
ssg659
g0
(g468
g2
Ntp666
Rp667
(dp668
g15
g589
sg17
(lp669
g114
ag591
ag592
asg25
I00
sg26
Nsg114
g0
(g27
g2
Ntp670
Rp671
(dp672
g25
I00
sg31
I01
sg32
I01
sg33
g620
sg35
g36
sg37
g36
sbsg32
I00
sg591
g0
(g121
g2
Ntp673
Rp674
(dp675
g25
I00
sg31
I01
sg32
I00
sg42
g600
sbsg592
g0
(g52
g2
Ntp676
Rp677
(dp678
g25
I00
sg31
I00
sg32
I00
sg42
I0
sbsg59
g604
sg61
I14
sg62
VsiPixelRecHitsPreSplitting@cpu
p679
sbsg62
g653
sbsVsiPixelRecHitsPreSplittingSoA
p680
g0
(g654
g2
Ntp681
Rp682
(dp683
g15
Nsg17
(lp684
g659
asg25
I00
sg26
Nsg32
I00
sg59
g660
sg61
I250
sg661
(dp685
g659
g663
sg664
g665
ssg659
g0
(cFWCore.ParameterSet.Types
EDAlias
p686
g2
Ntp687
Rp688
(dp689
g17
(lp690
g605
asg25
I00
sg26
Nsg605
g0
(cFWCore.ParameterSet.Types
VPSet
p691
g47
(lp692
g0
(cFWCore.ParameterSet.Types
PSet
p693
g2
Ntp694
Rp695
(dp696
g25
I00
sg31
I01
sg32
I00
sg17
(lp697
Vtype
p698
asg26
Nsg698
g0
(g121
g2
Ntp699
Rp700
(dp701
g25
I00
sg31
I01
sg32
I00
sg42
VpixelTopologyPhase1TrackingRecHitSoAHost
p702
sbsbag0
(g693
g2
Ntp703
Rp704
(dp705
g25
I00
sg31
I01
sg32
I00
sg17
(lp706
g698
asg26
Nsg698
g0
(g121
g2
Ntp707
Rp708
(dp709
g25
I00
sg31
I01
sg32
I00
sg42
VuintAsHostProduct
p710
sbsbatp711
Rp712
(dp713
g25
I00
sg31
I01
sg32
I00
sg451
I1
sbsg32
I00
sg62
VsiPixelRecHitsPreSplittingSoA@cpu
p714
sbsg62
g680
sbssV_Process__source
p715
g0
(cFWCore.ParameterSet.Modules
Source
p716
g2
Ntp717
Rp718
(dp719
g15
VPoolSource
p720
sg17
(lp721
VfileNames
p722
aVduplicateCheckMode
p723
aVskipBadFiles
p724
asg25
I00
sg26
Nsg722
g0
(g105
g47
(lp725
V/store/user/sarteaga/MinBias_PbPb_5p36TeV_Hydjet_v1/MinBias_PbPb_5p36TeV_Hydjet_RECODEBUG_v5/231023_223729/0000/stepRECO_1.root
p726
aV/store/user/sarteaga/MinBias_PbPb_5p36TeV_Hydjet_v1/MinBias_PbPb_5p36TeV_Hydjet_RECODEBUG_v5/231023_223729/0000/stepRECO_10.root
p727
aV/store/user/sarteaga/MinBias_PbPb_5p36TeV_Hydjet_v1/MinBias_PbPb_5p36TeV_Hydjet_RECODEBUG_v5/231023_223729/0000/stepRECO_100.root
p728
aV/store/user/sarteaga/MinBias_PbPb_5p36TeV_Hydjet_v1/MinBias_PbPb_5p36TeV_Hydjet_RECODEBUG_v5/231023_223729/0000/stepRECO_101.root
p729
aV/store/user/sarteaga/MinBias_PbPb_5p36TeV_Hydjet_v1/MinBias_PbPb_5p36TeV_Hydjet_RECODEBUG_v5/231023_223729/0000/stepRECO_102.root
p730
atp731
Rp732
(dp733
g25
I00
sg31
I00
sg32
I00
sg451
I1
sbsg32
I00
sg723
g0
(g121
g2
Ntp734
Rp735
(dp736
g25
I00
sg31
I00
sg32
I00
sg42
VnoDuplicateCheck
p737
sbsg724
g0
(g73
g2
Ntp738
Rp739
(dp740
g25
I00
sg31
I00
sg32
I00
sg42
I01
sbsg59
g660
sg61
I195
sbsV_Process__looper
p741
NsV_Process__subProcesses
p742
(lp743
sV_Process__schedule
p744
NsV_Process__analyzers
p745
(dp746
VhiEvtAnalyzer
p747
g0
(cFWCore.ParameterSet.Modules
EDAnalyzer
p748
g2
Ntp749
Rp750
(dp751
g15
VHiEvtAnalyzer
p752
sg17
(lp753
VCentralitySrc
p754
aVCentralityBinSrc
p755
aVpfCandidateSrc
p756
aVEvtPlane
p757
aVEvtPlaneFlat
p758
aVHiMC
p759
aVVertex
p760
ag136
aVdoCentrality
p761
aVdoEvtPlane
p762
aVdoEvtPlaneFlat
p763
aVdoVertex
p764
aVdoMC
p765
aVdoHiMC
p766
aVuseHepMC
p767
aVdoHFfilters
p768
aVevtPlaneLevel
p769
asg25
I00
sg26
Nsg754
g0
(g27
g2
Ntp770
Rp771
(dp772
g25
I00
sg31
I01
sg32
I00
sg33
g574
sg35
g36
sg37
g36
sbsg32
I00
sg755
g0
(g27
g2
Ntp773
Rp774
(dp775
g25
I00
sg31
I01
sg32
I00
sg33
g521
sg35
g522
sg37
g36
sbsg756
g0
(g27
g2
Ntp776
Rp777
(dp778
g25
I00
sg31
I01
sg32
I00
sg33
g501
sg35
g36
sg37
g36
sbsg757
g0
(g27
g2
Ntp779
Rp780
(dp781
g25
I00
sg31
I01
sg32
I00
sg33
VhiEvtPlane
p782
sg35
g36
sg37
g36
sbsg758
g0
(g27
g2
Ntp783
Rp784
(dp785
g25
I00
sg31
I01
sg32
I00
sg33
VhiEvtPlaneFlat
p786
sg35
g36
sg37
g36
sbsg759
g0
(g27
g2
Ntp787
Rp788
(dp789
g25
I00
sg31
I01
sg32
I00
sg33
VheavyIon
p790
sg35
g36
sg37
g36
sbsg760
g0
(g27
g2
Ntp791
Rp792
(dp793
g25
I00
sg31
I01
sg32
I00
sg33
g120
sg35
g36
sg37
g36
sbsg136
g0
(g27
g2
Ntp794
Rp795
(dp796
g25
I00
sg31
I01
sg32
I00
sg33
g142
sg35
g142
sg37
g36
sbsg761
g0
(g73
g2
Ntp797
Rp798
(dp799
g25
I00
sg31
I01
sg32
I00
sg42
I01
sbsg762
g0
(g73
g2
Ntp800
Rp801
(dp802
g25
I00
sg31
I01
sg32
I00
sg42
I01
sbsg763
g0
(g73
g2
Ntp803
Rp804
(dp805
g25
I00
sg31
I01
sg32
I00
sg42
I01
sbsg764
g0
(g73
g2
Ntp806
Rp807
(dp808
g25
I00
sg31
I01
sg32
I00
sg42
I01
sbsg765
g0
(g73
g2
Ntp809
Rp810
(dp811
g25
I00
sg31
I01
sg32
I00
sg42
I00
sbsg766
g0
(g73
g2
Ntp812
Rp813
(dp814
g25
I00
sg31
I01
sg32
I00
sg42
I00
sbsg767
g0
(g73
g2
Ntp815
Rp816
(dp817
g25
I00
sg31
I01
sg32
I00
sg42
I00
sbsg768
g0
(g73
g2
Ntp818
Rp819
(dp820
g25
I00
sg31
I01
sg32
I00
sg42
I01
sbsg769
g0
(g52
g2
Ntp821
Rp822
(dp823
g25
I00
sg31
I01
sg32
I00
sg42
I0
sbsg59
V/afs/cern.ch/work/r/rpradhan/Tracking_Studies/newCode_AfterRun3/ForEffTest/CMSSW_13_2_5_patch1/src/HeavyIonsAnalysis/EventAnalysis/python/hievtanalyzer_data_cfi.py
p824
sg61
I3
sg62
g747
sbsVdefaultCPDC
p825
g0
(g748
g2
Ntp826
Rp827
(dp828
g15
g7
sg17
(lp829
Vtracks
p830
aVtracksgen
p831
aVvertex
p832
aVcentralitybin
p833
aVzminVtx
p834
aVzmaxVtx
p835
aVfGeneral
p836
aVpTBins
p837
aVetaBins
p838
aVcentbins
p839
aValgoParameters
p840
asg25
I00
sg26
Nsg830
g0
(g27
g2
Ntp841
Rp842
(dp843
g25
I00
sg31
I01
sg32
I00
sg33
g509
sg35
g36
sg37
g36
sbsg32
I00
sg831
g0
(g27
g2
Ntp844
Rp845
(dp846
g25
I00
sg31
I01
sg32
I00
sg33
VgenParticles
p847
sg35
g36
sg37
g36
sbsg832
g0
(g27
g2
Ntp848
Rp849
(dp850
g25
I00
sg31
I01
sg32
I00
sg33
VofflinePrimaryVertices
p851
sg35
g36
sg37
g36
sbsg833
g0
(g27
g2
Ntp852
Rp853
(dp854
g25
I00
sg31
I01
sg32
I00
sg33
g521
sg35
g522
sg37
g36
sbsg834
g0
(g38
g2
Ntp855
Rp856
(dp857
g25
I00
sg31
I00
sg32
I00
sg42
F-15.0
sbsg835
g0
(g38
g2
Ntp858
Rp859
(dp860
g25
I00
sg31
I00
sg32
I00
sg42
F15.0
sbsg836
g0
(g27
g2
Ntp861
Rp862
(dp863
g25
I00
sg31
I00
sg32
I00
sg33
VGeneral_TrackEff_3D_nhits0_nopTResChi2_V0.root
p864
sg35
g36
sg37
g36
sbsg837
g0
(g46
g47
(lp865
F0.0
aF0.05
aF0.1
aF0.15
aF0.2
aF0.25
aF0.3
aF0.35
aF0.4
aF0.45
aF0.5
aF0.55
aF0.6
aF0.65
aF0.7
aF0.75
aF0.8
aF0.85
aF0.9
aF0.95
aF1.0
aF1.05
aF1.1
aF1.15
aF1.2
aF1.3
aF1.4
aF1.5
aF1.6
aF1.7
aF1.8
aF1.9
aF2.0
aF2.5
aF3.0
atp866
Rp867
(dp868
g25
I00
sg31
I00
sg32
I00
sbsg838
g0
(g46
g47
(lp869
F-3.0
aF-2.4
aF-2.0
aF-1.6
aF-1.2
aF-0.8
aF-0.4
aF0.0
aF0.4
aF0.8
aF1.2
aF1.6
aF2.0
aF2.4
aF3.0
atp870
Rp871
(dp872
g25
I00
sg31
I00
sg32
I00
sbsg839
g0
(g46
g47
(lp873
F0.0
aF20.0
aF40.0
aF60.0
aF80.0
aF100.0
aF120.0
aF140.0
aF160.0
aF180.0
aF200.0
atp874
Rp875
(dp876
g25
I00
sg31
I00
sg32
I00
sbsg840
g0
(cFWCore.ParameterSet.Types
vint32
p877
g47
(lp878
I0
aI1
aI2
aI3
aI4
aI5
aI6
aI7
aI8
aI9
aI10
aI11
aI12
aI13
aI14
aI15
aI16
aI17
aI18
aI19
aI20
aI21
aI22
aI23
aI24
aI25
aI26
aI27
aI28
aI29
aI30
aI31
aI32
aI33
aI34
aI35
aI36
aI37
aI38
aI39
aI40
aI41
aI42
aI43
aI44
aI45
aI46
atp879
Rp880
(dp881
g25
I00
sg31
I01
sg32
I00
sbsg59
V/afs/cern.ch/work/r/rpradhan/Tracking_Studies/newCode_AfterRun3/ForEffTest/CMSSW_13_2_5_patch1/src/Analyzers/RaghuEffTest/python/RaghuEffTest_cfi.py
p882
sg61
I3
sg62
g825
sbssV_Process__outputmodules
p883
(dp884
sV_Process__paths
p885
g0
(cFWCore.ParameterSet.DictTypes
SortedKeysDict
p886
c__builtin__
dict
p887
(dp888
Vp
p889
g0
(cFWCore.ParameterSet.SequenceTypes
Path
p890
g2
Ntp891
Rp892
(dp893
g25
I00
sV_seq
p894
g0
(cFWCore.ParameterSet.SequenceTypes
_SequenceCollection
p895
g2
Ntp896
Rp897
(dp898
V_collection
p899
(lp900
g432
ag563
ag827
asbsg32
I00
sV_tasks
p901
g0
(cFWCore.ParameterSet.OrderedSet
OrderedSet
p902
g2
Ntp903
Rp904
(dp905
Vend
p906
(lp907
Nag907
ag907
asVmap
p908
(dp909
sbsg62
g889
sbstp910
Rp911
(dp912
Vlist
p913
(lp914
g889
asbsV_Process__endpaths
p915
g0
(g886
g887
(dp916
tp917
Rp918
(dp919
g913
(lp920
sbsV_Process__finalpaths
p921
g0
(g886
g887
(dp922
tp923
Rp924
(dp925
g913
(lp926
sbsV_Process__sequences
p927
(dp928
VeventFilter
p929
g0
(cFWCore.ParameterSet.SequenceTypes
Sequence
p930
g2
Ntp931
Rp932
(dp933
g25
I00
sg894
g0
(g895
g2
Ntp934
Rp935
(dp936
g899
(lp937
g208
ag110
ag13
asbsg32
I00
sg901
g0
(g902
g2
Ntp938
Rp939
(dp940
g906
(lp941
Nag941
ag941
asg908
(dp942
sbsg62
g929
sbssV_Process__tasks
p943
(dp944
VsiPixelRecHitsPreSplittingTask
p945
g0
(cFWCore.ParameterSet.SequenceTypes
Task
p946
g2
Ntp947
Rp948
(dp949
g899
g0
(g902
g2
Ntp950
Rp951
(dp952
g906
(lp953
Na(lp954
g656
ag953
ag953
aag954
asg908
(dp955
g656
g954
ssbsg62
g945
sbssV_Process__conditionaltasks
p956
(dp957
sV_Process__services
p958
(dp959
VMessageLogger
p960
g0
(cFWCore.ParameterSet.Modules
Service
p961
g2
Ntp962
Rp963
(dp964
g15
g960
sg17
(lp965
VsuppressWarning
p966
aVsuppressFwkInfo
p967
aVsuppressInfo
p968
aVsuppressDebug
p969
aVdebugModules
p970
aVcout
p971
aVdefault
p972
aVcerr
p973
aVfiles
p974
asg25
I00
sg26
g0
(g100
g2
Ntp975
Rp976
(dp977
g25
I00
sg31
I00
sg32
I00
sg104
g0
(cFWCore.ParameterSet.Types
_PSetTemplate
p978
g2
Ntp979
Rp980
(dp981
V_pset
p982
g0
(g693
g2
Ntp983
Rp984
(dp985
g25
I00
sg31
I01
sg32
I00
sg17
(lp986
VreportEvery
p987
aVlimit
p988
aVtimespan
p989
asg26
Nsg987
g0
(g52
g2
Ntp990
Rp991
(dp992
g25
I00
sg31
I00
sg32
I00
sg42
I1
sbsg988
g0
(g100
g2
Ntp993
Rp994
(dp995
g25
I00
sg31
I00
sg32
I00
sg104
g52
sg106
Nsbsg989
g0
(g100
g2
Ntp996
Rp997
(dp998
g25
I00
sg31
I00
sg32
I00
sg104
g52
sg106
NsbsbsV_PSetTemplate__value
p999
Nsbsg106
Nsbsg966
g0
(g105
g47
(lp1000
tp1001
Rp1002
(dp1003
g25
I00
sg31
I00
sg32
I00
sg451
I1
sbsg32
I00
sg967
g0
(g105
g47
(lp1004
tp1005
Rp1006
(dp1007
g25
I00
sg31
I00
sg32
I00
sg451
I1
sbsg968
g0
(g105
g47
(lp1008
tp1009
Rp1010
(dp1011
g25
I00
sg31
I00
sg32
I00
sg451
I1
sbsg969
g0
(g105
g47
(lp1012
tp1013
Rp1014
(dp1015
g25
I00
sg31
I00
sg32
I00
sg451
I1
sbsg970
g0
(g105
g47
(lp1016
tp1017
Rp1018
(dp1019
g25
I00
sg31
I00
sg32
I00
sg451
I1
sbsg971
g0
(g693
g2
Ntp1020
Rp1021
(dp1022
g25
I00
sg31
I00
sg32
I00
sg17
(lp1023
VnoLineBreaks
p1024
aVnoTimeStamps
p1025
aVlineLength
p1026
ag137
aVstatisticsThreshold
p1027
aVenableStatistics
p1028
aVresetStatistics
p1029
aVenable
p1030
asg26
g976
sg1024
g0
(g100
g2
Ntp1031
Rp1032
(dp1033
g25
I00
sg31
I00
sg32
I00
sg104
g73
sg106
Nsbsg1025
g0
(g100
g2
Ntp1034
Rp1035
(dp1036
g25
I00
sg31
I00
sg32
I00
sg104
g73
sg106
Nsbsg1026
g0
(g100
g2
Ntp1037
Rp1038
(dp1039
g25
I00
sg31
I00
sg32
I00
sg104
g52
sg106
Nsbsg137
g0
(g100
g2
Ntp1040
Rp1041
(dp1042
g25
I00
sg31
I00
sg32
I00
sg104
g121
sg106
Nsbsg1027
g0
(g100
g2
Ntp1043
Rp1044
(dp1045
g25
I00
sg31
I00
sg32
I00
sg104
g121
sg106
Nsbsg1028
g0
(g73
g2
Ntp1046
Rp1047
(dp1048
g25
I00
sg31
I00
sg32
I00
sg42
I00
sbsg1029
g0
(g73
g2
Ntp1049
Rp1050
(dp1051
g25
I00
sg31
I00
sg32
I00
sg42
I00
sbsg1030
g0
(g73
g2
Ntp1052
Rp1053
(dp1054
g25
I00
sg31
I00
sg32
I00
sg42
I00
sbsbsg972
g0
(g693
g2
Ntp1055
Rp1056
(dp1057
g25
I00
sg31
I00
sg32
I00
sg17
(lp1058
g987
ag988
ag989
ag1024
ag1025
ag1026
ag137
ag1027
asg26
g976
sg987
g0
(g52
g2
Ntp1059
Rp1060
(dp1061
g25
I00
sg31
I00
sg32
I00
sg42
I1
sbsg988
g0
(g100
g2
Ntp1062
Rp1063
(dp1064
g25
I00
sg31
I00
sg32
I00
sg104
g52
sg106
Nsbsg989
g0
(g100
g2
Ntp1065
Rp1066
(dp1067
g25
I00
sg31
I00
sg32
I00
sg104
g52
sg106
Nsbsg1024
g0
(g73
g2
Ntp1068
Rp1069
(dp1070
g25
I00
sg31
I00
sg32
I00
sg42
I00
sbsg1025
g0
(g73
g2
Ntp1071
Rp1072
(dp1073
g25
I00
sg31
I00
sg32
I00
sg42
I00
sbsg1026
g0
(g52
g2
Ntp1074
Rp1075
(dp1076
g25
I00
sg31
I00
sg32
I00
sg42
I80
sbsg137
g0
(g121
g2
Ntp1077
Rp1078
(dp1079
g25
I00
sg31
I00
sg32
I00
sg42
VINFO
p1080
sbsg1027
g0
(g121
g2
Ntp1081
Rp1082
(dp1083
g25
I00
sg31
I00
sg32
I00
sg42
g1080
sbsbsg973
g0
(g693
g2
Ntp1084
Rp1085
(dp1086
g25
I00
sg31
I00
sg32
I00
sg17
(lp1087
g1024
ag1025
ag1026
ag137
ag1027
ag1030
ag1028
ag1029
ag1080
aVFwkReport
p1088
ag972
aVRoot_NoDictionary
p1089
aVFwkSummary
p1090
asg26
g976
sg1024
g0
(g100
g2
Ntp1091
Rp1092
(dp1093
g25
I00
sg31
I00
sg32
I00
sg104
g73
sg106
Nsbsg1025
g0
(g73
g2
Ntp1094
Rp1095
(dp1096
g25
I00
sg31
I00
sg32
I00
sg42
I00
sbsg1026
g0
(g100
g2
Ntp1097
Rp1098
(dp1099
g25
I00
sg31
I00
sg32
I00
sg104
g52
sg106
Nsbsg137
g0
(g121
g2
Ntp1100
Rp1101
(dp1102
g25
I00
sg31
I00
sg32
I00
sg42
g1080
sbsg1027
g0
(g121
g2
Ntp1103
Rp1104
(dp1105
g25
I00
sg31
I00
sg32
I00
sg42
VWARNING
p1106
sbsg1030
g0
(g73
g2
Ntp1107
Rp1108
(dp1109
g25
I00
sg31
I00
sg32
I00
sg42
I01
sbsg1028
g0
(g73
g2
Ntp1110
Rp1111
(dp1112
g25
I00
sg31
I00
sg32
I00
sg42
I00
sbsg1029
g0
(g73
g2
Ntp1113
Rp1114
(dp1115
g25
I00
sg31
I00
sg32
I00
sg42
I00
sbsg1080
g0
(g693
g2
Ntp1116
Rp1117
(dp1118
g25
I00
sg31
I00
sg32
I00
sg17
(lp1119
g988
asg26
Nsg988
g0
(g52
g2
Ntp1120
Rp1121
(dp1122
g25
I00
sg31
I00
sg32
I00
sg42
I0
sbsbsg1088
g0
(g693
g2
Ntp1123
Rp1124
(dp1125
g25
I00
sg31
I00
sg32
I01
sg17
(lp1126
g987
ag988
asg26
Nsg987
g0
(g52
g2
Ntp1127
Rp1128
(dp1129
g25
I00
sg31
I00
sg32
I01
sg42
I100
sbsg988
g0
(g52
g2
Ntp1130
Rp1131
(dp1132
g25
I00
sg31
I00
sg32
I00
sg42
I10000000
sbsbsg972
g0
(g693
g2
Ntp1133
Rp1134
(dp1135
g25
I00
sg31
I00
sg32
I00
sg17
(lp1136
g988
asg26
Nsg988
g0
(g52
g2
Ntp1137
Rp1138
(dp1139
g25
I00
sg31
I00
sg32
I00
sg42
I10000000
sbsbsg1089
g0
(g693
g2
Ntp1140
Rp1141
(dp1142
g25
I00
sg31
I00
sg32
I00
sg17
(lp1143
g988
asg26
Nsg988
g0
(g52
g2
Ntp1144
Rp1145
(dp1146
g25
I00
sg31
I00
sg32
I00
sg42
I0
sbsbsg1090
g0
(g693
g2
Ntp1147
Rp1148
(dp1149
g25
I00
sg31
I00
sg32
I00
sg17
(lp1150
g987
ag988
asg26
Nsg987
g0
(g52
g2
Ntp1151
Rp1152
(dp1153
g25
I00
sg31
I00
sg32
I00
sg42
I1
sbsg988
g0
(g52
g2
Ntp1154
Rp1155
(dp1156
g25
I00
sg31
I00
sg32
I00
sg42
I10000000
sbsbsbsg974
g0
(g693
g2
Ntp1157
Rp1158
(dp1159
g25
I00
sg31
I00
sg32
I00
sg17
(lp1160
sg26
g0
(g100
g2
Ntp1161
Rp1162
(dp1163
g25
I00
sg31
I00
sg32
I00
sg104
g0
(g978
g2
Ntp1164
Rp1165
(dp1166
g982
g0
(g693
g2
Ntp1167
Rp1168
(dp1169
g25
I00
sg31
I01
sg32
I00
sg17
(lp1170
g1024
ag1025
ag1026
ag137
ag1027
ag1028
ag1029
aVfilename
p1171
aVextension
p1172
aVoutput
p1173
asg26
g976
sg1024
g0
(g100
g2
Ntp1174
Rp1175
(dp1176
g25
I00
sg31
I00
sg32
I00
sg104
g73
sg106
Nsbsg1025
g0
(g100
g2
Ntp1177
Rp1178
(dp1179
g25
I00
sg31
I00
sg32
I00
sg104
g73
sg106
Nsbsg1026
g0
(g100
g2
Ntp1180
Rp1181
(dp1182
g25
I00
sg31
I00
sg32
I00
sg104
g52
sg106
Nsbsg137
g0
(g100
g2
Ntp1183
Rp1184
(dp1185
g25
I00
sg31
I00
sg32
I00
sg104
g121
sg106
Nsbsg1027
g0
(g100
g2
Ntp1186
Rp1187
(dp1188
g25
I00
sg31
I00
sg32
I00
sg104
g121
sg106
Nsbsg1028
g0
(g73
g2
Ntp1189
Rp1190
(dp1191
g25
I00
sg31
I00
sg32
I00
sg42
I00
sbsg1029
g0
(g73
g2
Ntp1192
Rp1193
(dp1194
g25
I00
sg31
I00
sg32
I00
sg42
I00
sbsg1171
g0
(g100
g2
Ntp1195
Rp1196
(dp1197
g25
I00
sg31
I00
sg32
I00
sg104
g121
sg106
Nsbsg1172
g0
(g100
g2
Ntp1198
Rp1199
(dp1200
g25
I00
sg31
I00
sg32
I00
sg104
g121
sg106
Nsbsg1173
g0
(g100
g2
Ntp1201
Rp1202
(dp1203
g25
I00
sg31
I00
sg32
I00
sg104
g121
sg106
Nsbsbsg999
Nsbsg106
Nsbsbsg59
g660
sg61
I13
sV_inProcess
p1204
I00
sbsVDQMStore
p1205
g0
(g961
g2
Ntp1206
Rp1207
(dp1208
g15
g1205
sg17
(lp1209
Vverbose
p1210
aVsaveByLumi
p1211
aVMEsToSave
p1212
aVtrackME
p1213
aVassertLegacySafe
p1214
aVenableMultiThread
p1215
aVonlineMode
p1216
asg25
I00
sg26
Nsg1210
g0
(g52
g2
Ntp1217
Rp1218
(dp1219
g25
I00
sg31
I00
sg32
I00
sg42
I0
sbsg32
I00
sg1211
g0
(g73
g2
Ntp1220
Rp1221
(dp1222
g25
I00
sg31
I00
sg32
I00
sg42
I00
sbsg1212
g0
(g105
g47
(lp1223
VHcal/DigiTask/Occupancy/depth/depth1
p1224
aVHcal/DigiTask/Occupancy/depth/depth2
p1225
aVHcal/DigiTask/Occupancy/depth/depth3
p1226
aVHcal/DigiTask/Occupancy/depth/depth4
p1227
aVHcal/DigiTask/Occupancy/depth/depth5
p1228
aVHcal/DigiTask/Occupancy/depth/depth6
p1229
aVHcal/DigiTask/Occupancy/depth/depth7
p1230
aVHcal/DigiTask/Occupancy/depth/depthHO
p1231
aVHcal/DigiTask/OccupancyCut/depth/depth1
p1232
aVHcal/DigiTask/OccupancyCut/depth/depth2
p1233
aVHcal/DigiTask/OccupancyCut/depth/depth3
p1234
aVHcal/DigiTask/OccupancyCut/depth/depth4
p1235
aVHcal/DigiTask/OccupancyCut/depth/depth5
p1236
aVHcal/DigiTask/OccupancyCut/depth/depth6
p1237
aVHcal/DigiTask/OccupancyCut/depth/depth7
p1238
aVHcal/DigiTask/OccupancyCut/depth/depthHO
p1239
aVEcalBarrel/EBOccupancyTask/EBOT digi occupancy
p1240
aVEcalEndcap/EEOccupancyTask/EEOT digi occupancy EE -
p1241
aVEcalEndcap/EEOccupancyTask/EEOT digi occupancy EE +
p1242
aVEcalBarrel/EBOccupancyTask/EBOT DCC entries
p1243
aVEcalEndcap/EEOccupancyTask/EEOT DCC entries
p1244
aVEcal/EventInfo/processedEvents
p1245
aVPixelPhase1/Tracks/charge_PXBarrel
p1246
aVPixelPhase1/Tracks/charge_PXForward
p1247
aVPixelPhase1/Tracks/PXBarrel/charge_PXLayer_1
p1248
aVPixelPhase1/Tracks/PXBarrel/charge_PXLayer_2
p1249
aVPixelPhase1/Tracks/PXBarrel/charge_PXLayer_3
p1250
aVPixelPhase1/Tracks/PXBarrel/charge_PXLayer_4
p1251
aVPixelPhase1/Tracks/PXForward/charge_PXDisk_+1
p1252
aVPixelPhase1/Tracks/PXForward/charge_PXDisk_+2
p1253
aVPixelPhase1/Tracks/PXForward/charge_PXDisk_+3
p1254
aVPixelPhase1/Tracks/PXForward/charge_PXDisk_-1
p1255
aVPixelPhase1/Tracks/PXForward/charge_PXDisk_-2
p1256
aVPixelPhase1/Tracks/PXForward/charge_PXDisk_-3
p1257
aVPixelPhase1/Tracks/PXBarrel/size_PXLayer_1
p1258
aVPixelPhase1/Tracks/PXBarrel/size_PXLayer_2
p1259
aVPixelPhase1/Tracks/PXBarrel/size_PXLayer_3
p1260
aVPixelPhase1/Tracks/PXBarrel/size_PXLayer_4
p1261
aVPixelPhase1/Tracks/PXForward/size_PXDisk_+1
p1262
aVPixelPhase1/Tracks/PXForward/size_PXDisk_+2
p1263
aVPixelPhase1/Tracks/PXForward/size_PXDisk_+3
p1264
aVPixelPhase1/Tracks/PXForward/size_PXDisk_-1
p1265
aVPixelPhase1/Tracks/PXForward/size_PXDisk_-2
p1266
aVPixelPhase1/Tracks/PXForward/size_PXDisk_-3
p1267
aVHLT/Vertexing/hltPixelVertices/hltPixelVertices/goodvtxNbr
p1268
aVHLT/Tracking/ValidationWRTOffline/hltMergedWrtHighPurityPV/mon_eta
p1269
aVHLT/Tracking/ValidationWRTOffline/hltMergedWrtHighPurityPV/mon_hits
p1270
aVHLT/Tracking/ValidationWRTOffline/hltMergedWrtHighPurityPV/mon_phi
p1271
aVHLT/Tracking/ValidationWRTOffline/hltMergedWrtHighPurityPV/mon_pt
p1272
aVHLT/Tracking/ValidationWRTOffline/hltMergedWrtHighPurityPV/mon_unMatched_eta
p1273
aVHLT/Tracking/ValidationWRTOffline/hltMergedWrtHighPurityPV/mon_unMatched_hits
p1274
aVHLT/Tracking/ValidationWRTOffline/hltMergedWrtHighPurityPV/mon_unMatched_phi
p1275
aVHLT/Tracking/ValidationWRTOffline/hltMergedWrtHighPurityPV/mon_unMatched_pt
p1276
aVHLT/Tracking/ValidationWRTOffline/hltMergedWrtHighPurityPV/ref_eta
p1277
aVHLT/Tracking/ValidationWRTOffline/hltMergedWrtHighPurityPV/ref_hits
p1278
aVHLT/Tracking/ValidationWRTOffline/hltMergedWrtHighPurityPV/ref_matched_eta
p1279
aVHLT/Tracking/ValidationWRTOffline/hltMergedWrtHighPurityPV/ref_matched_hits
p1280
aVHLT/Tracking/ValidationWRTOffline/hltMergedWrtHighPurityPV/ref_matched_phi
p1281
aVHLT/Tracking/ValidationWRTOffline/hltMergedWrtHighPurityPV/ref_matched_pt
p1282
aVHLT/Tracking/ValidationWRTOffline/hltMergedWrtHighPurityPV/ref_phi
p1283
aVHLT/Tracking/ValidationWRTOffline/hltMergedWrtHighPurityPV/ref_pt
p1284
aVHLT/Tracking/pixelTracks/GeneralProperties/Chi2Prob_GenTk
p1285
aVHLT/Tracking/pixelTracks/GeneralProperties/Chi2oNDFVsEta_ImpactPoint_GenTk
p1286
aVHLT/Tracking/pixelTracks/GeneralProperties/DeltaZToPVZoom_GenTk
p1287
aVHLT/Tracking/pixelTracks/GeneralProperties/DistanceOfClosestApproachToPVVsPhi_GenTk
p1288
aVHLT/Tracking/pixelTracks/GeneralProperties/DistanceOfClosestApproachToPVZoom_GenTk
p1289
aVHLT/Tracking/pixelTracks/GeneralProperties/NumberOfTracks_GenTk
p1290
aVHLT/Tracking/tracks/GeneralProperties/Chi2Prob_GenTk
p1291
aVHLT/Tracking/tracks/GeneralProperties/Chi2oNDFVsEta_ImpactPoint_GenTk
p1292
aVHLT/Tracking/tracks/GeneralProperties/DeltaZToPVZoom_GenTk
p1293
aVHLT/Tracking/tracks/GeneralProperties/DistanceOfClosestApproachToPVVsPhi_GenTk
p1294
aVHLT/Tracking/tracks/GeneralProperties/DistanceOfClosestApproachToPVZoom_GenTk
p1295
aVHLT/Tracking/tracks/GeneralProperties/NumberOfTracks_GenTk
p1296
aVHLT/Tracking/tracks/LUMIanalysis/NumberEventsVsLUMI
p1297
aVHLT/Tracking/tracks/PUmonitoring/NumberEventsVsGoodPVtx
p1298
aVPixelPhase1/Tracks/num_clusters_ontrack_PXBarrel
p1299
aVPixelPhase1/Tracks/num_clusters_ontrack_PXForward
p1300
aVPixelPhase1/Tracks/clusterposition_zphi_ontrack
p1301
aVPixelPhase1/Tracks/PXBarrel/clusterposition_zphi_ontrack_PXLayer_1
p1302
aVPixelPhase1/Tracks/PXBarrel/clusterposition_zphi_ontrack_PXLayer_2
p1303
aVPixelPhase1/Tracks/PXBarrel/clusterposition_zphi_ontrack_PXLayer_3
p1304
aVPixelPhase1/Tracks/PXBarrel/clusterposition_zphi_ontrack_PXLayer_4
p1305
aVPixelPhase1/Tracks/PXForward/clusterposition_xy_ontrack_PXDisk_+1
p1306
aVPixelPhase1/Tracks/PXForward/clusterposition_xy_ontrack_PXDisk_+2
p1307
aVPixelPhase1/Tracks/PXForward/clusterposition_xy_ontrack_PXDisk_+3
p1308
aVPixelPhase1/Tracks/PXForward/clusterposition_xy_ontrack_PXDisk_-1
p1309
aVPixelPhase1/Tracks/PXForward/clusterposition_xy_ontrack_PXDisk_-2
p1310
aVPixelPhase1/Tracks/PXForward/clusterposition_xy_ontrack_PXDisk_-3
p1311
aVSiStrip/MechanicalView/TEC/PLUS/wheel_1/NormalizedHitResiduals_TEC__wheel__1
p1312
aVSiStrip/MechanicalView/TEC/PLUS/wheel_2/NormalizedHitResiduals_TEC__wheel__2
p1313
aVSiStrip/MechanicalView/TEC/PLUS/wheel_3/NormalizedHitResiduals_TEC__wheel__3
p1314
aVSiStrip/MechanicalView/TEC/PLUS/wheel_4/NormalizedHitResiduals_TEC__wheel__4
p1315
aVSiStrip/MechanicalView/TEC/PLUS/wheel_5/NormalizedHitResiduals_TEC__wheel__5
p1316
aVSiStrip/MechanicalView/TEC/PLUS/wheel_6/NormalizedHitResiduals_TEC__wheel__6
p1317
aVSiStrip/MechanicalView/TEC/PLUS/wheel_7/NormalizedHitResiduals_TEC__wheel__7
p1318
aVSiStrip/MechanicalView/TEC/PLUS/wheel_8/NormalizedHitResiduals_TEC__wheel__8
p1319
aVSiStrip/MechanicalView/TEC/PLUS/wheel_9/NormalizedHitResiduals_TEC__wheel__9
p1320
aVSiStrip/MechanicalView/TEC/MINUS/wheel_1/NormalizedHitResiduals_TEC__wheel__1
p1321
aVSiStrip/MechanicalView/TEC/MINUS/wheel_2/NormalizedHitResiduals_TEC__wheel__2
p1322
aVSiStrip/MechanicalView/TEC/MINUS/wheel_3/NormalizedHitResiduals_TEC__wheel__3
p1323
aVSiStrip/MechanicalView/TEC/MINUS/wheel_4/NormalizedHitResiduals_TEC__wheel__4
p1324
aVSiStrip/MechanicalView/TEC/MINUS/wheel_5/NormalizedHitResiduals_TEC__wheel__5
p1325
aVSiStrip/MechanicalView/TEC/MINUS/wheel_6/NormalizedHitResiduals_TEC__wheel__6
p1326
aVSiStrip/MechanicalView/TEC/MINUS/wheel_7/NormalizedHitResiduals_TEC__wheel__7
p1327
aVSiStrip/MechanicalView/TEC/MINUS/wheel_8/NormalizedHitResiduals_TEC__wheel__8
p1328
aVSiStrip/MechanicalView/TEC/MINUS/wheel_9/NormalizedHitResiduals_TEC__wheel__9
p1329
aVSiStrip/MechanicalView/TEC/PLUS/wheel_1/Summary_ClusterStoNCorr__OnTrack__TEC__PLUS__wheel__1
p1330
aVSiStrip/MechanicalView/TEC/PLUS/wheel_2/Summary_ClusterStoNCorr__OnTrack__TEC__PLUS__wheel__2
p1331
aVSiStrip/MechanicalView/TEC/PLUS/wheel_3/Summary_ClusterStoNCorr__OnTrack__TEC__PLUS__wheel__3
p1332
aVSiStrip/MechanicalView/TEC/PLUS/wheel_4/Summary_ClusterStoNCorr__OnTrack__TEC__PLUS__wheel__4
p1333
aVSiStrip/MechanicalView/TEC/PLUS/wheel_5/Summary_ClusterStoNCorr__OnTrack__TEC__PLUS__wheel__5
p1334
aVSiStrip/MechanicalView/TEC/PLUS/wheel_6/Summary_ClusterStoNCorr__OnTrack__TEC__PLUS__wheel__6
p1335
aVSiStrip/MechanicalView/TEC/PLUS/wheel_7/Summary_ClusterStoNCorr__OnTrack__TEC__PLUS__wheel__7
p1336
aVSiStrip/MechanicalView/TEC/PLUS/wheel_8/Summary_ClusterStoNCorr__OnTrack__TEC__PLUS__wheel__8
p1337
aVSiStrip/MechanicalView/TEC/PLUS/wheel_9/Summary_ClusterStoNCorr__OnTrack__TEC__PLUS__wheel__9
p1338
aVSiStrip/MechanicalView/TEC/MINUS/wheel_1/Summary_ClusterStoNCorr__OnTrack__TEC__MINUS__wheel__1
p1339
aVSiStrip/MechanicalView/TEC/MINUS/wheel_2/Summary_ClusterStoNCorr__OnTrack__TEC__MINUS__wheel__2
p1340
aVSiStrip/MechanicalView/TEC/MINUS/wheel_3/Summary_ClusterStoNCorr__OnTrack__TEC__MINUS__wheel__3
p1341
aVSiStrip/MechanicalView/TEC/MINUS/wheel_4/Summary_ClusterStoNCorr__OnTrack__TEC__MINUS__wheel__4
p1342
aVSiStrip/MechanicalView/TEC/MINUS/wheel_5/Summary_ClusterStoNCorr__OnTrack__TEC__MINUS__wheel__5
p1343
aVSiStrip/MechanicalView/TEC/MINUS/wheel_6/Summary_ClusterStoNCorr__OnTrack__TEC__MINUS__wheel__6
p1344
aVSiStrip/MechanicalView/TEC/MINUS/wheel_7/Summary_ClusterStoNCorr__OnTrack__TEC__MINUS__wheel__7
p1345
aVSiStrip/MechanicalView/TEC/MINUS/wheel_8/Summary_ClusterStoNCorr__OnTrack__TEC__MINUS__wheel__8
p1346
aVSiStrip/MechanicalView/TEC/MINUS/wheel_9/Summary_ClusterStoNCorr__OnTrack__TEC__MINUS__wheel__9
p1347
aVSiStrip/MechanicalView/TIB/layer_1/NormalizedHitResiduals_TIB__Layer__1
p1348
aVSiStrip/MechanicalView/TIB/layer_2/NormalizedHitResiduals_TIB__Layer__2
p1349
aVSiStrip/MechanicalView/TIB/layer_3/NormalizedHitResiduals_TIB__Layer__3
p1350
aVSiStrip/MechanicalView/TIB/layer_4/NormalizedHitResiduals_TIB__Layer__4
p1351
aVSiStrip/MechanicalView/TIB/layer_1/Summary_ClusterStoNCorr__OnTrack__TIB__layer__1
p1352
aVSiStrip/MechanicalView/TIB/layer_2/Summary_ClusterStoNCorr__OnTrack__TIB__layer__2
p1353
aVSiStrip/MechanicalView/TIB/layer_3/Summary_ClusterStoNCorr__OnTrack__TIB__layer__3
p1354
aVSiStrip/MechanicalView/TIB/layer_4/Summary_ClusterStoNCorr__OnTrack__TIB__layer__4
p1355
aVSiStrip/MechanicalView/TID/PLUS/wheel_1/NormalizedHitResiduals_TID__wheel__1
p1356
aVSiStrip/MechanicalView/TID/PLUS/wheel_2/NormalizedHitResiduals_TID__wheel__2
p1357
aVSiStrip/MechanicalView/TID/PLUS/wheel_3/NormalizedHitResiduals_TID__wheel__3
p1358
aVSiStrip/MechanicalView/TID/MINUS/wheel_1/NormalizedHitResiduals_TID__wheel__1
p1359
aVSiStrip/MechanicalView/TID/MINUS/wheel_2/NormalizedHitResiduals_TID__wheel__2
p1360
aVSiStrip/MechanicalView/TID/MINUS/wheel_3/NormalizedHitResiduals_TID__wheel__3
p1361
aVSiStrip/MechanicalView/TID/PLUS/wheel_1/Summary_ClusterStoNCorr__OnTrack__TID__PLUS__wheel__1
p1362
aVSiStrip/MechanicalView/TID/PLUS/wheel_2/Summary_ClusterStoNCorr__OnTrack__TID__PLUS__wheel__2
p1363
aVSiStrip/MechanicalView/TID/PLUS/wheel_3/Summary_ClusterStoNCorr__OnTrack__TID__PLUS__wheel__3
p1364
aVSiStrip/MechanicalView/TID/MINUS/wheel_1/Summary_ClusterStoNCorr__OnTrack__TID__MINUS__wheel__1
p1365
aVSiStrip/MechanicalView/TID/MINUS/wheel_2/Summary_ClusterStoNCorr__OnTrack__TID__MINUS__wheel__2
p1366
aVSiStrip/MechanicalView/TID/MINUS/wheel_3/Summary_ClusterStoNCorr__OnTrack__TID__MINUS__wheel__3
p1367
aVSiStrip/MechanicalView/TOB/layer_1/NormalizedHitResiduals_TOB__Layer__1
p1368
aVSiStrip/MechanicalView/TOB/layer_2/NormalizedHitResiduals_TOB__Layer__2
p1369
aVSiStrip/MechanicalView/TOB/layer_3/NormalizedHitResiduals_TOB__Layer__3
p1370
aVSiStrip/MechanicalView/TOB/layer_4/NormalizedHitResiduals_TOB__Layer__4
p1371
aVSiStrip/MechanicalView/TOB/layer_5/NormalizedHitResiduals_TOB__Layer__5
p1372
aVSiStrip/MechanicalView/TOB/layer_6/NormalizedHitResiduals_TOB__Layer__6
p1373
aVSiStrip/MechanicalView/TOB/layer_1/Summary_ClusterStoNCorr__OnTrack__TOB__layer__1
p1374
aVSiStrip/MechanicalView/TOB/layer_2/Summary_ClusterStoNCorr__OnTrack__TOB__layer__2
p1375
aVSiStrip/MechanicalView/TOB/layer_3/Summary_ClusterStoNCorr__OnTrack__TOB__layer__3
p1376
aVSiStrip/MechanicalView/TOB/layer_4/Summary_ClusterStoNCorr__OnTrack__TOB__layer__4
p1377
aVSiStrip/MechanicalView/TOB/layer_5/Summary_ClusterStoNCorr__OnTrack__TOB__layer__5
p1378
aVSiStrip/MechanicalView/TOB/layer_6/Summary_ClusterStoNCorr__OnTrack__TOB__layer__6
p1379
aVSiStrip/MechanicalView/MainDiagonal Position
p1380
aVSiStrip/MechanicalView/NumberOfClustersInPixel
p1381
aVSiStrip/MechanicalView/NumberOfClustersInStrip
p1382
aVTracking/TrackParameters/generalTracks/LSanalysis/Chi2oNDF_lumiFlag_GenTk
p1383
aVTracking/TrackParameters/generalTracks/LSanalysis/NumberOfRecHitsPerTrack_lumiFlag_GenTk
p1384
aVTracking/TrackParameters/generalTracks/LSanalysis/NumberOfTracks_lumiFlag_GenTk
p1385
aVTracking/TrackParameters/highPurityTracks/pt_1/GeneralProperties/SIPDxyToPV_GenTk
p1386
aVTracking/TrackParameters/highPurityTracks/pt_1/GeneralProperties/SIPDzToPV_GenTk
p1387
aVTracking/TrackParameters/highPurityTracks/pt_1/GeneralProperties/SIP3DToPV_GenTk
p1388
aVTracking/TrackParameters/generalTracks/HitProperties/NumberOfMissingOuterRecHitsPerTrack_GenTk
p1389
aVTracking/TrackParameters/generalTracks/HitProperties/NumberMORecHitsPerTrackVsPt_GenTk
p1390
aVOfflinePV/offlinePrimaryVertices/tagVtxProb
p1391
aVOfflinePV/offlinePrimaryVertices/tagType
p1392
aVOfflinePV/Resolution/PV/pull_x
p1393
aVOfflinePV/Resolution/PV/pull_y
p1394
aVOfflinePV/Resolution/PV/pull_z
p1395
aVJetMET/Jet/Cleanedak4PFJetsCHS/CHFrac_highPt_Barrel
p1396
aVJetMET/Jet/Cleanedak4PFJetsCHS/CHFrac_highPt_EndCap
p1397
aVJetMET/Jet/Cleanedak4PFJetsCHS/CHFrac_mediumPt_Barrel
p1398
aVJetMET/Jet/Cleanedak4PFJetsCHS/CHFrac_mediumPt_EndCap
p1399
aVJetMET/Jet/Cleanedak4PFJetsCHS/CHFrac_lowPt_Barrel
p1400
aVJetMET/Jet/Cleanedak4PFJetsCHS/CHFrac_lowPt_EndCap
p1401
aVJetMET/Jet/Cleanedak4PFJetsCHS/ChMultiplicity_highPt_Barrel
p1402
aVJetMET/Jet/Cleanedak4PFJetsCHS/ChMultiplicity_highPt_EndCap
p1403
aVJetMET/Jet/Cleanedak4PFJetsCHS/ChMultiplicity_mediumPt_Barrel
p1404
aVJetMET/Jet/Cleanedak4PFJetsCHS/ChMultiplicity_mediumPt_EndCap
p1405
aVJetMET/Jet/Cleanedak4PFJetsCHS/ChMultiplicity_lowPt_Barrel
p1406
aVJetMET/Jet/Cleanedak4PFJetsCHS/ChMultiplicity_lowPt_EndCap
p1407
aVJetMET/Jet/Cleanedak4PFJetsCHS/Constituents
p1408
aVJetMET/Jet/Cleanedak4PFJetsCHS/Eta
p1409
aVJetMET/Jet/Cleanedak4PFJetsCHS/Eta_uncor
p1410
aVJetMET/Jet/Cleanedak4PFJetsCHS/JetEnergyCorr
p1411
aVJetMET/Jet/Cleanedak4PFJetsCHS/NJets
p1412
aVJetMET/Jet/Cleanedak4PFJetsCHS/Phi
p1413
aVJetMET/Jet/Cleanedak4PFJetsCHS/Phi_Barrel
p1414
aVJetMET/Jet/Cleanedak4PFJetsCHS/Phi_EndCap
p1415
aVJetMET/Jet/Cleanedak4PFJetsCHS/Pt
p1416
aVJetMET/MET/pfMETT1/Cleaned/METSig
p1417
aVJetMET/vertices
p1418
atp1419
Rp1420
(dp1421
g25
I00
sg31
I00
sg32
I00
sg451
I1
sbsg1213
g0
(g121
g2
Ntp1422
Rp1423
(dp1424
g25
I00
sg31
I00
sg32
I00
sg42
g36
sbsg1214
g0
(g73
g2
Ntp1425
Rp1426
(dp1427
g25
I00
sg31
I00
sg32
I00
sg42
I00
sbsg1215
g0
(g73
g2
Ntp1428
Rp1429
(dp1430
g25
I00
sg31
I00
sg32
I00
sg42
I01
sbsg1216
g0
(g73
g2
Ntp1431
Rp1432
(dp1433
g25
I00
sg31
I00
sg32
I00
sg42
I00
sbsg59
g660
sg61
I13
sg1204
I01
sbsVRandomNumberGeneratorService
p1434
g0
(g961
g2
Ntp1435
Rp1436
(dp1437
g15
g1434
sg17
(lp1438
VexternalLHEProducer
p1439
aVgenerator
p1440
aVVtxSmeared
p1441
aVLHCTransport
p1442
aVhiSignalLHCTransport
p1443
aVg4SimHits
p1444
aVmix
p1445
aVmixData
p1446
aVsimSiStripDigiSimLink
p1447
aVsimMuonDTDigis
p1448
aVsimMuonCSCDigis
p1449
aVsimMuonRPCDigis
p1450
aVhiSignal
p1451
aVhiSignalG4SimHits
p1452
aVfamosPileUp
p1453
aVmixGenPU
p1454
aVmixSimCaloHits
p1455
aVmixRecoTracks
p1456
aVfastSimProducer
p1457
aVfastTrackerRecHits
p1458
aVecalRecHit
p1459
aVecalPreshowerRecHit
p1460
aVhbhereco
p1461
aVhoreco
p1462
aVhfreco
p1463
aVparamMuons
p1464
aVl1ParamMuons
p1465
aVMuonSimHits
p1466
aVCTPPSFastRecHits
p1467
aVsimBeamSpotFilter
p1468
aVRPixDetDigitizer
p1469
aVRPSiDetDigitizer
p1470
aVsaveFileName
p1471
asg25
I00
sg26
Nsg1439
g0
(g693
g2
Ntp1472
Rp1473
(dp1474
g25
I00
sg31
I01
sg32
I00
sg17
(lp1475
VinitialSeed
p1476
aVengineName
p1477
asg26
Nsg1476
g0
(g581
g2
Ntp1478
Rp1479
(dp1480
g25
I00
sg31
I00
sg32
I00
sg42
I234567
sbsg1477
g0
(g121
g2
Ntp1481
Rp1482
(dp1483
g25
I00
sg31
I00
sg32
I00
sg42
VMixMaxRng
p1484
sbsbsg32
I00
sg1440
g0
(g693
g2
Ntp1485
Rp1486
(dp1487
g25
I00
sg31
I01
sg32
I00
sg17
(lp1488
g1476
ag1477
asg26
Nsg1476
g0
(g581
g2
Ntp1489
Rp1490
(dp1491
g25
I00
sg31
I00
sg32
I00
sg42
I123456789
sbsg1477
g1482
sbsg1441
g0
(g693
g2
Ntp1492
Rp1493
(dp1494
g25
I00
sg31
I01
sg32
I00
sg17
(lp1495
g1476
ag1477
asg26
Nsg1476
g0
(g581
g2
Ntp1496
Rp1497
(dp1498
g25
I00
sg31
I00
sg32
I00
sg42
I98765432
sbsg1477
g1482
sbsg1442
g0
(g693
g2
Ntp1499
Rp1500
(dp1501
g25
I00
sg31
I01
sg32
I00
sg17
(lp1502
g1476
ag1477
asg26
Nsg1476
g0
(g581
g2
Ntp1503
Rp1504
(dp1505
g25
I00
sg31
I00
sg32
I00
sg42
I87654321
sbsg1477
g0
(g121
g2
Ntp1506
Rp1507
(dp1508
g25
I00
sg31
I00
sg32
I00
sg42
VTRandom3
p1509
sbsbsg1443
g0
(g693
g2
Ntp1510
Rp1511
(dp1512
g25
I00
sg31
I01
sg32
I00
sg17
(lp1513
g1476
ag1477
asg26
Nsg1476
g0
(g581
g2
Ntp1514
Rp1515
(dp1516
g25
I00
sg31
I00
sg32
I00
sg42
I88776655
sbsg1477
g0
(g121
g2
Ntp1517
Rp1518
(dp1519
g25
I00
sg31
I00
sg32
I00
sg42
g1484
sbsbsg1444
g0
(g693
g2
Ntp1520
Rp1521
(dp1522
g25
I00
sg31
I01
sg32
I00
sg17
(lp1523
g1476
ag1477
asg26
Nsg1476
g0
(g581
g2
Ntp1524
Rp1525
(dp1526
g25
I00
sg31
I00
sg32
I00
sg42
I11
sbsg1477
g1482
sbsg1445
g0
(g693
g2
Ntp1527
Rp1528
(dp1529
g25
I00
sg31
I01
sg32
I00
sg17
(lp1530
g1476
ag1477
asg26
Nsg1476
g0
(g581
g2
Ntp1531
Rp1532
(dp1533
g25
I00
sg31
I00
sg32
I00
sg42
I12345
sbsg1477
g1482
sbsg1446
g0
(g693
g2
Ntp1534
Rp1535
(dp1536
g25
I00
sg31
I01
sg32
I00
sg17
(lp1537
g1476
ag1477
asg26
Nsg1476
g0
(g581
g2
Ntp1538
Rp1539
(dp1540
g25
I00
sg31
I00
sg32
I00
sg42
I12345
sbsg1477
g1482
sbsg1447
g0
(g693
g2
Ntp1541
Rp1542
(dp1543
g25
I00
sg31
I01
sg32
I00
sg17
(lp1544
g1476
ag1477
asg26
Nsg1476
g0
(g581
g2
Ntp1545
Rp1546
(dp1547
g25
I00
sg31
I00
sg32
I00
sg42
I1234567
sbsg1477
g1482
sbsg1448
g0
(g693
g2
Ntp1548
Rp1549
(dp1550
g25
I00
sg31
I01
sg32
I00
sg17
(lp1551
g1476
ag1477
asg26
Nsg1476
g0
(g581
g2
Ntp1552
Rp1553
(dp1554
g25
I00
sg31
I00
sg32
I00
sg42
I1234567
sbsg1477
g1482
sbsg1449
g0
(g693
g2
Ntp1555
Rp1556
(dp1557
g25
I00
sg31
I01
sg32
I00
sg17
(lp1558
g1476
ag1477
asg26
Nsg1476
g0
(g581
g2
Ntp1559
Rp1560
(dp1561
g25
I00
sg31
I00
sg32
I00
sg42
I11223344
sbsg1477
g1482
sbsg1450
g0
(g693
g2
Ntp1562
Rp1563
(dp1564
g25
I00
sg31
I01
sg32
I00
sg17
(lp1565
g1476
ag1477
asg26
Nsg1476
g0
(g581
g2
Ntp1566
Rp1567
(dp1568
g25
I00
sg31
I00
sg32
I00
sg42
I1234567
sbsg1477
g1482
sbsg1451
g0
(g693
g2
Ntp1569
Rp1570
(dp1571
g25
I00
sg31
I01
sg32
I00
sg17
(lp1572
g1476
ag1477
asg26
Nsg1476
g0
(g581
g2
Ntp1573
Rp1574
(dp1575
g25
I00
sg31
I00
sg32
I00
sg42
I123456789
sbsg1477
g1482
sbsg1452
g0
(g693
g2
Ntp1576
Rp1577
(dp1578
g25
I00
sg31
I01
sg32
I00
sg17
(lp1579
g1476
ag1477
asg26
Nsg1476
g0
(g581
g2
Ntp1580
Rp1581
(dp1582
g25
I00
sg31
I00
sg32
I00
sg42
I11
sbsg1477
g1482
sbsg1453
g0
(g693
g2
Ntp1583
Rp1584
(dp1585
g25
I00
sg31
I01
sg32
I00
sg17
(lp1586
g1476
ag1477
asg26
Nsg1476
g0
(g581
g2
Ntp1587
Rp1588
(dp1589
g25
I00
sg31
I00
sg32
I00
sg42
I918273
sbsg1477
g1518
sbsg1454
g0
(g693
g2
Ntp1590
Rp1591
(dp1592
g25
I00
sg31
I01
sg32
I00
sg17
(lp1593
g1476
ag1477
asg26
Nsg1476
g0
(g581
g2
Ntp1594
Rp1595
(dp1596
g25
I00
sg31
I00
sg32
I00
sg42
I918273
sbsg1477
g1518
sbsg1455
g0
(g693
g2
Ntp1597
Rp1598
(dp1599
g25
I00
sg31
I01
sg32
I00
sg17
(lp1600
g1476
ag1477
asg26
Nsg1476
g0
(g581
g2
Ntp1601
Rp1602
(dp1603
g25
I00
sg31
I00
sg32
I00
sg42
I918273
sbsg1477
g1518
sbsg1456
g0
(g693
g2
Ntp1604
Rp1605
(dp1606
g25
I00
sg31
I01
sg32
I00
sg17
(lp1607
g1476
ag1477
asg26
Nsg1476
g0
(g581
g2
Ntp1608
Rp1609
(dp1610
g25
I00
sg31
I00
sg32
I00
sg42
I918273
sbsg1477
g1518
sbsg1457
g0
(g693
g2
Ntp1611
Rp1612
(dp1613
g25
I00
sg31
I01
sg32
I00
sg17
(lp1614
g1476
ag1477
asg26
Nsg1476
g0
(g581
g2
Ntp1615
Rp1616
(dp1617
g25
I00
sg31
I00
sg32
I00
sg42
I13579
sbsg1477
g1518
sbsg1458
g0
(g693
g2
Ntp1618
Rp1619
(dp1620
g25
I00
sg31
I01
sg32
I00
sg17
(lp1621
g1476
ag1477
asg26
Nsg1476
g0
(g581
g2
Ntp1622
Rp1623
(dp1624
g25
I00
sg31
I00
sg32
I00
sg42
I24680
sbsg1477
g1518
sbsg1459
g0
(g693
g2
Ntp1625
Rp1626
(dp1627
g25
I00
sg31
I01
sg32
I00
sg17
(lp1628
g1476
ag1477
asg26
Nsg1476
g0
(g581
g2
Ntp1629
Rp1630
(dp1631
g25
I00
sg31
I00
sg32
I00
sg42
I654321
sbsg1477
g1518
sbsg1460
g0
(g693
g2
Ntp1632
Rp1633
(dp1634
g25
I00
sg31
I01
sg32
I00
sg17
(lp1635
g1476
ag1477
asg26
Nsg1476
g0
(g581
g2
Ntp1636
Rp1637
(dp1638
g25
I00
sg31
I00
sg32
I00
sg42
I6541321
sbsg1477
g1518
sbsg1461
g0
(g693
g2
Ntp1639
Rp1640
(dp1641
g25
I00
sg31
I01
sg32
I00
sg17
(lp1642
g1476
ag1477
asg26
Nsg1476
g0
(g581
g2
Ntp1643
Rp1644
(dp1645
g25
I00
sg31
I00
sg32
I00
sg42
I541321
sbsg1477
g1518
sbsg1462
g0
(g693
g2
Ntp1646
Rp1647
(dp1648
g25
I00
sg31
I01
sg32
I00
sg17
(lp1649
g1476
ag1477
asg26
Nsg1476
g0
(g581
g2
Ntp1650
Rp1651
(dp1652
g25
I00
sg31
I00
sg32
I00
sg42
I541321
sbsg1477
g1518
sbsg1463
g0
(g693
g2
Ntp1653
Rp1654
(dp1655
g25
I00
sg31
I01
sg32
I00
sg17
(lp1656
g1476
ag1477
asg26
Nsg1476
g0
(g581
g2
Ntp1657
Rp1658
(dp1659
g25
I00
sg31
I00
sg32
I00
sg42
I541321
sbsg1477
g1518
sbsg1464
g0
(g693
g2
Ntp1660
Rp1661
(dp1662
g25
I00
sg31
I01
sg32
I00
sg17
(lp1663
g1476
ag1477
asg26
Nsg1476
g0
(g581
g2
Ntp1664
Rp1665
(dp1666
g25
I00
sg31
I00
sg32
I00
sg42
I54525
sbsg1477
g1518
sbsg1465
g0
(g693
g2
Ntp1667
Rp1668
(dp1669
g25
I00
sg31
I01
sg32
I00
sg17
(lp1670
g1476
ag1477
asg26
Nsg1476
g0
(g581
g2
Ntp1671
Rp1672
(dp1673
g25
I00
sg31
I00
sg32
I00
sg42
I6453209
sbsg1477
g1518
sbsg1466
g0
(g693
g2
Ntp1674
Rp1675
(dp1676
g25
I00
sg31
I01
sg32
I00
sg17
(lp1677
g1476
ag1477
asg26
Nsg1476
g0
(g581
g2
Ntp1678
Rp1679
(dp1680
g25
I00
sg31
I00
sg32
I00
sg42
I987346
sbsg1477
g1518
sbsg1467
g0
(g693
g2
Ntp1681
Rp1682
(dp1683
g25
I00
sg31
I01
sg32
I00
sg17
(lp1684
g1476
ag1477
asg26
Nsg1476
g0
(g581
g2
Ntp1685
Rp1686
(dp1687
g25
I00
sg31
I00
sg32
I00
sg42
I1357987
sbsg1477
g1518
sbsg1468
g0
(g693
g2
Ntp1688
Rp1689
(dp1690
g25
I00
sg31
I01
sg32
I00
sg17
(lp1691
g1476
ag1477
asg26
Nsg1476
g0
(g581
g2
Ntp1692
Rp1693
(dp1694
g25
I00
sg31
I00
sg32
I00
sg42
I87654321
sbsg1477
g1482
sbsg1469
g0
(g693
g2
Ntp1695
Rp1696
(dp1697
g25
I00
sg31
I01
sg32
I00
sg17
(lp1698
g1476
ag1477
asg26
Nsg1476
g0
(g581
g2
Ntp1699
Rp1700
(dp1701
g25
I00
sg31
I00
sg32
I00
sg42
I137137
sbsg1477
g1482
sbsg1470
g0
(g693
g2
Ntp1702
Rp1703
(dp1704
g25
I00
sg31
I01
sg32
I00
sg17
(lp1705
g1476
ag1477
asg26
Nsg1476
g0
(g581
g2
Ntp1706
Rp1707
(dp1708
g25
I00
sg31
I00
sg32
I00
sg42
I137137
sbsg1477
g1482
sbsg1471
g0
(g121
g2
Ntp1709
Rp1710
(dp1711
g25
I00
sg31
I00
sg32
I00
sg42
g36
sbsg59
g660
sg61
I13
sg1204
I01
sbsVTFileService
p1712
g0
(g961
g2
Ntp1713
Rp1714
(dp1715
g15
g1712
sg17
(lp1716
VfileName
p1717
asg25
I00
sg26
Nsg1717
g0
(g121
g2
Ntp1718
Rp1719
(dp1720
g25
I00
sg31
I01
sg32
I00
sg42
VEff_test_nopTresChi2_nhits0_AOD.root
p1721
sbsg32
I00
sg59
g660
sg61
I13
sg1204
I01
sbssV_Process__essources
p1722
(dp1723
Veegeom
p1724
g0
(cFWCore.ParameterSet.Modules
ESSource
p1725
g2
Ntp1726
Rp1727
(dp1728
g15
VEmptyESSource
p1729
sg17
(lp1730
VrecordName
p1731
aViovIsRunNotTime
p1732
aVfirstValid
p1733
asg25
I00
sg26
Nsg1731
g0
(g121
g2
Ntp1734
Rp1735
(dp1736
g25
I00
sg31
I01
sg32
I00
sg42
VEcalMappingRcd
p1737
sbsg32
I00
sg1732
g0
(g73
g2
Ntp1738
Rp1739
(dp1740
g25
I00
sg31
I01
sg32
I00
sg42
I01
sbsg1733
g0
(cFWCore.ParameterSet.Types
vuint32
p1741
g47
(lp1742
I1
atp1743
Rp1744
(dp1745
g25
I00
sg31
I01
sg32
I00
sbsg59
V/cvmfs/cms.cern.ch/el8_amd64_gcc11/cms/cmssw-patch/CMSSW_13_2_5_patch1/src/Geometry/EcalMapping/python/EcalMappingRecord_cfi.py
p1746
sg61
I3
sg62
g1724
sbsVHepPDTESSource
p1747
g0
(g1725
g2
Ntp1748
Rp1749
(dp1750
g15
g1747
sg17
(lp1751
VpdtFileName
p1752
asg25
I00
sg26
Nsg1752
g0
(cFWCore.ParameterSet.Types
FileInPath
p1753
g2
Ntp1754
Rp1755
(dp1756
g25
I00
sg31
I01
sg32
I00
sg42
VSimGeneral/HepPDTESSource/data/pythiaparticle.tbl
p1757
sbsg32
I00
sg59
V/cvmfs/cms.cern.ch/el8_amd64_gcc11/cms/cmssw-patch/CMSSW_13_2_5_patch1/src/SimGeneral/HepPDTESSource/python/pythiapdt_cfi.py
p1758
sg61
I3
sg62
g1747
sbsVGlobalTag
p1759
g0
(g1725
g2
Ntp1760
Rp1761
(dp1762
g15
VPoolDBESSource
p1763
sg17
(lp1764
VDBParameters
p1765
aVconnect
p1766
aVglobaltag
p1767
aVsnapshotTime
p1768
aVtoGet
p1769
aVDumpStat
p1770
aVReconnectEachRun
p1771
aVRefreshAlways
p1772
aVRefreshEachRun
p1773
aVRefreshOpenIOVs
p1774
aVpfnPostfix
p1775
aVpfnPrefix
p1776
asg25
I00
sg26
Nsg1765
g0
(g693
g2
Ntp1777
Rp1778
(dp1779
g25
I00
sg31
I01
sg32
I00
sg17
(lp1780
VauthenticationPath
p1781
aVauthenticationSystem
p1782
aVsecurity
p1783
aVmessageLevel
p1784
aVconnectionTimeout
p1785
asg26
Nsg1781
g0
(g121
g2
Ntp1786
Rp1787
(dp1788
g25
I00
sg31
I00
sg32
I00
sg42
g36
sbsg1782
g0
(g52
g2
Ntp1789
Rp1790
(dp1791
g25
I00
sg31
I00
sg32
I00
sg42
I0
sbsg1783
g0
(g121
g2
Ntp1792
Rp1793
(dp1794
g25
I00
sg31
I00
sg32
I00
sg42
g36
sbsg1784
g0
(g52
g2
Ntp1795
Rp1796
(dp1797
g25
I00
sg31
I00
sg32
I00
sg42
I0
sbsg1785
g0
(g52
g2
Ntp1798
Rp1799
(dp1800
g25
I00
sg31
I00
sg32
I00
sg42
I0
sbsbsg32
I01
sg1766
g0
(g121
g2
Ntp1801
Rp1802
(dp1803
g25
I00
sg31
I01
sg32
I00
sg42
Vfrontier://FrontierProd/CMS_CONDITIONS
p1804
sbsg1767
g0
(g121
g2
Ntp1805
Rp1806
(dp1807
g25
I00
sg31
I01
sg32
I00
sg42
V132X_mcRun3_2023_realistic_HI_v5
p1808
sbsg1768
g0
(g121
g2
Ntp1809
Rp1810
(dp1811
g25
I00
sg31
I01
sg32
I00
sg42
V9999-12-31 23:59:59.000
p1812
sbsg1769
g0
(g691
g47
(lp1813
g0
(g693
g2
Ntp1814
Rp1815
(dp1816
g25
I00
sg31
I01
sg32
I00
sg17
(lp1817
Vrecord
p1818
aVtag
p1819
ag1766
aVlabel
p1820
asg26
Nsg1818
g0
(g121
g2
Ntp1821
Rp1822
(dp1823
g25
I00
sg31
I01
sg32
I00
sg42
VHeavyIonRcd
p1824
sbsg1819
g0
(g121
g2
Ntp1825
Rp1826
(dp1827
g25
I00
sg31
I01
sg32
I00
sg42
VCentralityTable_HFtowers200_DataPbPb_periHYDJETshape_run3v1302x04_offline_Nominal
p1828
sbsg1766
g0
(g121
g2
Ntp1829
Rp1830
(dp1831
g25
I00
sg31
I01
sg32
I00
sg42
Vsqlite_file:CentralityTable_HFtowers200_DataPbPb_periHYDJETshape_run3v1302x04_offline_Nominal.db
p1832
sbsg1820
g0
(g121
g2
Ntp1833
Rp1834
(dp1835
g25
I00
sg31
I00
sg32
I00
sg42
g522
sbsbatp1836
Rp1837
(dp1838
g25
I00
sg31
I01
sg32
I00
sg451
I1
sbsg1770
g0
(g73
g2
Ntp1839
Rp1840
(dp1841
g25
I00
sg31
I00
sg32
I00
sg42
I00
sbsg1771
g0
(g73
g2
Ntp1842
Rp1843
(dp1844
g25
I00
sg31
I00
sg32
I00
sg42
I00
sbsg1772
g0
(g73
g2
Ntp1845
Rp1846
(dp1847
g25
I00
sg31
I00
sg32
I00
sg42
I00
sbsg1773
g0
(g73
g2
Ntp1848
Rp1849
(dp1850
g25
I00
sg31
I00
sg32
I00
sg42
I00
sbsg1774
g0
(g73
g2
Ntp1851
Rp1852
(dp1853
g25
I00
sg31
I00
sg32
I00
sg42
I00
sbsg1775
g0
(g121
g2
Ntp1854
Rp1855
(dp1856
g25
I00
sg31
I00
sg32
I00
sg42
g36
sbsg1776
g0
(g121
g2
Ntp1857
Rp1858
(dp1859
g25
I00
sg31
I00
sg32
I00
sg42
g36
sbsg59
V/cvmfs/cms.cern.ch/el8_amd64_gcc11/cms/cmssw-patch/CMSSW_13_2_5_patch1/src/CondCore/ESSources/python/CondDBESSource_cfi.py
p1860
sg61
I8
sg62
g1759
sbsVHcalTimeSlewEP
p1861
g0
(g1725
g2
Ntp1862
Rp1863
(dp1864
g15
g1861
sg17
(lp1865
VappendToDataLabel
p1866
aVtimeSlewParametersM2
p1867
aVtimeSlewParametersM3
p1868
asg25
I00
sg26
Nsg1866
g0
(g121
g2
Ntp1869
Rp1870
(dp1871
g25
I00
sg31
I01
sg32
I00
sg42
VHBHE
p1872
sbsg32
I00
sg1867
g0
(g691
g47
(lp1873
g0
(g693
g2
Ntp1874
Rp1875
(dp1876
g25
I00
sg31
I01
sg32
I00
sg17
(lp1877
Vtzero
p1878
aVslope
p1879
aVtmax
p1880
asg26
Nsg1878
g0
(g38
g2
Ntp1881
Rp1882
(dp1883
g25
I00
sg31
I01
sg32
I00
sg42
F23.960177
sbsg1879
g0
(g38
g2
Ntp1884
Rp1885
(dp1886
g25
I00
sg31
I01
sg32
I00
sg42
F-3.178648
sbsg1880
g0
(g38
g2
Ntp1887
Rp1888
(dp1889
g25
I00
sg31
I01
sg32
I00
sg42
F16.0
sbsbag0
(g693
g2
Ntp1890
Rp1891
(dp1892
g25
I00
sg31
I01
sg32
I00
sg17
(lp1893
g1878
ag1879
ag1880
asg26
Nsg1878
g0
(g38
g2
Ntp1894
Rp1895
(dp1896
g25
I00
sg31
I01
sg32
I00
sg42
F11.977461
sbsg1879
g0
(g38
g2
Ntp1897
Rp1898
(dp1899
g25
I00
sg31
I01
sg32
I00
sg42
F-1.5610227
sbsg1880
g0
(g38
g2
Ntp1900
Rp1901
(dp1902
g25
I00
sg31
I01
sg32
I00
sg42
F10.0
sbsbag0
(g693
g2
Ntp1903
Rp1904
(dp1905
g25
I00
sg31
I01
sg32
I00
sg17
(lp1906
g1878
ag1879
ag1880
asg26
Nsg1878
g0
(g38
g2
Ntp1907
Rp1908
(dp1909
g25
I00
sg31
I01
sg32
I00
sg42
F9.109694
sbsg1879
g0
(g38
g2
Ntp1910
Rp1911
(dp1912
g25
I00
sg31
I01
sg32
I00
sg42
F-1.075824
sbsg1880
g0
(g38
g2
Ntp1913
Rp1914
(dp1915
g25
I00
sg31
I01
sg32
I00
sg42
F6.25
sbsbatp1916
Rp1917
(dp1918
g25
I00
sg31
I01
sg32
I00
sg451
I1
sbsg1868
g0
(g691
g47
(lp1919
g0
(g693
g2
Ntp1920
Rp1921
(dp1922
g25
I00
sg31
I01
sg32
I00
sg17
(lp1923
Vcap
p1924
aVtspar0
p1925
aVtspar1
p1926
aVtspar2
p1927
aVtspar0_siPM
p1928
aVtspar1_siPM
p1929
aVtspar2_siPM
p1930
asg26
Nsg1924
g0
(g38
g2
Ntp1931
Rp1932
(dp1933
g25
I00
sg31
I01
sg32
I00
sg42
F6.0
sbsg1925
g0
(g38
g2
Ntp1934
Rp1935
(dp1936
g25
I00
sg31
I01
sg32
I00
sg42
F12.2999
sbsg1926
g0
(g38
g2
Ntp1937
Rp1938
(dp1939
g25
I00
sg31
I01
sg32
I00
sg42
F-2.19142
sbsg1927
g0
(g38
g2
Ntp1940
Rp1941
(dp1942
g25
I00
sg31
I01
sg32
I00
sg42
F0.0
sbsg1928
g0
(g38
g2
Ntp1943
Rp1944
(dp1945
g25
I00
sg31
I01
sg32
I00
sg42
F0.0
sbsg1929
g0
(g38
g2
Ntp1946
Rp1947
(dp1948
g25
I00
sg31
I01
sg32
I00
sg42
F0.0
sbsg1930
g0
(g38
g2
Ntp1949
Rp1950
(dp1951
g25
I00
sg31
I01
sg32
I00
sg42
F0.0
sbsbag0
(g693
g2
Ntp1952
Rp1953
(dp1954
g25
I00
sg31
I01
sg32
I00
sg17
(lp1955
g1924
ag1925
ag1926
ag1927
ag1928
ag1929
ag1930
asg26
Nsg1924
g0
(g38
g2
Ntp1956
Rp1957
(dp1958
g25
I00
sg31
I01
sg32
I00
sg42
F6.0
sbsg1925
g0
(g38
g2
Ntp1959
Rp1960
(dp1961
g25
I00
sg31
I01
sg32
I00
sg42
F15.5
sbsg1926
g0
(g38
g2
Ntp1962
Rp1963
(dp1964
g25
I00
sg31
I01
sg32
I00
sg42
F-3.2
sbsg1927
g0
(g38
g2
Ntp1965
Rp1966
(dp1967
g25
I00
sg31
I01
sg32
I00
sg42
F32.0
sbsg1928
g0
(g38
g2
Ntp1968
Rp1969
(dp1970
g25
I00
sg31
I01
sg32
I00
sg42
F0.0
sbsg1929
g0
(g38
g2
Ntp1971
Rp1972
(dp1973
g25
I00
sg31
I01
sg32
I00
sg42
F0.0
sbsg1930
g0
(g38
g2
Ntp1974
Rp1975
(dp1976
g25
I00
sg31
I01
sg32
I00
sg42
F0.0
sbsbag0
(g693
g2
Ntp1977
Rp1978
(dp1979
g25
I00
sg31
I01
sg32
I00
sg17
(lp1980
g1924
ag1925
ag1926
ag1927
ag1928
ag1929
ag1930
asg26
Nsg1924
g0
(g38
g2
Ntp1981
Rp1982
(dp1983
g25
I00
sg31
I01
sg32
I00
sg42
F6.0
sbsg1925
g0
(g38
g2
Ntp1984
Rp1985
(dp1986
g25
I00
sg31
I01
sg32
I00
sg42
F12.2999
sbsg1926
g0
(g38
g2
Ntp1987
Rp1988
(dp1989
g25
I00
sg31
I01
sg32
I00
sg42
F-2.19142
sbsg1927
g0
(g38
g2
Ntp1990
Rp1991
(dp1992
g25
I00
sg31
I01
sg32
I00
sg42
F0.0
sbsg1928
g0
(g38
g2
Ntp1993
Rp1994
(dp1995
g25
I00
sg31
I01
sg32
I00
sg42
F0.0
sbsg1929
g0
(g38
g2
Ntp1996
Rp1997
(dp1998
g25
I00
sg31
I01
sg32
I00
sg42
F0.0
sbsg1930
g0
(g38
g2
Ntp1999
Rp2000
(dp2001
g25
I00
sg31
I01
sg32
I00
sg42
F0.0
sbsbag0
(g693
g2
Ntp2002
Rp2003
(dp2004
g25
I00
sg31
I01
sg32
I00
sg17
(lp2005
g1924
ag1925
ag1926
ag1927
ag1928
ag1929
ag1930
asg26
Nsg1924
g0
(g38
g2
Ntp2006
Rp2007
(dp2008
g25
I00
sg31
I01
sg32
I00
sg42
F6.0
sbsg1925
g0
(g38
g2
Ntp2009
Rp2010
(dp2011
g25
I00
sg31
I01
sg32
I00
sg42
F12.2999
sbsg1926
g0
(g38
g2
Ntp2012
Rp2013
(dp2014
g25
I00
sg31
I01
sg32
I00
sg42
F-2.19142
sbsg1927
g0
(g38
g2
Ntp2015
Rp2016
(dp2017
g25
I00
sg31
I01
sg32
I00
sg42
F0.0
sbsg1928
g0
(g38
g2
Ntp2018
Rp2019
(dp2020
g25
I00
sg31
I01
sg32
I00
sg42
F0.0
sbsg1929
g0
(g38
g2
Ntp2021
Rp2022
(dp2023
g25
I00
sg31
I01
sg32
I00
sg42
F0.0
sbsg1930
g0
(g38
g2
Ntp2024
Rp2025
(dp2026
g25
I00
sg31
I01
sg32
I00
sg42
F0.0
sbsbatp2027
Rp2028
(dp2029
g25
I00
sg31
I01
sg32
I00
sg451
I1
sbsg59
V/cvmfs/cms.cern.ch/el8_amd64_gcc11/cms/cmssw-patch/CMSSW_13_2_5_patch1/src/CalibCalorimetry/HcalPlugins/python/HcalTimeSlew_cff.py
p2030
sg61
I3
sg62
g1861
sbsVes_hardcode
p2031
g0
(g1725
g2
Ntp2032
Rp2033
(dp2034
g15
VHcalHardcodeCalibrations
p2035
sg17
(lp2036
g1769
aViLumi
p2037
aVHBRecalibration
p2038
aVHBreCalibCutoff
p2039
aVHBmeanenergies
p2040
aVHERecalibration
p2041
aVHEreCalibCutoff
p2042
aVHEmeanenergies
p2043
aVHFRecalibration
p2044
aVHFRecalParameterBlock
p2045
aVGainWidthsForTrigPrims
p2046
aVuseHBUpgrade
p2047
aVuseHEUpgrade
p2048
aVuseHFUpgrade
p2049
aVuseHOUpgrade
p2050
aVtestHFQIE10
p2051
aVtestHEPlan1
p2052
aVkillHE
p2053
aVuseLayer0Weight
p2054
aVuseIeta18depth1
p2055
aVhb
p2056
aVhe
p2057
aVhf
p2058
aVho
p2059
aVhbUpgrade
p2060
aVheUpgrade
p2061
aVhfUpgrade
p2062
aVSiPMCharacteristics
p2063
asg25
I00
sg26
Nsg1769
g0
(g105
g47
(lp2064
VGainWidths
p2065
atp2066
Rp2067
(dp2068
g25
I00
sg31
I00
sg32
I00
sg451
I1
sbsg32
I00
sg2037
g0
(g38
g2
Ntp2069
Rp2070
(dp2071
g25
I00
sg31
I01
sg32
I00
sg42
F-1.0
sbsg2038
g0
(g73
g2
Ntp2072
Rp2073
(dp2074
g25
I00
sg31
I01
sg32
I00
sg42
I00
sbsg2039
g0
(g38
g2
Ntp2075
Rp2076
(dp2077
g25
I00
sg31
I01
sg32
I00
sg42
F20.0
sbsg2040
g0
(g1753
g2
Ntp2078
Rp2079
(dp2080
g25
I00
sg31
I01
sg32
I00
sg42
VCalibCalorimetry/HcalPlugins/data/meanenergiesHB.txt
p2081
sbsg2041
g0
(g73
g2
Ntp2082
Rp2083
(dp2084
g25
I00
sg31
I01
sg32
I00
sg42
I00
sbsg2042
g0
(g38
g2
Ntp2085
Rp2086
(dp2087
g25
I00
sg31
I01
sg32
I00
sg42
F20.0
sbsg2043
g0
(g1753
g2
Ntp2088
Rp2089
(dp2090
g25
I00
sg31
I01
sg32
I00
sg42
VCalibCalorimetry/HcalPlugins/data/meanenergiesHE.txt
p2091
sbsg2044
g0
(g73
g2
Ntp2092
Rp2093
(dp2094
g25
I00
sg31
I01
sg32
I00
sg42
I00
sbsg2045
g0
(g693
g2
Ntp2095
Rp2096
(dp2097
g25
I00
sg31
I01
sg32
I00
sg17
(lp2098
VHFdepthOneParameterA
p2099
aVHFdepthOneParameterB
p2100
aVHFdepthTwoParameterA
p2101
aVHFdepthTwoParameterB
p2102
asg26
Nsg2099
g0
(g46
g47
(lp2103
F0.004123
aF0.00602
aF0.008201
aF0.010489
aF0.013379
aF0.016997
aF0.021464
aF0.027371
aF0.034195
aF0.044807
aF0.058939
aF0.125497
atp2104
Rp2105
(dp2106
g25
I00
sg31
I01
sg32
I00
sbsg2100
g0
(g46
g47
(lp2107
F-4e-06
aF-2e-06
aF0.0
aF4e-06
aF1.5e-05
aF2.6e-05
aF6.3e-05
aF8.4e-05
aF0.00016
aF0.000107
aF0.000425
aF0.000209
atp2108
Rp2109
(dp2110
g25
I00
sg31
I01
sg32
I00
sbsg2101
g0
(g46
g47
(lp2111
F0.002861
aF0.004168
aF0.0064
aF0.008388
aF0.011601
aF0.014425
aF0.018633
aF0.023232
aF0.028274
aF0.035447
aF0.051579
aF0.086593
atp2112
Rp2113
(dp2114
g25
I00
sg31
I01
sg32
I00
sbsg2102
g0
(g46
g47
(lp2115
F-2e-06
aF-0.0
aF-7e-06
aF-6e-06
aF-2e-06
aF1e-06
aF1.9e-05
aF3.1e-05
aF6.7e-05
aF1.2e-05
aF0.000157
aF-3e-06
atp2116
Rp2117
(dp2118
g25
I00
sg31
I01
sg32
I00
sbsg62
g2045
sbsg2046
g0
(g73
g2
Ntp2119
Rp2120
(dp2121
g25
I00
sg31
I01
sg32
I00
sg42
I00
sbsg2047
g0
(g73
g2
Ntp2122
Rp2123
(dp2124
g25
I00
sg31
I01
sg32
I00
sg42
I00
sbsg2048
g0
(g73
g2
Ntp2125
Rp2126
(dp2127
g25
I00
sg31
I01
sg32
I00
sg42
I00
sbsg2049
g0
(g73
g2
Ntp2128
Rp2129
(dp2130
g25
I00
sg31
I01
sg32
I00
sg42
I00
sbsg2050
g0
(g73
g2
Ntp2131
Rp2132
(dp2133
g25
I00
sg31
I01
sg32
I00
sg42
I01
sbsg2051
g0
(g73
g2
Ntp2134
Rp2135
(dp2136
g25
I00
sg31
I01
sg32
I00
sg42
I00
sbsg2052
g0
(g73
g2
Ntp2137
Rp2138
(dp2139
g25
I00
sg31
I01
sg32
I00
sg42
I00
sbsg2053
g0
(g73
g2
Ntp2140
Rp2141
(dp2142
g25
I00
sg31
I01
sg32
I00
sg42
I00
sbsg2054
g0
(g73
g2
Ntp2143
Rp2144
(dp2145
g25
I00
sg31
I01
sg32
I00
sg42
I00
sbsg2055
g0
(g73
g2
Ntp2146
Rp2147
(dp2148
g25
I00
sg31
I01
sg32
I00
sg42
I01
sbsg2056
g0
(g693
g2
Ntp2149
Rp2150
(dp2151
g25
I00
sg31
I01
sg32
I00
sg17
(lp2152
Vpedestal
p2153
aVpedestalWidth
p2154
aVgain
p2155
aVgainWidth
p2156
aVzsThreshold
p2157
aVqieType
p2158
aVqieOffset
p2159
aVqieSlope
p2160
aVmcShape
p2161
aVrecoShape
p2162
aVphotoelectronsToAnalog
p2163
aVdarkCurrent
p2164
aVnoiseCorrelation
p2165
aVnoiseThreshold
p2166
aVseedThreshold
p2167
aVdoRadiationDamage
p2168
asg26
Nsg2153
g0
(g38
g2
Ntp2169
Rp2170
(dp2171
g25
I00
sg31
I01
sg32
I00
sg42
F3.285
sbsg2154
g0
(g38
g2
Ntp2172
Rp2173
(dp2174
g25
I00
sg31
I01
sg32
I00
sg42
F0.809
sbsg2155
g0
(g46
g47
(lp2175
F0.19
atp2176
Rp2177
(dp2178
g25
I00
sg31
I01
sg32
I00
sbsg2156
g0
(g46
g47
(lp2179
F0.0
atp2180
Rp2181
(dp2182
g25
I00
sg31
I01
sg32
I00
sbsg2157
g0
(g52
g2
Ntp2183
Rp2184
(dp2185
g25
I00
sg31
I01
sg32
I00
sg42
I8
sbsg2158
g0
(g52
g2
Ntp2186
Rp2187
(dp2188
g25
I00
sg31
I01
sg32
I00
sg42
I0
sbsg2159
g0
(g46
g47
(lp2189
F-0.49
aF1.8
aF7.2
aF37.9
atp2190
Rp2191
(dp2192
g25
I00
sg31
I01
sg32
I00
sbsg2160
g0
(g46
g47
(lp2193
F0.912
aF0.917
aF0.922
aF0.923
atp2194
Rp2195
(dp2196
g25
I00
sg31
I01
sg32
I00
sbsg2161
g0
(g52
g2
Ntp2197
Rp2198
(dp2199
g25
I00
sg31
I01
sg32
I00
sg42
I125
sbsg2162
g0
(g52
g2
Ntp2200
Rp2201
(dp2202
g25
I00
sg31
I01
sg32
I00
sg42
I105
sbsg2163
g0
(g38
g2
Ntp2203
Rp2204
(dp2205
g25
I00
sg31
I01
sg32
I00
sg42
F0.3305
sbsg2164
g0
(g46
g47
(lp2206
F0.0
atp2207
Rp2208
(dp2209
g25
I00
sg31
I01
sg32
I00
sbsg2165
g0
(g46
g47
(lp2210
F0.0
atp2211
Rp2212
(dp2213
g25
I00
sg31
I01
sg32
I00
sbsg2166
g0
(g38
g2
Ntp2214
Rp2215
(dp2216
g25
I00
sg31
I01
sg32
I00
sg42
F0.0
sbsg2167
g0
(g38
g2
Ntp2217
Rp2218
(dp2219
g25
I00
sg31
I01
sg32
I00
sg42
F0.1
sbsg2168
g0
(g73
g2
Ntp2220
Rp2221
(dp2222
g25
I00
sg31
I01
sg32
I00
sg42
I00
sbsbsg2057
g0
(g693
g2
Ntp2223
Rp2224
(dp2225
g25
I00
sg31
I01
sg32
I00
sg17
(lp2226
g2153
ag2154
ag2155
ag2156
ag2157
ag2158
ag2159
ag2160
ag2161
ag2162
ag2163
ag2164
ag2165
ag2166
ag2167
ag2168
asg26
Nsg2153
g0
(g38
g2
Ntp2227
Rp2228
(dp2229
g25
I00
sg31
I01
sg32
I00
sg42
F3.163
sbsg2154
g0
(g38
g2
Ntp2230
Rp2231
(dp2232
g25
I00
sg31
I01
sg32
I00
sg42
F0.9698
sbsg2155
g0
(g46
g47
(lp2233
F0.23
atp2234
Rp2235
(dp2236
g25
I00
sg31
I01
sg32
I00
sbsg2156
g0
(g46
g47
(lp2237
I0
atp2238
Rp2239
(dp2240
g25
I00
sg31
I01
sg32
I00
sbsg2157
g0
(g52
g2
Ntp2241
Rp2242
(dp2243
g25
I00
sg31
I01
sg32
I00
sg42
I9
sbsg2158
g0
(g52
g2
Ntp2244
Rp2245
(dp2246
g25
I00
sg31
I01
sg32
I00
sg42
I0
sbsg2159
g0
(g46
g47
(lp2247
F-0.38
aF2.0
aF7.6
aF39.6
atp2248
Rp2249
(dp2250
g25
I00
sg31
I01
sg32
I00
sbsg2160
g0
(g46
g47
(lp2251
F0.912
aF0.916
aF0.92
aF0.922
atp2252
Rp2253
(dp2254
g25
I00
sg31
I01
sg32
I00
sbsg2161
g0
(g52
g2
Ntp2255
Rp2256
(dp2257
g25
I00
sg31
I01
sg32
I00
sg42
I125
sbsg2162
g0
(g52
g2
Ntp2258
Rp2259
(dp2260
g25
I00
sg31
I01
sg32
I00
sg42
I105
sbsg2163
g0
(g38
g2
Ntp2261
Rp2262
(dp2263
g25
I00
sg31
I01
sg32
I00
sg42
F0.3305
sbsg2164
g0
(g46
g47
(lp2264
F0.0
atp2265
Rp2266
(dp2267
g25
I00
sg31
I01
sg32
I00
sbsg2165
g0
(g46
g47
(lp2268
F0.0
atp2269
Rp2270
(dp2271
g25
I00
sg31
I01
sg32
I00
sbsg2166
g0
(g38
g2
Ntp2272
Rp2273
(dp2274
g25
I00
sg31
I01
sg32
I00
sg42
F0.0
sbsg2167
g0
(g38
g2
Ntp2275
Rp2276
(dp2277
g25
I00
sg31
I01
sg32
I00
sg42
F0.1
sbsg2168
g0
(g73
g2
Ntp2278
Rp2279
(dp2280
g25
I00
sg31
I01
sg32
I00
sg42
I00
sbsbsg2058
g0
(g693
g2
Ntp2281
Rp2282
(dp2283
g25
I00
sg31
I01
sg32
I00
sg17
(lp2284
g2153
ag2154
ag2155
ag2156
ag2157
ag2158
ag2159
ag2160
ag2161
ag2162
ag2163
ag2164
ag2165
ag2166
ag2167
ag2168
asg26
Nsg2153
g0
(g38
g2
Ntp2285
Rp2286
(dp2287
g25
I00
sg31
I01
sg32
I00
sg42
F9.354
sbsg2154
g0
(g38
g2
Ntp2288
Rp2289
(dp2290
g25
I00
sg31
I01
sg32
I00
sg42
F2.516
sbsg2155
g0
(g46
g47
(lp2291
F0.14
aF0.135
atp2292
Rp2293
(dp2294
g25
I00
sg31
I01
sg32
I00
sbsg2156
g0
(g46
g47
(lp2295
F0.0
aF0.0
atp2296
Rp2297
(dp2298
g25
I00
sg31
I01
sg32
I00
sbsg2157
g0
(g52
g2
Ntp2299
Rp2300
(dp2301
g25
I00
sg31
I01
sg32
I00
sg42
I-9999
sbsg2158
g0
(g52
g2
Ntp2302
Rp2303
(dp2304
g25
I00
sg31
I01
sg32
I00
sg42
I0
sbsg2159
g0
(g46
g47
(lp2305
F-0.87
aF1.4
aF7.8
aF-29.6
atp2306
Rp2307
(dp2308
g25
I00
sg31
I01
sg32
I00
sbsg2160
g0
(g46
g47
(lp2309
F0.359
aF0.358
aF0.36
aF0.367
atp2310
Rp2311
(dp2312
g25
I00
sg31
I01
sg32
I00
sbsg2161
g0
(g52
g2
Ntp2313
Rp2314
(dp2315
g25
I00
sg31
I01
sg32
I00
sg42
I301
sbsg2162
g0
(g52
g2
Ntp2316
Rp2317
(dp2318
g25
I00
sg31
I01
sg32
I00
sg42
I301
sbsg2163
g0
(g38
g2
Ntp2319
Rp2320
(dp2321
g25
I00
sg31
I01
sg32
I00
sg42
F0.0
sbsg2164
g0
(g46
g47
(lp2322
F0.0
atp2323
Rp2324
(dp2325
g25
I00
sg31
I01
sg32
I00
sbsg2165
g0
(g46
g47
(lp2326
F0.0
atp2327
Rp2328
(dp2329
g25
I00
sg31
I01
sg32
I00
sbsg2166
g0
(g38
g2
Ntp2330
Rp2331
(dp2332
g25
I00
sg31
I01
sg32
I00
sg42
F0.0
sbsg2167
g0
(g38
g2
Ntp2333
Rp2334
(dp2335
g25
I00
sg31
I01
sg32
I00
sg42
F0.1
sbsg2168
g0
(g73
g2
Ntp2336
Rp2337
(dp2338
g25
I00
sg31
I01
sg32
I00
sg42
I00
sbsbsg2059
g0
(g693
g2
Ntp2339
Rp2340
(dp2341
g25
I00
sg31
I01
sg32
I00
sg17
(lp2342
g2153
ag2154
ag2155
ag2156
ag2157
ag2158
ag2159
ag2160
ag2161
ag2162
ag2163
ag2164
ag2165
ag2166
ag2167
ag2168
asg26
Nsg2153
g0
(g38
g2
Ntp2343
Rp2344
(dp2345
g25
I00
sg31
I01
sg32
I00
sg42
F12.06
sbsg2154
g0
(g38
g2
Ntp2346
Rp2347
(dp2348
g25
I00
sg31
I01
sg32
I00
sg42
F0.6285
sbsg2155
g0
(g46
g47
(lp2349
F0.006
aF0.0087
atp2350
Rp2351
(dp2352
g25
I00
sg31
I01
sg32
I00
sbsg2156
g0
(g46
g47
(lp2353
F0.0
aF0.0
atp2354
Rp2355
(dp2356
g25
I00
sg31
I01
sg32
I00
sbsg2157
g0
(g52
g2
Ntp2357
Rp2358
(dp2359
g25
I00
sg31
I01
sg32
I00
sg42
I24
sbsg2158
g0
(g52
g2
Ntp2360
Rp2361
(dp2362
g25
I00
sg31
I01
sg32
I00
sg42
I0
sbsg2159
g0
(g46
g47
(lp2363
F-0.44
aF1.4
aF7.1
aF38.5
atp2364
Rp2365
(dp2366
g25
I00
sg31
I01
sg32
I00
sbsg2160
g0
(g46
g47
(lp2367
F0.907
aF0.915
aF0.92
aF0.921
atp2368
Rp2369
(dp2370
g25
I00
sg31
I01
sg32
I00
sbsg2161
g0
(g52
g2
Ntp2371
Rp2372
(dp2373
g25
I00
sg31
I01
sg32
I00
sg42
I201
sbsg2162
g0
(g52
g2
Ntp2374
Rp2375
(dp2376
g25
I00
sg31
I01
sg32
I00
sg42
I201
sbsg2163
g0
(g38
g2
Ntp2377
Rp2378
(dp2379
g25
I00
sg31
I01
sg32
I00
sg42
F4.0
sbsg2164
g0
(g46
g47
(lp2380
F0.0
atp2381
Rp2382
(dp2383
g25
I00
sg31
I01
sg32
I00
sbsg2165
g0
(g46
g47
(lp2384
F0.0
atp2385
Rp2386
(dp2387
g25
I00
sg31
I01
sg32
I00
sbsg2166
g0
(g38
g2
Ntp2388
Rp2389
(dp2390
g25
I00
sg31
I01
sg32
I00
sg42
F0.0
sbsg2167
g0
(g38
g2
Ntp2391
Rp2392
(dp2393
g25
I00
sg31
I01
sg32
I00
sg42
F0.1
sbsg2168
g0
(g73
g2
Ntp2394
Rp2395
(dp2396
g25
I00
sg31
I01
sg32
I00
sg42
I00
sbsbsg2060
g0
(g693
g2
Ntp2397
Rp2398
(dp2399
g25
I00
sg31
I01
sg32
I00
sg17
(lp2400
g2153
ag2154
ag2155
ag2156
ag2157
ag2158
ag2159
ag2160
ag2161
ag2162
ag2163
ag2164
ag2165
ag2166
ag2167
ag2168
aVradiationDamage
p2401
asg26
Nsg2153
g0
(g38
g2
Ntp2402
Rp2403
(dp2404
g25
I00
sg31
I01
sg32
I00
sg42
F17.3
sbsg2154
g0
(g38
g2
Ntp2405
Rp2406
(dp2407
g25
I00
sg31
I01
sg32
I00
sg42
F1.5
sbsg2155
g0
(g46
g47
(lp2408
F0.0006252
atp2409
Rp2410
(dp2411
g25
I00
sg31
I01
sg32
I00
sbsg2156
g0
(g46
g47
(lp2412
I0
atp2413
Rp2414
(dp2415
g25
I00
sg31
I01
sg32
I00
sbsg2157
g0
(g52
g2
Ntp2416
Rp2417
(dp2418
g25
I00
sg31
I01
sg32
I00
sg42
I16
sbsg2158
g0
(g52
g2
Ntp2419
Rp2420
(dp2421
g25
I00
sg31
I01
sg32
I00
sg42
I2
sbsg2159
g0
(g46
g47
(lp2422
F0.0
aF0.0
aF0.0
aF0.0
atp2423
Rp2424
(dp2425
g25
I00
sg31
I01
sg32
I00
sbsg2160
g0
(g46
g47
(lp2426
F0.05376
aF0.05376
aF0.05376
aF0.05376
atp2427
Rp2428
(dp2429
g25
I00
sg31
I01
sg32
I00
sbsg2161
g0
(g52
g2
Ntp2430
Rp2431
(dp2432
g25
I00
sg31
I01
sg32
I00
sg42
I206
sbsg2162
g0
(g52
g2
Ntp2433
Rp2434
(dp2435
g25
I00
sg31
I01
sg32
I00
sg42
I208
sbsg2163
g0
(g38
g2
Ntp2436
Rp2437
(dp2438
g25
I00
sg31
I01
sg32
I00
sg42
F40.0
sbsg2164
g0
(g46
g47
(lp2439
F0.01
aF0.015
atp2440
Rp2441
(dp2442
g25
I00
sg31
I01
sg32
I00
sbsg2165
g0
(g46
g47
(lp2443
F0.26
aF0.254
atp2444
Rp2445
(dp2446
g25
I00
sg31
I01
sg32
I00
sbsg2166
g0
(g38
g2
Ntp2447
Rp2448
(dp2449
g25
I00
sg31
I01
sg32
I00
sg42
F0.0
sbsg2167
g0
(g38
g2
Ntp2450
Rp2451
(dp2452
g25
I00
sg31
I01
sg32
I00
sg42
F0.1
sbsg2168
g0
(g73
g2
Ntp2453
Rp2454
(dp2455
g25
I00
sg31
I01
sg32
I00
sg42
I01
sbsg2401
g0
(g693
g2
Ntp2456
Rp2457
(dp2458
g25
I00
sg31
I01
sg32
I00
sg17
(lp2459
VtemperatureBase
p2460
aVtemperatureNew
p2461
aVintlumiOffset
p2462
aVdepVsTemp
p2463
aVintlumiToNeutrons
p2464
aVdepVsNeutrons
p2465
asg26
Nsg2460
g0
(g38
g2
Ntp2466
Rp2467
(dp2468
g25
I00
sg31
I01
sg32
I00
sg42
I20
sbsg2461
g0
(g38
g2
Ntp2469
Rp2470
(dp2471
g25
I00
sg31
I01
sg32
I00
sg42
I-5
sbsg2462
g0
(g38
g2
Ntp2472
Rp2473
(dp2474
g25
I00
sg31
I01
sg32
I00
sg42
I150
sbsg2463
g0
(g38
g2
Ntp2475
Rp2476
(dp2477
g25
I00
sg31
I01
sg32
I00
sg42
F0.0631
sbsg2464
g0
(g38
g2
Ntp2478
Rp2479
(dp2480
g25
I00
sg31
I01
sg32
I00
sg42
F367000000.0
sbsg2465
g0
(g46
g47
(lp2481
F5.543e-10
aF8.012e-10
atp2482
Rp2483
(dp2484
g25
I00
sg31
I01
sg32
I00
sbsbsbsg2061
g0
(g693
g2
Ntp2485
Rp2486
(dp2487
g25
I00
sg31
I01
sg32
I00
sg17
(lp2488
g2153
ag2154
ag2155
ag2156
ag2157
ag2158
ag2159
ag2160
ag2161
ag2162
ag2163
ag2164
ag2165
ag2166
ag2167
ag2168
ag2401
asg26
Nsg2153
g0
(g38
g2
Ntp2489
Rp2490
(dp2491
g25
I00
sg31
I01
sg32
I00
sg42
F17.3
sbsg2154
g0
(g38
g2
Ntp2492
Rp2493
(dp2494
g25
I00
sg31
I01
sg32
I00
sg42
F1.5
sbsg2155
g0
(g46
g47
(lp2495
F0.0006252
atp2496
Rp2497
(dp2498
g25
I00
sg31
I01
sg32
I00
sbsg2156
g0
(g46
g47
(lp2499
I0
atp2500
Rp2501
(dp2502
g25
I00
sg31
I01
sg32
I00
sbsg2157
g0
(g52
g2
Ntp2503
Rp2504
(dp2505
g25
I00
sg31
I01
sg32
I00
sg42
I16
sbsg2158
g0
(g52
g2
Ntp2506
Rp2507
(dp2508
g25
I00
sg31
I01
sg32
I00
sg42
I2
sbsg2159
g0
(g46
g47
(lp2509
F0.0
aF0.0
aF0.0
aF0.0
atp2510
Rp2511
(dp2512
g25
I00
sg31
I01
sg32
I00
sbsg2160
g0
(g46
g47
(lp2513
F0.05376
aF0.05376
aF0.05376
aF0.05376
atp2514
Rp2515
(dp2516
g25
I00
sg31
I01
sg32
I00
sbsg2161
g0
(g52
g2
Ntp2517
Rp2518
(dp2519
g25
I00
sg31
I01
sg32
I00
sg42
I206
sbsg2162
g0
(g52
g2
Ntp2520
Rp2521
(dp2522
g25
I00
sg31
I01
sg32
I00
sg42
I208
sbsg2163
g0
(g38
g2
Ntp2523
Rp2524
(dp2525
g25
I00
sg31
I01
sg32
I00
sg42
F40.0
sbsg2164
g0
(g46
g47
(lp2526
F0.01
aF0.015
atp2527
Rp2528
(dp2529
g25
I00
sg31
I01
sg32
I00
sbsg2165
g0
(g46
g47
(lp2530
F0.26
aF0.254
atp2531
Rp2532
(dp2533
g25
I00
sg31
I01
sg32
I00
sbsg2166
g0
(g38
g2
Ntp2534
Rp2535
(dp2536
g25
I00
sg31
I01
sg32
I00
sg42
F0.0
sbsg2167
g0
(g38
g2
Ntp2537
Rp2538
(dp2539
g25
I00
sg31
I01
sg32
I00
sg42
F0.1
sbsg2168
g0
(g73
g2
Ntp2540
Rp2541
(dp2542
g25
I00
sg31
I01
sg32
I00
sg42
I01
sbsg2401
g0
(g693
g2
Ntp2543
Rp2544
(dp2545
g25
I00
sg31
I01
sg32
I00
sg17
(lp2546
g2460
ag2461
ag2462
ag2463
ag2464
ag2465
asg26
Nsg2460
g0
(g38
g2
Ntp2547
Rp2548
(dp2549
g25
I00
sg31
I01
sg32
I00
sg42
I20
sbsg2461
g0
(g38
g2
Ntp2550
Rp2551
(dp2552
g25
I00
sg31
I01
sg32
I00
sg42
I5
sbsg2462
g0
(g38
g2
Ntp2553
Rp2554
(dp2555
g25
I00
sg31
I01
sg32
I00
sg42
I75
sbsg2463
g0
(g38
g2
Ntp2556
Rp2557
(dp2558
g25
I00
sg31
I01
sg32
I00
sg42
F0.0631
sbsg2464
g0
(g38
g2
Ntp2559
Rp2560
(dp2561
g25
I00
sg31
I01
sg32
I00
sg42
F29200000.0
sbsg2465
g0
(g46
g47
(lp2562
F5.543e-10
aF8.012e-10
atp2563
Rp2564
(dp2565
g25
I00
sg31
I01
sg32
I00
sbsbsbsg2062
g0
(g693
g2
Ntp2566
Rp2567
(dp2568
g25
I00
sg31
I01
sg32
I00
sg17
(lp2569
g2153
ag2154
ag2155
ag2156
ag2157
ag2158
ag2159
ag2160
ag2161
ag2162
ag2163
ag2164
ag2165
ag2166
ag2167
ag2168
asg26
Nsg2153
g0
(g38
g2
Ntp2570
Rp2571
(dp2572
g25
I00
sg31
I01
sg32
I00
sg42
F13.33
sbsg2154
g0
(g38
g2
Ntp2573
Rp2574
(dp2575
g25
I00
sg31
I01
sg32
I00
sg42
F3.33
sbsg2155
g0
(g46
g47
(lp2576
F0.14
aF0.135
atp2577
Rp2578
(dp2579
g25
I00
sg31
I01
sg32
I00
sbsg2156
g0
(g46
g47
(lp2580
F0.0
aF0.0
atp2581
Rp2582
(dp2583
g25
I00
sg31
I01
sg32
I00
sbsg2157
g0
(g52
g2
Ntp2584
Rp2585
(dp2586
g25
I00
sg31
I01
sg32
I00
sg42
I-9999
sbsg2158
g0
(g52
g2
Ntp2587
Rp2588
(dp2589
g25
I00
sg31
I01
sg32
I00
sg42
I1
sbsg2159
g0
(g46
g47
(lp2590
F0.0697
aF-0.7405
aF12.38
aF-671.9
atp2591
Rp2592
(dp2593
g25
I00
sg31
I01
sg32
I00
sbsg2160
g0
(g46
g47
(lp2594
F0.297
aF0.298
aF0.298
aF0.313
atp2595
Rp2596
(dp2597
g25
I00
sg31
I01
sg32
I00
sbsg2161
g0
(g52
g2
Ntp2598
Rp2599
(dp2600
g25
I00
sg31
I01
sg32
I00
sg42
I301
sbsg2162
g0
(g52
g2
Ntp2601
Rp2602
(dp2603
g25
I00
sg31
I01
sg32
I00
sg42
I301
sbsg2163
g0
(g38
g2
Ntp2604
Rp2605
(dp2606
g25
I00
sg31
I01
sg32
I00
sg42
F0.0
sbsg2164
g0
(g46
g47
(lp2607
F0.0
atp2608
Rp2609
(dp2610
g25
I00
sg31
I01
sg32
I00
sbsg2165
g0
(g46
g47
(lp2611
F0.0
atp2612
Rp2613
(dp2614
g25
I00
sg31
I01
sg32
I00
sbsg2166
g0
(g38
g2
Ntp2615
Rp2616
(dp2617
g25
I00
sg31
I01
sg32
I00
sg42
F0.0
sbsg2167
g0
(g38
g2
Ntp2618
Rp2619
(dp2620
g25
I00
sg31
I01
sg32
I00
sg42
F0.1
sbsg2168
g0
(g73
g2
Ntp2621
Rp2622
(dp2623
g25
I00
sg31
I01
sg32
I00
sg42
I00
sbsbsg2063
g0
(g691
g47
(lp2624
g0
(g693
g2
Ntp2625
Rp2626
(dp2627
g25
I00
sg31
I01
sg32
I00
sg17
(lp2628
Vpixels
p2629
aVcrosstalk
p2630
aVnonlin1
p2631
aVnonlin2
p2632
aVnonlin3
p2633
asg26
Nsg2629
g0
(g52
g2
Ntp2634
Rp2635
(dp2636
g25
I00
sg31
I01
sg32
I00
sg42
I36000
sbsg2630
g0
(g38
g2
Ntp2637
Rp2638
(dp2639
g25
I00
sg31
I01
sg32
I00
sg42
F0.0
sbsg2631
g0
(g38
g2
Ntp2640
Rp2641
(dp2642
g25
I00
sg31
I01
sg32
I00
sg42
F1.0
sbsg2632
g0
(g38
g2
Ntp2643
Rp2644
(dp2645
g25
I00
sg31
I01
sg32
I00
sg42
F0.0
sbsg2633
g0
(g38
g2
Ntp2646
Rp2647
(dp2648
g25
I00
sg31
I01
sg32
I00
sg42
F0.0
sbsbag0
(g693
g2
Ntp2649
Rp2650
(dp2651
g25
I00
sg31
I01
sg32
I00
sg17
(lp2652
g2629
ag2630
ag2631
ag2632
ag2633
asg26
Nsg2629
g0
(g52
g2
Ntp2653
Rp2654
(dp2655
g25
I00
sg31
I01
sg32
I00
sg42
I2500
sbsg2630
g0
(g38
g2
Ntp2656
Rp2657
(dp2658
g25
I00
sg31
I01
sg32
I00
sg42
F0.0
sbsg2631
g0
(g38
g2
Ntp2659
Rp2660
(dp2661
g25
I00
sg31
I01
sg32
I00
sg42
F1.0
sbsg2632
g0
(g38
g2
Ntp2662
Rp2663
(dp2664
g25
I00
sg31
I01
sg32
I00
sg42
F0.0
sbsg2633
g0
(g38
g2
Ntp2665
Rp2666
(dp2667
g25
I00
sg31
I01
sg32
I00
sg42
F0.0
sbsbag0
(g693
g2
Ntp2668
Rp2669
(dp2670
g25
I00
sg31
I01
sg32
I00
sg17
(lp2671
g2629
ag2630
ag2631
ag2632
ag2633
asg26
Nsg2629
g0
(g52
g2
Ntp2672
Rp2673
(dp2674
g25
I00
sg31
I01
sg32
I00
sg42
I27370
sbsg2630
g0
(g38
g2
Ntp2675
Rp2676
(dp2677
g25
I00
sg31
I01
sg32
I00
sg42
F0.17
sbsg2631
g0
(g38
g2
Ntp2678
Rp2679
(dp2680
g25
I00
sg31
I01
sg32
I00
sg42
F1.00985
sbsg2632
g0
(g38
g2
Ntp2681
Rp2682
(dp2683
g25
I00
sg31
I01
sg32
I00
sg42
F7.84089e-06
sbsg2633
g0
(g38
g2
Ntp2684
Rp2685
(dp2686
g25
I00
sg31
I01
sg32
I00
sg42
F2.86282e-10
sbsbag0
(g693
g2
Ntp2687
Rp2688
(dp2689
g25
I00
sg31
I01
sg32
I00
sg17
(lp2690
g2629
ag2630
ag2631
ag2632
ag2633
asg26
Nsg2629
g0
(g52
g2
Ntp2691
Rp2692
(dp2693
g25
I00
sg31
I01
sg32
I00
sg42
I38018
sbsg2630
g0
(g38
g2
Ntp2694
Rp2695
(dp2696
g25
I00
sg31
I01
sg32
I00
sg42
F0.196
sbsg2631
g0
(g38
g2
Ntp2697
Rp2698
(dp2699
g25
I00
sg31
I01
sg32
I00
sg42
F1.00546
sbsg2632
g0
(g38
g2
Ntp2700
Rp2701
(dp2702
g25
I00
sg31
I01
sg32
I00
sg42
F6.40239e-06
sbsg2633
g0
(g38
g2
Ntp2703
Rp2704
(dp2705
g25
I00
sg31
I01
sg32
I00
sg42
F1.27011e-10
sbsbag0
(g693
g2
Ntp2706
Rp2707
(dp2708
g25
I00
sg31
I01
sg32
I00
sg17
(lp2709
g2629
ag2630
ag2631
ag2632
ag2633
asg26
Nsg2629
g0
(g52
g2
Ntp2710
Rp2711
(dp2712
g25
I00
sg31
I01
sg32
I00
sg42
I27370
sbsg2630
g0
(g38
g2
Ntp2713
Rp2714
(dp2715
g25
I00
sg31
I01
sg32
I00
sg42
F0.17
sbsg2631
g0
(g38
g2
Ntp2716
Rp2717
(dp2718
g25
I00
sg31
I01
sg32
I00
sg42
F1.00985
sbsg2632
g0
(g38
g2
Ntp2719
Rp2720
(dp2721
g25
I00
sg31
I01
sg32
I00
sg42
F7.84089e-06
sbsg2633
g0
(g38
g2
Ntp2722
Rp2723
(dp2724
g25
I00
sg31
I01
sg32
I00
sg42
F2.86282e-10
sbsbag0
(g693
g2
Ntp2725
Rp2726
(dp2727
g25
I00
sg31
I01
sg32
I00
sg17
(lp2728
g2629
ag2630
ag2631
ag2632
ag2633
asg26
Nsg2629
g0
(g52
g2
Ntp2729
Rp2730
(dp2731
g25
I00
sg31
I01
sg32
I00
sg42
I38018
sbsg2630
g0
(g38
g2
Ntp2732
Rp2733
(dp2734
g25
I00
sg31
I01
sg32
I00
sg42
F0.196
sbsg2631
g0
(g38
g2
Ntp2735
Rp2736
(dp2737
g25
I00
sg31
I01
sg32
I00
sg42
F1.00546
sbsg2632
g0
(g38
g2
Ntp2738
Rp2739
(dp2740
g25
I00
sg31
I01
sg32
I00
sg42
F6.40239e-06
sbsg2633
g0
(g38
g2
Ntp2741
Rp2742
(dp2743
g25
I00
sg31
I01
sg32
I00
sg42
F1.27011e-10
sbsbag0
(g693
g2
Ntp2744
Rp2745
(dp2746
g25
I00
sg31
I01
sg32
I00
sg17
(lp2747
g2629
ag2630
ag2631
ag2632
ag2633
asg26
Nsg2629
g0
(g52
g2
Ntp2748
Rp2749
(dp2750
g25
I00
sg31
I01
sg32
I00
sg42
I0
sbsg2630
g0
(g38
g2
Ntp2751
Rp2752
(dp2753
g25
I00
sg31
I01
sg32
I00
sg42
F0.0
sbsg2631
g0
(g38
g2
Ntp2754
Rp2755
(dp2756
g25
I00
sg31
I01
sg32
I00
sg42
F1.0
sbsg2632
g0
(g38
g2
Ntp2757
Rp2758
(dp2759
g25
I00
sg31
I01
sg32
I00
sg42
F0.0
sbsg2633
g0
(g38
g2
Ntp2760
Rp2761
(dp2762
g25
I00
sg31
I01
sg32
I00
sg42
F0.0
sbsbatp2763
Rp2764
(dp2765
g25
I00
sg31
I01
sg32
I00
sg451
I1
sbsg59
V/cvmfs/cms.cern.ch/el8_amd64_gcc11/cms/cmssw-patch/CMSSW_13_2_5_patch1/src/CalibCalorimetry/HcalPlugins/python/Hcal_Conditions_forGlobalTag_cff.py
p2766
sg61
I16
sg62
g2031
sbssV_Process__esproducers
p2767
(dp2768
VCSCGeometryESModule
p2769
g0
(cFWCore.ParameterSet.Modules
ESProducer
p2770
g2
Ntp2771
Rp2772
(dp2773
g15
g2769
sg17
(lp2774
VfromDDD
p2775
aVfromDD4hep
p2776
aValignmentsLabel
p2777
ag1866
aVuseRealWireGeometry
p2778
aVuseOnlyWiresInME1a
p2779
aVuseGangedStripsInME1a
p2780
aVuseCentreTIOffsets
p2781
aVapplyAlignment
p2782
aVdebugV
p2783
asg25
I00
sg26
Nsg2775
g0
(g73
g2
Ntp2784
Rp2785
(dp2786
g25
I00
sg31
I01
sg32
I00
sg42
I00
sbsg32
I00
sg2776
g0
(g73
g2
Ntp2787
Rp2788
(dp2789
g25
I00
sg31
I01
sg32
I00
sg42
I00
sbsg2777
g0
(g121
g2
Ntp2790
Rp2791
(dp2792
g25
I00
sg31
I01
sg32
I00
sg42
g36
sbsg1866
g0
(g121
g2
Ntp2793
Rp2794
(dp2795
g25
I00
sg31
I01
sg32
I00
sg42
g36
sbsg2778
g0
(g73
g2
Ntp2796
Rp2797
(dp2798
g25
I00
sg31
I01
sg32
I00
sg42
I01
sbsg2779
g0
(g73
g2
Ntp2799
Rp2800
(dp2801
g25
I00
sg31
I01
sg32
I00
sg42
I00
sbsg2780
g0
(g73
g2
Ntp2802
Rp2803
(dp2804
g25
I00
sg31
I01
sg32
I00
sg42
I01
sbsg2781
g0
(g73
g2
Ntp2805
Rp2806
(dp2807
g25
I00
sg31
I01
sg32
I00
sg42
I00
sbsg2782
g0
(g73
g2
Ntp2808
Rp2809
(dp2810
g25
I00
sg31
I01
sg32
I00
sg42
I01
sbsg2783
g0
(g73
g2
Ntp2811
Rp2812
(dp2813
g25
I00
sg31
I00
sg32
I00
sg42
I00
sbsg59
g660
sg61
I55
sg62
g2769
sbsVCaloGeometryBuilder
p2814
g0
(g2770
g2
Ntp2815
Rp2816
(dp2817
g15
g2814
sg17
(lp2818
VSelectedCalos
p2819
asg25
I00
sg26
Nsg2819
g0
(g105
g47
(lp2820
VHCAL
p2821
aVZDC
p2822
aVCASTOR
p2823
aVEcalBarrel
p2824
aVEcalEndcap
p2825
aVEcalPreshower
p2826
aVTOWER
p2827
atp2828
Rp2829
(dp2830
g25
I00
sg31
I01
sg32
I00
sg451
I1
sbsg32
I00
sg59
g660
sg61
I55
sg62
g2814
sbsVCaloTopologyBuilder
p2831
g0
(g2770
g2
Ntp2832
Rp2833
(dp2834
g15
g2831
sg17
(lp2835
sg25
I00
sg26
Nsg32
I00
sg59
g660
sg61
I55
sg62
g2831
sbsVCaloTowerGeometryFromDBEP
p2836
g0
(g2770
g2
Ntp2837
Rp2838
(dp2839
g15
g2836
sg17
(lp2840
g2782
asg25
I00
sg26
Nsg2782
g0
(g73
g2
Ntp2841
Rp2842
(dp2843
g25
I00
sg31
I01
sg32
I00
sg42
I00
sbsg32
I00
sg59
g660
sg61
I55
sg62
g2836
sbsVCaloTowerTopologyEP
p2844
g0
(g2770
g2
Ntp2845
Rp2846
(dp2847
g15
g2844
sg17
(lp2848
sg25
I00
sg26
Nsg32
I00
sg59
g660
sg61
I55
sg62
g2844
sbsVCastorGeometryFromDBEP
p2849
g0
(g2770
g2
Ntp2850
Rp2851
(dp2852
g15
g2849
sg17
(lp2853
g2782
asg25
I00
sg26
Nsg2782
g0
(g73
g2
Ntp2854
Rp2855
(dp2856
g25
I00
sg31
I01
sg32
I00
sg42
I00
sbsg32
I00
sg59
g660
sg61
I55
sg62
g2849
sbsVDTGeometryESModule
p2857
g0
(g2770
g2
Ntp2858
Rp2859
(dp2860
g15
g2857
sg17
(lp2861
g2775
ag2776
aVDDDetector
p2862
ag2777
ag1866
aVattribute
p2863
aVvalue
p2864
ag2782
asg25
I00
sg26
Nsg2775
g0
(g73
g2
Ntp2865
Rp2866
(dp2867
g25
I00
sg31
I01
sg32
I01
sg42
I00
sbsg32
I01
sg2776
g0
(g73
g2
Ntp2868
Rp2869
(dp2870
g25
I00
sg31
I01
sg32
I00
sg42
I00
sbsg2862
g0
(cFWCore.ParameterSet.Types
ESInputTag
p2871
g2
Ntp2872
Rp2873
(dp2874
g25
I00
sg31
I01
sg32
I00
sV_ESInputTag__moduleLabel
p2875
g36
sV_ESInputTag__data
p2876
g36
sbsg2777
g0
(g121
g2
Ntp2877
Rp2878
(dp2879
g25
I00
sg31
I01
sg32
I00
sg42
g36
sbsg1866
g0
(g121
g2
Ntp2880
Rp2881
(dp2882
g25
I00
sg31
I01
sg32
I00
sg42
g36
sbsg2863
g0
(g121
g2
Ntp2883
Rp2884
(dp2885
g25
I00
sg31
I01
sg32
I00
sg42
VMuStructure
p2886
sbsg2864
g0
(g121
g2
Ntp2887
Rp2888
(dp2889
g25
I00
sg31
I01
sg32
I00
sg42
VMuonBarrelDT
p2890
sbsg2782
g0
(g73
g2
Ntp2891
Rp2892
(dp2893
g25
I00
sg31
I01
sg32
I00
sg42
I01
sbsg59
g660
sg61
I55
sg62
g2857
sbsVEcalBarrelGeometryFromDBEP
p2894
g0
(g2770
g2
Ntp2895
Rp2896
(dp2897
g15
g2894
sg17
(lp2898
g2782
asg25
I00
sg26
Nsg2782
g0
(g73
g2
Ntp2899
Rp2900
(dp2901
g25
I00
sg31
I01
sg32
I01
sg42
I01
sbsg32
I01
sg59
g660
sg61
I55
sg62
g2894
sbsVEcalElectronicsMappingBuilder
p2902
g0
(g2770
g2
Ntp2903
Rp2904
(dp2905
g15
g2902
sg17
(lp2906
sg25
I00
sg26
Nsg32
I00
sg59
g660
sg61
I55
sg62
g2902
sbsVEcalEndcapGeometryFromDBEP
p2907
g0
(g2770
g2
Ntp2908
Rp2909
(dp2910
g15
g2907
sg17
(lp2911
g2782
asg25
I00
sg26
Nsg2782
g0
(g73
g2
Ntp2912
Rp2913
(dp2914
g25
I00
sg31
I01
sg32
I01
sg42
I01
sbsg32
I01
sg59
g660
sg61
I55
sg62
g2907
sbsVEcalPreshowerGeometryFromDBEP
p2915
g0
(g2770
g2
Ntp2916
Rp2917
(dp2918
g15
g2915
sg17
(lp2919
g2782
asg25
I00
sg26
Nsg2782
g0
(g73
g2
Ntp2920
Rp2921
(dp2922
g25
I00
sg31
I01
sg32
I01
sg42
I01
sbsg32
I01
sg59
g660
sg61
I55
sg62
g2915
sbsVEcalTrigTowerConstituentsMapBuilder
p2923
g0
(g2770
g2
Ntp2924
Rp2925
(dp2926
g15
g2923
sg17
(lp2927
VMapFile
p2928
asg25
I00
sg26
Nsg2928
g0
(g121
g2
Ntp2929
Rp2930
(dp2931
g25
I00
sg31
I00
sg32
I00
sg42
VGeometry/EcalMapping/data/EndCap_TTMap.txt
p2932
sbsg32
I00
sg59
g660
sg61
I55
sg62
g2923
sbsVGlobalTrackingGeometryESProducer
p2933
g0
(g2770
g2
Ntp2934
Rp2935
(dp2936
g15
g2933
sg17
(lp2937
sg25
I00
sg26
Nsg32
I00
sg59
g660
sg61
I55
sg62
g2933
sbsVHcalAlignmentEP
p2938
g0
(g2770
g2
Ntp2939
Rp2940
(dp2941
g15
g2938
sg17
(lp2942
sg25
I00
sg26
Nsg32
I00
sg59
g660
sg61
I55
sg62
g2938
sbsVHcalGeometryFromDBEP
p2943
g0
(g2770
g2
Ntp2944
Rp2945
(dp2946
g15
g2943
sg17
(lp2947
g2782
asg25
I00
sg26
Nsg2782
g0
(g73
g2
Ntp2948
Rp2949
(dp2950
g25
I00
sg31
I01
sg32
I01
sg42
I01
sbsg32
I01
sg59
g660
sg61
I55
sg62
g2943
sbsVMuonDetLayerGeometryESProducer
p2951
g0
(g2770
g2
Ntp2952
Rp2953
(dp2954
g15
g2951
sg17
(lp2955
sg25
I00
sg26
Nsg32
I00
sg59
g660
sg61
I55
sg62
g2951
sbsVRPCGeometryESModule
p2956
g0
(g2770
g2
Ntp2957
Rp2958
(dp2959
g15
g2956
sg17
(lp2960
g2775
ag2776
asg25
I00
sg26
Nsg2775
g0
(g73
g2
Ntp2961
Rp2962
(dp2963
g25
I00
sg31
I00
sg32
I00
sg42
I00
sbsg32
I00
sg2776
g0
(g73
g2
Ntp2964
Rp2965
(dp2966
g25
I00
sg31
I00
sg32
I00
sg42
I00
sbsg59
g660
sg61
I55
sg62
g2956
sbsVTrackerRecoGeometryESProducer
p2967
g0
(g2770
g2
Ntp2968
Rp2969
(dp2970
g15
g2967
sg17
(lp2971
VusePhase2Stacks
p2972
asg25
I00
sg26
Nsg2972
g0
(g73
g2
Ntp2973
Rp2974
(dp2975
g25
I00
sg31
I01
sg32
I00
sg42
I00
sbsg32
I00
sg59
g660
sg61
I55
sg62
g2967
sbsVZdcGeometryFromDBEP
p2976
g0
(g2770
g2
Ntp2977
Rp2978
(dp2979
g15
g2976
sg17
(lp2980
g2782
asg25
I00
sg26
Nsg2782
g0
(g73
g2
Ntp2981
Rp2982
(dp2983
g25
I00
sg31
I01
sg32
I00
sg42
I00
sbsg32
I00
sg59
g660
sg61
I55
sg62
g2976
sbsVfakeForIdealAlignment
p2984
g0
(g2770
g2
Ntp2985
Rp2986
(dp2987
g15
VFakeAlignmentProducer
p2988
sg17
(lp2989
g1866
asg25
I00
sg26
Nsg1866
g0
(g121
g2
Ntp2990
Rp2991
(dp2992
g25
I00
sg31
I01
sg32
I01
sg42
VfakeForIdeal
p2993
sbsg32
I01
sg59
V/cvmfs/cms.cern.ch/el8_amd64_gcc11/cms/cmssw-patch/CMSSW_13_2_5_patch1/src/Alignment/CommonAlignmentProducer/python/fakeForIdealAlignmentProducer_cfi.py
p2994
sg61
I5
sg62
g2984
sbsVhcalDDDRecConstants
p2995
g0
(g2770
g2
Ntp2996
Rp2997
(dp2998
g15
VHcalDDDRecConstantsESModule
p2999
sg17
(lp3000
g1866
asg25
I00
sg26
Nsg1866
g0
(g121
g2
Ntp3001
Rp3002
(dp3003
g25
I00
sg31
I01
sg32
I00
sg42
g36
sbsg32
I00
sg59
g660
sg61
I55
sg62
g2995
sbsVhcalDDDSimConstants
p3004
g0
(g2770
g2
Ntp3005
Rp3006
(dp3007
g15
VHcalDDDSimConstantsESModule
p3008
sg17
(lp3009
g1866
asg25
I00
sg26
Nsg1866
g0
(g121
g2
Ntp3010
Rp3011
(dp3012
g25
I00
sg31
I01
sg32
I00
sg42
g36
sbsg32
I00
sg59
g660
sg61
I55
sg62
g3004
sbsVhcalTopologyIdeal
p3013
g0
(g2770
g2
Ntp3014
Rp3015
(dp3016
g15
VHcalTopologyIdealEP
p3017
sg17
(lp3018
VExclude
p3019
aVMergePosition
p3020
ag1866
asg25
I00
sg26
Nsg3019
g0
(g121
g2
Ntp3021
Rp3022
(dp3023
g25
I00
sg31
I00
sg32
I00
sg42
g36
sbsg32
I00
sg3020
g0
(g73
g2
Ntp3024
Rp3025
(dp3026
g25
I00
sg31
I00
sg32
I00
sg42
I00
sbsg1866
g0
(g121
g2
Ntp3027
Rp3028
(dp3029
g25
I00
sg31
I01
sg32
I00
sg42
g36
sbsg59
g660
sg61
I55
sg62
g3013
sbsVidealForDigiCSCGeometry
p3030
g0
(g2770
g2
Ntp3031
Rp3032
(dp3033
g15
g2769
sg17
(lp3034
g2775
ag2776
ag2777
ag1866
ag2778
ag2779
ag2780
ag2781
ag2782
ag2783
asg25
I00
sg26
Nsg2775
g0
(g73
g2
Ntp3035
Rp3036
(dp3037
g25
I00
sg31
I01
sg32
I00
sg42
I00
sbsg32
I01
sg2776
g0
(g73
g2
Ntp3038
Rp3039
(dp3040
g25
I00
sg31
I01
sg32
I00
sg42
I00
sbsg2777
g0
(g121
g2
Ntp3041
Rp3042
(dp3043
g25
I00
sg31
I01
sg32
I01
sg42
g2993
sbsg1866
g0
(g121
g2
Ntp3044
Rp3045
(dp3046
g25
I00
sg31
I01
sg32
I01
sg42
VidealForDigi
p3047
sbsg2778
g0
(g73
g2
Ntp3048
Rp3049
(dp3050
g25
I00
sg31
I01
sg32
I00
sg42
I01
sbsg2779
g0
(g73
g2
Ntp3051
Rp3052
(dp3053
g25
I00
sg31
I01
sg32
I00
sg42
I00
sbsg2780
g0
(g73
g2
Ntp3054
Rp3055
(dp3056
g25
I00
sg31
I01
sg32
I00
sg42
I01
sbsg2781
g0
(g73
g2
Ntp3057
Rp3058
(dp3059
g25
I00
sg31
I01
sg32
I00
sg42
I00
sbsg2782
g0
(g73
g2
Ntp3060
Rp3061
(dp3062
g25
I00
sg31
I01
sg32
I01
sg42
I00
sbsg2783
g0
(g73
g2
Ntp3063
Rp3064
(dp3065
g25
I00
sg31
I00
sg32
I00
sg42
I00
sbsg59
V/cvmfs/cms.cern.ch/el8_amd64_gcc11/cms/cmssw-patch/CMSSW_13_2_5_patch1/src/Geometry/CSCGeometryBuilder/python/idealForDigiCscGeometryDB_cff.py
p3066
sg61
I8
sg62
g3030
sbsVidealForDigiDTGeometry
p3067
g0
(g2770
g2
Ntp3068
Rp3069
(dp3070
g15
g2857
sg17
(lp3071
g2775
ag2776
ag2862
ag2777
ag1866
ag2863
ag2864
ag2782
asg25
I00
sg26
Nsg2775
g0
(g73
g2
Ntp3072
Rp3073
(dp3074
g25
I00
sg31
I01
sg32
I01
sg42
I00
sbsg32
I01
sg2776
g0
(g73
g2
Ntp3075
Rp3076
(dp3077
g25
I00
sg31
I01
sg32
I00
sg42
I00
sbsg2862
g0
(g2871
g2
Ntp3078
Rp3079
(dp3080
g25
I00
sg31
I01
sg32
I00
sg2875
g36
sg2876
g36
sbsg2777
g0
(g121
g2
Ntp3081
Rp3082
(dp3083
g25
I00
sg31
I01
sg32
I01
sg42
g2993
sbsg1866
g0
(g121
g2
Ntp3084
Rp3085
(dp3086
g25
I00
sg31
I01
sg32
I01
sg42
g3047
sbsg2863
g0
(g121
g2
Ntp3087
Rp3088
(dp3089
g25
I00
sg31
I01
sg32
I00
sg42
g2886
sbsg2864
g0
(g121
g2
Ntp3090
Rp3091
(dp3092
g25
I00
sg31
I01
sg32
I00
sg42
g2890
sbsg2782
g0
(g73
g2
Ntp3093
Rp3094
(dp3095
g25
I00
sg31
I01
sg32
I01
sg42
I00
sbsg59
V/cvmfs/cms.cern.ch/el8_amd64_gcc11/cms/cmssw-patch/CMSSW_13_2_5_patch1/src/Geometry/DTGeometryBuilder/python/idealForDigiDtGeometryDB_cff.py
p3096
sg61
I8
sg62
g3067
sbsVidealForDigiTrackerGeometry
p3097
g0
(g2770
g2
Ntp3098
Rp3099
(dp3100
g15
VTrackerDigiGeometryESModule
p3101
sg17
(lp3102
g1866
ag2775
ag2782
ag2777
asg25
I00
sg26
Nsg1866
g0
(g121
g2
Ntp3103
Rp3104
(dp3105
g25
I00
sg31
I01
sg32
I01
sg42
g3047
sbsg32
I01
sg2775
g0
(g73
g2
Ntp3106
Rp3107
(dp3108
g25
I00
sg31
I01
sg32
I00
sg42
I00
sbsg2782
g0
(g73
g2
Ntp3109
Rp3110
(dp3111
g25
I00
sg31
I01
sg32
I01
sg42
I00
sbsg2777
g0
(g121
g2
Ntp3112
Rp3113
(dp3114
g25
I00
sg31
I01
sg32
I01
sg42
g2993
sbsg59
V/cvmfs/cms.cern.ch/el8_amd64_gcc11/cms/cmssw-patch/CMSSW_13_2_5_patch1/src/Geometry/TrackerGeometryBuilder/python/idealForDigiTrackerGeometryDB_cff.py
p3115
sg61
I8
sg62
g3097
sbsVmuonGeometryConstants
p3116
g0
(g2770
g2
Ntp3117
Rp3118
(dp3119
g15
VMuonGeometryConstantsESModule
p3120
sg17
(lp3121
g2776
ag1866
asg25
I00
sg26
Nsg2776
g0
(g73
g2
Ntp3122
Rp3123
(dp3124
g25
I00
sg31
I01
sg32
I00
sg42
I00
sbsg32
I00
sg1866
g0
(g121
g2
Ntp3125
Rp3126
(dp3127
g25
I00
sg31
I01
sg32
I00
sg42
g36
sbsg59
g660
sg61
I55
sg62
g3116
sbsVtrackerGeometryDB
p3128
g0
(g2770
g2
Ntp3129
Rp3130
(dp3131
g15
g3101
sg17
(lp3132
g1866
ag2775
ag2782
ag2777
asg25
I00
sg26
Nsg1866
g0
(g121
g2
Ntp3133
Rp3134
(dp3135
g25
I00
sg31
I01
sg32
I00
sg42
g36
sbsg32
I00
sg2775
g0
(g73
g2
Ntp3136
Rp3137
(dp3138
g25
I00
sg31
I01
sg32
I00
sg42
I00
sbsg2782
g0
(g73
g2
Ntp3139
Rp3140
(dp3141
g25
I00
sg31
I01
sg32
I00
sg42
I01
sbsg2777
g0
(g121
g2
Ntp3142
Rp3143
(dp3144
g25
I00
sg31
I01
sg32
I00
sg42
g36
sbsg59
g660
sg61
I55
sg62
g3128
sbsVtrackerNumberingGeometryDB
p3145
g0
(g2770
g2
Ntp3146
Rp3147
(dp3148
g15
VTrackerGeometricDetESModule
p3149
sg17
(lp3150
g2775
ag2776
ag1866
asg25
I00
sg26
Nsg2775
g0
(g73
g2
Ntp3151
Rp3152
(dp3153
g25
I00
sg31
I01
sg32
I00
sg42
I00
sbsg32
I00
sg2776
g0
(g73
g2
Ntp3154
Rp3155
(dp3156
g25
I00
sg31
I01
sg32
I00
sg42
I00
sbsg1866
g0
(g121
g2
Ntp3157
Rp3158
(dp3159
g25
I00
sg31
I01
sg32
I00
sg42
g36
sbsg59
g660
sg61
I55
sg62
g3145
sbsVtrackerTopology
p3160
g0
(g2770
g2
Ntp3161
Rp3162
(dp3163
g15
VTrackerTopologyEP
p3164
sg17
(lp3165
g1866
asg25
I00
sg26
Nsg1866
g0
(g121
g2
Ntp3166
Rp3167
(dp3168
g25
I00
sg31
I01
sg32
I00
sg42
g36
sbsg32
I00
sg59
g660
sg61
I55
sg62
g3160
sbsVMuonNumberingInitialization
p3169
g0
(g2770
g2
Ntp3170
Rp3171
(dp3172
g15
g3169
sg17
(lp3173
sg25
I00
sg26
Nsg32
I00
sg59
g660
sg61
I55
sg62
g3169
sbsVXMLFromDBSource
p3174
g0
(g2770
g2
Ntp3175
Rp3176
(dp3177
g15
VXMLIdealGeometryESProducer
p3178
sg17
(lp3179
VrootDDName
p3180
ag1820
asg25
I00
sg26
Nsg3180
g0
(g121
g2
Ntp3181
Rp3182
(dp3183
g25
I00
sg31
I01
sg32
I00
sg42
Vcms:OCMS
p3184
sbsg32
I00
sg1820
g0
(g121
g2
Ntp3185
Rp3186
(dp3187
g25
I00
sg31
I01
sg32
I00
sg42
VExtended
p3188
sbsg59
g660
sg61
I55
sg62
g3174
sbsVcaloSimulationParameters
p3189
g0
(g2770
g2
Ntp3190
Rp3191
(dp3192
g15
VCaloSimParametersESModule
p3193
sg17
(lp3194
g2776
ag1866
asg25
I00
sg26
Nsg2776
g0
(g73
g2
Ntp3195
Rp3196
(dp3197
g25
I00
sg31
I01
sg32
I00
sg42
I00
sbsg32
I00
sg1866
g0
(g121
g2
Ntp3198
Rp3199
(dp3200
g25
I00
sg31
I01
sg32
I00
sg42
g36
sbsg59
g660
sg61
I55
sg62
g3189
sbsVecalSimulationParametersEB
p3201
g0
(g2770
g2
Ntp3202
Rp3203
(dp3204
g15
VEcalSimParametersESModule
p3205
sg17
(lp3206
g2776
aVname
p3207
ag1866
asg25
I00
sg26
Nsg2776
g0
(g73
g2
Ntp3208
Rp3209
(dp3210
g25
I00
sg31
I01
sg32
I00
sg42
I00
sbsg32
I00
sg3207
g0
(g121
g2
Ntp3211
Rp3212
(dp3213
g25
I00
sg31
I01
sg32
I00
sg42
VEcalHitsEB
p3214
sbsg1866
g0
(g121
g2
Ntp3215
Rp3216
(dp3217
g25
I00
sg31
I01
sg32
I00
sg42
g36
sbsg59
g660
sg61
I55
sg62
g3201
sbsVecalSimulationParametersEE
p3218
g0
(g2770
g2
Ntp3219
Rp3220
(dp3221
g15
g3205
sg17
(lp3222
g2776
ag3207
ag1866
asg25
I00
sg26
Nsg2776
g0
(g73
g2
Ntp3223
Rp3224
(dp3225
g25
I00
sg31
I01
sg32
I00
sg42
I00
sbsg32
I00
sg3207
g0
(g121
g2
Ntp3226
Rp3227
(dp3228
g25
I00
sg31
I01
sg32
I01
sg42
VEcalHitsEE
p3229
sbsg1866
g0
(g121
g2
Ntp3230
Rp3231
(dp3232
g25
I00
sg31
I01
sg32
I00
sg42
g36
sbsg59
V/cvmfs/cms.cern.ch/el8_amd64_gcc11/cms/cmssw-patch/CMSSW_13_2_5_patch1/src/Geometry/EcalCommonData/python/ecalSimulationParameters_cff.py
p3233
sg61
I11
sg62
g3218
sbsVecalSimulationParametersES
p3234
g0
(g2770
g2
Ntp3235
Rp3236
(dp3237
g15
g3205
sg17
(lp3238
g2776
ag3207
ag1866
asg25
I00
sg26
Nsg2776
g0
(g73
g2
Ntp3239
Rp3240
(dp3241
g25
I00
sg31
I01
sg32
I00
sg42
I00
sbsg32
I00
sg3207
g0
(g121
g2
Ntp3242
Rp3243
(dp3244
g25
I00
sg31
I01
sg32
I01
sg42
VEcalHitsES
p3245
sbsg1866
g0
(g121
g2
Ntp3246
Rp3247
(dp3248
g25
I00
sg31
I01
sg32
I00
sg42
g36
sbsg59
g3233
sg61
I14
sg62
g3234
sbsVhcalSimulationConstants
p3249
g0
(g2770
g2
Ntp3250
Rp3251
(dp3252
g15
VHcalSimulationConstantsESModule
p3253
sg17
(lp3254
g1866
asg25
I00
sg26
Nsg1866
g0
(g121
g2
Ntp3255
Rp3256
(dp3257
g25
I00
sg31
I01
sg32
I00
sg42
g36
sbsg32
I00
sg59
g660
sg61
I55
sg62
g3249
sbsVhcalSimulationParameters
p3258
g0
(g2770
g2
Ntp3259
Rp3260
(dp3261
g15
VHcalSimParametersESModule
p3262
sg17
(lp3263
g2776
ag1866
asg25
I00
sg26
Nsg2776
g0
(g73
g2
Ntp3264
Rp3265
(dp3266
g25
I00
sg31
I01
sg32
I00
sg42
I00
sbsg32
I00
sg1866
g0
(g121
g2
Ntp3267
Rp3268
(dp3269
g25
I00
sg31
I01
sg32
I00
sg42
g36
sbsg59
g660
sg61
I55
sg62
g3258
sbsVmuonOffsetESProducer
p3270
g0
(g2770
g2
Ntp3271
Rp3272
(dp3273
g15
VMuonOffsetESProducer
p3274
sg17
(lp3275
g2776
aVnames
p3276
ag1866
asg25
I00
sg26
Nsg2776
g0
(g73
g2
Ntp3277
Rp3278
(dp3279
g25
I00
sg31
I01
sg32
I00
sg42
I00
sbsg32
I00
sg3276
g0
(g105
g47
(lp3280
VMuonCommonNumbering
p3281
aVMuonBarrel
p3282
aVMuonEndcap
p3283
aVMuonBarrelWheels
p3284
aVMuonBarrelStation1
p3285
aVMuonBarrelStation2
p3286
aVMuonBarrelStation3
p3287
aVMuonBarrelStation4
p3288
aVMuonBarrelSuperLayer
p3289
aVMuonBarrelLayer
p3290
aVMuonBarrelWire
p3291
aVMuonRpcPlane1I
p3292
aVMuonRpcPlane1O
p3293
aVMuonRpcPlane2I
p3294
aVMuonRpcPlane2O
p3295
aVMuonRpcPlane3S
p3296
aVMuonRpcPlane4
p3297
aVMuonRpcChamberLeft
p3298
aVMuonRpcChamberMiddle
p3299
aVMuonRpcChamberRight
p3300
aVMuonRpcEndcap1
p3301
aVMuonRpcEndcap2
p3302
aVMuonRpcEndcap3
p3303
aVMuonRpcEndcap4
p3304
aVMuonRpcEndcapSector
p3305
aVMuonRpcEndcapChamberB1
p3306
aVMuonRpcEndcapChamberB2
p3307
aVMuonRpcEndcapChamberB3
p3308
aVMuonRpcEndcapChamberC1
p3309
aVMuonRpcEndcapChamberC2
p3310
aVMuonRpcEndcapChamberC3
p3311
aVMuonRpcEndcapChamberE1
p3312
aVMuonRpcEndcapChamberE2
p3313
aVMuonRpcEndcapChamberE3
p3314
aVMuonRpcEndcapChamberF1
p3315
aVMuonRpcEndcapChamberF2
p3316
aVMuonRpcEndcapChamberF3
p3317
aVMuonEndcapStation1
p3318
aVMuonEndcapStation2
p3319
aVMuonEndcapStation3
p3320
aVMuonEndcapStation4
p3321
aVMuonEndcapSubrings
p3322
aVMuonEndcapSectors
p3323
aVMuonEndcapLayers
p3324
aVMuonEndcapRing1
p3325
aVMuonEndcapRing2
p3326
aVMuonEndcapRing3
p3327
aVMuonEndcapRingA
p3328
aVMuonGEMEndcap
p3329
aVMuonGEMSector
p3330
aVMuonGEMChamber
p3331
atp3332
Rp3333
(dp3334
g25
I00
sg31
I01
sg32
I00
sg451
I1
sbsg1866
g0
(g121
g2
Ntp3335
Rp3336
(dp3337
g25
I00
sg31
I01
sg32
I00
sg42
g36
sbsg59
g660
sg61
I55
sg62
g3270
sbsVParabolicParametrizedMagneticFieldProducer
p3338
g0
(g2770
g2
Ntp3339
Rp3340
(dp3341
g15
VAutoParametrizedMagneticFieldProducer
p3342
sg17
(lp3343
Vversion
p3344
ag1820
aVvalueOverride
p3345
asg25
I00
sg26
Nsg3344
g0
(g121
g2
Ntp3346
Rp3347
(dp3348
g25
I00
sg31
I01
sg32
I00
sg42
VParabolic
p3349
sbsg32
I01
sg1820
g0
(g121
g2
Ntp3350
Rp3351
(dp3352
g25
I00
sg31
I00
sg32
I01
sg42
VParabolicMf
p3353
sbsg3345
g0
(g52
g2
Ntp3354
Rp3355
(dp3356
g25
I00
sg31
I01
sg32
I01
sg42
I18268
sbsg59
g660
sg61
I55
sg62
g3338
sbsVVolumeBasedMagneticFieldESProducer
p3357
g0
(g2770
g2
Ntp3358
Rp3359
(dp3360
g15
VVolumeBasedMagneticFieldESProducerFromDB
p3361
sg17
(lp3362
g1820
aVdebugBuilder
p3363
ag3345
asg25
I00
sg26
Nsg1820
g0
(g121
g2
Ntp3364
Rp3365
(dp3366
g25
I00
sg31
I00
sg32
I00
sg42
g36
sbsg32
I01
sg3363
g0
(g73
g2
Ntp3367
Rp3368
(dp3369
g25
I00
sg31
I00
sg32
I00
sg42
I00
sbsg3345
g0
(g52
g2
Ntp3370
Rp3371
(dp3372
g25
I00
sg31
I01
sg32
I01
sg42
I18268
sbsg59
g660
sg61
I55
sg62
g3357
sbsVCastorDbProducer
p3373
g0
(g2770
g2
Ntp3374
Rp3375
(dp3376
g15
g3373
sg17
(lp3377
g1866
asg25
I00
sg26
Nsg1866
g0
(g121
g2
Ntp3378
Rp3379
(dp3380
g25
I00
sg31
I01
sg32
I00
sg42
g36
sbsg32
I00
sg59
g660
sg61
I55
sg62
g3373
sbsVEcalLaserCorrectionService
p3381
g0
(g2770
g2
Ntp3382
Rp3383
(dp3384
g15
g3381
sg17
(lp3385
VmaxExtrapolationTimeInSec
p3386
asg25
I00
sg26
Nsg3386
g0
(g581
g2
Ntp3387
Rp3388
(dp3389
g25
I00
sg31
I01
sg32
I00
sg42
I0
sbsg32
I00
sg59
g660
sg61
I55
sg62
g3381
sbsVEcalLaserCorrectionServiceMC
p3390
g0
(g2770
g2
Ntp3391
Rp3392
(dp3393
g15
g3390
sg17
(lp3394
g1866
asg25
I00
sg26
Nsg1866
g0
(g121
g2
Ntp3395
Rp3396
(dp3397
g25
I00
sg31
I01
sg32
I00
sg42
g36
sbsg32
I00
sg59
g660
sg61
I55
sg62
g3390
sbsVSiStripRecHitMatcherESProducer
p3398
g0
(g2770
g2
Ntp3399
Rp3400
(dp3401
g15
g3398
sg17
(lp3402
VComponentName
p3403
aVNSigmaInside
p3404
aVPreFilter
p3405
asg25
I00
sg26
Nsg3403
g0
(g121
g2
Ntp3406
Rp3407
(dp3408
g25
I00
sg31
I01
sg32
I00
sg42
VStandardMatcher
p3409
sbsg32
I00
sg3404
g0
(g38
g2
Ntp3410
Rp3411
(dp3412
g25
I00
sg31
I01
sg32
I00
sg42
F3.0
sbsg3405
g0
(g73
g2
Ntp3413
Rp3414
(dp3415
g25
I00
sg31
I01
sg32
I00
sg42
I00
sbsg59
g660
sg61
I55
sg62
g3398
sbsVStripCPEfromTrackAngleESProducer
p3416
g0
(g2770
g2
Ntp3417
Rp3418
(dp3419
g15
VStripCPEESProducer
p3420
sg17
(lp3421
g3403
aVComponentType
p3422
aVparameters
p3423
asg25
I00
sg26
Nsg3403
g0
(g121
g2
Ntp3424
Rp3425
(dp3426
g25
I00
sg31
I01
sg32
I01
sg42
VStripCPEfromTrackAngle
p3427
sbsg32
I00
sg3422
g0
(g121
g2
Ntp3428
Rp3429
(dp3430
g25
I00
sg31
I01
sg32
I01
sg42
g3427
sbsg3423
g0
(g693
g2
Ntp3431
Rp3432
(dp3433
g25
I00
sg31
I01
sg32
I00
sg17
(lp3434
VmLC_P0
p3435
aVmLC_P1
p3436
aVmLC_P2
p3437
aVmTIB_P0
p3438
aVmTIB_P1
p3439
aVmTOB_P0
p3440
aVmTOB_P1
p3441
aVmTID_P0
p3442
aVmTID_P1
p3443
aVmTEC_P0
p3444
aVmTEC_P1
p3445
aVuseLegacyError
p3446
aVmaxChgOneMIP
p3447
asg26
Nsg3435
g0
(g38
g2
Ntp3448
Rp3449
(dp3450
g25
I00
sg31
I01
sg32
I00
sg42
F-0.326
sbsg3436
g0
(g38
g2
Ntp3451
Rp3452
(dp3453
g25
I00
sg31
I01
sg32
I00
sg42
F0.618
sbsg3437
g0
(g38
g2
Ntp3454
Rp3455
(dp3456
g25
I00
sg31
I01
sg32
I00
sg42
F0.3
sbsg3438
g0
(g38
g2
Ntp3457
Rp3458
(dp3459
g25
I00
sg31
I01
sg32
I00
sg42
F-0.742
sbsg3439
g0
(g38
g2
Ntp3460
Rp3461
(dp3462
g25
I00
sg31
I01
sg32
I00
sg42
F0.202
sbsg3440
g0
(g38
g2
Ntp3463
Rp3464
(dp3465
g25
I00
sg31
I01
sg32
I00
sg42
F-1.026
sbsg3441
g0
(g38
g2
Ntp3466
Rp3467
(dp3468
g25
I00
sg31
I01
sg32
I00
sg42
F0.253
sbsg3442
g0
(g38
g2
Ntp3469
Rp3470
(dp3471
g25
I00
sg31
I01
sg32
I00
sg42
F-1.427
sbsg3443
g0
(g38
g2
Ntp3472
Rp3473
(dp3474
g25
I00
sg31
I01
sg32
I00
sg42
F0.433
sbsg3444
g0
(g38
g2
Ntp3475
Rp3476
(dp3477
g25
I00
sg31
I01
sg32
I00
sg42
F-1.885
sbsg3445
g0
(g38
g2
Ntp3478
Rp3479
(dp3480
g25
I00
sg31
I01
sg32
I00
sg42
F0.471
sbsg3446
g0
(g73
g2
Ntp3481
Rp3482
(dp3483
g25
I00
sg31
I01
sg32
I00
sg42
I00
sbsg3447
g0
(g38
g2
Ntp3484
Rp3485
(dp3486
g25
I00
sg31
I01
sg32
I00
sg42
F6000.0
sbsbsg59
V/cvmfs/cms.cern.ch/el8_amd64_gcc11/cms/cmssw-patch/CMSSW_13_2_5_patch1/src/RecoLocalTracker/SiStripRecHitConverter/python/StripCPEfromTrackAngle_cfi.py
p3487
sg61
I4
sg62
g3416
sbsVctppsBeamParametersFromLHCInfoESSource
p3488
g0
(g2770
g2
Ntp3489
Rp3490
(dp3491
g15
VCTPPSBeamParametersFromLHCInfoESSource
p3492
sg17
(lp3493
VlhcInfoLabel
p3494
aVbeamDivX45
p3495
aVbeamDivY45
p3496
aVbeamDivX56
p3497
aVbeamDivY56
p3498
aVvtxOffsetX45
p3499
aVvtxOffsetY45
p3500
aVvtxOffsetZ45
p3501
aVvtxOffsetX56
p3502
aVvtxOffsetY56
p3503
aVvtxOffsetZ56
p3504
aVvtxStddevX
p3505
aVvtxStddevY
p3506
aVvtxStddevZ
p3507
ag1866
asg25
I00
sg26
Nsg3494
g0
(g121
g2
Ntp3508
Rp3509
(dp3510
g25
I00
sg31
I01
sg32
I00
sg42
g36
sbsg32
I00
sg3495
g0
(g38
g2
Ntp3511
Rp3512
(dp3513
g25
I00
sg31
I01
sg32
I00
sg42
F0.1
sbsg3496
g0
(g38
g2
Ntp3514
Rp3515
(dp3516
g25
I00
sg31
I01
sg32
I00
sg42
F0.1
sbsg3497
g0
(g38
g2
Ntp3517
Rp3518
(dp3519
g25
I00
sg31
I01
sg32
I00
sg42
F0.1
sbsg3498
g0
(g38
g2
Ntp3520
Rp3521
(dp3522
g25
I00
sg31
I01
sg32
I00
sg42
F0.1
sbsg3499
g0
(g38
g2
Ntp3523
Rp3524
(dp3525
g25
I00
sg31
I01
sg32
I00
sg42
F0.01
sbsg3500
g0
(g38
g2
Ntp3526
Rp3527
(dp3528
g25
I00
sg31
I01
sg32
I00
sg42
F0.01
sbsg3501
g0
(g38
g2
Ntp3529
Rp3530
(dp3531
g25
I00
sg31
I01
sg32
I00
sg42
F0.01
sbsg3502
g0
(g38
g2
Ntp3532
Rp3533
(dp3534
g25
I00
sg31
I01
sg32
I00
sg42
F0.01
sbsg3503
g0
(g38
g2
Ntp3535
Rp3536
(dp3537
g25
I00
sg31
I01
sg32
I00
sg42
F0.01
sbsg3504
g0
(g38
g2
Ntp3538
Rp3539
(dp3540
g25
I00
sg31
I01
sg32
I00
sg42
F0.01
sbsg3505
g0
(g38
g2
Ntp3541
Rp3542
(dp3543
g25
I00
sg31
I01
sg32
I00
sg42
F0.02
sbsg3506
g0
(g38
g2
Ntp3544
Rp3545
(dp3546
g25
I00
sg31
I01
sg32
I00
sg42
F0.02
sbsg3507
g0
(g38
g2
Ntp3547
Rp3548
(dp3549
g25
I00
sg31
I01
sg32
I00
sg42
F0.02
sbsg1866
g0
(g121
g2
Ntp3550
Rp3551
(dp3552
g25
I00
sg31
I01
sg32
I00
sg42
g36
sbsg59
g660
sg61
I55
sg62
g3488
sbsVctppsInterpolatedOpticalFunctionsESSource
p3553
g0
(g2770
g2
Ntp3554
Rp3555
(dp3556
g15
VCTPPSInterpolatedOpticalFunctionsESSource
p3557
sg17
(lp3558
g3494
aVopticsLabel
p3559
ag1866
asg25
I00
sg26
Nsg3494
g0
(g121
g2
Ntp3560
Rp3561
(dp3562
g25
I00
sg31
I01
sg32
I00
sg42
g36
sbsg32
I01
sg3559
g0
(g121
g2
Ntp3563
Rp3564
(dp3565
g25
I00
sg31
I01
sg32
I00
sg42
g36
sbsg1866
g0
(g121
g2
Ntp3566
Rp3567
(dp3568
g25
I00
sg31
I01
sg32
I00
sg42
g36
sbsg59
g660
sg61
I55
sg62
g3553
sbsVhcal_db_producer
p3569
g0
(g2770
g2
Ntp3570
Rp3571
(dp3572
g15
VHcalDbProducer
p3573
sg17
(lp3574
Vdump
p3575
aVfile
p3576
asg25
I00
sg26
Nsg3575
g0
(g105
g47
(lp3577
g36
atp3578
Rp3579
(dp3580
g25
I00
sg31
I00
sg32
I00
sg451
I1
sbsg32
I00
sg3576
g0
(g121
g2
Ntp3581
Rp3582
(dp3583
g25
I00
sg31
I00
sg32
I00
sg42
g36
sbsg59
g660
sg61
I55
sg62
g3569
sbsVmultipleScatteringParametrisationMakerESProducer
p3584
g0
(g2770
g2
Ntp3585
Rp3586
(dp3587
g15
VMultipleScatteringParametrisationMakerESProducer
p3588
sg17
(lp3589
g1866
asg25
I00
sg26
Nsg1866
g0
(g121
g2
Ntp3590
Rp3591
(dp3592
g25
I00
sg31
I01
sg32
I00
sg42
g36
sbsg32
I00
sg59
g660
sg61
I55
sg62
g3584
sbsVsiPixelQualityESProducer
p3593
g0
(g2770
g2
Ntp3594
Rp3595
(dp3596
g15
VSiPixelQualityESProducer
p3597
sg17
(lp3598
VsiPixelQualityLabel
p3599
aVsiPixelQualityLabel_RawToDigi
p3600
aVListOfRecordToMerge
p3601
ag1866
asg25
I00
sg26
Nsg3599
g0
(g121
g2
Ntp3602
Rp3603
(dp3604
g25
I00
sg31
I01
sg32
I00
sg42
g36
sbsg32
I01
sg3600
g0
(g121
g2
Ntp3605
Rp3606
(dp3607
g25
I00
sg31
I01
sg32
I00
sg42
g36
sbsg3601
g0
(g691
g47
(lp3608
g0
(g693
g2
Ntp3609
Rp3610
(dp3611
g25
I00
sg31
I01
sg32
I00
sg17
(lp3612
g1818
ag1819
asg26
Nsg1818
g0
(g121
g2
Ntp3613
Rp3614
(dp3615
g25
I00
sg31
I01
sg32
I00
sg42
VSiPixelQualityFromDbRcd
p3616
sbsg1819
g0
(g121
g2
Ntp3617
Rp3618
(dp3619
g25
I00
sg31
I01
sg32
I00
sg42
g36
sbsbag0
(g693
g2
Ntp3620
Rp3621
(dp3622
g25
I00
sg31
I01
sg32
I00
sg17
(lp3623
g1818
ag1819
asg26
Nsg1818
g0
(g121
g2
Ntp3624
Rp3625
(dp3626
g25
I00
sg31
I01
sg32
I00
sg42
VSiPixelDetVOffRcd
p3627
sbsg1819
g0
(g121
g2
Ntp3628
Rp3629
(dp3630
g25
I00
sg31
I01
sg32
I00
sg42
g36
sbsbatp3631
Rp3632
(dp3633
g25
I00
sg31
I01
sg32
I00
sg451
I1
sbsg1866
g0
(g121
g2
Ntp3634
Rp3635
(dp3636
g25
I00
sg31
I01
sg32
I00
sg42
g36
sbsg59
g660
sg61
I55
sg62
g3593
sbsVsiStripBackPlaneCorrectionDepESProducer
p3637
g0
(g2770
g2
Ntp3638
Rp3639
(dp3640
g15
VSiStripBackPlaneCorrectionDepESProducer
p3641
sg17
(lp3642
VLatencyRecord
p3643
aVBackPlaneCorrectionPeakMode
p3644
aVBackPlaneCorrectionDeconvMode
p3645
asg25
I00
sg26
Nsg3643
g0
(g693
g2
Ntp3646
Rp3647
(dp3648
g25
I00
sg31
I01
sg32
I00
sg17
(lp3649
g1818
ag1820
asg26
Nsg1818
g0
(g121
g2
Ntp3650
Rp3651
(dp3652
g25
I00
sg31
I01
sg32
I00
sg42
VSiStripLatencyRcd
p3653
sbsg1820
g0
(g121
g2
Ntp3654
Rp3655
(dp3656
g25
I00
sg31
I00
sg32
I00
sg42
g36
sbsbsg32
I00
sg3644
g0
(g693
g2
Ntp3657
Rp3658
(dp3659
g25
I00
sg31
I01
sg32
I00
sg17
(lp3660
g1818
ag1820
asg26
Nsg1818
g0
(g121
g2
Ntp3661
Rp3662
(dp3663
g25
I00
sg31
I01
sg32
I00
sg42
VSiStripBackPlaneCorrectionRcd
p3664
sbsg1820
g0
(g121
g2
Ntp3665
Rp3666
(dp3667
g25
I00
sg31
I00
sg32
I00
sg42
Vpeak
p3668
sbsbsg3645
g0
(g693
g2
Ntp3669
Rp3670
(dp3671
g25
I00
sg31
I01
sg32
I00
sg17
(lp3672
g1818
ag1820
asg26
Nsg1818
g0
(g121
g2
Ntp3673
Rp3674
(dp3675
g25
I00
sg31
I01
sg32
I00
sg42
g3664
sbsg1820
g0
(g121
g2
Ntp3676
Rp3677
(dp3678
g25
I00
sg31
I00
sg32
I00
sg42
Vdeconvolution
p3679
sbsbsg59
g660
sg61
I55
sg62
g3637
sbsVsiStripGainESProducer
p3680
g0
(g2770
g2
Ntp3681
Rp3682
(dp3683
g15
VSiStripGainESProducer
p3684
sg17
(lp3685
g1866
aVprintDebug
p3686
aVAutomaticNormalization
p3687
aVAPVGain
p3688
asg25
I00
sg26
Nsg1866
g0
(g121
g2
Ntp3689
Rp3690
(dp3691
g25
I00
sg31
I01
sg32
I00
sg42
g36
sbsg32
I00
sg3686
g0
(g73
g2
Ntp3692
Rp3693
(dp3694
g25
I00
sg31
I00
sg32
I00
sg42
I00
sbsg3687
g0
(g73
g2
Ntp3695
Rp3696
(dp3697
g25
I00
sg31
I01
sg32
I00
sg42
I00
sbsg3688
g0
(g691
g47
(lp3698
g0
(g693
g2
Ntp3699
Rp3700
(dp3701
g25
I00
sg31
I01
sg32
I00
sg17
(lp3702
VRecord
p3703
aVLabel
p3704
aVNormalizationFactor
p3705
asg26
Nsg3703
g0
(g121
g2
Ntp3706
Rp3707
(dp3708
g25
I00
sg31
I01
sg32
I00
sg42
VSiStripApvGainRcd
p3709
sbsg3704
g0
(g121
g2
Ntp3710
Rp3711
(dp3712
g25
I00
sg31
I00
sg32
I00
sg42
g36
sbsg3705
g0
(g38
g2
Ntp3713
Rp3714
(dp3715
g25
I00
sg31
I00
sg32
I00
sg42
F1.0
sbsbag0
(g693
g2
Ntp3716
Rp3717
(dp3718
g25
I00
sg31
I01
sg32
I00
sg17
(lp3719
g3703
ag3704
ag3705
asg26
Nsg3703
g0
(g121
g2
Ntp3720
Rp3721
(dp3722
g25
I00
sg31
I01
sg32
I00
sg42
VSiStripApvGain2Rcd
p3723
sbsg3704
g0
(g121
g2
Ntp3724
Rp3725
(dp3726
g25
I00
sg31
I00
sg32
I00
sg42
g36
sbsg3705
g0
(g38
g2
Ntp3727
Rp3728
(dp3729
g25
I00
sg31
I00
sg32
I00
sg42
F1.0
sbsbatp3730
Rp3731
(dp3732
g25
I00
sg31
I01
sg32
I00
sg451
I1
sbsg59
g660
sg61
I55
sg62
g3680
sbsVsiStripLorentzAngleDepESProducer
p3733
g0
(g2770
g2
Ntp3734
Rp3735
(dp3736
g15
VSiStripLorentzAngleDepESProducer
p3737
sg17
(lp3738
g3643
aVLorentzAnglePeakMode
p3739
aVLorentzAngleDeconvMode
p3740
asg25
I00
sg26
Nsg3643
g0
(g693
g2
Ntp3741
Rp3742
(dp3743
g25
I00
sg31
I01
sg32
I00
sg17
(lp3744
g1818
ag1820
asg26
Nsg1818
g0
(g121
g2
Ntp3745
Rp3746
(dp3747
g25
I00
sg31
I01
sg32
I00
sg42
g3653
sbsg1820
g0
(g121
g2
Ntp3748
Rp3749
(dp3750
g25
I00
sg31
I00
sg32
I00
sg42
g36
sbsbsg32
I00
sg3739
g0
(g693
g2
Ntp3751
Rp3752
(dp3753
g25
I00
sg31
I01
sg32
I00
sg17
(lp3754
g1818
ag1820
asg26
Nsg1818
g0
(g121
g2
Ntp3755
Rp3756
(dp3757
g25
I00
sg31
I01
sg32
I00
sg42
VSiStripLorentzAngleRcd
p3758
sbsg1820
g0
(g121
g2
Ntp3759
Rp3760
(dp3761
g25
I00
sg31
I00
sg32
I00
sg42
g3668
sbsbsg3740
g0
(g693
g2
Ntp3762
Rp3763
(dp3764
g25
I00
sg31
I01
sg32
I00
sg17
(lp3765
g1818
ag1820
asg26
Nsg1818
g0
(g121
g2
Ntp3766
Rp3767
(dp3768
g25
I00
sg31
I01
sg32
I00
sg42
g3758
sbsg1820
g0
(g121
g2
Ntp3769
Rp3770
(dp3771
g25
I00
sg31
I00
sg32
I00
sg42
g3679
sbsbsg59
g660
sg61
I55
sg62
g3733
sbsVsiStripQualityESProducer
p3772
g0
(g2770
g2
Ntp3773
Rp3774
(dp3775
g15
VSiStripQualityESProducer
p3776
sg17
(lp3777
g1866
ag3601
aVReduceGranularity
p3778
aVThresholdForReducedGranularity
p3779
aVPrintDebugOutput
p3780
aVUseEmptyRunInfo
p3781
asg25
I00
sg26
Nsg1866
g0
(g121
g2
Ntp3782
Rp3783
(dp3784
g25
I00
sg31
I01
sg32
I00
sg42
g36
sbsg32
I01
sg3601
g0
(g691
g47
(lp3785
g0
(g693
g2
Ntp3786
Rp3787
(dp3788
g25
I00
sg31
I01
sg32
I00
sg17
(lp3789
g1818
ag1819
asg26
Nsg1818
g0
(g121
g2
Ntp3790
Rp3791
(dp3792
g25
I00
sg31
I01
sg32
I00
sg42
VSiStripDetVOffRcd
p3793
sbsg1819
g0
(g121
g2
Ntp3794
Rp3795
(dp3796
g25
I00
sg31
I01
sg32
I00
sg42
g36
sbsbag0
(g693
g2
Ntp3797
Rp3798
(dp3799
g25
I00
sg31
I01
sg32
I00
sg17
(lp3800
g1818
ag1819
asg26
Nsg1818
g0
(g121
g2
Ntp3801
Rp3802
(dp3803
g25
I00
sg31
I01
sg32
I00
sg42
VSiStripDetCablingRcd
p3804
sbsg1819
g0
(g121
g2
Ntp3805
Rp3806
(dp3807
g25
I00
sg31
I01
sg32
I00
sg42
g36
sbsbag0
(g693
g2
Ntp3808
Rp3809
(dp3810
g25
I00
sg31
I01
sg32
I00
sg17
(lp3811
g1818
ag1819
asg26
Nsg1818
g0
(g121
g2
Ntp3812
Rp3813
(dp3814
g25
I00
sg31
I01
sg32
I00
sg42
VRunInfoRcd
p3815
sbsg1819
g0
(g121
g2
Ntp3816
Rp3817
(dp3818
g25
I00
sg31
I01
sg32
I00
sg42
g36
sbsbag0
(g693
g2
Ntp3819
Rp3820
(dp3821
g25
I00
sg31
I01
sg32
I00
sg17
(lp3822
g1818
ag1819
asg26
Nsg1818
g0
(g121
g2
Ntp3823
Rp3824
(dp3825
g25
I00
sg31
I01
sg32
I00
sg42
VSiStripBadChannelRcd
p3826
sbsg1819
g0
(g121
g2
Ntp3827
Rp3828
(dp3829
g25
I00
sg31
I01
sg32
I00
sg42
g36
sbsbag0
(g693
g2
Ntp3830
Rp3831
(dp3832
g25
I00
sg31
I01
sg32
I00
sg17
(lp3833
g1818
ag1819
asg26
Nsg1818
g0
(g121
g2
Ntp3834
Rp3835
(dp3836
g25
I00
sg31
I01
sg32
I00
sg42
VSiStripBadFiberRcd
p3837
sbsg1819
g0
(g121
g2
Ntp3838
Rp3839
(dp3840
g25
I00
sg31
I01
sg32
I00
sg42
g36
sbsbag0
(g693
g2
Ntp3841
Rp3842
(dp3843
g25
I00
sg31
I01
sg32
I00
sg17
(lp3844
g1818
ag1819
asg26
Nsg1818
g0
(g121
g2
Ntp3845
Rp3846
(dp3847
g25
I00
sg31
I01
sg32
I00
sg42
VSiStripBadModuleRcd
p3848
sbsg1819
g0
(g121
g2
Ntp3849
Rp3850
(dp3851
g25
I00
sg31
I01
sg32
I00
sg42
g36
sbsbag0
(g693
g2
Ntp3852
Rp3853
(dp3854
g25
I00
sg31
I01
sg32
I00
sg17
(lp3855
g1818
ag1819
asg26
Nsg1818
g0
(g121
g2
Ntp3856
Rp3857
(dp3858
g25
I00
sg31
I01
sg32
I00
sg42
VSiStripBadStripRcd
p3859
sbsg1819
g0
(g121
g2
Ntp3860
Rp3861
(dp3862
g25
I00
sg31
I01
sg32
I00
sg42
g36
sbsbatp3863
Rp3864
(dp3865
g25
I00
sg31
I01
sg32
I00
sg451
I1
sbsg3778
g0
(g73
g2
Ntp3866
Rp3867
(dp3868
g25
I00
sg31
I01
sg32
I00
sg42
I00
sbsg3779
g0
(g38
g2
Ntp3869
Rp3870
(dp3871
g25
I00
sg31
I01
sg32
I00
sg42
F0.3
sbsg3780
g0
(g73
g2
Ntp3872
Rp3873
(dp3874
g25
I00
sg31
I01
sg32
I00
sg42
I00
sbsg3781
g0
(g73
g2
Ntp3875
Rp3876
(dp3877
g25
I00
sg31
I01
sg32
I00
sg42
I00
sbsg59
g660
sg61
I55
sg62
g3772
sbsVsistripconn
p3878
g0
(g2770
g2
Ntp3879
Rp3880
(dp3881
g15
VSiStripConnectivity
p3882
sg17
(lp3883
sg25
I00
sg26
Nsg32
I00
sg59
g660
sg61
I55
sg62
g3878
sbsVstripCPEESProducer
p3884
g0
(g2770
g2
Ntp3885
Rp3886
(dp3887
g15
g3420
sg17
(lp3888
g3403
ag3422
ag3423
asg25
I00
sg26
Nsg3403
g0
(g121
g2
Ntp3889
Rp3890
(dp3891
g25
I00
sg31
I01
sg32
I00
sg42
VstripCPE
p3892
sbsg32
I00
sg3422
g0
(g121
g2
Ntp3893
Rp3894
(dp3895
g25
I00
sg31
I01
sg32
I00
sg42
VSimpleStripCPE
p3896
sbsg3423
g0
(g693
g2
Ntp3897
Rp3898
(dp3899
g25
I00
sg31
I01
sg32
I00
sg17
(lp3900
sg26
Nsbsg59
g660
sg61
I55
sg62
g3884
sbssV_Process__esprefers
p3901
(dp3902
Ves_prefer_hcalHardcode
p3903
g0
(cFWCore.ParameterSet.Modules
ESPrefer
p3904
g2
Ntp3905
Rp3906
(dp3907
g15
g2035
sg17
(lp3908
sg25
I00
sg26
Nsg32
I00
sg59
g660
sg61
I91
sV_targetLabel
p3909
g2031
sg62
g3903
sbssV_Process__aliases
p3910
(dp3911
sV_Process__psets
p3912
(dp3913
VmaxLuminosityBlocks
p3914
g0
(g693
g2
Ntp3915
Rp3916
(dp3917
g25
I00
sg31
I00
sg32
I00
sg17
(lp3918
Vinput
p3919
asg26
Nsg3919
g0
(g52
g2
Ntp3920
Rp3921
(dp3922
g25
I00
sg31
I00
sg32
I00
sg42
I-1
sbsg62
g3914
sbsVnanoDQMIO_perLSoutput
p3923
g0
(g693
g2
Ntp3924
Rp3925
(dp3926
g25
I00
sg31
I01
sg32
I00
sg17
(lp3927
g1212
asg26
Nsg1212
g0
(g105
g47
(lp3928
g1224
ag1225
ag1226
ag1227
ag1228
ag1229
ag1230
ag1231
ag1232
ag1233
ag1234
ag1235
ag1236
ag1237
ag1238
ag1239
ag1240
ag1241
ag1242
ag1243
ag1244
ag1245
ag1246
ag1247
ag1248
ag1249
ag1250
ag1251
ag1252
ag1253
ag1254
ag1255
ag1256
ag1257
ag1258
ag1259
ag1260
ag1261
ag1262
ag1263
ag1264
ag1265
ag1266
ag1267
ag1268
ag1269
ag1270
ag1271
ag1272
ag1273
ag1274
ag1275
ag1276
ag1277
ag1278
ag1279
ag1280
ag1281
ag1282
ag1283
ag1284
ag1285
ag1286
ag1287
ag1288
ag1289
ag1290
ag1291
ag1292
ag1293
ag1294
ag1295
ag1296
ag1297
ag1298
ag1299
ag1300
ag1301
ag1302
ag1303
ag1304
ag1305
ag1306
ag1307
ag1308
ag1309
ag1310
ag1311
ag1312
ag1313
ag1314
ag1315
ag1316
ag1317
ag1318
ag1319
ag1320
ag1321
ag1322
ag1323
ag1324
ag1325
ag1326
ag1327
ag1328
ag1329
ag1330
ag1331
ag1332
ag1333
ag1334
ag1335
ag1336
ag1337
ag1338
ag1339
ag1340
ag1341
ag1342
ag1343
ag1344
ag1345
ag1346
ag1347
ag1348
ag1349
ag1350
ag1351
ag1352
ag1353
ag1354
ag1355
ag1356
ag1357
ag1358
ag1359
ag1360
ag1361
ag1362
ag1363
ag1364
ag1365
ag1366
ag1367
ag1368
ag1369
ag1370
ag1371
ag1372
ag1373
ag1374
ag1375
ag1376
ag1377
ag1378
ag1379
ag1380
ag1381
ag1382
ag1383
ag1384
ag1385
ag1386
ag1387
ag1388
ag1389
ag1390
ag1391
ag1392
ag1393
ag1394
ag1395
ag1396
ag1397
ag1398
ag1399
ag1400
ag1401
ag1402
ag1403
ag1404
ag1405
ag1406
ag1407
ag1408
ag1409
ag1410
ag1411
ag1412
ag1413
ag1414
ag1415
ag1416
ag1417
ag1418
atp3929
Rp3930
(dp3931
g25
I00
sg31
I00
sg32
I00
sg451
I1
sbsg62
g3923
sbsVCondDB
p3932
g0
(g693
g2
Ntp3933
Rp3934
(dp3935
g25
I00
sg31
I01
sg32
I00
sg17
(lp3936
g1765
ag1766
asg26
Nsg1765
g0
(g693
g2
Ntp3937
Rp3938
(dp3939
g25
I00
sg31
I01
sg32
I00
sg17
(lp3940
g1781
ag1782
ag1783
ag1784
ag1785
asg26
Nsg1781
g0
(g121
g2
Ntp3941
Rp3942
(dp3943
g25
I00
sg31
I00
sg32
I00
sg42
g36
sbsg1782
g0
(g52
g2
Ntp3944
Rp3945
(dp3946
g25
I00
sg31
I00
sg32
I00
sg42
I0
sbsg1783
g0
(g121
g2
Ntp3947
Rp3948
(dp3949
g25
I00
sg31
I00
sg32
I00
sg42
g36
sbsg1784
g0
(g52
g2
Ntp3950
Rp3951
(dp3952
g25
I00
sg31
I00
sg32
I00
sg42
I0
sbsg1785
g0
(g52
g2
Ntp3953
Rp3954
(dp3955
g25
I00
sg31
I00
sg32
I00
sg42
I0
sbsbsg1766
g0
(g121
g2
Ntp3956
Rp3957
(dp3958
g25
I00
sg31
I01
sg32
I00
sg42
g36
sbsg62
g3932
sbsg2045
g2096
sVoptions
p3959
g0
(g693
g2
Ntp3960
Rp3961
(dp3962
g25
I00
sg31
I00
sg32
I01
sg17
(lp3963
VnumberOfThreads
p3964
aVnumberOfStreams
p3965
aVnumberOfConcurrentRuns
p3966
aVnumberOfConcurrentLuminosityBlocks
p3967
aVeventSetup
p3968
aVaccelerators
p3969
aVwantSummary
p3970
aVfileMode
p3971
aVforceEventSetupCacheClearOnNewRun
p3972
aVthrowIfIllegalParameter
p3973
aVprintDependencies
p3974
aVdeleteNonConsumedUnscheduledModules
p3975
aVsizeOfStackForThreadsInKB
p3976
aVRethrow
p3977
aVSkipEvent
p3978
aVFailPath
p3979
aVIgnoreCompletely
p3980
aVcanDeleteEarly
p3981
aVholdsReferencesToDeleteEarly
p3982
aVmodulesToIgnoreForDeleteEarly
p3983
aVdumpOptions
p3984
aVallowUnscheduled
p3985
aVemptyRunLumiMode
p3986
aVmakeTriggerResults
p3987
asg26
Nsg3964
g0
(g581
g2
Ntp3988
Rp3989
(dp3990
g25
I00
sg31
I00
sg32
I00
sg42
I1
sbsg3965
g0
(g581
g2
Ntp3991
Rp3992
(dp3993
g25
I00
sg31
I00
sg32
I00
sg42
I0
sbsg3966
g0
(g581
g2
Ntp3994
Rp3995
(dp3996
g25
I00
sg31
I00
sg32
I00
sg42
I1
sbsg3967
g0
(g581
g2
Ntp3997
Rp3998
(dp3999
g25
I00
sg31
I00
sg32
I00
sg42
I0
sbsg3968
g0
(g693
g2
Ntp4000
Rp4001
(dp4002
g25
I00
sg31
I00
sg32
I00
sg17
(lp4003
VnumberOfConcurrentIOVs
p4004
aVforceNumberOfConcurrentIOVs
p4005
asg26
Nsg4004
g0
(g581
g2
Ntp4006
Rp4007
(dp4008
g25
I00
sg31
I00
sg32
I00
sg42
I0
sbsg4005
g0
(g693
g2
Ntp4009
Rp4010
(dp4011
g25
I00
sg31
I00
sg32
I00
sg17
(lp4012
sg26
g0
(cFWCore.ParameterSet.Types
_RequiredParameter
p4013
g2
Ntp4014
Rp4015
(dp4016
g25
I00
sg31
I00
sg32
I00
sg104
g581
sg106
Nsbsbsbsg3969
g0
(g105
g47
(lp4017
V*
p4018
atp4019
Rp4020
(dp4021
g25
I00
sg31
I00
sg32
I00
sg451
I1
sbsg3970
g0
(g73
g2
Ntp4022
Rp4023
(dp4024
g25
I00
sg31
I00
sg32
I00
sg42
I01
sbsg3971
g0
(g121
g2
Ntp4025
Rp4026
(dp4027
g25
I00
sg31
I00
sg32
I00
sg42
VFULLMERGE
p4028
sbsg3972
g0
(g73
g2
Ntp4029
Rp4030
(dp4031
g25
I00
sg31
I00
sg32
I00
sg42
I00
sbsg3973
g0
(g73
g2
Ntp4032
Rp4033
(dp4034
g25
I00
sg31
I00
sg32
I00
sg42
I01
sbsg3974
g0
(g73
g2
Ntp4035
Rp4036
(dp4037
g25
I00
sg31
I00
sg32
I00
sg42
I00
sbsg3975
g0
(g73
g2
Ntp4038
Rp4039
(dp4040
g25
I00
sg31
I00
sg32
I00
sg42
I01
sbsg3976
g0
(g100
g2
Ntp4041
Rp4042
(dp4043
g25
I00
sg31
I00
sg32
I00
sg104
g581
sg106
Nsbsg3977
g0
(g105
g47
(lp4044
tp4045
Rp4046
(dp4047
g25
I00
sg31
I00
sg32
I00
sg451
I1
sbsg3978
g0
(g105
g47
(lp4048
tp4049
Rp4050
(dp4051
g25
I00
sg31
I00
sg32
I00
sg451
I1
sbsg3979
g0
(g105
g47
(lp4052
tp4053
Rp4054
(dp4055
g25
I00
sg31
I00
sg32
I00
sg451
I1
sbsg3980
g0
(g105
g47
(lp4056
tp4057
Rp4058
(dp4059
g25
I00
sg31
I00
sg32
I00
sg451
I1
sbsg3981
g0
(g105
g47
(lp4060
tp4061
Rp4062
(dp4063
g25
I00
sg31
I00
sg32
I00
sg451
I1
sbsg3982
g0
(g691
g47
(lp4064
tp4065
Rp4066
(dp4067
g25
I00
sg31
I00
sg32
I00
sg451
I1
sbsg3983
g0
(g105
g47
(lp4068
tp4069
Rp4070
(dp4071
g25
I00
sg31
I00
sg32
I00
sg451
I1
sbsg3984
g0
(g73
g2
Ntp4072
Rp4073
(dp4074
g25
I00
sg31
I00
sg32
I00
sg42
I00
sbsg3985
g0
(cFWCore.ParameterSet.Types
_ObsoleteParameter
p4075
g2
Ntp4076
Rp4077
(dp4078
g25
I00
sg31
I00
sg32
I00
sg104
g73
sg106
Nsbsg3986
g0
(g4075
g2
Ntp4079
Rp4080
(dp4081
g25
I00
sg31
I00
sg32
I00
sg104
g121
sg106
Nsbsg3987
g0
(g4075
g2
Ntp4082
Rp4083
(dp4084
g25
I00
sg31
I00
sg32
I00
sg104
g73
sg106
Nsbsg62
g3959
sbsVmaxEvents
p4085
g0
(g693
g2
Ntp4086
Rp4087
(dp4088
g25
I00
sg31
I00
sg32
I01
sg17
(lp4089
g3919
ag1173
asg26
Nsg3919
g0
(g100
g2
Ntp4090
Rp4091
(dp4092
g25
I00
sg31
I00
sg32
I00
sg104
g52
sg106
g0
(g52
g2
Ntp4093
Rp4094
(dp4095
g25
I00
sg31
I00
sg32
I00
sg42
I2000
sbsbsg1173
g0
(g100
g2
Ntp4096
Rp4097
(dp4098
g25
I00
sg31
I00
sg32
I00
sg104
g0
(cFWCore.ParameterSet.Types
_AllowedParameterTypes
p4099
g2
Ntp4100
Rp4101
(dp4102
V_AllowedParameterTypes__types
p4103
(g52
g693
tp4104
sV_default
p4105
NsV__name__
p4106
Vallowed(cms.int32,cms.PSet)
p4107
sbsg106
Nsbsg62
g4085
sbssV_Process__vpsets
p4108
(dp4109
sV_cloneToObjectDict
p4110
(dp4111
L140475975104064L
g0
(g693
g2
Ntp4112
Rp4113
(dp4114
g25
I00
sg31
I00
sg32
I00
sg17
(lp4115
g3964
ag3965
ag3966
ag3967
ag3968
ag3969
ag3970
ag3971
ag3972
ag3973
ag3974
ag3975
ag3976
ag3977
ag3978
ag3979
ag3980
ag3981
ag3982
ag3983
ag3984
ag3985
ag3986
ag3987
asg26
Nsg3964
g0
(g581
g2
Ntp4116
Rp4117
(dp4118
g25
I00
sg31
I00
sg32
I00
sg42
I1
sbsg3965
g0
(g581
g2
Ntp4119
Rp4120
(dp4121
g25
I00
sg31
I00
sg32
I00
sg42
I0
sbsg3966
g0
(g581
g2
Ntp4122
Rp4123
(dp4124
g25
I00
sg31
I00
sg32
I00
sg42
I1
sbsg3967
g0
(g581
g2
Ntp4125
Rp4126
(dp4127
g25
I00
sg31
I00
sg32
I00
sg42
I0
sbsg3968
g0
(g693
g2
Ntp4128
Rp4129
(dp4130
g25
I00
sg31
I00
sg32
I00
sg17
(lp4131
g4004
ag4005
asg26
Nsg4004
g0
(g581
g2
Ntp4132
Rp4133
(dp4134
g25
I00
sg31
I00
sg32
I00
sg42
I0
sbsg4005
g0
(g693
g2
Ntp4135
Rp4136
(dp4137
g25
I00
sg31
I00
sg32
I00
sg17
(lp4138
sg26
g0
(g4013
g2
Ntp4139
Rp4140
(dp4141
g25
I00
sg31
I00
sg32
I00
sg104
g581
sg106
Nsbsbsbsg3969
g0
(g105
g47
(lp4142
g4018
atp4143
Rp4144
(dp4145
g25
I00
sg31
I00
sg32
I00
sg451
I1
sbsg3970
g0
(g73
g2
Ntp4146
Rp4147
(dp4148
g25
I00
sg31
I00
sg32
I00
sg42
I00
sbsg3971
g0
(g121
g2
Ntp4149
Rp4150
(dp4151
g25
I00
sg31
I00
sg32
I00
sg42
g4028
sbsg3972
g0
(g73
g2
Ntp4152
Rp4153
(dp4154
g25
I00
sg31
I00
sg32
I00
sg42
I00
sbsg3973
g0
(g73
g2
Ntp4155
Rp4156
(dp4157
g25
I00
sg31
I00
sg32
I00
sg42
I01
sbsg3974
g0
(g73
g2
Ntp4158
Rp4159
(dp4160
g25
I00
sg31
I00
sg32
I00
sg42
I00
sbsg3975
g0
(g73
g2
Ntp4161
Rp4162
(dp4163
g25
I00
sg31
I00
sg32
I00
sg42
I01
sbsg3976
g0
(g100
g2
Ntp4164
Rp4165
(dp4166
g25
I00
sg31
I00
sg32
I00
sg104
g581
sg106
Nsbsg3977
g0
(g105
g47
(lp4167
tp4168
Rp4169
(dp4170
g25
I00
sg31
I00
sg32
I00
sg451
I1
sbsg3978
g0
(g105
g47
(lp4171
tp4172
Rp4173
(dp4174
g25
I00
sg31
I00
sg32
I00
sg451
I1
sbsg3979
g0
(g105
g47
(lp4175
tp4176
Rp4177
(dp4178
g25
I00
sg31
I00
sg32
I00
sg451
I1
sbsg3980
g0
(g105
g47
(lp4179
tp4180
Rp4181
(dp4182
g25
I00
sg31
I00
sg32
I00
sg451
I1
sbsg3981
g0
(g105
g47
(lp4183
tp4184
Rp4185
(dp4186
g25
I00
sg31
I00
sg32
I00
sg451
I1
sbsg3982
g0
(g691
g47
(lp4187
tp4188
Rp4189
(dp4190
g25
I00
sg31
I00
sg32
I00
sg451
I1
sbsg3983
g0
(g105
g47
(lp4191
tp4192
Rp4193
(dp4194
g25
I00
sg31
I00
sg32
I00
sg451
I1
sbsg3984
g0
(g73
g2
Ntp4195
Rp4196
(dp4197
g25
I00
sg31
I00
sg32
I00
sg42
I00
sbsg3985
g0
(g4075
g2
Ntp4198
Rp4199
(dp4200
g25
I00
sg31
I00
sg32
I00
sg104
g73
sg106
Nsbsg3986
g0
(g4075
g2
Ntp4201
Rp4202
(dp4203
g25
I00
sg31
I00
sg32
I00
sg104
g121
sg106
Nsbsg3987
g0
(g4075
g2
Ntp4204
Rp4205
(dp4206
g25
I00
sg31
I00
sg32
I00
sg104
g73
sg106
Nsbsg62
NsbsL140475972045456L
g0
(g693
g2
Ntp4207
Rp4208
(dp4209
g25
I00
sg31
I00
sg32
I00
sg17
(lp4210
g3919
ag1173
asg26
Nsg3919
g0
(g100
g2
Ntp4211
Rp4212
(dp4213
g25
I00
sg31
I00
sg32
I00
sg104
g52
sg106
Nsbsg1173
g0
(g100
g2
Ntp4214
Rp4215
(dp4216
g25
I00
sg31
I00
sg32
I00
sg104
g0
(g4099
g2
Ntp4217
Rp4218
(dp4219
g4103
(g52
g693
tp4220
sg4105
Nsg4106
Vallowed(cms.int32,cms.PSet)
p4221
sbsg106
Nsbsg62
NsbsL140475972045552L
g3916
sL140475974741680L
g2772
sL140475972870048L
g2816
sL140476010165776L
g2833
sL140475971502672L
g2838
sL140475971505120L
g2846
sL140475972133600L
g2851
sL140475974025168L
g2859
sL140475971503728L
g2896
sL140475972868368L
g2904
sL140475971504112L
g2909
sL140475971503440L
g2917
sL140475974654512L
g2925
sL140476010164576L
g2935
sL140475971502624L
g2940
sL140475972869472L
g2945
sL140476010167408L
g2953
sL140475974740288L
g2958
sL140475986834864L
g2969
sL140475971504016L
g2978
sL140475972136240L
g1727
sL140475971484016L
g2986
sL140475971484928L
g2997
sL140475971485120L
g3006
sL140475971504976L
g3015
sL140475971484352L
g3032
sL140475971484544L
g3069
sL140475971482768L
g3099
sL140475972867552L
g3118
sL140476010168032L
g3130
sL140475974023968L
g3147
sL140476010166592L
g3162
sL140475973231808L
g3171
sL140475973231712L
g3176
sL140475988109488L
g3191
sL140475974465472L
g3203
sL140475973232096L
g3220
sL140475973231856L
g3236
sL140475974464128L
g3251
sL140475988110832L
g3260
sL140475988110784L
g3272
sL140475988110928L
g1749
sL140475974363408L
g3925
sL140475972208672L
g470
sL140475986807536L
g3340
sL140475986806768L
g3359
sL140475969973120L
g3375
sL140475987972160L
g3934
sL140475973309824L
g3383
sL140475973310832L
g3392
sL140475973262640L
g1761
sL140476009518032L
g2096
sL140476009519808L
g1863
sL140475969561072L
g3400
sL140475969531472L
g3418
sL140475969589152L
g3490
sL140475969630704L
g3555
sL140475969972832L
g2033
sL140475969973072L
g3906
sL140475973309440L
g3571
sL140475969586320L
g3586
sL140475969585792L
g3595
sL140475969528928L
g3639
sL140475970018704L
g3682
sL140475969528016L
g3735
sL140475969563472L
g3774
sL140475969972976L
g3880
sL140475969530416L
g3886
sL140475969633296L
g477
sL140475972044160L
g3961
sL140475969655280L
g4087
sL140475969656912L
g563
sL140475969738496L
g750
sL140475969483056L
g13
sL140475969449456L
g65
sL140475969738928L
g110
sL140475969739744L
g587
sL140475969740368L
g656
sL140475969739840L
g607
sL140475969299024L
g633
sL140475969416160L
g682
sL140475969302000L
g948
sL140475969485264L
g132
sL140475969483200L
g152
sL140475969486512L
g166
sL140475969493744L
g180
sL140475969485696L
g194
sL140475969483248L
g208
sL140475969486080L
g222
sL140475969448208L
g236
sL140475969486128L
g250
sL140475969483968L
g264
sL140475969492448L
g278
sL140475969447728L
g292
sL140475969494848L
g306
sL140475969486560L
g320
sL140475969484400L
g334
sL140475969492880L
g348
sL140475969415440L
g362
sL140475969486416L
g376
sL140475969484832L
g390
sL140475969493312L
g404
sL140475969416208L
g418
sL140475969657920L
g932
sL140475969508208L
g432
sL140475969510896L
g827
sL140475969509312L
g892
ssV_Process__InExtendCall
p4222
I00
sV_Process__partialschedules
p4223
(dp4224
sV_Process__isStrict
p4225
I00
sV_Process__modifiers
p4226
(tsV_Process__accelerators
p4227
(dp4228
sg3914
g3916
sg960
g963
sg2769
g2772
sg2814
g2816
sg2831
g2833
sg2836
g2838
sg2844
g2846
sg2849
g2851
sg2857
g2859
sg2894
g2896
sg2902
g2904
sg2907
g2909
sg2915
g2917
sg2923
g2925
sg2933
g2935
sg2938
g2940
sg2943
g2945
sg2951
g2953
sg2956
g2958
sg2967
g2969
sg2976
g2978
sg1724
g1727
sg2984
g2986
sg2995
g2997
sg3004
g3006
sg3013
g3015
sg3030
g3032
sg3067
g3069
sg3097
g3099
sg3116
g3118
sg3128
g3130
sg3145
g3147
sg3160
g3162
sg3169
g3171
sg3174
g3176
sg3189
g3191
sg3201
g3203
sg3218
g3220
sg3234
g3236
sg3249
g3251
sg3258
g3260
sg3270
g3272
sg1205
g1207
sg1747
g1749
sg1434
g1436
sg3923
g3925
sg467
g470
sg3338
g3340
sg3357
g3359
sg3373
g3375
sg3932
g3934
sg3381
g3383
sg3390
g3392
sg1759
g1761
sg2045
g2096
sg1861
g1863
sg3398
g3400
sg3416
g3418
sg3488
g3490
sg3553
g3555
sg2031
g2033
sg3903
g3906
sg3569
g3571
sg3584
g3586
sg3593
g3595
sg3637
g3639
sg3680
g3682
sg3733
g3735
sg3772
g3774
sg3878
g3880
sg3884
g3886
sg475
g477
sg3959
g3961
sg4085
g4087
sVsource
p4229
g718
sg720
g718
sg521
g563
sg747
g750
sg10
g13
sg63
g65
sg108
g110
sg80
g587
sg653
g656
sg605
g607
sg631
g633
sg680
g682
sg945
g948
sg130
g132
sg150
g152
sg164
g166
sg178
g180
sg192
g194
sg206
g208
sg220
g222
sg234
g236
sg248
g250
sg262
g264
sg276
g278
sg290
g292
sg304
g306
sg318
g320
sg332
g334
sg346
g348
sg360
g362
sg374
g376
sg388
g390
sg402
g404
sg416
g418
sg929
g932
sg1712
g1714
sg430
g432
sg825
g827
sg889
g892
sb.