ccopy_reg
_reconstructor
p0
(cFWCore.ParameterSet.Config
Process
p1
c__builtin__
object
p2
Ntp3
Rp4
(dp5
V_Process__name
p6
VRaghuEffTest
p7
sV_Process__filters
p8
(dp9
VclusterCompatibilityFilter
p10
g0
(cFWCore.ParameterSet.Modules
EDFilter
p11
g2
Ntp12
Rp13
(dp14
V_TypedParameterizable__type
p15
VHIClusterCompatibilityFilter
p16
sV_Parameterizable__parameterNames
p17
(lp18
VcluscomSrc
p19
aVminZ
p20
aVmaxZ
p21
aVclusterPars
p22
aVnhitsTrunc
p23
aVclusterTrunc
p24
asV_isFrozen
p25
I00
sV_Parameterizable__validator
p26
Nsg19
g0
(cFWCore.ParameterSet.Types
InputTag
p27
g2
Ntp28
Rp29
(dp30
g25
I00
sV_ParameterTypeBase__isTracked
p31
I01
sV_isModified
p32
I00
sV_InputTag__moduleLabel
p33
VhiClusterCompatibility
p34
sV_InputTag__productInstance
p35
V
p36
sV_InputTag__processName
p37
g36
sbsg32
I00
sg20
g0
(cFWCore.ParameterSet.Types
double
p38
g2
Ntp39
Rp40
(dp41
g25
I00
sg31
I01
sg32
I00
sV_value
p42
F-20.0
sbsg21
g0
(g38
g2
Ntp43
Rp44
(dp45
g25
I00
sg31
I01
sg32
I00
sg42
F20.05
sbsg22
g0
(cFWCore.ParameterSet.Types
vdouble
p46
c__builtin__
list
p47
(lp48
F0.0
aF0.0045
atp49
Rp50
(dp51
g25
I00
sg31
I01
sg32
I00
sbsg23
g0
(cFWCore.ParameterSet.Types
int32
p52
g2
Ntp53
Rp54
(dp55
g25
I00
sg31
I01
sg32
I00
sg42
I150
sbsg24
g0
(g38
g2
Ntp56
Rp57
(dp58
g25
I00
sg31
I01
sg32
I00
sg42
F2.0
sbsV_filename
p59
V/afs/cern.ch/work/r/rpradhan/Tracking_Studies/newCode_AfterRun3/ForEffTest/CMSSW_13_2_10/src/HeavyIonsAnalysis/EventAnalysis/python/clusterCompatibilityFilter_cfi.py
p60
sV_lineNumber
p61
I3
sV_Labelable__label
p62
g10
sbsVhltPixelClusterShapeFilter
p63
g0
(g11
g2
Ntp64
Rp65
(dp66
g15
VHLTPixelClusterShapeFilter
p67
sg17
(lp68
VsaveTags
p69
aVinputTag
p70
ag20
ag21
aVzStep
p71
ag22
ag23
ag24
aVmightGet
p72
asg25
I00
sg26
Nsg69
g0
(cFWCore.ParameterSet.Types
bool
p73
g2
Ntp74
Rp75
(dp76
g25
I00
sg31
I01
sg32
I00
sg42
I01
sbsg32
I01
sg70
g0
(g27
g2
Ntp77
Rp78
(dp79
g25
I00
sg31
I01
sg32
I01
sg33
VsiPixelRecHits
p80
sg35
g36
sg37
g36
sbsg20
g0
(g38
g2
Ntp81
Rp82
(dp83
g25
I00
sg31
I01
sg32
I00
sg42
I-20
sbsg21
g0
(g38
g2
Ntp84
Rp85
(dp86
g25
I00
sg31
I01
sg32
I00
sg42
F20.05
sbsg71
g0
(g38
g2
Ntp87
Rp88
(dp89
g25
I00
sg31
I01
sg32
I00
sg42
F0.2
sbsg22
g0
(g46
g47
(lp90
I0
aF0.0045
atp91
Rp92
(dp93
g25
I00
sg31
I01
sg32
I00
sbsg23
g0
(g52
g2
Ntp94
Rp95
(dp96
g25
I00
sg31
I01
sg32
I00
sg42
I150
sbsg24
g0
(g38
g2
Ntp97
Rp98
(dp99
g25
I00
sg31
I01
sg32
I00
sg42
I2
sbsg72
g0
(cFWCore.ParameterSet.Types
_OptionalParameter
p100
g2
Ntp101
Rp102
(dp103
g25
I00
sg31
I00
sg32
I00
sV_ProxyParameter__type
p104
cFWCore.ParameterSet.Types
vstring
p105
sV_ProxyParameter__value
p106
Nsbsg59
V/cvmfs/cms.cern.ch/el8_amd64_gcc11/cms/cmssw/CMSSW_13_2_10/cfipython/el8_amd64_gcc11/HLTrigger/special/hltPixelClusterShapeFilter_cfi.py
p107
sg61
I3
sg62
g63
sbsVprimaryVertexFilter
p108
g0
(g11
g2
Ntp109
Rp110
(dp111
g15
VVertexSelector
p112
sg17
(lp113
Vsrc
p114
aVcut
p115
aVfilter
p116
asg25
I00
sg26
Nsg114
g0
(g27
g2
Ntp117
Rp118
(dp119
g25
I00
sg31
I01
sg32
I00
sg33
VofflineSlimmedPrimaryVertices
p120
sg35
g36
sg37
g36
sbsg32
I00
sg115
g0
(cFWCore.ParameterSet.Types
string
p121
g2
Ntp122
Rp123
(dp124
g25
I00
sg31
I01
sg32
I00
sg42
V!isFake && abs(z) <= 25 && position.Rho <= 2
p125
sbsg116
g0
(g73
g2
Ntp126
Rp127
(dp128
g25
I00
sg31
I01
sg32
I00
sg42
I01
sbsg59
V/afs/cern.ch/work/r/rpradhan/Tracking_Studies/newCode_AfterRun3/ForEffTest/CMSSW_13_2_10/src/HeavyIonsAnalysis/EventAnalysis/python/collisionEventSelection_cff.py
p129
sg61
I5
sg62
g108
sbsVphfCoincFilter1Th3
p130
g0
(g11
g2
Ntp131
Rp132
(dp133
g15
VHiHFFilter
p134
sg17
(lp135
VHFfilters
p136
aVthreshold
p137
aVminnumtowers
p138
asg25
I00
sg26
Nsg136
g0
(g27
g2
Ntp139
Rp140
(dp141
g25
I00
sg31
I01
sg32
I00
sg33
VhiHFfilters
p142
sg35
g142
sg37
g36
sbsg32
I00
sg137
g0
(g52
g2
Ntp143
Rp144
(dp145
g25
I00
sg31
I01
sg32
I01
sg42
I3
sbsg138
g0
(g52
g2
Ntp146
Rp147
(dp148
g25
I00
sg31
I01
sg32
I01
sg42
I1
sbsg59
V/afs/cern.ch/work/r/rpradhan/Tracking_Studies/newCode_AfterRun3/ForEffTest/CMSSW_13_2_10/src/HeavyIonsAnalysis/EventAnalysis/python/hffilter_cfi.py
p149
sg61
I14
sg62
g130
sbsVphfCoincFilter1Th4
p150
g0
(g11
g2
Ntp151
Rp152
(dp153
g15
g134
sg17
(lp154
g136
ag137
ag138
asg25
I00
sg26
Nsg136
g0
(g27
g2
Ntp155
Rp156
(dp157
g25
I00
sg31
I01
sg32
I00
sg33
g142
sg35
g142
sg37
g36
sbsg32
I00
sg137
g0
(g52
g2
Ntp158
Rp159
(dp160
g25
I00
sg31
I01
sg32
I00
sg42
I4
sbsg138
g0
(g52
g2
Ntp161
Rp162
(dp163
g25
I00
sg31
I01
sg32
I01
sg42
I1
sbsg59
g149
sg61
I9
sg62
g150
sbsVphfCoincFilter1Th5
p164
g0
(g11
g2
Ntp165
Rp166
(dp167
g15
g134
sg17
(lp168
g136
ag137
ag138
asg25
I00
sg26
Nsg136
g0
(g27
g2
Ntp169
Rp170
(dp171
g25
I00
sg31
I01
sg32
I00
sg33
g142
sg35
g142
sg37
g36
sbsg32
I00
sg137
g0
(g52
g2
Ntp172
Rp173
(dp174
g25
I00
sg31
I01
sg32
I01
sg42
I5
sbsg138
g0
(g52
g2
Ntp175
Rp176
(dp177
g25
I00
sg31
I01
sg32
I01
sg42
I1
sbsg59
g149
sg61
I20
sg62
g164
sbsVphfCoincFilter1Th6
p178
g0
(g11
g2
Ntp179
Rp180
(dp181
g15
g134
sg17
(lp182
g136
ag137
ag138
asg25
I00
sg26
Nsg136
g0
(g27
g2
Ntp183
Rp184
(dp185
g25
I00
sg31
I01
sg32
I00
sg33
g142
sg35
g142
sg37
g36
sbsg32
I00
sg137
g0
(g52
g2
Ntp186
Rp187
(dp188
g25
I00
sg31
I01
sg32
I01
sg42
I6
sbsg138
g0
(g52
g2
Ntp189
Rp190
(dp191
g25
I00
sg31
I01
sg32
I01
sg42
I1
sbsg59
g149
sg61
I26
sg62
g178
sbsVphfCoincFilter2Th3
p192
g0
(g11
g2
Ntp193
Rp194
(dp195
g15
g134
sg17
(lp196
g136
ag137
ag138
asg25
I00
sg26
Nsg136
g0
(g27
g2
Ntp197
Rp198
(dp199
g25
I00
sg31
I01
sg32
I00
sg33
g142
sg35
g142
sg37
g36
sbsg32
I00
sg137
g0
(g52
g2
Ntp200
Rp201
(dp202
g25
I00
sg31
I01
sg32
I01
sg42
I3
sbsg138
g0
(g52
g2
Ntp203
Rp204
(dp205
g25
I00
sg31
I01
sg32
I00
sg42
I2
sbsg59
g149
sg61
I15
sg62
g192
sbsVphfCoincFilter2Th4
p206
g0
(g11
g2
Ntp207
Rp208
(dp209
g15
g134
sg17
(lp210
g136
ag137
ag138
asg25
I00
sg26
Nsg136
g0
(g27
g2
Ntp211
Rp212
(dp213
g25
I00
sg31
I01
sg32
I00
sg33
g142
sg35
g142
sg37
g36
sbsg32
I00
sg137
g0
(g52
g2
Ntp214
Rp215
(dp216
g25
I00
sg31
I01
sg32
I00
sg42
I4
sbsg138
g0
(g52
g2
Ntp217
Rp218
(dp219
g25
I00
sg31
I01
sg32
I00
sg42
I2
sbsg59
g149
sg61
I3
sg62
g206
sbsVphfCoincFilter2Th5
p220
g0
(g11
g2
Ntp221
Rp222
(dp223
g15
g134
sg17
(lp224
g136
ag137
ag138
asg25
I00
sg26
Nsg136
g0
(g27
g2
Ntp225
Rp226
(dp227
g25
I00
sg31
I01
sg32
I00
sg33
g142
sg35
g142
sg37
g36
sbsg32
I00
sg137
g0
(g52
g2
Ntp228
Rp229
(dp230
g25
I00
sg31
I01
sg32
I01
sg42
I5
sbsg138
g0
(g52
g2
Ntp231
Rp232
(dp233
g25
I00
sg31
I01
sg32
I00
sg42
I2
sbsg59
g149
sg61
I21
sg62
g220
sbsVphfCoincFilter2Th6
p234
g0
(g11
g2
Ntp235
Rp236
(dp237
g15
g134
sg17
(lp238
g136
ag137
ag138
asg25
I00
sg26
Nsg136
g0
(g27
g2
Ntp239
Rp240
(dp241
g25
I00
sg31
I01
sg32
I00
sg33
g142
sg35
g142
sg37
g36
sbsg32
I00
sg137
g0
(g52
g2
Ntp242
Rp243
(dp244
g25
I00
sg31
I01
sg32
I01
sg42
I6
sbsg138
g0
(g52
g2
Ntp245
Rp246
(dp247
g25
I00
sg31
I01
sg32
I00
sg42
I2
sbsg59
g149
sg61
I27
sg62
g234
sbsVphfCoincFilter3Th3
p248
g0
(g11
g2
Ntp249
Rp250
(dp251
g15
g134
sg17
(lp252
g136
ag137
ag138
asg25
I00
sg26
Nsg136
g0
(g27
g2
Ntp253
Rp254
(dp255
g25
I00
sg31
I01
sg32
I00
sg33
g142
sg35
g142
sg37
g36
sbsg32
I00
sg137
g0
(g52
g2
Ntp256
Rp257
(dp258
g25
I00
sg31
I01
sg32
I01
sg42
I3
sbsg138
g0
(g52
g2
Ntp259
Rp260
(dp261
g25
I00
sg31
I01
sg32
I01
sg42
I3
sbsg59
g149
sg61
I16
sg62
g248
sbsVphfCoincFilter3Th4
p262
g0
(g11
g2
Ntp263
Rp264
(dp265
g15
g134
sg17
(lp266
g136
ag137
ag138
asg25
I00
sg26
Nsg136
g0
(g27
g2
Ntp267
Rp268
(dp269
g25
I00
sg31
I01
sg32
I00
sg33
g142
sg35
g142
sg37
g36
sbsg32
I00
sg137
g0
(g52
g2
Ntp270
Rp271
(dp272
g25
I00
sg31
I01
sg32
I00
sg42
I4
sbsg138
g0
(g52
g2
Ntp273
Rp274
(dp275
g25
I00
sg31
I01
sg32
I01
sg42
I3
sbsg59
g149
sg61
I10
sg62
g262
sbsVphfCoincFilter3Th5
p276
g0
(g11
g2
Ntp277
Rp278
(dp279
g15
g134
sg17
(lp280
g136
ag137
ag138
asg25
I00
sg26
Nsg136
g0
(g27
g2
Ntp281
Rp282
(dp283
g25
I00
sg31
I01
sg32
I00
sg33
g142
sg35
g142
sg37
g36
sbsg32
I00
sg137
g0
(g52
g2
Ntp284
Rp285
(dp286
g25
I00
sg31
I01
sg32
I01
sg42
I5
sbsg138
g0
(g52
g2
Ntp287
Rp288
(dp289
g25
I00
sg31
I01
sg32
I01
sg42
I3
sbsg59
g149
sg61
I22
sg62
g276
sbsVphfCoincFilter3Th6
p290
g0
(g11
g2
Ntp291
Rp292
(dp293
g15
g134
sg17
(lp294
g136
ag137
ag138
asg25
I00
sg26
Nsg136
g0
(g27
g2
Ntp295
Rp296
(dp297
g25
I00
sg31
I01
sg32
I00
sg33
g142
sg35
g142
sg37
g36
sbsg32
I00
sg137
g0
(g52
g2
Ntp298
Rp299
(dp300
g25
I00
sg31
I01
sg32
I01
sg42
I6
sbsg138
g0
(g52
g2
Ntp301
Rp302
(dp303
g25
I00
sg31
I01
sg32
I01
sg42
I3
sbsg59
g149
sg61
I28
sg62
g290
sbsVphfCoincFilter4Th2
p304
g0
(g11
g2
Ntp305
Rp306
(dp307
g15
g134
sg17
(lp308
g136
ag137
ag138
asg25
I00
sg26
Nsg136
g0
(g27
g2
Ntp309
Rp310
(dp311
g25
I00
sg31
I01
sg32
I00
sg33
g142
sg35
g142
sg37
g36
sbsg32
I00
sg137
g0
(g52
g2
Ntp312
Rp313
(dp314
g25
I00
sg31
I01
sg32
I01
sg42
I2
sbsg138
g0
(g52
g2
Ntp315
Rp316
(dp317
g25
I00
sg31
I01
sg32
I01
sg42
I4
sbsg59
g149
sg61
I32
sg62
g304
sbsVphfCoincFilter4Th3
p318
g0
(g11
g2
Ntp319
Rp320
(dp321
g15
g134
sg17
(lp322
g136
ag137
ag138
asg25
I00
sg26
Nsg136
g0
(g27
g2
Ntp323
Rp324
(dp325
g25
I00
sg31
I01
sg32
I00
sg33
g142
sg35
g142
sg37
g36
sbsg32
I00
sg137
g0
(g52
g2
Ntp326
Rp327
(dp328
g25
I00
sg31
I01
sg32
I01
sg42
I3
sbsg138
g0
(g52
g2
Ntp329
Rp330
(dp331
g25
I00
sg31
I01
sg32
I01
sg42
I4
sbsg59
g149
sg61
I17
sg62
g318
sbsVphfCoincFilter4Th4
p332
g0
(g11
g2
Ntp333
Rp334
(dp335
g15
g134
sg17
(lp336
g136
ag137
ag138
asg25
I00
sg26
Nsg136
g0
(g27
g2
Ntp337
Rp338
(dp339
g25
I00
sg31
I01
sg32
I00
sg33
g142
sg35
g142
sg37
g36
sbsg32
I00
sg137
g0
(g52
g2
Ntp340
Rp341
(dp342
g25
I00
sg31
I01
sg32
I00
sg42
I4
sbsg138
g0
(g52
g2
Ntp343
Rp344
(dp345
g25
I00
sg31
I01
sg32
I01
sg42
I4
sbsg59
g149
sg61
I11
sg62
g332
sbsVphfCoincFilter4Th5
p346
g0
(g11
g2
Ntp347
Rp348
(dp349
g15
g134
sg17
(lp350
g136
ag137
ag138
asg25
I00
sg26
Nsg136
g0
(g27
g2
Ntp351
Rp352
(dp353
g25
I00
sg31
I01
sg32
I00
sg33
g142
sg35
g142
sg37
g36
sbsg32
I00
sg137
g0
(g52
g2
Ntp354
Rp355
(dp356
g25
I00
sg31
I01
sg32
I01
sg42
I5
sbsg138
g0
(g52
g2
Ntp357
Rp358
(dp359
g25
I00
sg31
I01
sg32
I01
sg42
I4
sbsg59
g149
sg61
I23
sg62
g346
sbsVphfCoincFilter4Th6
p360
g0
(g11
g2
Ntp361
Rp362
(dp363
g15
g134
sg17
(lp364
g136
ag137
ag138
asg25
I00
sg26
Nsg136
g0
(g27
g2
Ntp365
Rp366
(dp367
g25
I00
sg31
I01
sg32
I00
sg33
g142
sg35
g142
sg37
g36
sbsg32
I00
sg137
g0
(g52
g2
Ntp368
Rp369
(dp370
g25
I00
sg31
I01
sg32
I01
sg42
I6
sbsg138
g0
(g52
g2
Ntp371
Rp372
(dp373
g25
I00
sg31
I01
sg32
I01
sg42
I4
sbsg59
g149
sg61
I29
sg62
g360
sbsVphfCoincFilter5Th3
p374
g0
(g11
g2
Ntp375
Rp376
(dp377
g15
g134
sg17
(lp378
g136
ag137
ag138
asg25
I00
sg26
Nsg136
g0
(g27
g2
Ntp379
Rp380
(dp381
g25
I00
sg31
I01
sg32
I00
sg33
g142
sg35
g142
sg37
g36
sbsg32
I00
sg137
g0
(g52
g2
Ntp382
Rp383
(dp384
g25
I00
sg31
I01
sg32
I01
sg42
I3
sbsg138
g0
(g52
g2
Ntp385
Rp386
(dp387
g25
I00
sg31
I01
sg32
I01
sg42
I5
sbsg59
g149
sg61
I18
sg62
g374
sbsVphfCoincFilter5Th4
p388
g0
(g11
g2
Ntp389
Rp390
(dp391
g15
g134
sg17
(lp392
g136
ag137
ag138
asg25
I00
sg26
Nsg136
g0
(g27
g2
Ntp393
Rp394
(dp395
g25
I00
sg31
I01
sg32
I00
sg33
g142
sg35
g142
sg37
g36
sbsg32
I00
sg137
g0
(g52
g2
Ntp396
Rp397
(dp398
g25
I00
sg31
I01
sg32
I00
sg42
I4
sbsg138
g0
(g52
g2
Ntp399
Rp400
(dp401
g25
I00
sg31
I01
sg32
I01
sg42
I5
sbsg59
g149
sg61
I12
sg62
g388
sbsVphfCoincFilter5Th5
p402
g0
(g11
g2
Ntp403
Rp404
(dp405
g15
g134
sg17
(lp406
g136
ag137
ag138
asg25
I00
sg26
Nsg136
g0
(g27
g2
Ntp407
Rp408
(dp409
g25
I00
sg31
I01
sg32
I00
sg33
g142
sg35
g142
sg37
g36
sbsg32
I00
sg137
g0
(g52
g2
Ntp410
Rp411
(dp412
g25
I00
sg31
I01
sg32
I01
sg42
I5
sbsg138
g0
(g52
g2
Ntp413
Rp414
(dp415
g25
I00
sg31
I01
sg32
I01
sg42
I5
sbsg59
g149
sg61
I24
sg62
g402
sbsVphfCoincFilter5Th6
p416
g0
(g11
g2
Ntp417
Rp418
(dp419
g15
g134
sg17
(lp420
g136
ag137
ag138
asg25
I00
sg26
Nsg136
g0
(g27
g2
Ntp421
Rp422
(dp423
g25
I00
sg31
I01
sg32
I00
sg33
g142
sg35
g142
sg37
g36
sbsg32
I00
sg137
g0
(g52
g2
Ntp424
Rp425
(dp426
g25
I00
sg31
I01
sg32
I01
sg42
I6
sbsg138
g0
(g52
g2
Ntp427
Rp428
(dp429
g25
I00
sg31
I01
sg32
I01
sg42
I5
sbsg59
g149
sg61
I30
sg62
g416
sbsVhltMB
p430
g0
(g11
g2
Ntp431
Rp432
(dp433
g15
VHLTHighLevel
p434
sg17
(lp435
VTriggerResultsTag
p436
aVHLTPaths
p437
aVeventSetupPathsKey
p438
aVandOr
p439
aVthrow
p440
ag72
asg25
I00
sg26
Nsg436
g0
(g27
g2
Ntp441
Rp442
(dp443
g25
I00
sg31
I01
sg32
I00
sg33
VTriggerResults
p444
sg35
g36
sg37
VHLT
p445
sbsg32
I01
sg437
g0
(g105
g47
(lp446
VHLT_HIMinimumBiasHF1AND*
p447
atp448
Rp449
(dp450
g25
I00
sg31
I01
sg32
I01
sV_nPerLine
p451
I1
sbsg438
g0
(g121
g2
Ntp452
Rp453
(dp454
g25
I00
sg31
I01
sg32
I00
sg42
g36
sbsg439
g0
(g73
g2
Ntp455
Rp456
(dp457
g25
I00
sg31
I01
sg32
I00
sg42
I01
sbsg440
g0
(g73
g2
Ntp458
Rp459
(dp460
g25
I00
sg31
I01
sg32
I00
sg42
I00
sbsg72
g0
(g100
g2
Ntp461
Rp462
(dp463
g25
I00
sg31
I00
sg32
I00
sg104
g105
sg106
Nsbsg59
V/afs/cern.ch/work/r/rpradhan/Tracking_Studies/newCode_AfterRun3/ForEffTest/CMSSW_13_2_10/src/Analyzers/RaghuEffTest/cfg/EfficiecnyTest_genTrk_cfg.py
p464
sg61
I132
sg62
g430
sbssV_Process__producers
p465
(dp466
VrandomEngineStateProducer
p467
g0
(cFWCore.ParameterSet.Modules
EDProducer
p468
g2
Ntp469
Rp470
(dp471
g15
VRandomEngineStateProducer
p472
sg17
(lp473
sg25
I00
sg26
Nsg32
I00
sg59
V/cvmfs/cms.cern.ch/el8_amd64_gcc11/cms/cmssw/CMSSW_13_2_10/src/IOMC/RandomEngine/python/IOMC_cff.py
p474
sg61
I172
sg62
g467
sbsVgeneralAndHiPixelTracks
p475
g0
(g468
g2
Ntp476
Rp477
(dp478
g15
g475
sg17
(lp479
VsrcPFcand
p480
aVchi2Map
p481
aVgenTrackSrc
p482
aVpixTrackSrc
p483
aVvertexSrc
p484
aVcentralitySrc
p485
aVmvaSrc
p486
aVcutWidth
p487
aVtrkRes
p488
aVqualityString
p489
aVdxyErrMax
p490
aVdzErrMax
p491
aVptErrMax
p492
aVnhitsMin
p493
aVchi2nMax
p494
aVchi2nMaxPixel
p495
aVdzErrMaxPixel
p496
aVdxyErrMaxPixel
p497
asg25
I00
sg26
Nsg480
g0
(g27
g2
Ntp498
Rp499
(dp500
g25
I00
sg31
I01
sg32
I00
sg33
VpackedPFCandidates
p501
sg35
g36
sg37
g36
sbsg32
I00
sg481
g0
(g27
g2
Ntp502
Rp503
(dp504
g25
I00
sg31
I01
sg32
I00
sg33
VpackedPFCandidateTrackChi2
p505
sg35
g36
sg37
g36
sbsg482
g0
(g27
g2
Ntp506
Rp507
(dp508
g25
I00
sg31
I01
sg32
I00
sg33
VgeneralTracks
p509
sg35
g36
sg37
g36
sbsg483
g0
(g27
g2
Ntp510
Rp511
(dp512
g25
I00
sg31
I01
sg32
I00
sg33
VhiPixelTracks
p513
sg35
g36
sg37
g36
sbsg484
g0
(g27
g2
Ntp514
Rp515
(dp516
g25
I00
sg31
I01
sg32
I00
sg33
VofflineSlimmedPrimaryVerticesRecovery
p517
sg35
g36
sg37
g36
sbsg485
g0
(g27
g2
Ntp518
Rp519
(dp520
g25
I00
sg31
I01
sg32
I00
sg33
VcentralityBin
p521
sg35
VHFtowers
p522
sg37
g36
sbsg486
g0
(g27
g2
Ntp523
Rp524
(dp525
g25
I00
sg31
I01
sg32
I00
sg33
g509
sg35
VMVAValues
p526
sg37
g36
sbsg487
g0
(g38
g2
Ntp527
Rp528
(dp529
g25
I00
sg31
I01
sg32
I00
sg42
F0.2
sbsg488
g0
(g38
g2
Ntp530
Rp531
(dp532
g25
I00
sg31
I01
sg32
I00
sg42
F0.02
sbsg489
g0
(g121
g2
Ntp533
Rp534
(dp535
g25
I00
sg31
I01
sg32
I00
sg42
VhighPurity
p536
sbsg490
g0
(g38
g2
Ntp537
Rp538
(dp539
g25
I00
sg31
I01
sg32
I00
sg42
F3.0
sbsg491
g0
(g38
g2
Ntp540
Rp541
(dp542
g25
I00
sg31
I01
sg32
I00
sg42
F3.0
sbsg492
g0
(g38
g2
Ntp543
Rp544
(dp545
g25
I00
sg31
I01
sg32
I00
sg42
F0.1
sbsg493
g0
(g52
g2
Ntp546
Rp547
(dp548
g25
I00
sg31
I01
sg32
I00
sg42
I11
sbsg494
g0
(g38
g2
Ntp549
Rp550
(dp551
g25
I00
sg31
I01
sg32
I00
sg42
F0.18
sbsg495
g0
(g38
g2
Ntp552
Rp553
(dp554
g25
I00
sg31
I01
sg32
I00
sg42
F9999.0
sbsg496
g0
(g38
g2
Ntp555
Rp556
(dp557
g25
I00
sg31
I01
sg32
I00
sg42
F20.0
sbsg497
g0
(g38
g2
Ntp558
Rp559
(dp560
g25
I00
sg31
I01
sg32
I00
sg42
F7.0
sbsg59
V/afs/cern.ch/work/r/rpradhan/Tracking_Studies/newCode_AfterRun3/ForEffTest/CMSSW_13_2_10/src/MergingProducer/generalAndHiPixelTracks/python/MergingPixAndGenProducer_cfi.py
p561
sg61
I3
sg62
g475
sbsg521
g0
(g468
g2
Ntp562
Rp563
(dp564
g15
VCentralityBinProducer
p565
sg17
(lp566
VCentrality
p567
aVcentralityVariable
p568
aVnonDefaultGlauberModel
p569
aVpPbRunFlip
p570
asg25
I00
sg26
Nsg567
g0
(g27
g2
Ntp571
Rp572
(dp573
g25
I00
sg31
I01
sg32
I00
sg33
VhiCentrality
p574
sg35
g36
sg37
g36
sbsg32
I01
sg568
g0
(g121
g2
Ntp575
Rp576
(dp577
g25
I00
sg31
I01
sg32
I00
sg42
g522
sbsg569
g0
(g121
g2
Ntp578
Rp579
(dp580
g25
I00
sg31
I01
sg32
I00
sg42
g36
sbsg570
g0
(cFWCore.ParameterSet.Types
uint32
p581
g2
Ntp582
Rp583
(dp584
g25
I00
sg31
I01
sg32
I00
sg42
I99999999
sbsg59
V/cvmfs/cms.cern.ch/el8_amd64_gcc11/cms/cmssw/CMSSW_13_2_10/src/RecoHI/HiCentralityAlgos/python/CentralityBin_cfi.py
p585
sg61
I3
sg62
g521
sbsg80
g0
(g468
g2
Ntp586
Rp587
(dp588
g15
VSiPixelRecHitConverter
p589
sg17
(lp590
g114
aVCPE
p591
aVVerboseLevel
p592
asg25
I00
sg26
Nsg114
g0
(g27
g2
Ntp593
Rp594
(dp595
g25
I00
sg31
I01
sg32
I00
sg33
VsiPixelClusters
p596
sg35
g36
sg37
g36
sbsg32
I00
sg591
g0
(g121
g2
Ntp597
Rp598
(dp599
g25
I00
sg31
I01
sg32
I00
sg42
VPixelCPEGeneric
p600
sbsg592
g0
(g52
g2
Ntp601
Rp602
(dp603
g25
I00
sg31
I00
sg32
I00
sg42
I0
sbsg59
V/cvmfs/cms.cern.ch/el8_amd64_gcc11/cms/cmssw/CMSSW_13_2_10/src/RecoLocalTracker/SiPixelRecHits/python/SiPixelRecHits_cfi.py
p604
sg61
I6
sg62
g80
sbsVsiPixelRecHitsPreSplittingCPU
p605
g0
(g468
g2
Ntp606
Rp607
(dp608
g15
VSiPixelRecHitSoAFromLegacyPhase1
p609
sg17
(lp610
VbeamSpot
p611
ag114
ag591
aVconvertToLegacy
p612
ag72
asg25
I00
sg26
Nsg611
g0
(g27
g2
Ntp613
Rp614
(dp615
g25
I00
sg31
I01
sg32
I00
sg33
VofflineBeamSpot
p616
sg35
g36
sg37
g36
sbsg32
I00
sg114
g0
(g27
g2
Ntp617
Rp618
(dp619
g25
I00
sg31
I01
sg32
I00
sg33
VsiPixelClustersPreSplitting
p620
sg35
g36
sg37
g36
sbsg591
g0
(g121
g2
Ntp621
Rp622
(dp623
g25
I00
sg31
I01
sg32
I00
sg42
VPixelCPEFast
p624
sbsg612
g0
(g73
g2
Ntp625
Rp626
(dp627
g25
I00
sg31
I01
sg32
I01
sg42
I01
sbsg72
g0
(g100
g2
Ntp628
Rp629
(dp630
g25
I00
sg31
I00
sg32
I00
sg104
g105
sg106
Nsbsg59
g604
sg61
I29
sg62
g605
sbsVsiPixelRecHitsPreSplittingCUDA
p631
g0
(g468
g2
Ntp632
Rp633
(dp634
g15
VSiPixelRecHitCUDAPhase1
p635
sg17
(lp636
g611
ag114
ag591
ag72
asg25
I00
sg26
Nsg611
g0
(g27
g2
Ntp637
Rp638
(dp639
g25
I00
sg31
I01
sg32
I01
sg33
VofflineBeamSpotToCUDA
p640
sg35
g36
sg37
g36
sbsg32
I00
sg114
g0
(g27
g2
Ntp641
Rp642
(dp643
g25
I00
sg31
I01
sg32
I00
sg33
VsiPixelClustersPreSplittingCUDA
p644
sg35
g36
sg37
g36
sbsg591
g0
(g121
g2
Ntp645
Rp646
(dp647
g25
I00
sg31
I01
sg32
I00
sg42
g624
sbsg72
g0
(g100
g2
Ntp648
Rp649
(dp650
g25
I00
sg31
I00
sg32
I00
sg104
g105
sg106
Nsbsg59
g604
sg61
I54
sg62
g631
sbssV_Process__switchproducers
p651
(dp652
VsiPixelRecHitsPreSplitting
p653
g0
(cHeterogeneousCore.CUDACore.SwitchProducerCUDA
SwitchProducerCUDA
p654
g2
Ntp655
Rp656
(dp657
g15
Nsg17
(lp658
Vcpu
p659
asg25
I00
sg26
Nsg32
I00
sg59
V/cvmfs/cms.cern.ch/el8_amd64_gcc11/cms/cmssw/CMSSW_13_2_10/src/FWCore/ParameterSet/python/Modules.py
p660
sg61
I250
sV_caseFunctionDict
p661
(dp662
g659
cFWCore.ParameterSet.Modules
_switch_cpu
p663
sVcuda
p664
cHeterogeneousCore.CUDACore.SwitchProducerCUDA
_switch_cuda
p665
ssg659
g0
(g468
g2
Ntp666
Rp667
(dp668
g15
g589
sg17
(lp669
g114
ag591
ag592
asg25
I00
sg26
Nsg114
g0
(g27
g2
Ntp670
Rp671
(dp672
g25
I00
sg31
I01
sg32
I01
sg33
g620
sg35
g36
sg37
g36
sbsg32
I00
sg591
g0
(g121
g2
Ntp673
Rp674
(dp675
g25
I00
sg31
I01
sg32
I00
sg42
g600
sbsg592
g0
(g52
g2
Ntp676
Rp677
(dp678
g25
I00
sg31
I00
sg32
I00
sg42
I0
sbsg59
g604
sg61
I14
sg62
VsiPixelRecHitsPreSplitting@cpu
p679
sbsg62
g653
sbsVsiPixelRecHitsPreSplittingSoA
p680
g0
(g654
g2
Ntp681
Rp682
(dp683
g15
Nsg17
(lp684
g659
asg25
I00
sg26
Nsg32
I00
sg59
g660
sg61
I250
sg661
(dp685
g659
g663
sg664
g665
ssg659
g0
(cFWCore.ParameterSet.Types
EDAlias
p686
g2
Ntp687
Rp688
(dp689
g17
(lp690
g605
asg25
I00
sg26
Nsg605
g0
(cFWCore.ParameterSet.Types
VPSet
p691
g47
(lp692
g0
(cFWCore.ParameterSet.Types
PSet
p693
g2
Ntp694
Rp695
(dp696
g25
I00
sg31
I01
sg32
I00
sg17
(lp697
Vtype
p698
asg26
Nsg698
g0
(g121
g2
Ntp699
Rp700
(dp701
g25
I00
sg31
I01
sg32
I00
sg42
VpixelTopologyPhase1TrackingRecHitSoAHost
p702
sbsbag0
(g693
g2
Ntp703
Rp704
(dp705
g25
I00
sg31
I01
sg32
I00
sg17
(lp706
g698
asg26
Nsg698
g0
(g121
g2
Ntp707
Rp708
(dp709
g25
I00
sg31
I01
sg32
I00
sg42
VuintAsHostProduct
p710
sbsbatp711
Rp712
(dp713
g25
I00
sg31
I01
sg32
I00
sg451
I1
sbsg32
I00
sg62
VsiPixelRecHitsPreSplittingSoA@cpu
p714
sbsg62
g680
sbssV_Process__source
p715
g0
(cFWCore.ParameterSet.Modules
Source
p716
g2
Ntp717
Rp718
(dp719
g15
VPoolSource
p720
sg17
(lp721
VfileNames
p722
aVduplicateCheckMode
p723
aVskipBadFiles
p724
asg25
I00
sg26
Nsg722
g0
(g105
g47
(lp725
V/store/user/cbennett/PYTHIA8_HYDJET_DiJet_5360GeV_130X/PYTHIA8_HYDJET_DiJet_5360GeV_RECODEBUG_updatedEra_132X_2024-10-12/241013_021405/0000/PYTHIA8_HYDJET_DiJet_5360GeV_RECODEBUG_1.root
p726
aV/store/user/cbennett/PYTHIA8_HYDJET_DiJet_5360GeV_130X/PYTHIA8_HYDJET_DiJet_5360GeV_RECODEBUG_updatedEra_132X_2024-10-12/241013_021405/0000/PYTHIA8_HYDJET_DiJet_5360GeV_RECODEBUG_2.root
p727
aV/store/user/cbennett/PYTHIA8_HYDJET_DiJet_5360GeV_130X/PYTHIA8_HYDJET_DiJet_5360GeV_RECODEBUG_updatedEra_132X_2024-10-12/241013_021405/0000/PYTHIA8_HYDJET_DiJet_5360GeV_RECODEBUG_3.root
p728
aV/store/user/cbennett/PYTHIA8_HYDJET_DiJet_5360GeV_130X/PYTHIA8_HYDJET_DiJet_5360GeV_RECODEBUG_updatedEra_132X_2024-10-12/241013_021405/0000/PYTHIA8_HYDJET_DiJet_5360GeV_RECODEBUG_4.root
p729
aV/store/user/cbennett/PYTHIA8_HYDJET_DiJet_5360GeV_130X/PYTHIA8_HYDJET_DiJet_5360GeV_RECODEBUG_updatedEra_132X_2024-10-12/241013_021405/0000/PYTHIA8_HYDJET_DiJet_5360GeV_RECODEBUG_5.root
p730
aV/store/user/cbennett/PYTHIA8_HYDJET_DiJet_5360GeV_130X/PYTHIA8_HYDJET_DiJet_5360GeV_RECODEBUG_updatedEra_132X_2024-10-12/241013_021405/0000/PYTHIA8_HYDJET_DiJet_5360GeV_RECODEBUG_6.root
p731
atp732
Rp733
(dp734
g25
I00
sg31
I00
sg32
I00
sg451
I1
sbsg32
I00
sg723
g0
(g121
g2
Ntp735
Rp736
(dp737
g25
I00
sg31
I00
sg32
I00
sg42
VnoDuplicateCheck
p738
sbsg724
g0
(g73
g2
Ntp739
Rp740
(dp741
g25
I00
sg31
I00
sg32
I00
sg42
I01
sbsg59
g660
sg61
I195
sbsV_Process__looper
p742
NsV_Process__subProcesses
p743
(lp744
sV_Process__schedule
p745
NsV_Process__analyzers
p746
(dp747
VhiEvtAnalyzer
p748
g0
(cFWCore.ParameterSet.Modules
EDAnalyzer
p749
g2
Ntp750
Rp751
(dp752
g15
VHiEvtAnalyzer
p753
sg17
(lp754
VCentralitySrc
p755
aVCentralityBinSrc
p756
aVpfCandidateSrc
p757
aVEvtPlane
p758
aVEvtPlaneFlat
p759
aVHiMC
p760
aVVertex
p761
ag136
aVdoCentrality
p762
aVdoEvtPlane
p763
aVdoEvtPlaneFlat
p764
aVdoVertex
p765
aVdoMC
p766
aVdoHiMC
p767
aVuseHepMC
p768
aVdoHFfilters
p769
aVevtPlaneLevel
p770
asg25
I00
sg26
Nsg755
g0
(g27
g2
Ntp771
Rp772
(dp773
g25
I00
sg31
I01
sg32
I00
sg33
g574
sg35
g36
sg37
g36
sbsg32
I00
sg756
g0
(g27
g2
Ntp774
Rp775
(dp776
g25
I00
sg31
I01
sg32
I00
sg33
g521
sg35
g522
sg37
g36
sbsg757
g0
(g27
g2
Ntp777
Rp778
(dp779
g25
I00
sg31
I01
sg32
I00
sg33
g501
sg35
g36
sg37
g36
sbsg758
g0
(g27
g2
Ntp780
Rp781
(dp782
g25
I00
sg31
I01
sg32
I00
sg33
VhiEvtPlane
p783
sg35
g36
sg37
g36
sbsg759
g0
(g27
g2
Ntp784
Rp785
(dp786
g25
I00
sg31
I01
sg32
I00
sg33
VhiEvtPlaneFlat
p787
sg35
g36
sg37
g36
sbsg760
g0
(g27
g2
Ntp788
Rp789
(dp790
g25
I00
sg31
I01
sg32
I00
sg33
VheavyIon
p791
sg35
g36
sg37
g36
sbsg761
g0
(g27
g2
Ntp792
Rp793
(dp794
g25
I00
sg31
I01
sg32
I00
sg33
g120
sg35
g36
sg37
g36
sbsg136
g0
(g27
g2
Ntp795
Rp796
(dp797
g25
I00
sg31
I01
sg32
I00
sg33
g142
sg35
g142
sg37
g36
sbsg762
g0
(g73
g2
Ntp798
Rp799
(dp800
g25
I00
sg31
I01
sg32
I00
sg42
I01
sbsg763
g0
(g73
g2
Ntp801
Rp802
(dp803
g25
I00
sg31
I01
sg32
I00
sg42
I01
sbsg764
g0
(g73
g2
Ntp804
Rp805
(dp806
g25
I00
sg31
I01
sg32
I00
sg42
I01
sbsg765
g0
(g73
g2
Ntp807
Rp808
(dp809
g25
I00
sg31
I01
sg32
I00
sg42
I01
sbsg766
g0
(g73
g2
Ntp810
Rp811
(dp812
g25
I00
sg31
I01
sg32
I00
sg42
I00
sbsg767
g0
(g73
g2
Ntp813
Rp814
(dp815
g25
I00
sg31
I01
sg32
I00
sg42
I00
sbsg768
g0
(g73
g2
Ntp816
Rp817
(dp818
g25
I00
sg31
I01
sg32
I00
sg42
I00
sbsg769
g0
(g73
g2
Ntp819
Rp820
(dp821
g25
I00
sg31
I01
sg32
I00
sg42
I01
sbsg770
g0
(g52
g2
Ntp822
Rp823
(dp824
g25
I00
sg31
I01
sg32
I00
sg42
I0
sbsg59
V/afs/cern.ch/work/r/rpradhan/Tracking_Studies/newCode_AfterRun3/ForEffTest/CMSSW_13_2_10/src/HeavyIonsAnalysis/EventAnalysis/python/hievtanalyzer_data_cfi.py
p825
sg61
I3
sg62
g748
sbsVdefaultCPDC
p826
g0
(g749
g2
Ntp827
Rp828
(dp829
g15
g7
sg17
(lp830
Vtracks
p831
aVtracksgen
p832
aVvertex
p833
aVcentralitybin
p834
aVzminVtx
p835
aVzmaxVtx
p836
aVfGeneral
p837
aVfGeneral2
p838
aVpTBins
p839
aVetaBins
p840
aVcentbins
p841
aValgoParameters
p842
asg25
I00
sg26
Nsg831
g0
(g27
g2
Ntp843
Rp844
(dp845
g25
I00
sg31
I01
sg32
I00
sg33
g509
sg35
g36
sg37
g36
sbsg32
I00
sg832
g0
(g27
g2
Ntp846
Rp847
(dp848
g25
I00
sg31
I01
sg32
I00
sg33
VgenParticles
p849
sg35
g36
sg37
g36
sbsg833
g0
(g27
g2
Ntp850
Rp851
(dp852
g25
I00
sg31
I01
sg32
I00
sg33
VofflinePrimaryVertices
p853
sg35
g36
sg37
g36
sbsg834
g0
(g27
g2
Ntp854
Rp855
(dp856
g25
I00
sg31
I01
sg32
I00
sg33
g521
sg35
g522
sg37
g36
sbsg835
g0
(g38
g2
Ntp857
Rp858
(dp859
g25
I00
sg31
I00
sg32
I00
sg42
F-15.0
sbsg836
g0
(g38
g2
Ntp860
Rp861
(dp862
g25
I00
sg31
I00
sg32
I00
sg42
F15.0
sbsg837
g0
(g27
g2
Ntp863
Rp864
(dp865
g25
I00
sg31
I00
sg32
I00
sg33
VGeneral_TrackEff_3D_nhits0_noChi2Cut_ptGt10ptResoCut_Nominal_NewSample.root
p866
sg35
g36
sg37
g36
sbsg838
g0
(g27
g2
Ntp867
Rp868
(dp869
g25
I00
sg31
I00
sg32
I00
sg33
VGeneral_TrackEff_3D_nhits0_noChi2Cut_ptGt10ptResoCut_Nominal_NewSampleQCD.root
p870
sg35
g36
sg37
g36
sbsg839
g0
(g46
g47
(lp871
F0.0
aF0.05
aF0.1
aF0.15
aF0.2
aF0.25
aF0.3
aF0.35
aF0.4
aF0.45
aF0.5
aF0.55
aF0.6
aF0.65
aF0.7
aF0.75
aF0.8
aF0.85
aF0.9
aF0.95
aF1.0
aF1.05
aF1.1
aF1.15
aF1.2
aF1.3
aF1.4
aF1.5
aF1.6
aF1.7
aF1.8
aF1.9
aF2.0
aF2.5
aF3.0
atp872
Rp873
(dp874
g25
I00
sg31
I00
sg32
I00
sbsg840
g0
(g46
g47
(lp875
F-3.0
aF-2.4
aF-2.0
aF-1.6
aF-1.2
aF-0.8
aF-0.4
aF0.0
aF0.4
aF0.8
aF1.2
aF1.6
aF2.0
aF2.4
aF3.0
atp876
Rp877
(dp878
g25
I00
sg31
I00
sg32
I00
sbsg841
g0
(g46
g47
(lp879
F0.0
aF20.0
aF40.0
aF60.0
aF80.0
aF100.0
aF120.0
aF140.0
aF160.0
aF180.0
aF200.0
atp880
Rp881
(dp882
g25
I00
sg31
I00
sg32
I00
sbsg842
g0
(cFWCore.ParameterSet.Types
vint32
p883
g47
(lp884
I0
aI1
aI2
aI3
aI4
aI5
aI6
aI7
aI8
aI9
aI10
aI11
aI12
aI13
aI14
aI15
aI16
aI17
aI18
aI19
aI20
aI21
aI22
aI23
aI24
aI25
aI26
aI27
aI28
aI29
aI30
aI31
aI32
aI33
aI34
aI35
aI36
aI37
aI38
aI39
aI40
aI41
aI42
aI43
aI44
aI45
aI46
atp885
Rp886
(dp887
g25
I00
sg31
I01
sg32
I00
sbsg59
V/afs/cern.ch/work/r/rpradhan/Tracking_Studies/newCode_AfterRun3/ForEffTest/CMSSW_13_2_10/src/Analyzers/RaghuEffTest/python/RaghuEffTest_cfi.py
p888
sg61
I3
sg62
g826
sbssV_Process__outputmodules
p889
(dp890
sV_Process__paths
p891
g0
(cFWCore.ParameterSet.DictTypes
SortedKeysDict
p892
c__builtin__
dict
p893
(dp894
Vp
p895
g0
(cFWCore.ParameterSet.SequenceTypes
Path
p896
g2
Ntp897
Rp898
(dp899
g25
I00
sV_seq
p900
g0
(cFWCore.ParameterSet.SequenceTypes
_SequenceCollection
p901
g2
Ntp902
Rp903
(dp904
V_collection
p905
(lp906
g432
ag563
ag828
asbsg32
I00
sV_tasks
p907
g0
(cFWCore.ParameterSet.OrderedSet
OrderedSet
p908
g2
Ntp909
Rp910
(dp911
Vend
p912
(lp913
Nag913
ag913
asVmap
p914
(dp915
sbsg62
g895
sbstp916
Rp917
(dp918
Vlist
p919
(lp920
g895
asbsV_Process__endpaths
p921
g0
(g892
g893
(dp922
tp923
Rp924
(dp925
g919
(lp926
sbsV_Process__finalpaths
p927
g0
(g892
g893
(dp928
tp929
Rp930
(dp931
g919
(lp932
sbsV_Process__sequences
p933
(dp934
VeventFilter
p935
g0
(cFWCore.ParameterSet.SequenceTypes
Sequence
p936
g2
Ntp937
Rp938
(dp939
g25
I00
sg900
g0
(g901
g2
Ntp940
Rp941
(dp942
g905
(lp943
g208
ag110
ag13
asbsg32
I00
sg907
g0
(g908
g2
Ntp944
Rp945
(dp946
g912
(lp947
Nag947
ag947
asg914
(dp948
sbsg62
g935
sbssV_Process__tasks
p949
(dp950
VsiPixelRecHitsPreSplittingTask
p951
g0
(cFWCore.ParameterSet.SequenceTypes
Task
p952
g2
Ntp953
Rp954
(dp955
g905
g0
(g908
g2
Ntp956
Rp957
(dp958
g912
(lp959
Na(lp960
g656
ag959
ag959
aag960
asg914
(dp961
g656
g960
ssbsg62
g951
sbssV_Process__conditionaltasks
p962
(dp963
sV_Process__services
p964
(dp965
VMessageLogger
p966
g0
(cFWCore.ParameterSet.Modules
Service
p967
g2
Ntp968
Rp969
(dp970
g15
g966
sg17
(lp971
VsuppressWarning
p972
aVsuppressFwkInfo
p973
aVsuppressInfo
p974
aVsuppressDebug
p975
aVdebugModules
p976
aVcout
p977
aVdefault
p978
aVcerr
p979
aVfiles
p980
asg25
I00
sg26
g0
(g100
g2
Ntp981
Rp982
(dp983
g25
I00
sg31
I00
sg32
I00
sg104
g0
(cFWCore.ParameterSet.Types
_PSetTemplate
p984
g2
Ntp985
Rp986
(dp987
V_pset
p988
g0
(g693
g2
Ntp989
Rp990
(dp991
g25
I00
sg31
I01
sg32
I00
sg17
(lp992
VreportEvery
p993
aVlimit
p994
aVtimespan
p995
asg26
Nsg993
g0
(g52
g2
Ntp996
Rp997
(dp998
g25
I00
sg31
I00
sg32
I00
sg42
I1
sbsg994
g0
(g100
g2
Ntp999
Rp1000
(dp1001
g25
I00
sg31
I00
sg32
I00
sg104
g52
sg106
Nsbsg995
g0
(g100
g2
Ntp1002
Rp1003
(dp1004
g25
I00
sg31
I00
sg32
I00
sg104
g52
sg106
NsbsbsV_PSetTemplate__value
p1005
Nsbsg106
Nsbsg972
g0
(g105
g47
(lp1006
tp1007
Rp1008
(dp1009
g25
I00
sg31
I00
sg32
I00
sg451
I1
sbsg32
I00
sg973
g0
(g105
g47
(lp1010
tp1011
Rp1012
(dp1013
g25
I00
sg31
I00
sg32
I00
sg451
I1
sbsg974
g0
(g105
g47
(lp1014
tp1015
Rp1016
(dp1017
g25
I00
sg31
I00
sg32
I00
sg451
I1
sbsg975
g0
(g105
g47
(lp1018
tp1019
Rp1020
(dp1021
g25
I00
sg31
I00
sg32
I00
sg451
I1
sbsg976
g0
(g105
g47
(lp1022
tp1023
Rp1024
(dp1025
g25
I00
sg31
I00
sg32
I00
sg451
I1
sbsg977
g0
(g693
g2
Ntp1026
Rp1027
(dp1028
g25
I00
sg31
I00
sg32
I00
sg17
(lp1029
VnoLineBreaks
p1030
aVnoTimeStamps
p1031
aVlineLength
p1032
ag137
aVstatisticsThreshold
p1033
aVenableStatistics
p1034
aVresetStatistics
p1035
aVenable
p1036
asg26
g982
sg1030
g0
(g100
g2
Ntp1037
Rp1038
(dp1039
g25
I00
sg31
I00
sg32
I00
sg104
g73
sg106
Nsbsg1031
g0
(g100
g2
Ntp1040
Rp1041
(dp1042
g25
I00
sg31
I00
sg32
I00
sg104
g73
sg106
Nsbsg1032
g0
(g100
g2
Ntp1043
Rp1044
(dp1045
g25
I00
sg31
I00
sg32
I00
sg104
g52
sg106
Nsbsg137
g0
(g100
g2
Ntp1046
Rp1047
(dp1048
g25
I00
sg31
I00
sg32
I00
sg104
g121
sg106
Nsbsg1033
g0
(g100
g2
Ntp1049
Rp1050
(dp1051
g25
I00
sg31
I00
sg32
I00
sg104
g121
sg106
Nsbsg1034
g0
(g73
g2
Ntp1052
Rp1053
(dp1054
g25
I00
sg31
I00
sg32
I00
sg42
I00
sbsg1035
g0
(g73
g2
Ntp1055
Rp1056
(dp1057
g25
I00
sg31
I00
sg32
I00
sg42
I00
sbsg1036
g0
(g73
g2
Ntp1058
Rp1059
(dp1060
g25
I00
sg31
I00
sg32
I00
sg42
I00
sbsbsg978
g0
(g693
g2
Ntp1061
Rp1062
(dp1063
g25
I00
sg31
I00
sg32
I00
sg17
(lp1064
g993
ag994
ag995
ag1030
ag1031
ag1032
ag137
ag1033
asg26
g982
sg993
g0
(g52
g2
Ntp1065
Rp1066
(dp1067
g25
I00
sg31
I00
sg32
I00
sg42
I1
sbsg994
g0
(g100
g2
Ntp1068
Rp1069
(dp1070
g25
I00
sg31
I00
sg32
I00
sg104
g52
sg106
Nsbsg995
g0
(g100
g2
Ntp1071
Rp1072
(dp1073
g25
I00
sg31
I00
sg32
I00
sg104
g52
sg106
Nsbsg1030
g0
(g73
g2
Ntp1074
Rp1075
(dp1076
g25
I00
sg31
I00
sg32
I00
sg42
I00
sbsg1031
g0
(g73
g2
Ntp1077
Rp1078
(dp1079
g25
I00
sg31
I00
sg32
I00
sg42
I00
sbsg1032
g0
(g52
g2
Ntp1080
Rp1081
(dp1082
g25
I00
sg31
I00
sg32
I00
sg42
I80
sbsg137
g0
(g121
g2
Ntp1083
Rp1084
(dp1085
g25
I00
sg31
I00
sg32
I00
sg42
VINFO
p1086
sbsg1033
g0
(g121
g2
Ntp1087
Rp1088
(dp1089
g25
I00
sg31
I00
sg32
I00
sg42
g1086
sbsbsg979
g0
(g693
g2
Ntp1090
Rp1091
(dp1092
g25
I00
sg31
I00
sg32
I00
sg17
(lp1093
g1030
ag1031
ag1032
ag137
ag1033
ag1036
ag1034
ag1035
ag1086
aVFwkReport
p1094
ag978
aVRoot_NoDictionary
p1095
aVFwkSummary
p1096
asg26
g982
sg1030
g0
(g100
g2
Ntp1097
Rp1098
(dp1099
g25
I00
sg31
I00
sg32
I00
sg104
g73
sg106
Nsbsg1031
g0
(g73
g2
Ntp1100
Rp1101
(dp1102
g25
I00
sg31
I00
sg32
I00
sg42
I00
sbsg1032
g0
(g100
g2
Ntp1103
Rp1104
(dp1105
g25
I00
sg31
I00
sg32
I00
sg104
g52
sg106
Nsbsg137
g0
(g121
g2
Ntp1106
Rp1107
(dp1108
g25
I00
sg31
I00
sg32
I00
sg42
g1086
sbsg1033
g0
(g121
g2
Ntp1109
Rp1110
(dp1111
g25
I00
sg31
I00
sg32
I00
sg42
VWARNING
p1112
sbsg1036
g0
(g73
g2
Ntp1113
Rp1114
(dp1115
g25
I00
sg31
I00
sg32
I00
sg42
I01
sbsg1034
g0
(g73
g2
Ntp1116
Rp1117
(dp1118
g25
I00
sg31
I00
sg32
I00
sg42
I00
sbsg1035
g0
(g73
g2
Ntp1119
Rp1120
(dp1121
g25
I00
sg31
I00
sg32
I00
sg42
I00
sbsg1086
g0
(g693
g2
Ntp1122
Rp1123
(dp1124
g25
I00
sg31
I00
sg32
I00
sg17
(lp1125
g994
asg26
Nsg994
g0
(g52
g2
Ntp1126
Rp1127
(dp1128
g25
I00
sg31
I00
sg32
I00
sg42
I0
sbsbsg1094
g0
(g693
g2
Ntp1129
Rp1130
(dp1131
g25
I00
sg31
I00
sg32
I01
sg17
(lp1132
g993
ag994
asg26
Nsg993
g0
(g52
g2
Ntp1133
Rp1134
(dp1135
g25
I00
sg31
I00
sg32
I01
sg42
I100
sbsg994
g0
(g52
g2
Ntp1136
Rp1137
(dp1138
g25
I00
sg31
I00
sg32
I00
sg42
I10000000
sbsbsg978
g0
(g693
g2
Ntp1139
Rp1140
(dp1141
g25
I00
sg31
I00
sg32
I00
sg17
(lp1142
g994
asg26
Nsg994
g0
(g52
g2
Ntp1143
Rp1144
(dp1145
g25
I00
sg31
I00
sg32
I00
sg42
I10000000
sbsbsg1095
g0
(g693
g2
Ntp1146
Rp1147
(dp1148
g25
I00
sg31
I00
sg32
I00
sg17
(lp1149
g994
asg26
Nsg994
g0
(g52
g2
Ntp1150
Rp1151
(dp1152
g25
I00
sg31
I00
sg32
I00
sg42
I0
sbsbsg1096
g0
(g693
g2
Ntp1153
Rp1154
(dp1155
g25
I00
sg31
I00
sg32
I00
sg17
(lp1156
g993
ag994
asg26
Nsg993
g0
(g52
g2
Ntp1157
Rp1158
(dp1159
g25
I00
sg31
I00
sg32
I00
sg42
I1
sbsg994
g0
(g52
g2
Ntp1160
Rp1161
(dp1162
g25
I00
sg31
I00
sg32
I00
sg42
I10000000
sbsbsbsg980
g0
(g693
g2
Ntp1163
Rp1164
(dp1165
g25
I00
sg31
I00
sg32
I00
sg17
(lp1166
sg26
g0
(g100
g2
Ntp1167
Rp1168
(dp1169
g25
I00
sg31
I00
sg32
I00
sg104
g0
(g984
g2
Ntp1170
Rp1171
(dp1172
g988
g0
(g693
g2
Ntp1173
Rp1174
(dp1175
g25
I00
sg31
I01
sg32
I00
sg17
(lp1176
g1030
ag1031
ag1032
ag137
ag1033
ag1034
ag1035
aVfilename
p1177
aVextension
p1178
aVoutput
p1179
asg26
g982
sg1030
g0
(g100
g2
Ntp1180
Rp1181
(dp1182
g25
I00
sg31
I00
sg32
I00
sg104
g73
sg106
Nsbsg1031
g0
(g100
g2
Ntp1183
Rp1184
(dp1185
g25
I00
sg31
I00
sg32
I00
sg104
g73
sg106
Nsbsg1032
g0
(g100
g2
Ntp1186
Rp1187
(dp1188
g25
I00
sg31
I00
sg32
I00
sg104
g52
sg106
Nsbsg137
g0
(g100
g2
Ntp1189
Rp1190
(dp1191
g25
I00
sg31
I00
sg32
I00
sg104
g121
sg106
Nsbsg1033
g0
(g100
g2
Ntp1192
Rp1193
(dp1194
g25
I00
sg31
I00
sg32
I00
sg104
g121
sg106
Nsbsg1034
g0
(g73
g2
Ntp1195
Rp1196
(dp1197
g25
I00
sg31
I00
sg32
I00
sg42
I00
sbsg1035
g0
(g73
g2
Ntp1198
Rp1199
(dp1200
g25
I00
sg31
I00
sg32
I00
sg42
I00
sbsg1177
g0
(g100
g2
Ntp1201
Rp1202
(dp1203
g25
I00
sg31
I00
sg32
I00
sg104
g121
sg106
Nsbsg1178
g0
(g100
g2
Ntp1204
Rp1205
(dp1206
g25
I00
sg31
I00
sg32
I00
sg104
g121
sg106
Nsbsg1179
g0
(g100
g2
Ntp1207
Rp1208
(dp1209
g25
I00
sg31
I00
sg32
I00
sg104
g121
sg106
Nsbsbsg1005
Nsbsg106
Nsbsbsg59
g660
sg61
I13
sV_inProcess
p1210
I00
sbsVDQMStore
p1211
g0
(g967
g2
Ntp1212
Rp1213
(dp1214
g15
g1211
sg17
(lp1215
Vverbose
p1216
aVsaveByLumi
p1217
aVMEsToSave
p1218
aVtrackME
p1219
aVassertLegacySafe
p1220
aVenableMultiThread
p1221
aVonlineMode
p1222
asg25
I00
sg26
Nsg1216
g0
(g52
g2
Ntp1223
Rp1224
(dp1225
g25
I00
sg31
I00
sg32
I00
sg42
I0
sbsg32
I00
sg1217
g0
(g73
g2
Ntp1226
Rp1227
(dp1228
g25
I00
sg31
I00
sg32
I00
sg42
I00
sbsg1218
g0
(g105
g47
(lp1229
VHcal/DigiTask/Occupancy/depth/depth1
p1230
aVHcal/DigiTask/Occupancy/depth/depth2
p1231
aVHcal/DigiTask/Occupancy/depth/depth3
p1232
aVHcal/DigiTask/Occupancy/depth/depth4
p1233
aVHcal/DigiTask/Occupancy/depth/depth5
p1234
aVHcal/DigiTask/Occupancy/depth/depth6
p1235
aVHcal/DigiTask/Occupancy/depth/depth7
p1236
aVHcal/DigiTask/Occupancy/depth/depthHO
p1237
aVHcal/DigiTask/OccupancyCut/depth/depth1
p1238
aVHcal/DigiTask/OccupancyCut/depth/depth2
p1239
aVHcal/DigiTask/OccupancyCut/depth/depth3
p1240
aVHcal/DigiTask/OccupancyCut/depth/depth4
p1241
aVHcal/DigiTask/OccupancyCut/depth/depth5
p1242
aVHcal/DigiTask/OccupancyCut/depth/depth6
p1243
aVHcal/DigiTask/OccupancyCut/depth/depth7
p1244
aVHcal/DigiTask/OccupancyCut/depth/depthHO
p1245
aVEcalBarrel/EBOccupancyTask/EBOT digi occupancy
p1246
aVEcalEndcap/EEOccupancyTask/EEOT digi occupancy EE -
p1247
aVEcalEndcap/EEOccupancyTask/EEOT digi occupancy EE +
p1248
aVEcalBarrel/EBOccupancyTask/EBOT DCC entries
p1249
aVEcalEndcap/EEOccupancyTask/EEOT DCC entries
p1250
aVEcal/EventInfo/processedEvents
p1251
aVPixelPhase1/Tracks/charge_PXBarrel
p1252
aVPixelPhase1/Tracks/charge_PXForward
p1253
aVPixelPhase1/Tracks/PXBarrel/charge_PXLayer_1
p1254
aVPixelPhase1/Tracks/PXBarrel/charge_PXLayer_2
p1255
aVPixelPhase1/Tracks/PXBarrel/charge_PXLayer_3
p1256
aVPixelPhase1/Tracks/PXBarrel/charge_PXLayer_4
p1257
aVPixelPhase1/Tracks/PXForward/charge_PXDisk_+1
p1258
aVPixelPhase1/Tracks/PXForward/charge_PXDisk_+2
p1259
aVPixelPhase1/Tracks/PXForward/charge_PXDisk_+3
p1260
aVPixelPhase1/Tracks/PXForward/charge_PXDisk_-1
p1261
aVPixelPhase1/Tracks/PXForward/charge_PXDisk_-2
p1262
aVPixelPhase1/Tracks/PXForward/charge_PXDisk_-3
p1263
aVPixelPhase1/Tracks/PXBarrel/size_PXLayer_1
p1264
aVPixelPhase1/Tracks/PXBarrel/size_PXLayer_2
p1265
aVPixelPhase1/Tracks/PXBarrel/size_PXLayer_3
p1266
aVPixelPhase1/Tracks/PXBarrel/size_PXLayer_4
p1267
aVPixelPhase1/Tracks/PXForward/size_PXDisk_+1
p1268
aVPixelPhase1/Tracks/PXForward/size_PXDisk_+2
p1269
aVPixelPhase1/Tracks/PXForward/size_PXDisk_+3
p1270
aVPixelPhase1/Tracks/PXForward/size_PXDisk_-1
p1271
aVPixelPhase1/Tracks/PXForward/size_PXDisk_-2
p1272
aVPixelPhase1/Tracks/PXForward/size_PXDisk_-3
p1273
aVHLT/Vertexing/hltPixelVertices/hltPixelVertices/goodvtxNbr
p1274
aVHLT/Tracking/ValidationWRTOffline/hltMergedWrtHighPurityPV/mon_eta
p1275
aVHLT/Tracking/ValidationWRTOffline/hltMergedWrtHighPurityPV/mon_hits
p1276
aVHLT/Tracking/ValidationWRTOffline/hltMergedWrtHighPurityPV/mon_phi
p1277
aVHLT/Tracking/ValidationWRTOffline/hltMergedWrtHighPurityPV/mon_pt
p1278
aVHLT/Tracking/ValidationWRTOffline/hltMergedWrtHighPurityPV/mon_unMatched_eta
p1279
aVHLT/Tracking/ValidationWRTOffline/hltMergedWrtHighPurityPV/mon_unMatched_hits
p1280
aVHLT/Tracking/ValidationWRTOffline/hltMergedWrtHighPurityPV/mon_unMatched_phi
p1281
aVHLT/Tracking/ValidationWRTOffline/hltMergedWrtHighPurityPV/mon_unMatched_pt
p1282
aVHLT/Tracking/ValidationWRTOffline/hltMergedWrtHighPurityPV/ref_eta
p1283
aVHLT/Tracking/ValidationWRTOffline/hltMergedWrtHighPurityPV/ref_hits
p1284
aVHLT/Tracking/ValidationWRTOffline/hltMergedWrtHighPurityPV/ref_matched_eta
p1285
aVHLT/Tracking/ValidationWRTOffline/hltMergedWrtHighPurityPV/ref_matched_hits
p1286
aVHLT/Tracking/ValidationWRTOffline/hltMergedWrtHighPurityPV/ref_matched_phi
p1287
aVHLT/Tracking/ValidationWRTOffline/hltMergedWrtHighPurityPV/ref_matched_pt
p1288
aVHLT/Tracking/ValidationWRTOffline/hltMergedWrtHighPurityPV/ref_phi
p1289
aVHLT/Tracking/ValidationWRTOffline/hltMergedWrtHighPurityPV/ref_pt
p1290
aVHLT/Tracking/pixelTracks/GeneralProperties/Chi2Prob_GenTk
p1291
aVHLT/Tracking/pixelTracks/GeneralProperties/Chi2oNDFVsEta_ImpactPoint_GenTk
p1292
aVHLT/Tracking/pixelTracks/GeneralProperties/DeltaZToPVZoom_GenTk
p1293
aVHLT/Tracking/pixelTracks/GeneralProperties/DistanceOfClosestApproachToPVVsPhi_GenTk
p1294
aVHLT/Tracking/pixelTracks/GeneralProperties/DistanceOfClosestApproachToPVZoom_GenTk
p1295
aVHLT/Tracking/pixelTracks/GeneralProperties/NumberOfTracks_GenTk
p1296
aVHLT/Tracking/tracks/GeneralProperties/Chi2Prob_GenTk
p1297
aVHLT/Tracking/tracks/GeneralProperties/Chi2oNDFVsEta_ImpactPoint_GenTk
p1298
aVHLT/Tracking/tracks/GeneralProperties/DeltaZToPVZoom_GenTk
p1299
aVHLT/Tracking/tracks/GeneralProperties/DistanceOfClosestApproachToPVVsPhi_GenTk
p1300
aVHLT/Tracking/tracks/GeneralProperties/DistanceOfClosestApproachToPVZoom_GenTk
p1301
aVHLT/Tracking/tracks/GeneralProperties/NumberOfTracks_GenTk
p1302
aVHLT/Tracking/tracks/LUMIanalysis/NumberEventsVsLUMI
p1303
aVHLT/Tracking/tracks/PUmonitoring/NumberEventsVsGoodPVtx
p1304
aVPixelPhase1/Tracks/num_clusters_ontrack_PXBarrel
p1305
aVPixelPhase1/Tracks/num_clusters_ontrack_PXForward
p1306
aVPixelPhase1/Tracks/clusterposition_zphi_ontrack
p1307
aVPixelPhase1/Tracks/PXBarrel/clusterposition_zphi_ontrack_PXLayer_1
p1308
aVPixelPhase1/Tracks/PXBarrel/clusterposition_zphi_ontrack_PXLayer_2
p1309
aVPixelPhase1/Tracks/PXBarrel/clusterposition_zphi_ontrack_PXLayer_3
p1310
aVPixelPhase1/Tracks/PXBarrel/clusterposition_zphi_ontrack_PXLayer_4
p1311
aVPixelPhase1/Tracks/PXForward/clusterposition_xy_ontrack_PXDisk_+1
p1312
aVPixelPhase1/Tracks/PXForward/clusterposition_xy_ontrack_PXDisk_+2
p1313
aVPixelPhase1/Tracks/PXForward/clusterposition_xy_ontrack_PXDisk_+3
p1314
aVPixelPhase1/Tracks/PXForward/clusterposition_xy_ontrack_PXDisk_-1
p1315
aVPixelPhase1/Tracks/PXForward/clusterposition_xy_ontrack_PXDisk_-2
p1316
aVPixelPhase1/Tracks/PXForward/clusterposition_xy_ontrack_PXDisk_-3
p1317
aVSiStrip/MechanicalView/TEC/PLUS/wheel_1/NormalizedHitResiduals_TEC__wheel__1
p1318
aVSiStrip/MechanicalView/TEC/PLUS/wheel_2/NormalizedHitResiduals_TEC__wheel__2
p1319
aVSiStrip/MechanicalView/TEC/PLUS/wheel_3/NormalizedHitResiduals_TEC__wheel__3
p1320
aVSiStrip/MechanicalView/TEC/PLUS/wheel_4/NormalizedHitResiduals_TEC__wheel__4
p1321
aVSiStrip/MechanicalView/TEC/PLUS/wheel_5/NormalizedHitResiduals_TEC__wheel__5
p1322
aVSiStrip/MechanicalView/TEC/PLUS/wheel_6/NormalizedHitResiduals_TEC__wheel__6
p1323
aVSiStrip/MechanicalView/TEC/PLUS/wheel_7/NormalizedHitResiduals_TEC__wheel__7
p1324
aVSiStrip/MechanicalView/TEC/PLUS/wheel_8/NormalizedHitResiduals_TEC__wheel__8
p1325
aVSiStrip/MechanicalView/TEC/PLUS/wheel_9/NormalizedHitResiduals_TEC__wheel__9
p1326
aVSiStrip/MechanicalView/TEC/MINUS/wheel_1/NormalizedHitResiduals_TEC__wheel__1
p1327
aVSiStrip/MechanicalView/TEC/MINUS/wheel_2/NormalizedHitResiduals_TEC__wheel__2
p1328
aVSiStrip/MechanicalView/TEC/MINUS/wheel_3/NormalizedHitResiduals_TEC__wheel__3
p1329
aVSiStrip/MechanicalView/TEC/MINUS/wheel_4/NormalizedHitResiduals_TEC__wheel__4
p1330
aVSiStrip/MechanicalView/TEC/MINUS/wheel_5/NormalizedHitResiduals_TEC__wheel__5
p1331
aVSiStrip/MechanicalView/TEC/MINUS/wheel_6/NormalizedHitResiduals_TEC__wheel__6
p1332
aVSiStrip/MechanicalView/TEC/MINUS/wheel_7/NormalizedHitResiduals_TEC__wheel__7
p1333
aVSiStrip/MechanicalView/TEC/MINUS/wheel_8/NormalizedHitResiduals_TEC__wheel__8
p1334
aVSiStrip/MechanicalView/TEC/MINUS/wheel_9/NormalizedHitResiduals_TEC__wheel__9
p1335
aVSiStrip/MechanicalView/TEC/PLUS/wheel_1/Summary_ClusterStoNCorr__OnTrack__TEC__PLUS__wheel__1
p1336
aVSiStrip/MechanicalView/TEC/PLUS/wheel_2/Summary_ClusterStoNCorr__OnTrack__TEC__PLUS__wheel__2
p1337
aVSiStrip/MechanicalView/TEC/PLUS/wheel_3/Summary_ClusterStoNCorr__OnTrack__TEC__PLUS__wheel__3
p1338
aVSiStrip/MechanicalView/TEC/PLUS/wheel_4/Summary_ClusterStoNCorr__OnTrack__TEC__PLUS__wheel__4
p1339
aVSiStrip/MechanicalView/TEC/PLUS/wheel_5/Summary_ClusterStoNCorr__OnTrack__TEC__PLUS__wheel__5
p1340
aVSiStrip/MechanicalView/TEC/PLUS/wheel_6/Summary_ClusterStoNCorr__OnTrack__TEC__PLUS__wheel__6
p1341
aVSiStrip/MechanicalView/TEC/PLUS/wheel_7/Summary_ClusterStoNCorr__OnTrack__TEC__PLUS__wheel__7
p1342
aVSiStrip/MechanicalView/TEC/PLUS/wheel_8/Summary_ClusterStoNCorr__OnTrack__TEC__PLUS__wheel__8
p1343
aVSiStrip/MechanicalView/TEC/PLUS/wheel_9/Summary_ClusterStoNCorr__OnTrack__TEC__PLUS__wheel__9
p1344
aVSiStrip/MechanicalView/TEC/MINUS/wheel_1/Summary_ClusterStoNCorr__OnTrack__TEC__MINUS__wheel__1
p1345
aVSiStrip/MechanicalView/TEC/MINUS/wheel_2/Summary_ClusterStoNCorr__OnTrack__TEC__MINUS__wheel__2
p1346
aVSiStrip/MechanicalView/TEC/MINUS/wheel_3/Summary_ClusterStoNCorr__OnTrack__TEC__MINUS__wheel__3
p1347
aVSiStrip/MechanicalView/TEC/MINUS/wheel_4/Summary_ClusterStoNCorr__OnTrack__TEC__MINUS__wheel__4
p1348
aVSiStrip/MechanicalView/TEC/MINUS/wheel_5/Summary_ClusterStoNCorr__OnTrack__TEC__MINUS__wheel__5
p1349
aVSiStrip/MechanicalView/TEC/MINUS/wheel_6/Summary_ClusterStoNCorr__OnTrack__TEC__MINUS__wheel__6
p1350
aVSiStrip/MechanicalView/TEC/MINUS/wheel_7/Summary_ClusterStoNCorr__OnTrack__TEC__MINUS__wheel__7
p1351
aVSiStrip/MechanicalView/TEC/MINUS/wheel_8/Summary_ClusterStoNCorr__OnTrack__TEC__MINUS__wheel__8
p1352
aVSiStrip/MechanicalView/TEC/MINUS/wheel_9/Summary_ClusterStoNCorr__OnTrack__TEC__MINUS__wheel__9
p1353
aVSiStrip/MechanicalView/TIB/layer_1/NormalizedHitResiduals_TIB__Layer__1
p1354
aVSiStrip/MechanicalView/TIB/layer_2/NormalizedHitResiduals_TIB__Layer__2
p1355
aVSiStrip/MechanicalView/TIB/layer_3/NormalizedHitResiduals_TIB__Layer__3
p1356
aVSiStrip/MechanicalView/TIB/layer_4/NormalizedHitResiduals_TIB__Layer__4
p1357
aVSiStrip/MechanicalView/TIB/layer_1/Summary_ClusterStoNCorr__OnTrack__TIB__layer__1
p1358
aVSiStrip/MechanicalView/TIB/layer_2/Summary_ClusterStoNCorr__OnTrack__TIB__layer__2
p1359
aVSiStrip/MechanicalView/TIB/layer_3/Summary_ClusterStoNCorr__OnTrack__TIB__layer__3
p1360
aVSiStrip/MechanicalView/TIB/layer_4/Summary_ClusterStoNCorr__OnTrack__TIB__layer__4
p1361
aVSiStrip/MechanicalView/TID/PLUS/wheel_1/NormalizedHitResiduals_TID__wheel__1
p1362
aVSiStrip/MechanicalView/TID/PLUS/wheel_2/NormalizedHitResiduals_TID__wheel__2
p1363
aVSiStrip/MechanicalView/TID/PLUS/wheel_3/NormalizedHitResiduals_TID__wheel__3
p1364
aVSiStrip/MechanicalView/TID/MINUS/wheel_1/NormalizedHitResiduals_TID__wheel__1
p1365
aVSiStrip/MechanicalView/TID/MINUS/wheel_2/NormalizedHitResiduals_TID__wheel__2
p1366
aVSiStrip/MechanicalView/TID/MINUS/wheel_3/NormalizedHitResiduals_TID__wheel__3
p1367
aVSiStrip/MechanicalView/TID/PLUS/wheel_1/Summary_ClusterStoNCorr__OnTrack__TID__PLUS__wheel__1
p1368
aVSiStrip/MechanicalView/TID/PLUS/wheel_2/Summary_ClusterStoNCorr__OnTrack__TID__PLUS__wheel__2
p1369
aVSiStrip/MechanicalView/TID/PLUS/wheel_3/Summary_ClusterStoNCorr__OnTrack__TID__PLUS__wheel__3
p1370
aVSiStrip/MechanicalView/TID/MINUS/wheel_1/Summary_ClusterStoNCorr__OnTrack__TID__MINUS__wheel__1
p1371
aVSiStrip/MechanicalView/TID/MINUS/wheel_2/Summary_ClusterStoNCorr__OnTrack__TID__MINUS__wheel__2
p1372
aVSiStrip/MechanicalView/TID/MINUS/wheel_3/Summary_ClusterStoNCorr__OnTrack__TID__MINUS__wheel__3
p1373
aVSiStrip/MechanicalView/TOB/layer_1/NormalizedHitResiduals_TOB__Layer__1
p1374
aVSiStrip/MechanicalView/TOB/layer_2/NormalizedHitResiduals_TOB__Layer__2
p1375
aVSiStrip/MechanicalView/TOB/layer_3/NormalizedHitResiduals_TOB__Layer__3
p1376
aVSiStrip/MechanicalView/TOB/layer_4/NormalizedHitResiduals_TOB__Layer__4
p1377
aVSiStrip/MechanicalView/TOB/layer_5/NormalizedHitResiduals_TOB__Layer__5
p1378
aVSiStrip/MechanicalView/TOB/layer_6/NormalizedHitResiduals_TOB__Layer__6
p1379
aVSiStrip/MechanicalView/TOB/layer_1/Summary_ClusterStoNCorr__OnTrack__TOB__layer__1
p1380
aVSiStrip/MechanicalView/TOB/layer_2/Summary_ClusterStoNCorr__OnTrack__TOB__layer__2
p1381
aVSiStrip/MechanicalView/TOB/layer_3/Summary_ClusterStoNCorr__OnTrack__TOB__layer__3
p1382
aVSiStrip/MechanicalView/TOB/layer_4/Summary_ClusterStoNCorr__OnTrack__TOB__layer__4
p1383
aVSiStrip/MechanicalView/TOB/layer_5/Summary_ClusterStoNCorr__OnTrack__TOB__layer__5
p1384
aVSiStrip/MechanicalView/TOB/layer_6/Summary_ClusterStoNCorr__OnTrack__TOB__layer__6
p1385
aVSiStrip/MechanicalView/MainDiagonal Position
p1386
aVSiStrip/MechanicalView/NumberOfClustersInPixel
p1387
aVSiStrip/MechanicalView/NumberOfClustersInStrip
p1388
aVTracking/TrackParameters/generalTracks/LSanalysis/Chi2oNDF_lumiFlag_GenTk
p1389
aVTracking/TrackParameters/generalTracks/LSanalysis/NumberOfRecHitsPerTrack_lumiFlag_GenTk
p1390
aVTracking/TrackParameters/generalTracks/LSanalysis/NumberOfTracks_lumiFlag_GenTk
p1391
aVTracking/TrackParameters/highPurityTracks/pt_1/GeneralProperties/SIPDxyToPV_GenTk
p1392
aVTracking/TrackParameters/highPurityTracks/pt_1/GeneralProperties/SIPDzToPV_GenTk
p1393
aVTracking/TrackParameters/highPurityTracks/pt_1/GeneralProperties/SIP3DToPV_GenTk
p1394
aVTracking/TrackParameters/generalTracks/HitProperties/NumberOfMissingOuterRecHitsPerTrack_GenTk
p1395
aVTracking/TrackParameters/generalTracks/HitProperties/NumberMORecHitsPerTrackVsPt_GenTk
p1396
aVOfflinePV/offlinePrimaryVertices/tagVtxProb
p1397
aVOfflinePV/offlinePrimaryVertices/tagType
p1398
aVOfflinePV/Resolution/PV/pull_x
p1399
aVOfflinePV/Resolution/PV/pull_y
p1400
aVOfflinePV/Resolution/PV/pull_z
p1401
aVJetMET/Jet/Cleanedak4PFJetsCHS/CHFrac_highPt_Barrel
p1402
aVJetMET/Jet/Cleanedak4PFJetsCHS/CHFrac_highPt_EndCap
p1403
aVJetMET/Jet/Cleanedak4PFJetsCHS/CHFrac_mediumPt_Barrel
p1404
aVJetMET/Jet/Cleanedak4PFJetsCHS/CHFrac_mediumPt_EndCap
p1405
aVJetMET/Jet/Cleanedak4PFJetsCHS/CHFrac_lowPt_Barrel
p1406
aVJetMET/Jet/Cleanedak4PFJetsCHS/CHFrac_lowPt_EndCap
p1407
aVJetMET/Jet/Cleanedak4PFJetsCHS/ChMultiplicity_highPt_Barrel
p1408
aVJetMET/Jet/Cleanedak4PFJetsCHS/ChMultiplicity_highPt_EndCap
p1409
aVJetMET/Jet/Cleanedak4PFJetsCHS/ChMultiplicity_mediumPt_Barrel
p1410
aVJetMET/Jet/Cleanedak4PFJetsCHS/ChMultiplicity_mediumPt_EndCap
p1411
aVJetMET/Jet/Cleanedak4PFJetsCHS/ChMultiplicity_lowPt_Barrel
p1412
aVJetMET/Jet/Cleanedak4PFJetsCHS/ChMultiplicity_lowPt_EndCap
p1413
aVJetMET/Jet/Cleanedak4PFJetsCHS/Constituents
p1414
aVJetMET/Jet/Cleanedak4PFJetsCHS/Eta
p1415
aVJetMET/Jet/Cleanedak4PFJetsCHS/Eta_uncor
p1416
aVJetMET/Jet/Cleanedak4PFJetsCHS/JetEnergyCorr
p1417
aVJetMET/Jet/Cleanedak4PFJetsCHS/NJets
p1418
aVJetMET/Jet/Cleanedak4PFJetsCHS/Phi
p1419
aVJetMET/Jet/Cleanedak4PFJetsCHS/Phi_Barrel
p1420
aVJetMET/Jet/Cleanedak4PFJetsCHS/Phi_EndCap
p1421
aVJetMET/Jet/Cleanedak4PFJetsCHS/Pt
p1422
aVJetMET/MET/pfMETT1/Cleaned/METSig
p1423
aVJetMET/vertices
p1424
aVJetMET/HIJetValidation/akCs4PFJets/SumPFPt
p1425
aVJetMET/HIJetValidation/akPu4CaloJets/SumPFPt
p1426
atp1427
Rp1428
(dp1429
g25
I00
sg31
I00
sg32
I00
sg451
I1
sbsg1219
g0
(g121
g2
Ntp1430
Rp1431
(dp1432
g25
I00
sg31
I00
sg32
I00
sg42
g36
sbsg1220
g0
(g73
g2
Ntp1433
Rp1434
(dp1435
g25
I00
sg31
I00
sg32
I00
sg42
I00
sbsg1221
g0
(g73
g2
Ntp1436
Rp1437
(dp1438
g25
I00
sg31
I00
sg32
I00
sg42
I01
sbsg1222
g0
(g73
g2
Ntp1439
Rp1440
(dp1441
g25
I00
sg31
I00
sg32
I00
sg42
I00
sbsg59
g660
sg61
I13
sg1210
I01
sbsVRandomNumberGeneratorService
p1442
g0
(g967
g2
Ntp1443
Rp1444
(dp1445
g15
g1442
sg17
(lp1446
VexternalLHEProducer
p1447
aVgenerator
p1448
aVVtxSmeared
p1449
aVLHCTransport
p1450
aVhiSignalLHCTransport
p1451
aVg4SimHits
p1452
aVmix
p1453
aVmixData
p1454
aVsimSiStripDigiSimLink
p1455
aVsimMuonDTDigis
p1456
aVsimMuonCSCDigis
p1457
aVsimMuonRPCDigis
p1458
aVhiSignal
p1459
aVhiSignalG4SimHits
p1460
aVfamosPileUp
p1461
aVmixGenPU
p1462
aVmixSimCaloHits
p1463
aVmixRecoTracks
p1464
aVfastSimProducer
p1465
aVfastTrackerRecHits
p1466
aVecalRecHit
p1467
aVecalPreshowerRecHit
p1468
aVhbhereco
p1469
aVhoreco
p1470
aVhfreco
p1471
aVparamMuons
p1472
aVl1ParamMuons
p1473
aVMuonSimHits
p1474
aVCTPPSFastRecHits
p1475
aVsimBeamSpotFilter
p1476
aVRPixDetDigitizer
p1477
aVRPSiDetDigitizer
p1478
aVsaveFileName
p1479
asg25
I00
sg26
Nsg1447
g0
(g693
g2
Ntp1480
Rp1481
(dp1482
g25
I00
sg31
I01
sg32
I00
sg17
(lp1483
VinitialSeed
p1484
aVengineName
p1485
asg26
Nsg1484
g0
(g581
g2
Ntp1486
Rp1487
(dp1488
g25
I00
sg31
I00
sg32
I00
sg42
I234567
sbsg1485
g0
(g121
g2
Ntp1489
Rp1490
(dp1491
g25
I00
sg31
I00
sg32
I00
sg42
VMixMaxRng
p1492
sbsbsg32
I00
sg1448
g0
(g693
g2
Ntp1493
Rp1494
(dp1495
g25
I00
sg31
I01
sg32
I00
sg17
(lp1496
g1484
ag1485
asg26
Nsg1484
g0
(g581
g2
Ntp1497
Rp1498
(dp1499
g25
I00
sg31
I00
sg32
I00
sg42
I123456789
sbsg1485
g1490
sbsg1449
g0
(g693
g2
Ntp1500
Rp1501
(dp1502
g25
I00
sg31
I01
sg32
I00
sg17
(lp1503
g1484
ag1485
asg26
Nsg1484
g0
(g581
g2
Ntp1504
Rp1505
(dp1506
g25
I00
sg31
I00
sg32
I00
sg42
I98765432
sbsg1485
g1490
sbsg1450
g0
(g693
g2
Ntp1507
Rp1508
(dp1509
g25
I00
sg31
I01
sg32
I00
sg17
(lp1510
g1484
ag1485
asg26
Nsg1484
g0
(g581
g2
Ntp1511
Rp1512
(dp1513
g25
I00
sg31
I00
sg32
I00
sg42
I87654321
sbsg1485
g0
(g121
g2
Ntp1514
Rp1515
(dp1516
g25
I00
sg31
I00
sg32
I00
sg42
VTRandom3
p1517
sbsbsg1451
g0
(g693
g2
Ntp1518
Rp1519
(dp1520
g25
I00
sg31
I01
sg32
I00
sg17
(lp1521
g1484
ag1485
asg26
Nsg1484
g0
(g581
g2
Ntp1522
Rp1523
(dp1524
g25
I00
sg31
I00
sg32
I00
sg42
I88776655
sbsg1485
g0
(g121
g2
Ntp1525
Rp1526
(dp1527
g25
I00
sg31
I00
sg32
I00
sg42
g1492
sbsbsg1452
g0
(g693
g2
Ntp1528
Rp1529
(dp1530
g25
I00
sg31
I01
sg32
I00
sg17
(lp1531
g1484
ag1485
asg26
Nsg1484
g0
(g581
g2
Ntp1532
Rp1533
(dp1534
g25
I00
sg31
I00
sg32
I00
sg42
I11
sbsg1485
g1490
sbsg1453
g0
(g693
g2
Ntp1535
Rp1536
(dp1537
g25
I00
sg31
I01
sg32
I00
sg17
(lp1538
g1484
ag1485
asg26
Nsg1484
g0
(g581
g2
Ntp1539
Rp1540
(dp1541
g25
I00
sg31
I00
sg32
I00
sg42
I12345
sbsg1485
g1490
sbsg1454
g0
(g693
g2
Ntp1542
Rp1543
(dp1544
g25
I00
sg31
I01
sg32
I00
sg17
(lp1545
g1484
ag1485
asg26
Nsg1484
g0
(g581
g2
Ntp1546
Rp1547
(dp1548
g25
I00
sg31
I00
sg32
I00
sg42
I12345
sbsg1485
g1490
sbsg1455
g0
(g693
g2
Ntp1549
Rp1550
(dp1551
g25
I00
sg31
I01
sg32
I00
sg17
(lp1552
g1484
ag1485
asg26
Nsg1484
g0
(g581
g2
Ntp1553
Rp1554
(dp1555
g25
I00
sg31
I00
sg32
I00
sg42
I1234567
sbsg1485
g1490
sbsg1456
g0
(g693
g2
Ntp1556
Rp1557
(dp1558
g25
I00
sg31
I01
sg32
I00
sg17
(lp1559
g1484
ag1485
asg26
Nsg1484
g0
(g581
g2
Ntp1560
Rp1561
(dp1562
g25
I00
sg31
I00
sg32
I00
sg42
I1234567
sbsg1485
g1490
sbsg1457
g0
(g693
g2
Ntp1563
Rp1564
(dp1565
g25
I00
sg31
I01
sg32
I00
sg17
(lp1566
g1484
ag1485
asg26
Nsg1484
g0
(g581
g2
Ntp1567
Rp1568
(dp1569
g25
I00
sg31
I00
sg32
I00
sg42
I11223344
sbsg1485
g1490
sbsg1458
g0
(g693
g2
Ntp1570
Rp1571
(dp1572
g25
I00
sg31
I01
sg32
I00
sg17
(lp1573
g1484
ag1485
asg26
Nsg1484
g0
(g581
g2
Ntp1574
Rp1575
(dp1576
g25
I00
sg31
I00
sg32
I00
sg42
I1234567
sbsg1485
g1490
sbsg1459
g0
(g693
g2
Ntp1577
Rp1578
(dp1579
g25
I00
sg31
I01
sg32
I00
sg17
(lp1580
g1484
ag1485
asg26
Nsg1484
g0
(g581
g2
Ntp1581
Rp1582
(dp1583
g25
I00
sg31
I00
sg32
I00
sg42
I123456789
sbsg1485
g1490
sbsg1460
g0
(g693
g2
Ntp1584
Rp1585
(dp1586
g25
I00
sg31
I01
sg32
I00
sg17
(lp1587
g1484
ag1485
asg26
Nsg1484
g0
(g581
g2
Ntp1588
Rp1589
(dp1590
g25
I00
sg31
I00
sg32
I00
sg42
I11
sbsg1485
g1490
sbsg1461
g0
(g693
g2
Ntp1591
Rp1592
(dp1593
g25
I00
sg31
I01
sg32
I00
sg17
(lp1594
g1484
ag1485
asg26
Nsg1484
g0
(g581
g2
Ntp1595
Rp1596
(dp1597
g25
I00
sg31
I00
sg32
I00
sg42
I918273
sbsg1485
g1526
sbsg1462
g0
(g693
g2
Ntp1598
Rp1599
(dp1600
g25
I00
sg31
I01
sg32
I00
sg17
(lp1601
g1484
ag1485
asg26
Nsg1484
g0
(g581
g2
Ntp1602
Rp1603
(dp1604
g25
I00
sg31
I00
sg32
I00
sg42
I918273
sbsg1485
g1526
sbsg1463
g0
(g693
g2
Ntp1605
Rp1606
(dp1607
g25
I00
sg31
I01
sg32
I00
sg17
(lp1608
g1484
ag1485
asg26
Nsg1484
g0
(g581
g2
Ntp1609
Rp1610
(dp1611
g25
I00
sg31
I00
sg32
I00
sg42
I918273
sbsg1485
g1526
sbsg1464
g0
(g693
g2
Ntp1612
Rp1613
(dp1614
g25
I00
sg31
I01
sg32
I00
sg17
(lp1615
g1484
ag1485
asg26
Nsg1484
g0
(g581
g2
Ntp1616
Rp1617
(dp1618
g25
I00
sg31
I00
sg32
I00
sg42
I918273
sbsg1485
g1526
sbsg1465
g0
(g693
g2
Ntp1619
Rp1620
(dp1621
g25
I00
sg31
I01
sg32
I00
sg17
(lp1622
g1484
ag1485
asg26
Nsg1484
g0
(g581
g2
Ntp1623
Rp1624
(dp1625
g25
I00
sg31
I00
sg32
I00
sg42
I13579
sbsg1485
g1526
sbsg1466
g0
(g693
g2
Ntp1626
Rp1627
(dp1628
g25
I00
sg31
I01
sg32
I00
sg17
(lp1629
g1484
ag1485
asg26
Nsg1484
g0
(g581
g2
Ntp1630
Rp1631
(dp1632
g25
I00
sg31
I00
sg32
I00
sg42
I24680
sbsg1485
g1526
sbsg1467
g0
(g693
g2
Ntp1633
Rp1634
(dp1635
g25
I00
sg31
I01
sg32
I00
sg17
(lp1636
g1484
ag1485
asg26
Nsg1484
g0
(g581
g2
Ntp1637
Rp1638
(dp1639
g25
I00
sg31
I00
sg32
I00
sg42
I654321
sbsg1485
g1526
sbsg1468
g0
(g693
g2
Ntp1640
Rp1641
(dp1642
g25
I00
sg31
I01
sg32
I00
sg17
(lp1643
g1484
ag1485
asg26
Nsg1484
g0
(g581
g2
Ntp1644
Rp1645
(dp1646
g25
I00
sg31
I00
sg32
I00
sg42
I6541321
sbsg1485
g1526
sbsg1469
g0
(g693
g2
Ntp1647
Rp1648
(dp1649
g25
I00
sg31
I01
sg32
I00
sg17
(lp1650
g1484
ag1485
asg26
Nsg1484
g0
(g581
g2
Ntp1651
Rp1652
(dp1653
g25
I00
sg31
I00
sg32
I00
sg42
I541321
sbsg1485
g1526
sbsg1470
g0
(g693
g2
Ntp1654
Rp1655
(dp1656
g25
I00
sg31
I01
sg32
I00
sg17
(lp1657
g1484
ag1485
asg26
Nsg1484
g0
(g581
g2
Ntp1658
Rp1659
(dp1660
g25
I00
sg31
I00
sg32
I00
sg42
I541321
sbsg1485
g1526
sbsg1471
g0
(g693
g2
Ntp1661
Rp1662
(dp1663
g25
I00
sg31
I01
sg32
I00
sg17
(lp1664
g1484
ag1485
asg26
Nsg1484
g0
(g581
g2
Ntp1665
Rp1666
(dp1667
g25
I00
sg31
I00
sg32
I00
sg42
I541321
sbsg1485
g1526
sbsg1472
g0
(g693
g2
Ntp1668
Rp1669
(dp1670
g25
I00
sg31
I01
sg32
I00
sg17
(lp1671
g1484
ag1485
asg26
Nsg1484
g0
(g581
g2
Ntp1672
Rp1673
(dp1674
g25
I00
sg31
I00
sg32
I00
sg42
I54525
sbsg1485
g1526
sbsg1473
g0
(g693
g2
Ntp1675
Rp1676
(dp1677
g25
I00
sg31
I01
sg32
I00
sg17
(lp1678
g1484
ag1485
asg26
Nsg1484
g0
(g581
g2
Ntp1679
Rp1680
(dp1681
g25
I00
sg31
I00
sg32
I00
sg42
I6453209
sbsg1485
g1526
sbsg1474
g0
(g693
g2
Ntp1682
Rp1683
(dp1684
g25
I00
sg31
I01
sg32
I00
sg17
(lp1685
g1484
ag1485
asg26
Nsg1484
g0
(g581
g2
Ntp1686
Rp1687
(dp1688
g25
I00
sg31
I00
sg32
I00
sg42
I987346
sbsg1485
g1526
sbsg1475
g0
(g693
g2
Ntp1689
Rp1690
(dp1691
g25
I00
sg31
I01
sg32
I00
sg17
(lp1692
g1484
ag1485
asg26
Nsg1484
g0
(g581
g2
Ntp1693
Rp1694
(dp1695
g25
I00
sg31
I00
sg32
I00
sg42
I1357987
sbsg1485
g1526
sbsg1476
g0
(g693
g2
Ntp1696
Rp1697
(dp1698
g25
I00
sg31
I01
sg32
I00
sg17
(lp1699
g1484
ag1485
asg26
Nsg1484
g0
(g581
g2
Ntp1700
Rp1701
(dp1702
g25
I00
sg31
I00
sg32
I00
sg42
I87654321
sbsg1485
g1490
sbsg1477
g0
(g693
g2
Ntp1703
Rp1704
(dp1705
g25
I00
sg31
I01
sg32
I00
sg17
(lp1706
g1484
ag1485
asg26
Nsg1484
g0
(g581
g2
Ntp1707
Rp1708
(dp1709
g25
I00
sg31
I00
sg32
I00
sg42
I137137
sbsg1485
g1490
sbsg1478
g0
(g693
g2
Ntp1710
Rp1711
(dp1712
g25
I00
sg31
I01
sg32
I00
sg17
(lp1713
g1484
ag1485
asg26
Nsg1484
g0
(g581
g2
Ntp1714
Rp1715
(dp1716
g25
I00
sg31
I00
sg32
I00
sg42
I137137
sbsg1485
g1490
sbsg1479
g0
(g121
g2
Ntp1717
Rp1718
(dp1719
g25
I00
sg31
I00
sg32
I00
sg42
g36
sbsg59
g660
sg61
I13
sg1210
I01
sbsVTFileService
p1720
g0
(g967
g2
Ntp1721
Rp1722
(dp1723
g15
g1720
sg17
(lp1724
VfileName
p1725
asg25
I00
sg26
Nsg1725
g0
(g121
g2
Ntp1726
Rp1727
(dp1728
g25
I00
sg31
I01
sg32
I00
sg42
VEff_test_noChi2_nhits0_pTResoCutgt10GeV_RECODEBUG_QCDSample.root
p1729
sbsg32
I00
sg59
g660
sg61
I13
sg1210
I01
sbssV_Process__essources
p1730
(dp1731
Veegeom
p1732
g0
(cFWCore.ParameterSet.Modules
ESSource
p1733
g2
Ntp1734
Rp1735
(dp1736
g15
VEmptyESSource
p1737
sg17
(lp1738
VrecordName
p1739
aViovIsRunNotTime
p1740
aVfirstValid
p1741
asg25
I00
sg26
Nsg1739
g0
(g121
g2
Ntp1742
Rp1743
(dp1744
g25
I00
sg31
I01
sg32
I00
sg42
VEcalMappingRcd
p1745
sbsg32
I00
sg1740
g0
(g73
g2
Ntp1746
Rp1747
(dp1748
g25
I00
sg31
I01
sg32
I00
sg42
I01
sbsg1741
g0
(cFWCore.ParameterSet.Types
vuint32
p1749
g47
(lp1750
I1
atp1751
Rp1752
(dp1753
g25
I00
sg31
I01
sg32
I00
sbsg59
V/cvmfs/cms.cern.ch/el8_amd64_gcc11/cms/cmssw/CMSSW_13_2_10/src/Geometry/EcalMapping/python/EcalMappingRecord_cfi.py
p1754
sg61
I3
sg62
g1732
sbsVHepPDTESSource
p1755
g0
(g1733
g2
Ntp1756
Rp1757
(dp1758
g15
g1755
sg17
(lp1759
VpdtFileName
p1760
asg25
I00
sg26
Nsg1760
g0
(cFWCore.ParameterSet.Types
FileInPath
p1761
g2
Ntp1762
Rp1763
(dp1764
g25
I00
sg31
I01
sg32
I00
sg42
VSimGeneral/HepPDTESSource/data/pythiaparticle.tbl
p1765
sbsg32
I00
sg59
V/cvmfs/cms.cern.ch/el8_amd64_gcc11/cms/cmssw/CMSSW_13_2_10/src/SimGeneral/HepPDTESSource/python/pythiapdt_cfi.py
p1766
sg61
I3
sg62
g1755
sbsVGlobalTag
p1767
g0
(g1733
g2
Ntp1768
Rp1769
(dp1770
g15
VPoolDBESSource
p1771
sg17
(lp1772
VDBParameters
p1773
aVconnect
p1774
aVglobaltag
p1775
aVsnapshotTime
p1776
aVtoGet
p1777
aVDumpStat
p1778
aVReconnectEachRun
p1779
aVRefreshAlways
p1780
aVRefreshEachRun
p1781
aVRefreshOpenIOVs
p1782
aVpfnPostfix
p1783
aVpfnPrefix
p1784
asg25
I00
sg26
Nsg1773
g0
(g693
g2
Ntp1785
Rp1786
(dp1787
g25
I00
sg31
I01
sg32
I00
sg17
(lp1788
VauthenticationPath
p1789
aVauthenticationSystem
p1790
aVsecurity
p1791
aVmessageLevel
p1792
aVconnectionTimeout
p1793
asg26
Nsg1789
g0
(g121
g2
Ntp1794
Rp1795
(dp1796
g25
I00
sg31
I00
sg32
I00
sg42
g36
sbsg1790
g0
(g52
g2
Ntp1797
Rp1798
(dp1799
g25
I00
sg31
I00
sg32
I00
sg42
I0
sbsg1791
g0
(g121
g2
Ntp1800
Rp1801
(dp1802
g25
I00
sg31
I00
sg32
I00
sg42
g36
sbsg1792
g0
(g52
g2
Ntp1803
Rp1804
(dp1805
g25
I00
sg31
I00
sg32
I00
sg42
I0
sbsg1793
g0
(g52
g2
Ntp1806
Rp1807
(dp1808
g25
I00
sg31
I00
sg32
I00
sg42
I0
sbsbsg32
I01
sg1774
g0
(g121
g2
Ntp1809
Rp1810
(dp1811
g25
I00
sg31
I01
sg32
I00
sg42
Vfrontier://FrontierProd/CMS_CONDITIONS
p1812
sbsg1775
g0
(g121
g2
Ntp1813
Rp1814
(dp1815
g25
I00
sg31
I01
sg32
I00
sg42
V132X_mcRun3_2023_realistic_HI_v5
p1816
sbsg1776
g0
(g121
g2
Ntp1817
Rp1818
(dp1819
g25
I00
sg31
I01
sg32
I00
sg42
V9999-12-31 23:59:59.000
p1820
sbsg1777
g0
(g691
g47
(lp1821
g0
(g693
g2
Ntp1822
Rp1823
(dp1824
g25
I00
sg31
I01
sg32
I00
sg17
(lp1825
Vrecord
p1826
aVtag
p1827
ag1774
aVlabel
p1828
asg26
Nsg1826
g0
(g121
g2
Ntp1829
Rp1830
(dp1831
g25
I00
sg31
I01
sg32
I00
sg42
VHeavyIonRcd
p1832
sbsg1827
g0
(g121
g2
Ntp1833
Rp1834
(dp1835
g25
I00
sg31
I01
sg32
I00
sg42
VCentralityTable_HFtowers200_DataPbPb_periHYDJETshape_run3v1302x04_offline_Nominal
p1836
sbsg1774
g0
(g121
g2
Ntp1837
Rp1838
(dp1839
g25
I00
sg31
I01
sg32
I00
sg42
Vsqlite_file:CentralityTable_HFtowers200_DataPbPb_periHYDJETshape_run3v1302x04_offline_Nominal.db
p1840
sbsg1828
g0
(g121
g2
Ntp1841
Rp1842
(dp1843
g25
I00
sg31
I00
sg32
I00
sg42
g522
sbsbatp1844
Rp1845
(dp1846
g25
I00
sg31
I01
sg32
I00
sg451
I1
sbsg1778
g0
(g73
g2
Ntp1847
Rp1848
(dp1849
g25
I00
sg31
I00
sg32
I00
sg42
I00
sbsg1779
g0
(g73
g2
Ntp1850
Rp1851
(dp1852
g25
I00
sg31
I00
sg32
I00
sg42
I00
sbsg1780
g0
(g73
g2
Ntp1853
Rp1854
(dp1855
g25
I00
sg31
I00
sg32
I00
sg42
I00
sbsg1781
g0
(g73
g2
Ntp1856
Rp1857
(dp1858
g25
I00
sg31
I00
sg32
I00
sg42
I00
sbsg1782
g0
(g73
g2
Ntp1859
Rp1860
(dp1861
g25
I00
sg31
I00
sg32
I00
sg42
I00
sbsg1783
g0
(g121
g2
Ntp1862
Rp1863
(dp1864
g25
I00
sg31
I00
sg32
I00
sg42
g36
sbsg1784
g0
(g121
g2
Ntp1865
Rp1866
(dp1867
g25
I00
sg31
I00
sg32
I00
sg42
g36
sbsg59
V/cvmfs/cms.cern.ch/el8_amd64_gcc11/cms/cmssw/CMSSW_13_2_10/src/CondCore/ESSources/python/CondDBESSource_cfi.py
p1868
sg61
I8
sg62
g1767
sbsVHcalTimeSlewEP
p1869
g0
(g1733
g2
Ntp1870
Rp1871
(dp1872
g15
g1869
sg17
(lp1873
VappendToDataLabel
p1874
aVtimeSlewParametersM2
p1875
aVtimeSlewParametersM3
p1876
asg25
I00
sg26
Nsg1874
g0
(g121
g2
Ntp1877
Rp1878
(dp1879
g25
I00
sg31
I01
sg32
I00
sg42
VHBHE
p1880
sbsg32
I00
sg1875
g0
(g691
g47
(lp1881
g0
(g693
g2
Ntp1882
Rp1883
(dp1884
g25
I00
sg31
I01
sg32
I00
sg17
(lp1885
Vtzero
p1886
aVslope
p1887
aVtmax
p1888
asg26
Nsg1886
g0
(g38
g2
Ntp1889
Rp1890
(dp1891
g25
I00
sg31
I01
sg32
I00
sg42
F23.960177
sbsg1887
g0
(g38
g2
Ntp1892
Rp1893
(dp1894
g25
I00
sg31
I01
sg32
I00
sg42
F-3.178648
sbsg1888
g0
(g38
g2
Ntp1895
Rp1896
(dp1897
g25
I00
sg31
I01
sg32
I00
sg42
F16.0
sbsbag0
(g693
g2
Ntp1898
Rp1899
(dp1900
g25
I00
sg31
I01
sg32
I00
sg17
(lp1901
g1886
ag1887
ag1888
asg26
Nsg1886
g0
(g38
g2
Ntp1902
Rp1903
(dp1904
g25
I00
sg31
I01
sg32
I00
sg42
F11.977461
sbsg1887
g0
(g38
g2
Ntp1905
Rp1906
(dp1907
g25
I00
sg31
I01
sg32
I00
sg42
F-1.5610227
sbsg1888
g0
(g38
g2
Ntp1908
Rp1909
(dp1910
g25
I00
sg31
I01
sg32
I00
sg42
F10.0
sbsbag0
(g693
g2
Ntp1911
Rp1912
(dp1913
g25
I00
sg31
I01
sg32
I00
sg17
(lp1914
g1886
ag1887
ag1888
asg26
Nsg1886
g0
(g38
g2
Ntp1915
Rp1916
(dp1917
g25
I00
sg31
I01
sg32
I00
sg42
F9.109694
sbsg1887
g0
(g38
g2
Ntp1918
Rp1919
(dp1920
g25
I00
sg31
I01
sg32
I00
sg42
F-1.075824
sbsg1888
g0
(g38
g2
Ntp1921
Rp1922
(dp1923
g25
I00
sg31
I01
sg32
I00
sg42
F6.25
sbsbatp1924
Rp1925
(dp1926
g25
I00
sg31
I01
sg32
I00
sg451
I1
sbsg1876
g0
(g691
g47
(lp1927
g0
(g693
g2
Ntp1928
Rp1929
(dp1930
g25
I00
sg31
I01
sg32
I00
sg17
(lp1931
Vcap
p1932
aVtspar0
p1933
aVtspar1
p1934
aVtspar2
p1935
aVtspar0_siPM
p1936
aVtspar1_siPM
p1937
aVtspar2_siPM
p1938
asg26
Nsg1932
g0
(g38
g2
Ntp1939
Rp1940
(dp1941
g25
I00
sg31
I01
sg32
I00
sg42
F6.0
sbsg1933
g0
(g38
g2
Ntp1942
Rp1943
(dp1944
g25
I00
sg31
I01
sg32
I00
sg42
F12.2999
sbsg1934
g0
(g38
g2
Ntp1945
Rp1946
(dp1947
g25
I00
sg31
I01
sg32
I00
sg42
F-2.19142
sbsg1935
g0
(g38
g2
Ntp1948
Rp1949
(dp1950
g25
I00
sg31
I01
sg32
I00
sg42
F0.0
sbsg1936
g0
(g38
g2
Ntp1951
Rp1952
(dp1953
g25
I00
sg31
I01
sg32
I00
sg42
F0.0
sbsg1937
g0
(g38
g2
Ntp1954
Rp1955
(dp1956
g25
I00
sg31
I01
sg32
I00
sg42
F0.0
sbsg1938
g0
(g38
g2
Ntp1957
Rp1958
(dp1959
g25
I00
sg31
I01
sg32
I00
sg42
F0.0
sbsbag0
(g693
g2
Ntp1960
Rp1961
(dp1962
g25
I00
sg31
I01
sg32
I00
sg17
(lp1963
g1932
ag1933
ag1934
ag1935
ag1936
ag1937
ag1938
asg26
Nsg1932
g0
(g38
g2
Ntp1964
Rp1965
(dp1966
g25
I00
sg31
I01
sg32
I00
sg42
F6.0
sbsg1933
g0
(g38
g2
Ntp1967
Rp1968
(dp1969
g25
I00
sg31
I01
sg32
I00
sg42
F15.5
sbsg1934
g0
(g38
g2
Ntp1970
Rp1971
(dp1972
g25
I00
sg31
I01
sg32
I00
sg42
F-3.2
sbsg1935
g0
(g38
g2
Ntp1973
Rp1974
(dp1975
g25
I00
sg31
I01
sg32
I00
sg42
F32.0
sbsg1936
g0
(g38
g2
Ntp1976
Rp1977
(dp1978
g25
I00
sg31
I01
sg32
I00
sg42
F0.0
sbsg1937
g0
(g38
g2
Ntp1979
Rp1980
(dp1981
g25
I00
sg31
I01
sg32
I00
sg42
F0.0
sbsg1938
g0
(g38
g2
Ntp1982
Rp1983
(dp1984
g25
I00
sg31
I01
sg32
I00
sg42
F0.0
sbsbag0
(g693
g2
Ntp1985
Rp1986
(dp1987
g25
I00
sg31
I01
sg32
I00
sg17
(lp1988
g1932
ag1933
ag1934
ag1935
ag1936
ag1937
ag1938
asg26
Nsg1932
g0
(g38
g2
Ntp1989
Rp1990
(dp1991
g25
I00
sg31
I01
sg32
I00
sg42
F6.0
sbsg1933
g0
(g38
g2
Ntp1992
Rp1993
(dp1994
g25
I00
sg31
I01
sg32
I00
sg42
F12.2999
sbsg1934
g0
(g38
g2
Ntp1995
Rp1996
(dp1997
g25
I00
sg31
I01
sg32
I00
sg42
F-2.19142
sbsg1935
g0
(g38
g2
Ntp1998
Rp1999
(dp2000
g25
I00
sg31
I01
sg32
I00
sg42
F0.0
sbsg1936
g0
(g38
g2
Ntp2001
Rp2002
(dp2003
g25
I00
sg31
I01
sg32
I00
sg42
F0.0
sbsg1937
g0
(g38
g2
Ntp2004
Rp2005
(dp2006
g25
I00
sg31
I01
sg32
I00
sg42
F0.0
sbsg1938
g0
(g38
g2
Ntp2007
Rp2008
(dp2009
g25
I00
sg31
I01
sg32
I00
sg42
F0.0
sbsbag0
(g693
g2
Ntp2010
Rp2011
(dp2012
g25
I00
sg31
I01
sg32
I00
sg17
(lp2013
g1932
ag1933
ag1934
ag1935
ag1936
ag1937
ag1938
asg26
Nsg1932
g0
(g38
g2
Ntp2014
Rp2015
(dp2016
g25
I00
sg31
I01
sg32
I00
sg42
F6.0
sbsg1933
g0
(g38
g2
Ntp2017
Rp2018
(dp2019
g25
I00
sg31
I01
sg32
I00
sg42
F12.2999
sbsg1934
g0
(g38
g2
Ntp2020
Rp2021
(dp2022
g25
I00
sg31
I01
sg32
I00
sg42
F-2.19142
sbsg1935
g0
(g38
g2
Ntp2023
Rp2024
(dp2025
g25
I00
sg31
I01
sg32
I00
sg42
F0.0
sbsg1936
g0
(g38
g2
Ntp2026
Rp2027
(dp2028
g25
I00
sg31
I01
sg32
I00
sg42
F0.0
sbsg1937
g0
(g38
g2
Ntp2029
Rp2030
(dp2031
g25
I00
sg31
I01
sg32
I00
sg42
F0.0
sbsg1938
g0
(g38
g2
Ntp2032
Rp2033
(dp2034
g25
I00
sg31
I01
sg32
I00
sg42
F0.0
sbsbatp2035
Rp2036
(dp2037
g25
I00
sg31
I01
sg32
I00
sg451
I1
sbsg59
V/cvmfs/cms.cern.ch/el8_amd64_gcc11/cms/cmssw/CMSSW_13_2_10/src/CalibCalorimetry/HcalPlugins/python/HcalTimeSlew_cff.py
p2038
sg61
I3
sg62
g1869
sbsVes_hardcode
p2039
g0
(g1733
g2
Ntp2040
Rp2041
(dp2042
g15
VHcalHardcodeCalibrations
p2043
sg17
(lp2044
g1777
aViLumi
p2045
aVHBRecalibration
p2046
aVHBreCalibCutoff
p2047
aVHBmeanenergies
p2048
aVHERecalibration
p2049
aVHEreCalibCutoff
p2050
aVHEmeanenergies
p2051
aVHFRecalibration
p2052
aVHFRecalParameterBlock
p2053
aVGainWidthsForTrigPrims
p2054
aVuseHBUpgrade
p2055
aVuseHEUpgrade
p2056
aVuseHFUpgrade
p2057
aVuseHOUpgrade
p2058
aVtestHFQIE10
p2059
aVtestHEPlan1
p2060
aVkillHE
p2061
aVuseLayer0Weight
p2062
aVuseIeta18depth1
p2063
aVhb
p2064
aVhe
p2065
aVhf
p2066
aVho
p2067
aVhbUpgrade
p2068
aVheUpgrade
p2069
aVhfUpgrade
p2070
aVSiPMCharacteristics
p2071
asg25
I00
sg26
Nsg1777
g0
(g105
g47
(lp2072
VGainWidths
p2073
atp2074
Rp2075
(dp2076
g25
I00
sg31
I00
sg32
I00
sg451
I1
sbsg32
I00
sg2045
g0
(g38
g2
Ntp2077
Rp2078
(dp2079
g25
I00
sg31
I01
sg32
I00
sg42
F-1.0
sbsg2046
g0
(g73
g2
Ntp2080
Rp2081
(dp2082
g25
I00
sg31
I01
sg32
I00
sg42
I00
sbsg2047
g0
(g38
g2
Ntp2083
Rp2084
(dp2085
g25
I00
sg31
I01
sg32
I00
sg42
F20.0
sbsg2048
g0
(g1761
g2
Ntp2086
Rp2087
(dp2088
g25
I00
sg31
I01
sg32
I00
sg42
VCalibCalorimetry/HcalPlugins/data/meanenergiesHB.txt
p2089
sbsg2049
g0
(g73
g2
Ntp2090
Rp2091
(dp2092
g25
I00
sg31
I01
sg32
I00
sg42
I00
sbsg2050
g0
(g38
g2
Ntp2093
Rp2094
(dp2095
g25
I00
sg31
I01
sg32
I00
sg42
F20.0
sbsg2051
g0
(g1761
g2
Ntp2096
Rp2097
(dp2098
g25
I00
sg31
I01
sg32
I00
sg42
VCalibCalorimetry/HcalPlugins/data/meanenergiesHE.txt
p2099
sbsg2052
g0
(g73
g2
Ntp2100
Rp2101
(dp2102
g25
I00
sg31
I01
sg32
I00
sg42
I00
sbsg2053
g0
(g693
g2
Ntp2103
Rp2104
(dp2105
g25
I00
sg31
I01
sg32
I00
sg17
(lp2106
VHFdepthOneParameterA
p2107
aVHFdepthOneParameterB
p2108
aVHFdepthTwoParameterA
p2109
aVHFdepthTwoParameterB
p2110
asg26
Nsg2107
g0
(g46
g47
(lp2111
F0.004123
aF0.00602
aF0.008201
aF0.010489
aF0.013379
aF0.016997
aF0.021464
aF0.027371
aF0.034195
aF0.044807
aF0.058939
aF0.125497
atp2112
Rp2113
(dp2114
g25
I00
sg31
I01
sg32
I00
sbsg2108
g0
(g46
g47
(lp2115
F-4e-06
aF-2e-06
aF0.0
aF4e-06
aF1.5e-05
aF2.6e-05
aF6.3e-05
aF8.4e-05
aF0.00016
aF0.000107
aF0.000425
aF0.000209
atp2116
Rp2117
(dp2118
g25
I00
sg31
I01
sg32
I00
sbsg2109
g0
(g46
g47
(lp2119
F0.002861
aF0.004168
aF0.0064
aF0.008388
aF0.011601
aF0.014425
aF0.018633
aF0.023232
aF0.028274
aF0.035447
aF0.051579
aF0.086593
atp2120
Rp2121
(dp2122
g25
I00
sg31
I01
sg32
I00
sbsg2110
g0
(g46
g47
(lp2123
F-2e-06
aF-0.0
aF-7e-06
aF-6e-06
aF-2e-06
aF1e-06
aF1.9e-05
aF3.1e-05
aF6.7e-05
aF1.2e-05
aF0.000157
aF-3e-06
atp2124
Rp2125
(dp2126
g25
I00
sg31
I01
sg32
I00
sbsg62
g2053
sbsg2054
g0
(g73
g2
Ntp2127
Rp2128
(dp2129
g25
I00
sg31
I01
sg32
I00
sg42
I00
sbsg2055
g0
(g73
g2
Ntp2130
Rp2131
(dp2132
g25
I00
sg31
I01
sg32
I00
sg42
I00
sbsg2056
g0
(g73
g2
Ntp2133
Rp2134
(dp2135
g25
I00
sg31
I01
sg32
I00
sg42
I00
sbsg2057
g0
(g73
g2
Ntp2136
Rp2137
(dp2138
g25
I00
sg31
I01
sg32
I00
sg42
I00
sbsg2058
g0
(g73
g2
Ntp2139
Rp2140
(dp2141
g25
I00
sg31
I01
sg32
I00
sg42
I01
sbsg2059
g0
(g73
g2
Ntp2142
Rp2143
(dp2144
g25
I00
sg31
I01
sg32
I00
sg42
I00
sbsg2060
g0
(g73
g2
Ntp2145
Rp2146
(dp2147
g25
I00
sg31
I01
sg32
I00
sg42
I00
sbsg2061
g0
(g73
g2
Ntp2148
Rp2149
(dp2150
g25
I00
sg31
I01
sg32
I00
sg42
I00
sbsg2062
g0
(g73
g2
Ntp2151
Rp2152
(dp2153
g25
I00
sg31
I01
sg32
I00
sg42
I00
sbsg2063
g0
(g73
g2
Ntp2154
Rp2155
(dp2156
g25
I00
sg31
I01
sg32
I00
sg42
I01
sbsg2064
g0
(g693
g2
Ntp2157
Rp2158
(dp2159
g25
I00
sg31
I01
sg32
I00
sg17
(lp2160
Vpedestal
p2161
aVpedestalWidth
p2162
aVgain
p2163
aVgainWidth
p2164
aVzsThreshold
p2165
aVqieType
p2166
aVqieOffset
p2167
aVqieSlope
p2168
aVmcShape
p2169
aVrecoShape
p2170
aVphotoelectronsToAnalog
p2171
aVdarkCurrent
p2172
aVnoiseCorrelation
p2173
aVnoiseThreshold
p2174
aVseedThreshold
p2175
aVdoRadiationDamage
p2176
asg26
Nsg2161
g0
(g38
g2
Ntp2177
Rp2178
(dp2179
g25
I00
sg31
I01
sg32
I00
sg42
F3.285
sbsg2162
g0
(g38
g2
Ntp2180
Rp2181
(dp2182
g25
I00
sg31
I01
sg32
I00
sg42
F0.809
sbsg2163
g0
(g46
g47
(lp2183
F0.19
atp2184
Rp2185
(dp2186
g25
I00
sg31
I01
sg32
I00
sbsg2164
g0
(g46
g47
(lp2187
F0.0
atp2188
Rp2189
(dp2190
g25
I00
sg31
I01
sg32
I00
sbsg2165
g0
(g52
g2
Ntp2191
Rp2192
(dp2193
g25
I00
sg31
I01
sg32
I00
sg42
I8
sbsg2166
g0
(g52
g2
Ntp2194
Rp2195
(dp2196
g25
I00
sg31
I01
sg32
I00
sg42
I0
sbsg2167
g0
(g46
g47
(lp2197
F-0.49
aF1.8
aF7.2
aF37.9
atp2198
Rp2199
(dp2200
g25
I00
sg31
I01
sg32
I00
sbsg2168
g0
(g46
g47
(lp2201
F0.912
aF0.917
aF0.922
aF0.923
atp2202
Rp2203
(dp2204
g25
I00
sg31
I01
sg32
I00
sbsg2169
g0
(g52
g2
Ntp2205
Rp2206
(dp2207
g25
I00
sg31
I01
sg32
I00
sg42
I125
sbsg2170
g0
(g52
g2
Ntp2208
Rp2209
(dp2210
g25
I00
sg31
I01
sg32
I00
sg42
I105
sbsg2171
g0
(g38
g2
Ntp2211
Rp2212
(dp2213
g25
I00
sg31
I01
sg32
I00
sg42
F0.3305
sbsg2172
g0
(g46
g47
(lp2214
F0.0
atp2215
Rp2216
(dp2217
g25
I00
sg31
I01
sg32
I00
sbsg2173
g0
(g46
g47
(lp2218
F0.0
atp2219
Rp2220
(dp2221
g25
I00
sg31
I01
sg32
I00
sbsg2174
g0
(g38
g2
Ntp2222
Rp2223
(dp2224
g25
I00
sg31
I01
sg32
I00
sg42
F0.0
sbsg2175
g0
(g38
g2
Ntp2225
Rp2226
(dp2227
g25
I00
sg31
I01
sg32
I00
sg42
F0.1
sbsg2176
g0
(g73
g2
Ntp2228
Rp2229
(dp2230
g25
I00
sg31
I01
sg32
I00
sg42
I00
sbsbsg2065
g0
(g693
g2
Ntp2231
Rp2232
(dp2233
g25
I00
sg31
I01
sg32
I00
sg17
(lp2234
g2161
ag2162
ag2163
ag2164
ag2165
ag2166
ag2167
ag2168
ag2169
ag2170
ag2171
ag2172
ag2173
ag2174
ag2175
ag2176
asg26
Nsg2161
g0
(g38
g2
Ntp2235
Rp2236
(dp2237
g25
I00
sg31
I01
sg32
I00
sg42
F3.163
sbsg2162
g0
(g38
g2
Ntp2238
Rp2239
(dp2240
g25
I00
sg31
I01
sg32
I00
sg42
F0.9698
sbsg2163
g0
(g46
g47
(lp2241
F0.23
atp2242
Rp2243
(dp2244
g25
I00
sg31
I01
sg32
I00
sbsg2164
g0
(g46
g47
(lp2245
I0
atp2246
Rp2247
(dp2248
g25
I00
sg31
I01
sg32
I00
sbsg2165
g0
(g52
g2
Ntp2249
Rp2250
(dp2251
g25
I00
sg31
I01
sg32
I00
sg42
I9
sbsg2166
g0
(g52
g2
Ntp2252
Rp2253
(dp2254
g25
I00
sg31
I01
sg32
I00
sg42
I0
sbsg2167
g0
(g46
g47
(lp2255
F-0.38
aF2.0
aF7.6
aF39.6
atp2256
Rp2257
(dp2258
g25
I00
sg31
I01
sg32
I00
sbsg2168
g0
(g46
g47
(lp2259
F0.912
aF0.916
aF0.92
aF0.922
atp2260
Rp2261
(dp2262
g25
I00
sg31
I01
sg32
I00
sbsg2169
g0
(g52
g2
Ntp2263
Rp2264
(dp2265
g25
I00
sg31
I01
sg32
I00
sg42
I125
sbsg2170
g0
(g52
g2
Ntp2266
Rp2267
(dp2268
g25
I00
sg31
I01
sg32
I00
sg42
I105
sbsg2171
g0
(g38
g2
Ntp2269
Rp2270
(dp2271
g25
I00
sg31
I01
sg32
I00
sg42
F0.3305
sbsg2172
g0
(g46
g47
(lp2272
F0.0
atp2273
Rp2274
(dp2275
g25
I00
sg31
I01
sg32
I00
sbsg2173
g0
(g46
g47
(lp2276
F0.0
atp2277
Rp2278
(dp2279
g25
I00
sg31
I01
sg32
I00
sbsg2174
g0
(g38
g2
Ntp2280
Rp2281
(dp2282
g25
I00
sg31
I01
sg32
I00
sg42
F0.0
sbsg2175
g0
(g38
g2
Ntp2283
Rp2284
(dp2285
g25
I00
sg31
I01
sg32
I00
sg42
F0.1
sbsg2176
g0
(g73
g2
Ntp2286
Rp2287
(dp2288
g25
I00
sg31
I01
sg32
I00
sg42
I00
sbsbsg2066
g0
(g693
g2
Ntp2289
Rp2290
(dp2291
g25
I00
sg31
I01
sg32
I00
sg17
(lp2292
g2161
ag2162
ag2163
ag2164
ag2165
ag2166
ag2167
ag2168
ag2169
ag2170
ag2171
ag2172
ag2173
ag2174
ag2175
ag2176
asg26
Nsg2161
g0
(g38
g2
Ntp2293
Rp2294
(dp2295
g25
I00
sg31
I01
sg32
I00
sg42
F9.354
sbsg2162
g0
(g38
g2
Ntp2296
Rp2297
(dp2298
g25
I00
sg31
I01
sg32
I00
sg42
F2.516
sbsg2163
g0
(g46
g47
(lp2299
F0.14
aF0.135
atp2300
Rp2301
(dp2302
g25
I00
sg31
I01
sg32
I00
sbsg2164
g0
(g46
g47
(lp2303
F0.0
aF0.0
atp2304
Rp2305
(dp2306
g25
I00
sg31
I01
sg32
I00
sbsg2165
g0
(g52
g2
Ntp2307
Rp2308
(dp2309
g25
I00
sg31
I01
sg32
I00
sg42
I-9999
sbsg2166
g0
(g52
g2
Ntp2310
Rp2311
(dp2312
g25
I00
sg31
I01
sg32
I00
sg42
I0
sbsg2167
g0
(g46
g47
(lp2313
F-0.87
aF1.4
aF7.8
aF-29.6
atp2314
Rp2315
(dp2316
g25
I00
sg31
I01
sg32
I00
sbsg2168
g0
(g46
g47
(lp2317
F0.359
aF0.358
aF0.36
aF0.367
atp2318
Rp2319
(dp2320
g25
I00
sg31
I01
sg32
I00
sbsg2169
g0
(g52
g2
Ntp2321
Rp2322
(dp2323
g25
I00
sg31
I01
sg32
I00
sg42
I301
sbsg2170
g0
(g52
g2
Ntp2324
Rp2325
(dp2326
g25
I00
sg31
I01
sg32
I00
sg42
I301
sbsg2171
g0
(g38
g2
Ntp2327
Rp2328
(dp2329
g25
I00
sg31
I01
sg32
I00
sg42
F0.0
sbsg2172
g0
(g46
g47
(lp2330
F0.0
atp2331
Rp2332
(dp2333
g25
I00
sg31
I01
sg32
I00
sbsg2173
g0
(g46
g47
(lp2334
F0.0
atp2335
Rp2336
(dp2337
g25
I00
sg31
I01
sg32
I00
sbsg2174
g0
(g38
g2
Ntp2338
Rp2339
(dp2340
g25
I00
sg31
I01
sg32
I00
sg42
F0.0
sbsg2175
g0
(g38
g2
Ntp2341
Rp2342
(dp2343
g25
I00
sg31
I01
sg32
I00
sg42
F0.1
sbsg2176
g0
(g73
g2
Ntp2344
Rp2345
(dp2346
g25
I00
sg31
I01
sg32
I00
sg42
I00
sbsbsg2067
g0
(g693
g2
Ntp2347
Rp2348
(dp2349
g25
I00
sg31
I01
sg32
I00
sg17
(lp2350
g2161
ag2162
ag2163
ag2164
ag2165
ag2166
ag2167
ag2168
ag2169
ag2170
ag2171
ag2172
ag2173
ag2174
ag2175
ag2176
asg26
Nsg2161
g0
(g38
g2
Ntp2351
Rp2352
(dp2353
g25
I00
sg31
I01
sg32
I00
sg42
F12.06
sbsg2162
g0
(g38
g2
Ntp2354
Rp2355
(dp2356
g25
I00
sg31
I01
sg32
I00
sg42
F0.6285
sbsg2163
g0
(g46
g47
(lp2357
F0.006
aF0.0087
atp2358
Rp2359
(dp2360
g25
I00
sg31
I01
sg32
I00
sbsg2164
g0
(g46
g47
(lp2361
F0.0
aF0.0
atp2362
Rp2363
(dp2364
g25
I00
sg31
I01
sg32
I00
sbsg2165
g0
(g52
g2
Ntp2365
Rp2366
(dp2367
g25
I00
sg31
I01
sg32
I00
sg42
I24
sbsg2166
g0
(g52
g2
Ntp2368
Rp2369
(dp2370
g25
I00
sg31
I01
sg32
I00
sg42
I0
sbsg2167
g0
(g46
g47
(lp2371
F-0.44
aF1.4
aF7.1
aF38.5
atp2372
Rp2373
(dp2374
g25
I00
sg31
I01
sg32
I00
sbsg2168
g0
(g46
g47
(lp2375
F0.907
aF0.915
aF0.92
aF0.921
atp2376
Rp2377
(dp2378
g25
I00
sg31
I01
sg32
I00
sbsg2169
g0
(g52
g2
Ntp2379
Rp2380
(dp2381
g25
I00
sg31
I01
sg32
I00
sg42
I201
sbsg2170
g0
(g52
g2
Ntp2382
Rp2383
(dp2384
g25
I00
sg31
I01
sg32
I00
sg42
I201
sbsg2171
g0
(g38
g2
Ntp2385
Rp2386
(dp2387
g25
I00
sg31
I01
sg32
I00
sg42
F4.0
sbsg2172
g0
(g46
g47
(lp2388
F0.0
atp2389
Rp2390
(dp2391
g25
I00
sg31
I01
sg32
I00
sbsg2173
g0
(g46
g47
(lp2392
F0.0
atp2393
Rp2394
(dp2395
g25
I00
sg31
I01
sg32
I00
sbsg2174
g0
(g38
g2
Ntp2396
Rp2397
(dp2398
g25
I00
sg31
I01
sg32
I00
sg42
F0.0
sbsg2175
g0
(g38
g2
Ntp2399
Rp2400
(dp2401
g25
I00
sg31
I01
sg32
I00
sg42
F0.1
sbsg2176
g0
(g73
g2
Ntp2402
Rp2403
(dp2404
g25
I00
sg31
I01
sg32
I00
sg42
I00
sbsbsg2068
g0
(g693
g2
Ntp2405
Rp2406
(dp2407
g25
I00
sg31
I01
sg32
I00
sg17
(lp2408
g2161
ag2162
ag2163
ag2164
ag2165
ag2166
ag2167
ag2168
ag2169
ag2170
ag2171
ag2172
ag2173
ag2174
ag2175
ag2176
aVradiationDamage
p2409
asg26
Nsg2161
g0
(g38
g2
Ntp2410
Rp2411
(dp2412
g25
I00
sg31
I01
sg32
I00
sg42
F17.3
sbsg2162
g0
(g38
g2
Ntp2413
Rp2414
(dp2415
g25
I00
sg31
I01
sg32
I00
sg42
F1.5
sbsg2163
g0
(g46
g47
(lp2416
F0.0006252
atp2417
Rp2418
(dp2419
g25
I00
sg31
I01
sg32
I00
sbsg2164
g0
(g46
g47
(lp2420
I0
atp2421
Rp2422
(dp2423
g25
I00
sg31
I01
sg32
I00
sbsg2165
g0
(g52
g2
Ntp2424
Rp2425
(dp2426
g25
I00
sg31
I01
sg32
I00
sg42
I16
sbsg2166
g0
(g52
g2
Ntp2427
Rp2428
(dp2429
g25
I00
sg31
I01
sg32
I00
sg42
I2
sbsg2167
g0
(g46
g47
(lp2430
F0.0
aF0.0
aF0.0
aF0.0
atp2431
Rp2432
(dp2433
g25
I00
sg31
I01
sg32
I00
sbsg2168
g0
(g46
g47
(lp2434
F0.05376
aF0.05376
aF0.05376
aF0.05376
atp2435
Rp2436
(dp2437
g25
I00
sg31
I01
sg32
I00
sbsg2169
g0
(g52
g2
Ntp2438
Rp2439
(dp2440
g25
I00
sg31
I01
sg32
I00
sg42
I206
sbsg2170
g0
(g52
g2
Ntp2441
Rp2442
(dp2443
g25
I00
sg31
I01
sg32
I00
sg42
I208
sbsg2171
g0
(g38
g2
Ntp2444
Rp2445
(dp2446
g25
I00
sg31
I01
sg32
I00
sg42
F40.0
sbsg2172
g0
(g46
g47
(lp2447
F0.01
aF0.015
atp2448
Rp2449
(dp2450
g25
I00
sg31
I01
sg32
I00
sbsg2173
g0
(g46
g47
(lp2451
F0.26
aF0.254
atp2452
Rp2453
(dp2454
g25
I00
sg31
I01
sg32
I00
sbsg2174
g0
(g38
g2
Ntp2455
Rp2456
(dp2457
g25
I00
sg31
I01
sg32
I00
sg42
F0.0
sbsg2175
g0
(g38
g2
Ntp2458
Rp2459
(dp2460
g25
I00
sg31
I01
sg32
I00
sg42
F0.1
sbsg2176
g0
(g73
g2
Ntp2461
Rp2462
(dp2463
g25
I00
sg31
I01
sg32
I00
sg42
I01
sbsg2409
g0
(g693
g2
Ntp2464
Rp2465
(dp2466
g25
I00
sg31
I01
sg32
I00
sg17
(lp2467
VtemperatureBase
p2468
aVtemperatureNew
p2469
aVintlumiOffset
p2470
aVdepVsTemp
p2471
aVintlumiToNeutrons
p2472
aVdepVsNeutrons
p2473
asg26
Nsg2468
g0
(g38
g2
Ntp2474
Rp2475
(dp2476
g25
I00
sg31
I01
sg32
I00
sg42
I20
sbsg2469
g0
(g38
g2
Ntp2477
Rp2478
(dp2479
g25
I00
sg31
I01
sg32
I00
sg42
I-5
sbsg2470
g0
(g38
g2
Ntp2480
Rp2481
(dp2482
g25
I00
sg31
I01
sg32
I00
sg42
I150
sbsg2471
g0
(g38
g2
Ntp2483
Rp2484
(dp2485
g25
I00
sg31
I01
sg32
I00
sg42
F0.0631
sbsg2472
g0
(g38
g2
Ntp2486
Rp2487
(dp2488
g25
I00
sg31
I01
sg32
I00
sg42
F367000000.0
sbsg2473
g0
(g46
g47
(lp2489
F5.543e-10
aF8.012e-10
atp2490
Rp2491
(dp2492
g25
I00
sg31
I01
sg32
I00
sbsbsbsg2069
g0
(g693
g2
Ntp2493
Rp2494
(dp2495
g25
I00
sg31
I01
sg32
I00
sg17
(lp2496
g2161
ag2162
ag2163
ag2164
ag2165
ag2166
ag2167
ag2168
ag2169
ag2170
ag2171
ag2172
ag2173
ag2174
ag2175
ag2176
ag2409
asg26
Nsg2161
g0
(g38
g2
Ntp2497
Rp2498
(dp2499
g25
I00
sg31
I01
sg32
I00
sg42
F17.3
sbsg2162
g0
(g38
g2
Ntp2500
Rp2501
(dp2502
g25
I00
sg31
I01
sg32
I00
sg42
F1.5
sbsg2163
g0
(g46
g47
(lp2503
F0.0006252
atp2504
Rp2505
(dp2506
g25
I00
sg31
I01
sg32
I00
sbsg2164
g0
(g46
g47
(lp2507
I0
atp2508
Rp2509
(dp2510
g25
I00
sg31
I01
sg32
I00
sbsg2165
g0
(g52
g2
Ntp2511
Rp2512
(dp2513
g25
I00
sg31
I01
sg32
I00
sg42
I16
sbsg2166
g0
(g52
g2
Ntp2514
Rp2515
(dp2516
g25
I00
sg31
I01
sg32
I00
sg42
I2
sbsg2167
g0
(g46
g47
(lp2517
F0.0
aF0.0
aF0.0
aF0.0
atp2518
Rp2519
(dp2520
g25
I00
sg31
I01
sg32
I00
sbsg2168
g0
(g46
g47
(lp2521
F0.05376
aF0.05376
aF0.05376
aF0.05376
atp2522
Rp2523
(dp2524
g25
I00
sg31
I01
sg32
I00
sbsg2169
g0
(g52
g2
Ntp2525
Rp2526
(dp2527
g25
I00
sg31
I01
sg32
I00
sg42
I206
sbsg2170
g0
(g52
g2
Ntp2528
Rp2529
(dp2530
g25
I00
sg31
I01
sg32
I00
sg42
I208
sbsg2171
g0
(g38
g2
Ntp2531
Rp2532
(dp2533
g25
I00
sg31
I01
sg32
I00
sg42
F40.0
sbsg2172
g0
(g46
g47
(lp2534
F0.01
aF0.015
atp2535
Rp2536
(dp2537
g25
I00
sg31
I01
sg32
I00
sbsg2173
g0
(g46
g47
(lp2538
F0.26
aF0.254
atp2539
Rp2540
(dp2541
g25
I00
sg31
I01
sg32
I00
sbsg2174
g0
(g38
g2
Ntp2542
Rp2543
(dp2544
g25
I00
sg31
I01
sg32
I00
sg42
F0.0
sbsg2175
g0
(g38
g2
Ntp2545
Rp2546
(dp2547
g25
I00
sg31
I01
sg32
I00
sg42
F0.1
sbsg2176
g0
(g73
g2
Ntp2548
Rp2549
(dp2550
g25
I00
sg31
I01
sg32
I00
sg42
I01
sbsg2409
g0
(g693
g2
Ntp2551
Rp2552
(dp2553
g25
I00
sg31
I01
sg32
I00
sg17
(lp2554
g2468
ag2469
ag2470
ag2471
ag2472
ag2473
asg26
Nsg2468
g0
(g38
g2
Ntp2555
Rp2556
(dp2557
g25
I00
sg31
I01
sg32
I00
sg42
I20
sbsg2469
g0
(g38
g2
Ntp2558
Rp2559
(dp2560
g25
I00
sg31
I01
sg32
I00
sg42
I5
sbsg2470
g0
(g38
g2
Ntp2561
Rp2562
(dp2563
g25
I00
sg31
I01
sg32
I00
sg42
I75
sbsg2471
g0
(g38
g2
Ntp2564
Rp2565
(dp2566
g25
I00
sg31
I01
sg32
I00
sg42
F0.0631
sbsg2472
g0
(g38
g2
Ntp2567
Rp2568
(dp2569
g25
I00
sg31
I01
sg32
I00
sg42
F29200000.0
sbsg2473
g0
(g46
g47
(lp2570
F5.543e-10
aF8.012e-10
atp2571
Rp2572
(dp2573
g25
I00
sg31
I01
sg32
I00
sbsbsbsg2070
g0
(g693
g2
Ntp2574
Rp2575
(dp2576
g25
I00
sg31
I01
sg32
I00
sg17
(lp2577
g2161
ag2162
ag2163
ag2164
ag2165
ag2166
ag2167
ag2168
ag2169
ag2170
ag2171
ag2172
ag2173
ag2174
ag2175
ag2176
asg26
Nsg2161
g0
(g38
g2
Ntp2578
Rp2579
(dp2580
g25
I00
sg31
I01
sg32
I00
sg42
F13.33
sbsg2162
g0
(g38
g2
Ntp2581
Rp2582
(dp2583
g25
I00
sg31
I01
sg32
I00
sg42
F3.33
sbsg2163
g0
(g46
g47
(lp2584
F0.14
aF0.135
atp2585
Rp2586
(dp2587
g25
I00
sg31
I01
sg32
I00
sbsg2164
g0
(g46
g47
(lp2588
F0.0
aF0.0
atp2589
Rp2590
(dp2591
g25
I00
sg31
I01
sg32
I00
sbsg2165
g0
(g52
g2
Ntp2592
Rp2593
(dp2594
g25
I00
sg31
I01
sg32
I00
sg42
I-9999
sbsg2166
g0
(g52
g2
Ntp2595
Rp2596
(dp2597
g25
I00
sg31
I01
sg32
I00
sg42
I1
sbsg2167
g0
(g46
g47
(lp2598
F0.0697
aF-0.7405
aF12.38
aF-671.9
atp2599
Rp2600
(dp2601
g25
I00
sg31
I01
sg32
I00
sbsg2168
g0
(g46
g47
(lp2602
F0.297
aF0.298
aF0.298
aF0.313
atp2603
Rp2604
(dp2605
g25
I00
sg31
I01
sg32
I00
sbsg2169
g0
(g52
g2
Ntp2606
Rp2607
(dp2608
g25
I00
sg31
I01
sg32
I00
sg42
I301
sbsg2170
g0
(g52
g2
Ntp2609
Rp2610
(dp2611
g25
I00
sg31
I01
sg32
I00
sg42
I301
sbsg2171
g0
(g38
g2
Ntp2612
Rp2613
(dp2614
g25
I00
sg31
I01
sg32
I00
sg42
F0.0
sbsg2172
g0
(g46
g47
(lp2615
F0.0
atp2616
Rp2617
(dp2618
g25
I00
sg31
I01
sg32
I00
sbsg2173
g0
(g46
g47
(lp2619
F0.0
atp2620
Rp2621
(dp2622
g25
I00
sg31
I01
sg32
I00
sbsg2174
g0
(g38
g2
Ntp2623
Rp2624
(dp2625
g25
I00
sg31
I01
sg32
I00
sg42
F0.0
sbsg2175
g0
(g38
g2
Ntp2626
Rp2627
(dp2628
g25
I00
sg31
I01
sg32
I00
sg42
F0.1
sbsg2176
g0
(g73
g2
Ntp2629
Rp2630
(dp2631
g25
I00
sg31
I01
sg32
I00
sg42
I00
sbsbsg2071
g0
(g691
g47
(lp2632
g0
(g693
g2
Ntp2633
Rp2634
(dp2635
g25
I00
sg31
I01
sg32
I00
sg17
(lp2636
Vpixels
p2637
aVcrosstalk
p2638
aVnonlin1
p2639
aVnonlin2
p2640
aVnonlin3
p2641
asg26
Nsg2637
g0
(g52
g2
Ntp2642
Rp2643
(dp2644
g25
I00
sg31
I01
sg32
I00
sg42
I36000
sbsg2638
g0
(g38
g2
Ntp2645
Rp2646
(dp2647
g25
I00
sg31
I01
sg32
I00
sg42
F0.0
sbsg2639
g0
(g38
g2
Ntp2648
Rp2649
(dp2650
g25
I00
sg31
I01
sg32
I00
sg42
F1.0
sbsg2640
g0
(g38
g2
Ntp2651
Rp2652
(dp2653
g25
I00
sg31
I01
sg32
I00
sg42
F0.0
sbsg2641
g0
(g38
g2
Ntp2654
Rp2655
(dp2656
g25
I00
sg31
I01
sg32
I00
sg42
F0.0
sbsbag0
(g693
g2
Ntp2657
Rp2658
(dp2659
g25
I00
sg31
I01
sg32
I00
sg17
(lp2660
g2637
ag2638
ag2639
ag2640
ag2641
asg26
Nsg2637
g0
(g52
g2
Ntp2661
Rp2662
(dp2663
g25
I00
sg31
I01
sg32
I00
sg42
I2500
sbsg2638
g0
(g38
g2
Ntp2664
Rp2665
(dp2666
g25
I00
sg31
I01
sg32
I00
sg42
F0.0
sbsg2639
g0
(g38
g2
Ntp2667
Rp2668
(dp2669
g25
I00
sg31
I01
sg32
I00
sg42
F1.0
sbsg2640
g0
(g38
g2
Ntp2670
Rp2671
(dp2672
g25
I00
sg31
I01
sg32
I00
sg42
F0.0
sbsg2641
g0
(g38
g2
Ntp2673
Rp2674
(dp2675
g25
I00
sg31
I01
sg32
I00
sg42
F0.0
sbsbag0
(g693
g2
Ntp2676
Rp2677
(dp2678
g25
I00
sg31
I01
sg32
I00
sg17
(lp2679
g2637
ag2638
ag2639
ag2640
ag2641
asg26
Nsg2637
g0
(g52
g2
Ntp2680
Rp2681
(dp2682
g25
I00
sg31
I01
sg32
I00
sg42
I27370
sbsg2638
g0
(g38
g2
Ntp2683
Rp2684
(dp2685
g25
I00
sg31
I01
sg32
I00
sg42
F0.17
sbsg2639
g0
(g38
g2
Ntp2686
Rp2687
(dp2688
g25
I00
sg31
I01
sg32
I00
sg42
F1.00985
sbsg2640
g0
(g38
g2
Ntp2689
Rp2690
(dp2691
g25
I00
sg31
I01
sg32
I00
sg42
F7.84089e-06
sbsg2641
g0
(g38
g2
Ntp2692
Rp2693
(dp2694
g25
I00
sg31
I01
sg32
I00
sg42
F2.86282e-10
sbsbag0
(g693
g2
Ntp2695
Rp2696
(dp2697
g25
I00
sg31
I01
sg32
I00
sg17
(lp2698
g2637
ag2638
ag2639
ag2640
ag2641
asg26
Nsg2637
g0
(g52
g2
Ntp2699
Rp2700
(dp2701
g25
I00
sg31
I01
sg32
I00
sg42
I38018
sbsg2638
g0
(g38
g2
Ntp2702
Rp2703
(dp2704
g25
I00
sg31
I01
sg32
I00
sg42
F0.196
sbsg2639
g0
(g38
g2
Ntp2705
Rp2706
(dp2707
g25
I00
sg31
I01
sg32
I00
sg42
F1.00546
sbsg2640
g0
(g38
g2
Ntp2708
Rp2709
(dp2710
g25
I00
sg31
I01
sg32
I00
sg42
F6.40239e-06
sbsg2641
g0
(g38
g2
Ntp2711
Rp2712
(dp2713
g25
I00
sg31
I01
sg32
I00
sg42
F1.27011e-10
sbsbag0
(g693
g2
Ntp2714
Rp2715
(dp2716
g25
I00
sg31
I01
sg32
I00
sg17
(lp2717
g2637
ag2638
ag2639
ag2640
ag2641
asg26
Nsg2637
g0
(g52
g2
Ntp2718
Rp2719
(dp2720
g25
I00
sg31
I01
sg32
I00
sg42
I27370
sbsg2638
g0
(g38
g2
Ntp2721
Rp2722
(dp2723
g25
I00
sg31
I01
sg32
I00
sg42
F0.17
sbsg2639
g0
(g38
g2
Ntp2724
Rp2725
(dp2726
g25
I00
sg31
I01
sg32
I00
sg42
F1.00985
sbsg2640
g0
(g38
g2
Ntp2727
Rp2728
(dp2729
g25
I00
sg31
I01
sg32
I00
sg42
F7.84089e-06
sbsg2641
g0
(g38
g2
Ntp2730
Rp2731
(dp2732
g25
I00
sg31
I01
sg32
I00
sg42
F2.86282e-10
sbsbag0
(g693
g2
Ntp2733
Rp2734
(dp2735
g25
I00
sg31
I01
sg32
I00
sg17
(lp2736
g2637
ag2638
ag2639
ag2640
ag2641
asg26
Nsg2637
g0
(g52
g2
Ntp2737
Rp2738
(dp2739
g25
I00
sg31
I01
sg32
I00
sg42
I38018
sbsg2638
g0
(g38
g2
Ntp2740
Rp2741
(dp2742
g25
I00
sg31
I01
sg32
I00
sg42
F0.196
sbsg2639
g0
(g38
g2
Ntp2743
Rp2744
(dp2745
g25
I00
sg31
I01
sg32
I00
sg42
F1.00546
sbsg2640
g0
(g38
g2
Ntp2746
Rp2747
(dp2748
g25
I00
sg31
I01
sg32
I00
sg42
F6.40239e-06
sbsg2641
g0
(g38
g2
Ntp2749
Rp2750
(dp2751
g25
I00
sg31
I01
sg32
I00
sg42
F1.27011e-10
sbsbag0
(g693
g2
Ntp2752
Rp2753
(dp2754
g25
I00
sg31
I01
sg32
I00
sg17
(lp2755
g2637
ag2638
ag2639
ag2640
ag2641
asg26
Nsg2637
g0
(g52
g2
Ntp2756
Rp2757
(dp2758
g25
I00
sg31
I01
sg32
I00
sg42
I0
sbsg2638
g0
(g38
g2
Ntp2759
Rp2760
(dp2761
g25
I00
sg31
I01
sg32
I00
sg42
F0.0
sbsg2639
g0
(g38
g2
Ntp2762
Rp2763
(dp2764
g25
I00
sg31
I01
sg32
I00
sg42
F1.0
sbsg2640
g0
(g38
g2
Ntp2765
Rp2766
(dp2767
g25
I00
sg31
I01
sg32
I00
sg42
F0.0
sbsg2641
g0
(g38
g2
Ntp2768
Rp2769
(dp2770
g25
I00
sg31
I01
sg32
I00
sg42
F0.0
sbsbatp2771
Rp2772
(dp2773
g25
I00
sg31
I01
sg32
I00
sg451
I1
sbsg59
V/cvmfs/cms.cern.ch/el8_amd64_gcc11/cms/cmssw/CMSSW_13_2_10/src/CalibCalorimetry/HcalPlugins/python/Hcal_Conditions_forGlobalTag_cff.py
p2774
sg61
I16
sg62
g2039
sbssV_Process__esproducers
p2775
(dp2776
VCSCGeometryESModule
p2777
g0
(cFWCore.ParameterSet.Modules
ESProducer
p2778
g2
Ntp2779
Rp2780
(dp2781
g15
g2777
sg17
(lp2782
VfromDDD
p2783
aVfromDD4hep
p2784
aValignmentsLabel
p2785
ag1874
aVuseRealWireGeometry
p2786
aVuseOnlyWiresInME1a
p2787
aVuseGangedStripsInME1a
p2788
aVuseCentreTIOffsets
p2789
aVapplyAlignment
p2790
aVdebugV
p2791
asg25
I00
sg26
Nsg2783
g0
(g73
g2
Ntp2792
Rp2793
(dp2794
g25
I00
sg31
I01
sg32
I00
sg42
I00
sbsg32
I00
sg2784
g0
(g73
g2
Ntp2795
Rp2796
(dp2797
g25
I00
sg31
I01
sg32
I00
sg42
I00
sbsg2785
g0
(g121
g2
Ntp2798
Rp2799
(dp2800
g25
I00
sg31
I01
sg32
I00
sg42
g36
sbsg1874
g0
(g121
g2
Ntp2801
Rp2802
(dp2803
g25
I00
sg31
I01
sg32
I00
sg42
g36
sbsg2786
g0
(g73
g2
Ntp2804
Rp2805
(dp2806
g25
I00
sg31
I01
sg32
I00
sg42
I01
sbsg2787
g0
(g73
g2
Ntp2807
Rp2808
(dp2809
g25
I00
sg31
I01
sg32
I00
sg42
I00
sbsg2788
g0
(g73
g2
Ntp2810
Rp2811
(dp2812
g25
I00
sg31
I01
sg32
I00
sg42
I01
sbsg2789
g0
(g73
g2
Ntp2813
Rp2814
(dp2815
g25
I00
sg31
I01
sg32
I00
sg42
I00
sbsg2790
g0
(g73
g2
Ntp2816
Rp2817
(dp2818
g25
I00
sg31
I01
sg32
I00
sg42
I01
sbsg2791
g0
(g73
g2
Ntp2819
Rp2820
(dp2821
g25
I00
sg31
I00
sg32
I00
sg42
I00
sbsg59
g660
sg61
I55
sg62
g2777
sbsVCaloGeometryBuilder
p2822
g0
(g2778
g2
Ntp2823
Rp2824
(dp2825
g15
g2822
sg17
(lp2826
VSelectedCalos
p2827
asg25
I00
sg26
Nsg2827
g0
(g105
g47
(lp2828
VHCAL
p2829
aVZDC
p2830
aVCASTOR
p2831
aVEcalBarrel
p2832
aVEcalEndcap
p2833
aVEcalPreshower
p2834
aVTOWER
p2835
atp2836
Rp2837
(dp2838
g25
I00
sg31
I01
sg32
I00
sg451
I1
sbsg32
I00
sg59
g660
sg61
I55
sg62
g2822
sbsVCaloTopologyBuilder
p2839
g0
(g2778
g2
Ntp2840
Rp2841
(dp2842
g15
g2839
sg17
(lp2843
sg25
I00
sg26
Nsg32
I00
sg59
g660
sg61
I55
sg62
g2839
sbsVCaloTowerGeometryFromDBEP
p2844
g0
(g2778
g2
Ntp2845
Rp2846
(dp2847
g15
g2844
sg17
(lp2848
g2790
asg25
I00
sg26
Nsg2790
g0
(g73
g2
Ntp2849
Rp2850
(dp2851
g25
I00
sg31
I01
sg32
I00
sg42
I00
sbsg32
I00
sg59
g660
sg61
I55
sg62
g2844
sbsVCaloTowerTopologyEP
p2852
g0
(g2778
g2
Ntp2853
Rp2854
(dp2855
g15
g2852
sg17
(lp2856
sg25
I00
sg26
Nsg32
I00
sg59
g660
sg61
I55
sg62
g2852
sbsVCastorGeometryFromDBEP
p2857
g0
(g2778
g2
Ntp2858
Rp2859
(dp2860
g15
g2857
sg17
(lp2861
g2790
asg25
I00
sg26
Nsg2790
g0
(g73
g2
Ntp2862
Rp2863
(dp2864
g25
I00
sg31
I01
sg32
I00
sg42
I00
sbsg32
I00
sg59
g660
sg61
I55
sg62
g2857
sbsVDTGeometryESModule
p2865
g0
(g2778
g2
Ntp2866
Rp2867
(dp2868
g15
g2865
sg17
(lp2869
g2783
ag2784
aVDDDetector
p2870
ag2785
ag1874
aVattribute
p2871
aVvalue
p2872
ag2790
asg25
I00
sg26
Nsg2783
g0
(g73
g2
Ntp2873
Rp2874
(dp2875
g25
I00
sg31
I01
sg32
I01
sg42
I00
sbsg32
I01
sg2784
g0
(g73
g2
Ntp2876
Rp2877
(dp2878
g25
I00
sg31
I01
sg32
I00
sg42
I00
sbsg2870
g0
(cFWCore.ParameterSet.Types
ESInputTag
p2879
g2
Ntp2880
Rp2881
(dp2882
g25
I00
sg31
I01
sg32
I00
sV_ESInputTag__moduleLabel
p2883
g36
sV_ESInputTag__data
p2884
g36
sbsg2785
g0
(g121
g2
Ntp2885
Rp2886
(dp2887
g25
I00
sg31
I01
sg32
I00
sg42
g36
sbsg1874
g0
(g121
g2
Ntp2888
Rp2889
(dp2890
g25
I00
sg31
I01
sg32
I00
sg42
g36
sbsg2871
g0
(g121
g2
Ntp2891
Rp2892
(dp2893
g25
I00
sg31
I01
sg32
I00
sg42
VMuStructure
p2894
sbsg2872
g0
(g121
g2
Ntp2895
Rp2896
(dp2897
g25
I00
sg31
I01
sg32
I00
sg42
VMuonBarrelDT
p2898
sbsg2790
g0
(g73
g2
Ntp2899
Rp2900
(dp2901
g25
I00
sg31
I01
sg32
I00
sg42
I01
sbsg59
g660
sg61
I55
sg62
g2865
sbsVEcalBarrelGeometryFromDBEP
p2902
g0
(g2778
g2
Ntp2903
Rp2904
(dp2905
g15
g2902
sg17
(lp2906
g2790
asg25
I00
sg26
Nsg2790
g0
(g73
g2
Ntp2907
Rp2908
(dp2909
g25
I00
sg31
I01
sg32
I01
sg42
I01
sbsg32
I01
sg59
g660
sg61
I55
sg62
g2902
sbsVEcalElectronicsMappingBuilder
p2910
g0
(g2778
g2
Ntp2911
Rp2912
(dp2913
g15
g2910
sg17
(lp2914
sg25
I00
sg26
Nsg32
I00
sg59
g660
sg61
I55
sg62
g2910
sbsVEcalEndcapGeometryFromDBEP
p2915
g0
(g2778
g2
Ntp2916
Rp2917
(dp2918
g15
g2915
sg17
(lp2919
g2790
asg25
I00
sg26
Nsg2790
g0
(g73
g2
Ntp2920
Rp2921
(dp2922
g25
I00
sg31
I01
sg32
I01
sg42
I01
sbsg32
I01
sg59
g660
sg61
I55
sg62
g2915
sbsVEcalPreshowerGeometryFromDBEP
p2923
g0
(g2778
g2
Ntp2924
Rp2925
(dp2926
g15
g2923
sg17
(lp2927
g2790
asg25
I00
sg26
Nsg2790
g0
(g73
g2
Ntp2928
Rp2929
(dp2930
g25
I00
sg31
I01
sg32
I01
sg42
I01
sbsg32
I01
sg59
g660
sg61
I55
sg62
g2923
sbsVEcalTrigTowerConstituentsMapBuilder
p2931
g0
(g2778
g2
Ntp2932
Rp2933
(dp2934
g15
g2931
sg17
(lp2935
VMapFile
p2936
asg25
I00
sg26
Nsg2936
g0
(g121
g2
Ntp2937
Rp2938
(dp2939
g25
I00
sg31
I00
sg32
I00
sg42
VGeometry/EcalMapping/data/EndCap_TTMap.txt
p2940
sbsg32
I00
sg59
g660
sg61
I55
sg62
g2931
sbsVGlobalTrackingGeometryESProducer
p2941
g0
(g2778
g2
Ntp2942
Rp2943
(dp2944
g15
g2941
sg17
(lp2945
sg25
I00
sg26
Nsg32
I00
sg59
g660
sg61
I55
sg62
g2941
sbsVHcalAlignmentEP
p2946
g0
(g2778
g2
Ntp2947
Rp2948
(dp2949
g15
g2946
sg17
(lp2950
sg25
I00
sg26
Nsg32
I00
sg59
g660
sg61
I55
sg62
g2946
sbsVHcalGeometryFromDBEP
p2951
g0
(g2778
g2
Ntp2952
Rp2953
(dp2954
g15
g2951
sg17
(lp2955
g2790
asg25
I00
sg26
Nsg2790
g0
(g73
g2
Ntp2956
Rp2957
(dp2958
g25
I00
sg31
I01
sg32
I01
sg42
I01
sbsg32
I01
sg59
g660
sg61
I55
sg62
g2951
sbsVMuonDetLayerGeometryESProducer
p2959
g0
(g2778
g2
Ntp2960
Rp2961
(dp2962
g15
g2959
sg17
(lp2963
sg25
I00
sg26
Nsg32
I00
sg59
g660
sg61
I55
sg62
g2959
sbsVRPCGeometryESModule
p2964
g0
(g2778
g2
Ntp2965
Rp2966
(dp2967
g15
g2964
sg17
(lp2968
g2783
ag2784
asg25
I00
sg26
Nsg2783
g0
(g73
g2
Ntp2969
Rp2970
(dp2971
g25
I00
sg31
I00
sg32
I00
sg42
I00
sbsg32
I00
sg2784
g0
(g73
g2
Ntp2972
Rp2973
(dp2974
g25
I00
sg31
I00
sg32
I00
sg42
I00
sbsg59
g660
sg61
I55
sg62
g2964
sbsVTrackerRecoGeometryESProducer
p2975
g0
(g2778
g2
Ntp2976
Rp2977
(dp2978
g15
g2975
sg17
(lp2979
VusePhase2Stacks
p2980
asg25
I00
sg26
Nsg2980
g0
(g73
g2
Ntp2981
Rp2982
(dp2983
g25
I00
sg31
I01
sg32
I00
sg42
I00
sbsg32
I00
sg59
g660
sg61
I55
sg62
g2975
sbsVZdcGeometryFromDBEP
p2984
g0
(g2778
g2
Ntp2985
Rp2986
(dp2987
g15
g2984
sg17
(lp2988
g2790
asg25
I00
sg26
Nsg2790
g0
(g73
g2
Ntp2989
Rp2990
(dp2991
g25
I00
sg31
I01
sg32
I00
sg42
I00
sbsg32
I00
sg59
g660
sg61
I55
sg62
g2984
sbsVfakeForIdealAlignment
p2992
g0
(g2778
g2
Ntp2993
Rp2994
(dp2995
g15
VFakeAlignmentProducer
p2996
sg17
(lp2997
g1874
asg25
I00
sg26
Nsg1874
g0
(g121
g2
Ntp2998
Rp2999
(dp3000
g25
I00
sg31
I01
sg32
I01
sg42
VfakeForIdeal
p3001
sbsg32
I01
sg59
V/cvmfs/cms.cern.ch/el8_amd64_gcc11/cms/cmssw/CMSSW_13_2_10/src/Alignment/CommonAlignmentProducer/python/fakeForIdealAlignmentProducer_cfi.py
p3002
sg61
I5
sg62
g2992
sbsVhcalDDDRecConstants
p3003
g0
(g2778
g2
Ntp3004
Rp3005
(dp3006
g15
VHcalDDDRecConstantsESModule
p3007
sg17
(lp3008
g1874
asg25
I00
sg26
Nsg1874
g0
(g121
g2
Ntp3009
Rp3010
(dp3011
g25
I00
sg31
I01
sg32
I00
sg42
g36
sbsg32
I00
sg59
g660
sg61
I55
sg62
g3003
sbsVhcalDDDSimConstants
p3012
g0
(g2778
g2
Ntp3013
Rp3014
(dp3015
g15
VHcalDDDSimConstantsESModule
p3016
sg17
(lp3017
g1874
asg25
I00
sg26
Nsg1874
g0
(g121
g2
Ntp3018
Rp3019
(dp3020
g25
I00
sg31
I01
sg32
I00
sg42
g36
sbsg32
I00
sg59
g660
sg61
I55
sg62
g3012
sbsVhcalTopologyIdeal
p3021
g0
(g2778
g2
Ntp3022
Rp3023
(dp3024
g15
VHcalTopologyIdealEP
p3025
sg17
(lp3026
VExclude
p3027
aVMergePosition
p3028
ag1874
asg25
I00
sg26
Nsg3027
g0
(g121
g2
Ntp3029
Rp3030
(dp3031
g25
I00
sg31
I00
sg32
I00
sg42
g36
sbsg32
I00
sg3028
g0
(g73
g2
Ntp3032
Rp3033
(dp3034
g25
I00
sg31
I00
sg32
I00
sg42
I00
sbsg1874
g0
(g121
g2
Ntp3035
Rp3036
(dp3037
g25
I00
sg31
I01
sg32
I00
sg42
g36
sbsg59
g660
sg61
I55
sg62
g3021
sbsVidealForDigiCSCGeometry
p3038
g0
(g2778
g2
Ntp3039
Rp3040
(dp3041
g15
g2777
sg17
(lp3042
g2783
ag2784
ag2785
ag1874
ag2786
ag2787
ag2788
ag2789
ag2790
ag2791
asg25
I00
sg26
Nsg2783
g0
(g73
g2
Ntp3043
Rp3044
(dp3045
g25
I00
sg31
I01
sg32
I00
sg42
I00
sbsg32
I01
sg2784
g0
(g73
g2
Ntp3046
Rp3047
(dp3048
g25
I00
sg31
I01
sg32
I00
sg42
I00
sbsg2785
g0
(g121
g2
Ntp3049
Rp3050
(dp3051
g25
I00
sg31
I01
sg32
I01
sg42
g3001
sbsg1874
g0
(g121
g2
Ntp3052
Rp3053
(dp3054
g25
I00
sg31
I01
sg32
I01
sg42
VidealForDigi
p3055
sbsg2786
g0
(g73
g2
Ntp3056
Rp3057
(dp3058
g25
I00
sg31
I01
sg32
I00
sg42
I01
sbsg2787
g0
(g73
g2
Ntp3059
Rp3060
(dp3061
g25
I00
sg31
I01
sg32
I00
sg42
I00
sbsg2788
g0
(g73
g2
Ntp3062
Rp3063
(dp3064
g25
I00
sg31
I01
sg32
I00
sg42
I01
sbsg2789
g0
(g73
g2
Ntp3065
Rp3066
(dp3067
g25
I00
sg31
I01
sg32
I00
sg42
I00
sbsg2790
g0
(g73
g2
Ntp3068
Rp3069
(dp3070
g25
I00
sg31
I01
sg32
I01
sg42
I00
sbsg2791
g0
(g73
g2
Ntp3071
Rp3072
(dp3073
g25
I00
sg31
I00
sg32
I00
sg42
I00
sbsg59
V/cvmfs/cms.cern.ch/el8_amd64_gcc11/cms/cmssw/CMSSW_13_2_10/src/Geometry/CSCGeometryBuilder/python/idealForDigiCscGeometryDB_cff.py
p3074
sg61
I8
sg62
g3038
sbsVidealForDigiDTGeometry
p3075
g0
(g2778
g2
Ntp3076
Rp3077
(dp3078
g15
g2865
sg17
(lp3079
g2783
ag2784
ag2870
ag2785
ag1874
ag2871
ag2872
ag2790
asg25
I00
sg26
Nsg2783
g0
(g73
g2
Ntp3080
Rp3081
(dp3082
g25
I00
sg31
I01
sg32
I01
sg42
I00
sbsg32
I01
sg2784
g0
(g73
g2
Ntp3083
Rp3084
(dp3085
g25
I00
sg31
I01
sg32
I00
sg42
I00
sbsg2870
g0
(g2879
g2
Ntp3086
Rp3087
(dp3088
g25
I00
sg31
I01
sg32
I00
sg2883
g36
sg2884
g36
sbsg2785
g0
(g121
g2
Ntp3089
Rp3090
(dp3091
g25
I00
sg31
I01
sg32
I01
sg42
g3001
sbsg1874
g0
(g121
g2
Ntp3092
Rp3093
(dp3094
g25
I00
sg31
I01
sg32
I01
sg42
g3055
sbsg2871
g0
(g121
g2
Ntp3095
Rp3096
(dp3097
g25
I00
sg31
I01
sg32
I00
sg42
g2894
sbsg2872
g0
(g121
g2
Ntp3098
Rp3099
(dp3100
g25
I00
sg31
I01
sg32
I00
sg42
g2898
sbsg2790
g0
(g73
g2
Ntp3101
Rp3102
(dp3103
g25
I00
sg31
I01
sg32
I01
sg42
I00
sbsg59
V/cvmfs/cms.cern.ch/el8_amd64_gcc11/cms/cmssw/CMSSW_13_2_10/src/Geometry/DTGeometryBuilder/python/idealForDigiDtGeometryDB_cff.py
p3104
sg61
I8
sg62
g3075
sbsVidealForDigiTrackerGeometry
p3105
g0
(g2778
g2
Ntp3106
Rp3107
(dp3108
g15
VTrackerDigiGeometryESModule
p3109
sg17
(lp3110
g1874
ag2783
ag2790
ag2785
asg25
I00
sg26
Nsg1874
g0
(g121
g2
Ntp3111
Rp3112
(dp3113
g25
I00
sg31
I01
sg32
I01
sg42
g3055
sbsg32
I01
sg2783
g0
(g73
g2
Ntp3114
Rp3115
(dp3116
g25
I00
sg31
I01
sg32
I00
sg42
I00
sbsg2790
g0
(g73
g2
Ntp3117
Rp3118
(dp3119
g25
I00
sg31
I01
sg32
I01
sg42
I00
sbsg2785
g0
(g121
g2
Ntp3120
Rp3121
(dp3122
g25
I00
sg31
I01
sg32
I01
sg42
g3001
sbsg59
V/cvmfs/cms.cern.ch/el8_amd64_gcc11/cms/cmssw/CMSSW_13_2_10/src/Geometry/TrackerGeometryBuilder/python/idealForDigiTrackerGeometryDB_cff.py
p3123
sg61
I8
sg62
g3105
sbsVmuonGeometryConstants
p3124
g0
(g2778
g2
Ntp3125
Rp3126
(dp3127
g15
VMuonGeometryConstantsESModule
p3128
sg17
(lp3129
g2784
ag1874
asg25
I00
sg26
Nsg2784
g0
(g73
g2
Ntp3130
Rp3131
(dp3132
g25
I00
sg31
I01
sg32
I00
sg42
I00
sbsg32
I00
sg1874
g0
(g121
g2
Ntp3133
Rp3134
(dp3135
g25
I00
sg31
I01
sg32
I00
sg42
g36
sbsg59
g660
sg61
I55
sg62
g3124
sbsVtrackerGeometryDB
p3136
g0
(g2778
g2
Ntp3137
Rp3138
(dp3139
g15
g3109
sg17
(lp3140
g1874
ag2783
ag2790
ag2785
asg25
I00
sg26
Nsg1874
g0
(g121
g2
Ntp3141
Rp3142
(dp3143
g25
I00
sg31
I01
sg32
I00
sg42
g36
sbsg32
I00
sg2783
g0
(g73
g2
Ntp3144
Rp3145
(dp3146
g25
I00
sg31
I01
sg32
I00
sg42
I00
sbsg2790
g0
(g73
g2
Ntp3147
Rp3148
(dp3149
g25
I00
sg31
I01
sg32
I00
sg42
I01
sbsg2785
g0
(g121
g2
Ntp3150
Rp3151
(dp3152
g25
I00
sg31
I01
sg32
I00
sg42
g36
sbsg59
g660
sg61
I55
sg62
g3136
sbsVtrackerNumberingGeometryDB
p3153
g0
(g2778
g2
Ntp3154
Rp3155
(dp3156
g15
VTrackerGeometricDetESModule
p3157
sg17
(lp3158
g2783
ag2784
ag1874
asg25
I00
sg26
Nsg2783
g0
(g73
g2
Ntp3159
Rp3160
(dp3161
g25
I00
sg31
I01
sg32
I00
sg42
I00
sbsg32
I00
sg2784
g0
(g73
g2
Ntp3162
Rp3163
(dp3164
g25
I00
sg31
I01
sg32
I00
sg42
I00
sbsg1874
g0
(g121
g2
Ntp3165
Rp3166
(dp3167
g25
I00
sg31
I01
sg32
I00
sg42
g36
sbsg59
g660
sg61
I55
sg62
g3153
sbsVtrackerTopology
p3168
g0
(g2778
g2
Ntp3169
Rp3170
(dp3171
g15
VTrackerTopologyEP
p3172
sg17
(lp3173
g1874
asg25
I00
sg26
Nsg1874
g0
(g121
g2
Ntp3174
Rp3175
(dp3176
g25
I00
sg31
I01
sg32
I00
sg42
g36
sbsg32
I00
sg59
g660
sg61
I55
sg62
g3168
sbsVMuonNumberingInitialization
p3177
g0
(g2778
g2
Ntp3178
Rp3179
(dp3180
g15
g3177
sg17
(lp3181
sg25
I00
sg26
Nsg32
I00
sg59
g660
sg61
I55
sg62
g3177
sbsVXMLFromDBSource
p3182
g0
(g2778
g2
Ntp3183
Rp3184
(dp3185
g15
VXMLIdealGeometryESProducer
p3186
sg17
(lp3187
VrootDDName
p3188
ag1828
asg25
I00
sg26
Nsg3188
g0
(g121
g2
Ntp3189
Rp3190
(dp3191
g25
I00
sg31
I01
sg32
I00
sg42
Vcms:OCMS
p3192
sbsg32
I00
sg1828
g0
(g121
g2
Ntp3193
Rp3194
(dp3195
g25
I00
sg31
I01
sg32
I00
sg42
VExtended
p3196
sbsg59
g660
sg61
I55
sg62
g3182
sbsVcaloSimulationParameters
p3197
g0
(g2778
g2
Ntp3198
Rp3199
(dp3200
g15
VCaloSimParametersESModule
p3201
sg17
(lp3202
g2784
ag1874
asg25
I00
sg26
Nsg2784
g0
(g73
g2
Ntp3203
Rp3204
(dp3205
g25
I00
sg31
I01
sg32
I00
sg42
I00
sbsg32
I00
sg1874
g0
(g121
g2
Ntp3206
Rp3207
(dp3208
g25
I00
sg31
I01
sg32
I00
sg42
g36
sbsg59
g660
sg61
I55
sg62
g3197
sbsVecalSimulationParametersEB
p3209
g0
(g2778
g2
Ntp3210
Rp3211
(dp3212
g15
VEcalSimParametersESModule
p3213
sg17
(lp3214
g2784
aVname
p3215
ag1874
asg25
I00
sg26
Nsg2784
g0
(g73
g2
Ntp3216
Rp3217
(dp3218
g25
I00
sg31
I01
sg32
I00
sg42
I00
sbsg32
I00
sg3215
g0
(g121
g2
Ntp3219
Rp3220
(dp3221
g25
I00
sg31
I01
sg32
I00
sg42
VEcalHitsEB
p3222
sbsg1874
g0
(g121
g2
Ntp3223
Rp3224
(dp3225
g25
I00
sg31
I01
sg32
I00
sg42
g36
sbsg59
g660
sg61
I55
sg62
g3209
sbsVecalSimulationParametersEE
p3226
g0
(g2778
g2
Ntp3227
Rp3228
(dp3229
g15
g3213
sg17
(lp3230
g2784
ag3215
ag1874
asg25
I00
sg26
Nsg2784
g0
(g73
g2
Ntp3231
Rp3232
(dp3233
g25
I00
sg31
I01
sg32
I00
sg42
I00
sbsg32
I00
sg3215
g0
(g121
g2
Ntp3234
Rp3235
(dp3236
g25
I00
sg31
I01
sg32
I01
sg42
VEcalHitsEE
p3237
sbsg1874
g0
(g121
g2
Ntp3238
Rp3239
(dp3240
g25
I00
sg31
I01
sg32
I00
sg42
g36
sbsg59
V/cvmfs/cms.cern.ch/el8_amd64_gcc11/cms/cmssw/CMSSW_13_2_10/src/Geometry/EcalCommonData/python/ecalSimulationParameters_cff.py
p3241
sg61
I11
sg62
g3226
sbsVecalSimulationParametersES
p3242
g0
(g2778
g2
Ntp3243
Rp3244
(dp3245
g15
g3213
sg17
(lp3246
g2784
ag3215
ag1874
asg25
I00
sg26
Nsg2784
g0
(g73
g2
Ntp3247
Rp3248
(dp3249
g25
I00
sg31
I01
sg32
I00
sg42
I00
sbsg32
I00
sg3215
g0
(g121
g2
Ntp3250
Rp3251
(dp3252
g25
I00
sg31
I01
sg32
I01
sg42
VEcalHitsES
p3253
sbsg1874
g0
(g121
g2
Ntp3254
Rp3255
(dp3256
g25
I00
sg31
I01
sg32
I00
sg42
g36
sbsg59
g3241
sg61
I14
sg62
g3242
sbsVhcalSimulationConstants
p3257
g0
(g2778
g2
Ntp3258
Rp3259
(dp3260
g15
VHcalSimulationConstantsESModule
p3261
sg17
(lp3262
g1874
asg25
I00
sg26
Nsg1874
g0
(g121
g2
Ntp3263
Rp3264
(dp3265
g25
I00
sg31
I01
sg32
I00
sg42
g36
sbsg32
I00
sg59
g660
sg61
I55
sg62
g3257
sbsVhcalSimulationParameters
p3266
g0
(g2778
g2
Ntp3267
Rp3268
(dp3269
g15
VHcalSimParametersESModule
p3270
sg17
(lp3271
g2784
ag1874
asg25
I00
sg26
Nsg2784
g0
(g73
g2
Ntp3272
Rp3273
(dp3274
g25
I00
sg31
I01
sg32
I00
sg42
I00
sbsg32
I00
sg1874
g0
(g121
g2
Ntp3275
Rp3276
(dp3277
g25
I00
sg31
I01
sg32
I00
sg42
g36
sbsg59
g660
sg61
I55
sg62
g3266
sbsVmuonOffsetESProducer
p3278
g0
(g2778
g2
Ntp3279
Rp3280
(dp3281
g15
VMuonOffsetESProducer
p3282
sg17
(lp3283
g2784
aVnames
p3284
ag1874
asg25
I00
sg26
Nsg2784
g0
(g73
g2
Ntp3285
Rp3286
(dp3287
g25
I00
sg31
I01
sg32
I00
sg42
I00
sbsg32
I00
sg3284
g0
(g105
g47
(lp3288
VMuonCommonNumbering
p3289
aVMuonBarrel
p3290
aVMuonEndcap
p3291
aVMuonBarrelWheels
p3292
aVMuonBarrelStation1
p3293
aVMuonBarrelStation2
p3294
aVMuonBarrelStation3
p3295
aVMuonBarrelStation4
p3296
aVMuonBarrelSuperLayer
p3297
aVMuonBarrelLayer
p3298
aVMuonBarrelWire
p3299
aVMuonRpcPlane1I
p3300
aVMuonRpcPlane1O
p3301
aVMuonRpcPlane2I
p3302
aVMuonRpcPlane2O
p3303
aVMuonRpcPlane3S
p3304
aVMuonRpcPlane4
p3305
aVMuonRpcChamberLeft
p3306
aVMuonRpcChamberMiddle
p3307
aVMuonRpcChamberRight
p3308
aVMuonRpcEndcap1
p3309
aVMuonRpcEndcap2
p3310
aVMuonRpcEndcap3
p3311
aVMuonRpcEndcap4
p3312
aVMuonRpcEndcapSector
p3313
aVMuonRpcEndcapChamberB1
p3314
aVMuonRpcEndcapChamberB2
p3315
aVMuonRpcEndcapChamberB3
p3316
aVMuonRpcEndcapChamberC1
p3317
aVMuonRpcEndcapChamberC2
p3318
aVMuonRpcEndcapChamberC3
p3319
aVMuonRpcEndcapChamberE1
p3320
aVMuonRpcEndcapChamberE2
p3321
aVMuonRpcEndcapChamberE3
p3322
aVMuonRpcEndcapChamberF1
p3323
aVMuonRpcEndcapChamberF2
p3324
aVMuonRpcEndcapChamberF3
p3325
aVMuonEndcapStation1
p3326
aVMuonEndcapStation2
p3327
aVMuonEndcapStation3
p3328
aVMuonEndcapStation4
p3329
aVMuonEndcapSubrings
p3330
aVMuonEndcapSectors
p3331
aVMuonEndcapLayers
p3332
aVMuonEndcapRing1
p3333
aVMuonEndcapRing2
p3334
aVMuonEndcapRing3
p3335
aVMuonEndcapRingA
p3336
aVMuonGEMEndcap
p3337
aVMuonGEMSector
p3338
aVMuonGEMChamber
p3339
atp3340
Rp3341
(dp3342
g25
I00
sg31
I01
sg32
I00
sg451
I1
sbsg1874
g0
(g121
g2
Ntp3343
Rp3344
(dp3345
g25
I00
sg31
I01
sg32
I00
sg42
g36
sbsg59
g660
sg61
I55
sg62
g3278
sbsVParabolicParametrizedMagneticFieldProducer
p3346
g0
(g2778
g2
Ntp3347
Rp3348
(dp3349
g15
VAutoParametrizedMagneticFieldProducer
p3350
sg17
(lp3351
Vversion
p3352
ag1828
aVvalueOverride
p3353
asg25
I00
sg26
Nsg3352
g0
(g121
g2
Ntp3354
Rp3355
(dp3356
g25
I00
sg31
I01
sg32
I00
sg42
VParabolic
p3357
sbsg32
I01
sg1828
g0
(g121
g2
Ntp3358
Rp3359
(dp3360
g25
I00
sg31
I00
sg32
I01
sg42
VParabolicMf
p3361
sbsg3353
g0
(g52
g2
Ntp3362
Rp3363
(dp3364
g25
I00
sg31
I01
sg32
I01
sg42
I18268
sbsg59
g660
sg61
I55
sg62
g3346
sbsVVolumeBasedMagneticFieldESProducer
p3365
g0
(g2778
g2
Ntp3366
Rp3367
(dp3368
g15
VVolumeBasedMagneticFieldESProducerFromDB
p3369
sg17
(lp3370
g1828
aVdebugBuilder
p3371
ag3353
asg25
I00
sg26
Nsg1828
g0
(g121
g2
Ntp3372
Rp3373
(dp3374
g25
I00
sg31
I00
sg32
I00
sg42
g36
sbsg32
I01
sg3371
g0
(g73
g2
Ntp3375
Rp3376
(dp3377
g25
I00
sg31
I00
sg32
I00
sg42
I00
sbsg3353
g0
(g52
g2
Ntp3378
Rp3379
(dp3380
g25
I00
sg31
I01
sg32
I01
sg42
I18268
sbsg59
g660
sg61
I55
sg62
g3365
sbsVCastorDbProducer
p3381
g0
(g2778
g2
Ntp3382
Rp3383
(dp3384
g15
g3381
sg17
(lp3385
g1874
asg25
I00
sg26
Nsg1874
g0
(g121
g2
Ntp3386
Rp3387
(dp3388
g25
I00
sg31
I01
sg32
I00
sg42
g36
sbsg32
I00
sg59
g660
sg61
I55
sg62
g3381
sbsVEcalLaserCorrectionService
p3389
g0
(g2778
g2
Ntp3390
Rp3391
(dp3392
g15
g3389
sg17
(lp3393
VmaxExtrapolationTimeInSec
p3394
asg25
I00
sg26
Nsg3394
g0
(g581
g2
Ntp3395
Rp3396
(dp3397
g25
I00
sg31
I01
sg32
I00
sg42
I0
sbsg32
I00
sg59
g660
sg61
I55
sg62
g3389
sbsVEcalLaserCorrectionServiceMC
p3398
g0
(g2778
g2
Ntp3399
Rp3400
(dp3401
g15
g3398
sg17
(lp3402
g1874
asg25
I00
sg26
Nsg1874
g0
(g121
g2
Ntp3403
Rp3404
(dp3405
g25
I00
sg31
I01
sg32
I00
sg42
g36
sbsg32
I00
sg59
g660
sg61
I55
sg62
g3398
sbsVSiStripRecHitMatcherESProducer
p3406
g0
(g2778
g2
Ntp3407
Rp3408
(dp3409
g15
g3406
sg17
(lp3410
VComponentName
p3411
aVNSigmaInside
p3412
aVPreFilter
p3413
asg25
I00
sg26
Nsg3411
g0
(g121
g2
Ntp3414
Rp3415
(dp3416
g25
I00
sg31
I01
sg32
I00
sg42
VStandardMatcher
p3417
sbsg32
I00
sg3412
g0
(g38
g2
Ntp3418
Rp3419
(dp3420
g25
I00
sg31
I01
sg32
I00
sg42
F3.0
sbsg3413
g0
(g73
g2
Ntp3421
Rp3422
(dp3423
g25
I00
sg31
I01
sg32
I00
sg42
I00
sbsg59
g660
sg61
I55
sg62
g3406
sbsVStripCPEfromTrackAngleESProducer
p3424
g0
(g2778
g2
Ntp3425
Rp3426
(dp3427
g15
VStripCPEESProducer
p3428
sg17
(lp3429
g3411
aVComponentType
p3430
aVparameters
p3431
asg25
I00
sg26
Nsg3411
g0
(g121
g2
Ntp3432
Rp3433
(dp3434
g25
I00
sg31
I01
sg32
I01
sg42
VStripCPEfromTrackAngle
p3435
sbsg32
I00
sg3430
g0
(g121
g2
Ntp3436
Rp3437
(dp3438
g25
I00
sg31
I01
sg32
I01
sg42
g3435
sbsg3431
g0
(g693
g2
Ntp3439
Rp3440
(dp3441
g25
I00
sg31
I01
sg32
I00
sg17
(lp3442
VmLC_P0
p3443
aVmLC_P1
p3444
aVmLC_P2
p3445
aVmTIB_P0
p3446
aVmTIB_P1
p3447
aVmTOB_P0
p3448
aVmTOB_P1
p3449
aVmTID_P0
p3450
aVmTID_P1
p3451
aVmTEC_P0
p3452
aVmTEC_P1
p3453
aVuseLegacyError
p3454
aVmaxChgOneMIP
p3455
asg26
Nsg3443
g0
(g38
g2
Ntp3456
Rp3457
(dp3458
g25
I00
sg31
I01
sg32
I00
sg42
F-0.326
sbsg3444
g0
(g38
g2
Ntp3459
Rp3460
(dp3461
g25
I00
sg31
I01
sg32
I00
sg42
F0.618
sbsg3445
g0
(g38
g2
Ntp3462
Rp3463
(dp3464
g25
I00
sg31
I01
sg32
I00
sg42
F0.3
sbsg3446
g0
(g38
g2
Ntp3465
Rp3466
(dp3467
g25
I00
sg31
I01
sg32
I00
sg42
F-0.742
sbsg3447
g0
(g38
g2
Ntp3468
Rp3469
(dp3470
g25
I00
sg31
I01
sg32
I00
sg42
F0.202
sbsg3448
g0
(g38
g2
Ntp3471
Rp3472
(dp3473
g25
I00
sg31
I01
sg32
I00
sg42
F-1.026
sbsg3449
g0
(g38
g2
Ntp3474
Rp3475
(dp3476
g25
I00
sg31
I01
sg32
I00
sg42
F0.253
sbsg3450
g0
(g38
g2
Ntp3477
Rp3478
(dp3479
g25
I00
sg31
I01
sg32
I00
sg42
F-1.427
sbsg3451
g0
(g38
g2
Ntp3480
Rp3481
(dp3482
g25
I00
sg31
I01
sg32
I00
sg42
F0.433
sbsg3452
g0
(g38
g2
Ntp3483
Rp3484
(dp3485
g25
I00
sg31
I01
sg32
I00
sg42
F-1.885
sbsg3453
g0
(g38
g2
Ntp3486
Rp3487
(dp3488
g25
I00
sg31
I01
sg32
I00
sg42
F0.471
sbsg3454
g0
(g73
g2
Ntp3489
Rp3490
(dp3491
g25
I00
sg31
I01
sg32
I00
sg42
I00
sbsg3455
g0
(g38
g2
Ntp3492
Rp3493
(dp3494
g25
I00
sg31
I01
sg32
I00
sg42
F6000.0
sbsbsg59
V/cvmfs/cms.cern.ch/el8_amd64_gcc11/cms/cmssw/CMSSW_13_2_10/src/RecoLocalTracker/SiStripRecHitConverter/python/StripCPEfromTrackAngle_cfi.py
p3495
sg61
I4
sg62
g3424
sbsVctppsBeamParametersFromLHCInfoESSource
p3496
g0
(g2778
g2
Ntp3497
Rp3498
(dp3499
g15
VCTPPSBeamParametersFromLHCInfoESSource
p3500
sg17
(lp3501
VlhcInfoLabel
p3502
aVbeamDivX45
p3503
aVbeamDivY45
p3504
aVbeamDivX56
p3505
aVbeamDivY56
p3506
aVvtxOffsetX45
p3507
aVvtxOffsetY45
p3508
aVvtxOffsetZ45
p3509
aVvtxOffsetX56
p3510
aVvtxOffsetY56
p3511
aVvtxOffsetZ56
p3512
aVvtxStddevX
p3513
aVvtxStddevY
p3514
aVvtxStddevZ
p3515
ag1874
asg25
I00
sg26
Nsg3502
g0
(g121
g2
Ntp3516
Rp3517
(dp3518
g25
I00
sg31
I01
sg32
I00
sg42
g36
sbsg32
I00
sg3503
g0
(g38
g2
Ntp3519
Rp3520
(dp3521
g25
I00
sg31
I01
sg32
I00
sg42
F0.1
sbsg3504
g0
(g38
g2
Ntp3522
Rp3523
(dp3524
g25
I00
sg31
I01
sg32
I00
sg42
F0.1
sbsg3505
g0
(g38
g2
Ntp3525
Rp3526
(dp3527
g25
I00
sg31
I01
sg32
I00
sg42
F0.1
sbsg3506
g0
(g38
g2
Ntp3528
Rp3529
(dp3530
g25
I00
sg31
I01
sg32
I00
sg42
F0.1
sbsg3507
g0
(g38
g2
Ntp3531
Rp3532
(dp3533
g25
I00
sg31
I01
sg32
I00
sg42
F0.01
sbsg3508
g0
(g38
g2
Ntp3534
Rp3535
(dp3536
g25
I00
sg31
I01
sg32
I00
sg42
F0.01
sbsg3509
g0
(g38
g2
Ntp3537
Rp3538
(dp3539
g25
I00
sg31
I01
sg32
I00
sg42
F0.01
sbsg3510
g0
(g38
g2
Ntp3540
Rp3541
(dp3542
g25
I00
sg31
I01
sg32
I00
sg42
F0.01
sbsg3511
g0
(g38
g2
Ntp3543
Rp3544
(dp3545
g25
I00
sg31
I01
sg32
I00
sg42
F0.01
sbsg3512
g0
(g38
g2
Ntp3546
Rp3547
(dp3548
g25
I00
sg31
I01
sg32
I00
sg42
F0.01
sbsg3513
g0
(g38
g2
Ntp3549
Rp3550
(dp3551
g25
I00
sg31
I01
sg32
I00
sg42
F0.02
sbsg3514
g0
(g38
g2
Ntp3552
Rp3553
(dp3554
g25
I00
sg31
I01
sg32
I00
sg42
F0.02
sbsg3515
g0
(g38
g2
Ntp3555
Rp3556
(dp3557
g25
I00
sg31
I01
sg32
I00
sg42
F0.02
sbsg1874
g0
(g121
g2
Ntp3558
Rp3559
(dp3560
g25
I00
sg31
I01
sg32
I00
sg42
g36
sbsg59
g660
sg61
I55
sg62
g3496
sbsVctppsInterpolatedOpticalFunctionsESSource
p3561
g0
(g2778
g2
Ntp3562
Rp3563
(dp3564
g15
VCTPPSInterpolatedOpticalFunctionsESSource
p3565
sg17
(lp3566
g3502
aVopticsLabel
p3567
ag1874
asg25
I00
sg26
Nsg3502
g0
(g121
g2
Ntp3568
Rp3569
(dp3570
g25
I00
sg31
I01
sg32
I00
sg42
g36
sbsg32
I01
sg3567
g0
(g121
g2
Ntp3571
Rp3572
(dp3573
g25
I00
sg31
I01
sg32
I00
sg42
g36
sbsg1874
g0
(g121
g2
Ntp3574
Rp3575
(dp3576
g25
I00
sg31
I01
sg32
I00
sg42
g36
sbsg59
g660
sg61
I55
sg62
g3561
sbsVhcal_db_producer
p3577
g0
(g2778
g2
Ntp3578
Rp3579
(dp3580
g15
VHcalDbProducer
p3581
sg17
(lp3582
Vdump
p3583
aVfile
p3584
asg25
I00
sg26
Nsg3583
g0
(g105
g47
(lp3585
g36
atp3586
Rp3587
(dp3588
g25
I00
sg31
I00
sg32
I00
sg451
I1
sbsg32
I00
sg3584
g0
(g121
g2
Ntp3589
Rp3590
(dp3591
g25
I00
sg31
I00
sg32
I00
sg42
g36
sbsg59
g660
sg61
I55
sg62
g3577
sbsVmultipleScatteringParametrisationMakerESProducer
p3592
g0
(g2778
g2
Ntp3593
Rp3594
(dp3595
g15
VMultipleScatteringParametrisationMakerESProducer
p3596
sg17
(lp3597
g1874
asg25
I00
sg26
Nsg1874
g0
(g121
g2
Ntp3598
Rp3599
(dp3600
g25
I00
sg31
I01
sg32
I00
sg42
g36
sbsg32
I00
sg59
g660
sg61
I55
sg62
g3592
sbsVsiPixelQualityESProducer
p3601
g0
(g2778
g2
Ntp3602
Rp3603
(dp3604
g15
VSiPixelQualityESProducer
p3605
sg17
(lp3606
VsiPixelQualityLabel
p3607
aVsiPixelQualityLabel_RawToDigi
p3608
aVListOfRecordToMerge
p3609
ag1874
asg25
I00
sg26
Nsg3607
g0
(g121
g2
Ntp3610
Rp3611
(dp3612
g25
I00
sg31
I01
sg32
I00
sg42
g36
sbsg32
I01
sg3608
g0
(g121
g2
Ntp3613
Rp3614
(dp3615
g25
I00
sg31
I01
sg32
I00
sg42
g36
sbsg3609
g0
(g691
g47
(lp3616
g0
(g693
g2
Ntp3617
Rp3618
(dp3619
g25
I00
sg31
I01
sg32
I00
sg17
(lp3620
g1826
ag1827
asg26
Nsg1826
g0
(g121
g2
Ntp3621
Rp3622
(dp3623
g25
I00
sg31
I01
sg32
I00
sg42
VSiPixelQualityFromDbRcd
p3624
sbsg1827
g0
(g121
g2
Ntp3625
Rp3626
(dp3627
g25
I00
sg31
I01
sg32
I00
sg42
g36
sbsbag0
(g693
g2
Ntp3628
Rp3629
(dp3630
g25
I00
sg31
I01
sg32
I00
sg17
(lp3631
g1826
ag1827
asg26
Nsg1826
g0
(g121
g2
Ntp3632
Rp3633
(dp3634
g25
I00
sg31
I01
sg32
I00
sg42
VSiPixelDetVOffRcd
p3635
sbsg1827
g0
(g121
g2
Ntp3636
Rp3637
(dp3638
g25
I00
sg31
I01
sg32
I00
sg42
g36
sbsbatp3639
Rp3640
(dp3641
g25
I00
sg31
I01
sg32
I00
sg451
I1
sbsg1874
g0
(g121
g2
Ntp3642
Rp3643
(dp3644
g25
I00
sg31
I01
sg32
I00
sg42
g36
sbsg59
g660
sg61
I55
sg62
g3601
sbsVsiStripBackPlaneCorrectionDepESProducer
p3645
g0
(g2778
g2
Ntp3646
Rp3647
(dp3648
g15
VSiStripBackPlaneCorrectionDepESProducer
p3649
sg17
(lp3650
VLatencyRecord
p3651
aVBackPlaneCorrectionPeakMode
p3652
aVBackPlaneCorrectionDeconvMode
p3653
asg25
I00
sg26
Nsg3651
g0
(g693
g2
Ntp3654
Rp3655
(dp3656
g25
I00
sg31
I01
sg32
I00
sg17
(lp3657
g1826
ag1828
asg26
Nsg1826
g0
(g121
g2
Ntp3658
Rp3659
(dp3660
g25
I00
sg31
I01
sg32
I00
sg42
VSiStripLatencyRcd
p3661
sbsg1828
g0
(g121
g2
Ntp3662
Rp3663
(dp3664
g25
I00
sg31
I00
sg32
I00
sg42
g36
sbsbsg32
I00
sg3652
g0
(g693
g2
Ntp3665
Rp3666
(dp3667
g25
I00
sg31
I01
sg32
I00
sg17
(lp3668
g1826
ag1828
asg26
Nsg1826
g0
(g121
g2
Ntp3669
Rp3670
(dp3671
g25
I00
sg31
I01
sg32
I00
sg42
VSiStripBackPlaneCorrectionRcd
p3672
sbsg1828
g0
(g121
g2
Ntp3673
Rp3674
(dp3675
g25
I00
sg31
I00
sg32
I00
sg42
Vpeak
p3676
sbsbsg3653
g0
(g693
g2
Ntp3677
Rp3678
(dp3679
g25
I00
sg31
I01
sg32
I00
sg17
(lp3680
g1826
ag1828
asg26
Nsg1826
g0
(g121
g2
Ntp3681
Rp3682
(dp3683
g25
I00
sg31
I01
sg32
I00
sg42
g3672
sbsg1828
g0
(g121
g2
Ntp3684
Rp3685
(dp3686
g25
I00
sg31
I00
sg32
I00
sg42
Vdeconvolution
p3687
sbsbsg59
g660
sg61
I55
sg62
g3645
sbsVsiStripGainESProducer
p3688
g0
(g2778
g2
Ntp3689
Rp3690
(dp3691
g15
VSiStripGainESProducer
p3692
sg17
(lp3693
g1874
aVprintDebug
p3694
aVAutomaticNormalization
p3695
aVAPVGain
p3696
asg25
I00
sg26
Nsg1874
g0
(g121
g2
Ntp3697
Rp3698
(dp3699
g25
I00
sg31
I01
sg32
I00
sg42
g36
sbsg32
I00
sg3694
g0
(g73
g2
Ntp3700
Rp3701
(dp3702
g25
I00
sg31
I00
sg32
I00
sg42
I00
sbsg3695
g0
(g73
g2
Ntp3703
Rp3704
(dp3705
g25
I00
sg31
I01
sg32
I00
sg42
I00
sbsg3696
g0
(g691
g47
(lp3706
g0
(g693
g2
Ntp3707
Rp3708
(dp3709
g25
I00
sg31
I01
sg32
I00
sg17
(lp3710
VRecord
p3711
aVLabel
p3712
aVNormalizationFactor
p3713
asg26
Nsg3711
g0
(g121
g2
Ntp3714
Rp3715
(dp3716
g25
I00
sg31
I01
sg32
I00
sg42
VSiStripApvGainRcd
p3717
sbsg3712
g0
(g121
g2
Ntp3718
Rp3719
(dp3720
g25
I00
sg31
I00
sg32
I00
sg42
g36
sbsg3713
g0
(g38
g2
Ntp3721
Rp3722
(dp3723
g25
I00
sg31
I00
sg32
I00
sg42
F1.0
sbsbag0
(g693
g2
Ntp3724
Rp3725
(dp3726
g25
I00
sg31
I01
sg32
I00
sg17
(lp3727
g3711
ag3712
ag3713
asg26
Nsg3711
g0
(g121
g2
Ntp3728
Rp3729
(dp3730
g25
I00
sg31
I01
sg32
I00
sg42
VSiStripApvGain2Rcd
p3731
sbsg3712
g0
(g121
g2
Ntp3732
Rp3733
(dp3734
g25
I00
sg31
I00
sg32
I00
sg42
g36
sbsg3713
g0
(g38
g2
Ntp3735
Rp3736
(dp3737
g25
I00
sg31
I00
sg32
I00
sg42
F1.0
sbsbatp3738
Rp3739
(dp3740
g25
I00
sg31
I01
sg32
I00
sg451
I1
sbsg59
g660
sg61
I55
sg62
g3688
sbsVsiStripLorentzAngleDepESProducer
p3741
g0
(g2778
g2
Ntp3742
Rp3743
(dp3744
g15
VSiStripLorentzAngleDepESProducer
p3745
sg17
(lp3746
g3651
aVLorentzAnglePeakMode
p3747
aVLorentzAngleDeconvMode
p3748
asg25
I00
sg26
Nsg3651
g0
(g693
g2
Ntp3749
Rp3750
(dp3751
g25
I00
sg31
I01
sg32
I00
sg17
(lp3752
g1826
ag1828
asg26
Nsg1826
g0
(g121
g2
Ntp3753
Rp3754
(dp3755
g25
I00
sg31
I01
sg32
I00
sg42
g3661
sbsg1828
g0
(g121
g2
Ntp3756
Rp3757
(dp3758
g25
I00
sg31
I00
sg32
I00
sg42
g36
sbsbsg32
I00
sg3747
g0
(g693
g2
Ntp3759
Rp3760
(dp3761
g25
I00
sg31
I01
sg32
I00
sg17
(lp3762
g1826
ag1828
asg26
Nsg1826
g0
(g121
g2
Ntp3763
Rp3764
(dp3765
g25
I00
sg31
I01
sg32
I00
sg42
VSiStripLorentzAngleRcd
p3766
sbsg1828
g0
(g121
g2
Ntp3767
Rp3768
(dp3769
g25
I00
sg31
I00
sg32
I00
sg42
g3676
sbsbsg3748
g0
(g693
g2
Ntp3770
Rp3771
(dp3772
g25
I00
sg31
I01
sg32
I00
sg17
(lp3773
g1826
ag1828
asg26
Nsg1826
g0
(g121
g2
Ntp3774
Rp3775
(dp3776
g25
I00
sg31
I01
sg32
I00
sg42
g3766
sbsg1828
g0
(g121
g2
Ntp3777
Rp3778
(dp3779
g25
I00
sg31
I00
sg32
I00
sg42
g3687
sbsbsg59
g660
sg61
I55
sg62
g3741
sbsVsiStripQualityESProducer
p3780
g0
(g2778
g2
Ntp3781
Rp3782
(dp3783
g15
VSiStripQualityESProducer
p3784
sg17
(lp3785
g1874
ag3609
aVReduceGranularity
p3786
aVThresholdForReducedGranularity
p3787
aVPrintDebugOutput
p3788
aVUseEmptyRunInfo
p3789
asg25
I00
sg26
Nsg1874
g0
(g121
g2
Ntp3790
Rp3791
(dp3792
g25
I00
sg31
I01
sg32
I00
sg42
g36
sbsg32
I01
sg3609
g0
(g691
g47
(lp3793
g0
(g693
g2
Ntp3794
Rp3795
(dp3796
g25
I00
sg31
I01
sg32
I00
sg17
(lp3797
g1826
ag1827
asg26
Nsg1826
g0
(g121
g2
Ntp3798
Rp3799
(dp3800
g25
I00
sg31
I01
sg32
I00
sg42
VSiStripDetVOffRcd
p3801
sbsg1827
g0
(g121
g2
Ntp3802
Rp3803
(dp3804
g25
I00
sg31
I01
sg32
I00
sg42
g36
sbsbag0
(g693
g2
Ntp3805
Rp3806
(dp3807
g25
I00
sg31
I01
sg32
I00
sg17
(lp3808
g1826
ag1827
asg26
Nsg1826
g0
(g121
g2
Ntp3809
Rp3810
(dp3811
g25
I00
sg31
I01
sg32
I00
sg42
VSiStripDetCablingRcd
p3812
sbsg1827
g0
(g121
g2
Ntp3813
Rp3814
(dp3815
g25
I00
sg31
I01
sg32
I00
sg42
g36
sbsbag0
(g693
g2
Ntp3816
Rp3817
(dp3818
g25
I00
sg31
I01
sg32
I00
sg17
(lp3819
g1826
ag1827
asg26
Nsg1826
g0
(g121
g2
Ntp3820
Rp3821
(dp3822
g25
I00
sg31
I01
sg32
I00
sg42
VRunInfoRcd
p3823
sbsg1827
g0
(g121
g2
Ntp3824
Rp3825
(dp3826
g25
I00
sg31
I01
sg32
I00
sg42
g36
sbsbag0
(g693
g2
Ntp3827
Rp3828
(dp3829
g25
I00
sg31
I01
sg32
I00
sg17
(lp3830
g1826
ag1827
asg26
Nsg1826
g0
(g121
g2
Ntp3831
Rp3832
(dp3833
g25
I00
sg31
I01
sg32
I00
sg42
VSiStripBadChannelRcd
p3834
sbsg1827
g0
(g121
g2
Ntp3835
Rp3836
(dp3837
g25
I00
sg31
I01
sg32
I00
sg42
g36
sbsbag0
(g693
g2
Ntp3838
Rp3839
(dp3840
g25
I00
sg31
I01
sg32
I00
sg17
(lp3841
g1826
ag1827
asg26
Nsg1826
g0
(g121
g2
Ntp3842
Rp3843
(dp3844
g25
I00
sg31
I01
sg32
I00
sg42
VSiStripBadFiberRcd
p3845
sbsg1827
g0
(g121
g2
Ntp3846
Rp3847
(dp3848
g25
I00
sg31
I01
sg32
I00
sg42
g36
sbsbag0
(g693
g2
Ntp3849
Rp3850
(dp3851
g25
I00
sg31
I01
sg32
I00
sg17
(lp3852
g1826
ag1827
asg26
Nsg1826
g0
(g121
g2
Ntp3853
Rp3854
(dp3855
g25
I00
sg31
I01
sg32
I00
sg42
VSiStripBadModuleRcd
p3856
sbsg1827
g0
(g121
g2
Ntp3857
Rp3858
(dp3859
g25
I00
sg31
I01
sg32
I00
sg42
g36
sbsbag0
(g693
g2
Ntp3860
Rp3861
(dp3862
g25
I00
sg31
I01
sg32
I00
sg17
(lp3863
g1826
ag1827
asg26
Nsg1826
g0
(g121
g2
Ntp3864
Rp3865
(dp3866
g25
I00
sg31
I01
sg32
I00
sg42
VSiStripBadStripRcd
p3867
sbsg1827
g0
(g121
g2
Ntp3868
Rp3869
(dp3870
g25
I00
sg31
I01
sg32
I00
sg42
g36
sbsbatp3871
Rp3872
(dp3873
g25
I00
sg31
I01
sg32
I00
sg451
I1
sbsg3786
g0
(g73
g2
Ntp3874
Rp3875
(dp3876
g25
I00
sg31
I01
sg32
I00
sg42
I00
sbsg3787
g0
(g38
g2
Ntp3877
Rp3878
(dp3879
g25
I00
sg31
I01
sg32
I00
sg42
F0.3
sbsg3788
g0
(g73
g2
Ntp3880
Rp3881
(dp3882
g25
I00
sg31
I01
sg32
I00
sg42
I00
sbsg3789
g0
(g73
g2
Ntp3883
Rp3884
(dp3885
g25
I00
sg31
I01
sg32
I00
sg42
I00
sbsg59
g660
sg61
I55
sg62
g3780
sbsVsistripconn
p3886
g0
(g2778
g2
Ntp3887
Rp3888
(dp3889
g15
VSiStripConnectivity
p3890
sg17
(lp3891
sg25
I00
sg26
Nsg32
I00
sg59
g660
sg61
I55
sg62
g3886
sbsVstripCPEESProducer
p3892
g0
(g2778
g2
Ntp3893
Rp3894
(dp3895
g15
g3428
sg17
(lp3896
g3411
ag3430
ag3431
asg25
I00
sg26
Nsg3411
g0
(g121
g2
Ntp3897
Rp3898
(dp3899
g25
I00
sg31
I01
sg32
I00
sg42
VstripCPE
p3900
sbsg32
I00
sg3430
g0
(g121
g2
Ntp3901
Rp3902
(dp3903
g25
I00
sg31
I01
sg32
I00
sg42
VSimpleStripCPE
p3904
sbsg3431
g0
(g693
g2
Ntp3905
Rp3906
(dp3907
g25
I00
sg31
I01
sg32
I00
sg17
(lp3908
sg26
Nsbsg59
g660
sg61
I55
sg62
g3892
sbssV_Process__esprefers
p3909
(dp3910
Ves_prefer_hcalHardcode
p3911
g0
(cFWCore.ParameterSet.Modules
ESPrefer
p3912
g2
Ntp3913
Rp3914
(dp3915
g15
g2043
sg17
(lp3916
sg25
I00
sg26
Nsg32
I00
sg59
g660
sg61
I91
sV_targetLabel
p3917
g2039
sg62
g3911
sbssV_Process__aliases
p3918
(dp3919
sV_Process__psets
p3920
(dp3921
VmaxLuminosityBlocks
p3922
g0
(g693
g2
Ntp3923
Rp3924
(dp3925
g25
I00
sg31
I00
sg32
I00
sg17
(lp3926
Vinput
p3927
asg26
Nsg3927
g0
(g52
g2
Ntp3928
Rp3929
(dp3930
g25
I00
sg31
I00
sg32
I00
sg42
I-1
sbsg62
g3922
sbsVnanoDQMIO_perLSoutput
p3931
g0
(g693
g2
Ntp3932
Rp3933
(dp3934
g25
I00
sg31
I01
sg32
I00
sg17
(lp3935
g1218
asg26
Nsg1218
g0
(g105
g47
(lp3936
g1230
ag1231
ag1232
ag1233
ag1234
ag1235
ag1236
ag1237
ag1238
ag1239
ag1240
ag1241
ag1242
ag1243
ag1244
ag1245
ag1246
ag1247
ag1248
ag1249
ag1250
ag1251
ag1252
ag1253
ag1254
ag1255
ag1256
ag1257
ag1258
ag1259
ag1260
ag1261
ag1262
ag1263
ag1264
ag1265
ag1266
ag1267
ag1268
ag1269
ag1270
ag1271
ag1272
ag1273
ag1274
ag1275
ag1276
ag1277
ag1278
ag1279
ag1280
ag1281
ag1282
ag1283
ag1284
ag1285
ag1286
ag1287
ag1288
ag1289
ag1290
ag1291
ag1292
ag1293
ag1294
ag1295
ag1296
ag1297
ag1298
ag1299
ag1300
ag1301
ag1302
ag1303
ag1304
ag1305
ag1306
ag1307
ag1308
ag1309
ag1310
ag1311
ag1312
ag1313
ag1314
ag1315
ag1316
ag1317
ag1318
ag1319
ag1320
ag1321
ag1322
ag1323
ag1324
ag1325
ag1326
ag1327
ag1328
ag1329
ag1330
ag1331
ag1332
ag1333
ag1334
ag1335
ag1336
ag1337
ag1338
ag1339
ag1340
ag1341
ag1342
ag1343
ag1344
ag1345
ag1346
ag1347
ag1348
ag1349
ag1350
ag1351
ag1352
ag1353
ag1354
ag1355
ag1356
ag1357
ag1358
ag1359
ag1360
ag1361
ag1362
ag1363
ag1364
ag1365
ag1366
ag1367
ag1368
ag1369
ag1370
ag1371
ag1372
ag1373
ag1374
ag1375
ag1376
ag1377
ag1378
ag1379
ag1380
ag1381
ag1382
ag1383
ag1384
ag1385
ag1386
ag1387
ag1388
ag1389
ag1390
ag1391
ag1392
ag1393
ag1394
ag1395
ag1396
ag1397
ag1398
ag1399
ag1400
ag1401
ag1402
ag1403
ag1404
ag1405
ag1406
ag1407
ag1408
ag1409
ag1410
ag1411
ag1412
ag1413
ag1414
ag1415
ag1416
ag1417
ag1418
ag1419
ag1420
ag1421
ag1422
ag1423
ag1424
ag1425
ag1426
atp3937
Rp3938
(dp3939
g25
I00
sg31
I00
sg32
I00
sg451
I1
sbsg62
g3931
sbsVCondDB
p3940
g0
(g693
g2
Ntp3941
Rp3942
(dp3943
g25
I00
sg31
I01
sg32
I00
sg17
(lp3944
g1773
ag1774
asg26
Nsg1773
g0
(g693
g2
Ntp3945
Rp3946
(dp3947
g25
I00
sg31
I01
sg32
I00
sg17
(lp3948
g1789
ag1790
ag1791
ag1792
ag1793
asg26
Nsg1789
g0
(g121
g2
Ntp3949
Rp3950
(dp3951
g25
I00
sg31
I00
sg32
I00
sg42
g36
sbsg1790
g0
(g52
g2
Ntp3952
Rp3953
(dp3954
g25
I00
sg31
I00
sg32
I00
sg42
I0
sbsg1791
g0
(g121
g2
Ntp3955
Rp3956
(dp3957
g25
I00
sg31
I00
sg32
I00
sg42
g36
sbsg1792
g0
(g52
g2
Ntp3958
Rp3959
(dp3960
g25
I00
sg31
I00
sg32
I00
sg42
I0
sbsg1793
g0
(g52
g2
Ntp3961
Rp3962
(dp3963
g25
I00
sg31
I00
sg32
I00
sg42
I0
sbsbsg1774
g0
(g121
g2
Ntp3964
Rp3965
(dp3966
g25
I00
sg31
I01
sg32
I00
sg42
g36
sbsg62
g3940
sbsg2053
g2104
sVoptions
p3967
g0
(g693
g2
Ntp3968
Rp3969
(dp3970
g25
I00
sg31
I00
sg32
I01
sg17
(lp3971
VnumberOfThreads
p3972
aVnumberOfStreams
p3973
aVnumberOfConcurrentRuns
p3974
aVnumberOfConcurrentLuminosityBlocks
p3975
aVeventSetup
p3976
aVaccelerators
p3977
aVwantSummary
p3978
aVfileMode
p3979
aVforceEventSetupCacheClearOnNewRun
p3980
aVthrowIfIllegalParameter
p3981
aVprintDependencies
p3982
aVdeleteNonConsumedUnscheduledModules
p3983
aVsizeOfStackForThreadsInKB
p3984
aVRethrow
p3985
aVSkipEvent
p3986
aVFailPath
p3987
aVIgnoreCompletely
p3988
aVcanDeleteEarly
p3989
aVholdsReferencesToDeleteEarly
p3990
aVmodulesToIgnoreForDeleteEarly
p3991
aVdumpOptions
p3992
aVallowUnscheduled
p3993
aVemptyRunLumiMode
p3994
aVmakeTriggerResults
p3995
asg26
Nsg3972
g0
(g581
g2
Ntp3996
Rp3997
(dp3998
g25
I00
sg31
I00
sg32
I00
sg42
I1
sbsg3973
g0
(g581
g2
Ntp3999
Rp4000
(dp4001
g25
I00
sg31
I00
sg32
I00
sg42
I0
sbsg3974
g0
(g581
g2
Ntp4002
Rp4003
(dp4004
g25
I00
sg31
I00
sg32
I00
sg42
I1
sbsg3975
g0
(g581
g2
Ntp4005
Rp4006
(dp4007
g25
I00
sg31
I00
sg32
I00
sg42
I0
sbsg3976
g0
(g693
g2
Ntp4008
Rp4009
(dp4010
g25
I00
sg31
I00
sg32
I00
sg17
(lp4011
VnumberOfConcurrentIOVs
p4012
aVforceNumberOfConcurrentIOVs
p4013
asg26
Nsg4012
g0
(g581
g2
Ntp4014
Rp4015
(dp4016
g25
I00
sg31
I00
sg32
I00
sg42
I0
sbsg4013
g0
(g693
g2
Ntp4017
Rp4018
(dp4019
g25
I00
sg31
I00
sg32
I00
sg17
(lp4020
sg26
g0
(cFWCore.ParameterSet.Types
_RequiredParameter
p4021
g2
Ntp4022
Rp4023
(dp4024
g25
I00
sg31
I00
sg32
I00
sg104
g581
sg106
Nsbsbsbsg3977
g0
(g105
g47
(lp4025
V*
p4026
atp4027
Rp4028
(dp4029
g25
I00
sg31
I00
sg32
I00
sg451
I1
sbsg3978
g0
(g73
g2
Ntp4030
Rp4031
(dp4032
g25
I00
sg31
I00
sg32
I00
sg42
I01
sbsg3979
g0
(g121
g2
Ntp4033
Rp4034
(dp4035
g25
I00
sg31
I00
sg32
I00
sg42
VFULLMERGE
p4036
sbsg3980
g0
(g73
g2
Ntp4037
Rp4038
(dp4039
g25
I00
sg31
I00
sg32
I00
sg42
I00
sbsg3981
g0
(g73
g2
Ntp4040
Rp4041
(dp4042
g25
I00
sg31
I00
sg32
I00
sg42
I01
sbsg3982
g0
(g73
g2
Ntp4043
Rp4044
(dp4045
g25
I00
sg31
I00
sg32
I00
sg42
I00
sbsg3983
g0
(g73
g2
Ntp4046
Rp4047
(dp4048
g25
I00
sg31
I00
sg32
I00
sg42
I01
sbsg3984
g0
(g100
g2
Ntp4049
Rp4050
(dp4051
g25
I00
sg31
I00
sg32
I00
sg104
g581
sg106
Nsbsg3985
g0
(g105
g47
(lp4052
tp4053
Rp4054
(dp4055
g25
I00
sg31
I00
sg32
I00
sg451
I1
sbsg3986
g0
(g105
g47
(lp4056
tp4057
Rp4058
(dp4059
g25
I00
sg31
I00
sg32
I00
sg451
I1
sbsg3987
g0
(g105
g47
(lp4060
tp4061
Rp4062
(dp4063
g25
I00
sg31
I00
sg32
I00
sg451
I1
sbsg3988
g0
(g105
g47
(lp4064
tp4065
Rp4066
(dp4067
g25
I00
sg31
I00
sg32
I00
sg451
I1
sbsg3989
g0
(g105
g47
(lp4068
tp4069
Rp4070
(dp4071
g25
I00
sg31
I00
sg32
I00
sg451
I1
sbsg3990
g0
(g691
g47
(lp4072
tp4073
Rp4074
(dp4075
g25
I00
sg31
I00
sg32
I00
sg451
I1
sbsg3991
g0
(g105
g47
(lp4076
tp4077
Rp4078
(dp4079
g25
I00
sg31
I00
sg32
I00
sg451
I1
sbsg3992
g0
(g73
g2
Ntp4080
Rp4081
(dp4082
g25
I00
sg31
I00
sg32
I00
sg42
I00
sbsg3993
g0
(cFWCore.ParameterSet.Types
_ObsoleteParameter
p4083
g2
Ntp4084
Rp4085
(dp4086
g25
I00
sg31
I00
sg32
I00
sg104
g73
sg106
Nsbsg3994
g0
(g4083
g2
Ntp4087
Rp4088
(dp4089
g25
I00
sg31
I00
sg32
I00
sg104
g121
sg106
Nsbsg3995
g0
(g4083
g2
Ntp4090
Rp4091
(dp4092
g25
I00
sg31
I00
sg32
I00
sg104
g73
sg106
Nsbsg62
g3967
sbsVmaxEvents
p4093
g0
(g693
g2
Ntp4094
Rp4095
(dp4096
g25
I00
sg31
I00
sg32
I01
sg17
(lp4097
g3927
ag1179
asg26
Nsg3927
g0
(g100
g2
Ntp4098
Rp4099
(dp4100
g25
I00
sg31
I00
sg32
I00
sg104
g52
sg106
g0
(g52
g2
Ntp4101
Rp4102
(dp4103
g25
I00
sg31
I00
sg32
I00
sg42
I3000
sbsbsg1179
g0
(g100
g2
Ntp4104
Rp4105
(dp4106
g25
I00
sg31
I00
sg32
I00
sg104
g0
(cFWCore.ParameterSet.Types
_AllowedParameterTypes
p4107
g2
Ntp4108
Rp4109
(dp4110
V_AllowedParameterTypes__types
p4111
(g52
g693
tp4112
sV_default
p4113
NsV__name__
p4114
Vallowed(cms.int32,cms.PSet)
p4115
sbsg106
Nsbsg62
g4093
sbssV_Process__vpsets
p4116
(dp4117
sV_cloneToObjectDict
p4118
(dp4119
L140708556216400L
g0
(g693
g2
Ntp4120
Rp4121
(dp4122
g25
I00
sg31
I00
sg32
I00
sg17
(lp4123
g3972
ag3973
ag3974
ag3975
ag3976
ag3977
ag3978
ag3979
ag3980
ag3981
ag3982
ag3983
ag3984
ag3985
ag3986
ag3987
ag3988
ag3989
ag3990
ag3991
ag3992
ag3993
ag3994
ag3995
asg26
Nsg3972
g0
(g581
g2
Ntp4124
Rp4125
(dp4126
g25
I00
sg31
I00
sg32
I00
sg42
I1
sbsg3973
g0
(g581
g2
Ntp4127
Rp4128
(dp4129
g25
I00
sg31
I00
sg32
I00
sg42
I0
sbsg3974
g0
(g581
g2
Ntp4130
Rp4131
(dp4132
g25
I00
sg31
I00
sg32
I00
sg42
I1
sbsg3975
g0
(g581
g2
Ntp4133
Rp4134
(dp4135
g25
I00
sg31
I00
sg32
I00
sg42
I0
sbsg3976
g0
(g693
g2
Ntp4136
Rp4137
(dp4138
g25
I00
sg31
I00
sg32
I00
sg17
(lp4139
g4012
ag4013
asg26
Nsg4012
g0
(g581
g2
Ntp4140
Rp4141
(dp4142
g25
I00
sg31
I00
sg32
I00
sg42
I0
sbsg4013
g0
(g693
g2
Ntp4143
Rp4144
(dp4145
g25
I00
sg31
I00
sg32
I00
sg17
(lp4146
sg26
g0
(g4021
g2
Ntp4147
Rp4148
(dp4149
g25
I00
sg31
I00
sg32
I00
sg104
g581
sg106
Nsbsbsbsg3977
g0
(g105
g47
(lp4150
g4026
atp4151
Rp4152
(dp4153
g25
I00
sg31
I00
sg32
I00
sg451
I1
sbsg3978
g0
(g73
g2
Ntp4154
Rp4155
(dp4156
g25
I00
sg31
I00
sg32
I00
sg42
I00
sbsg3979
g0
(g121
g2
Ntp4157
Rp4158
(dp4159
g25
I00
sg31
I00
sg32
I00
sg42
g4036
sbsg3980
g0
(g73
g2
Ntp4160
Rp4161
(dp4162
g25
I00
sg31
I00
sg32
I00
sg42
I00
sbsg3981
g0
(g73
g2
Ntp4163
Rp4164
(dp4165
g25
I00
sg31
I00
sg32
I00
sg42
I01
sbsg3982
g0
(g73
g2
Ntp4166
Rp4167
(dp4168
g25
I00
sg31
I00
sg32
I00
sg42
I00
sbsg3983
g0
(g73
g2
Ntp4169
Rp4170
(dp4171
g25
I00
sg31
I00
sg32
I00
sg42
I01
sbsg3984
g0
(g100
g2
Ntp4172
Rp4173
(dp4174
g25
I00
sg31
I00
sg32
I00
sg104
g581
sg106
Nsbsg3985
g0
(g105
g47
(lp4175
tp4176
Rp4177
(dp4178
g25
I00
sg31
I00
sg32
I00
sg451
I1
sbsg3986
g0
(g105
g47
(lp4179
tp4180
Rp4181
(dp4182
g25
I00
sg31
I00
sg32
I00
sg451
I1
sbsg3987
g0
(g105
g47
(lp4183
tp4184
Rp4185
(dp4186
g25
I00
sg31
I00
sg32
I00
sg451
I1
sbsg3988
g0
(g105
g47
(lp4187
tp4188
Rp4189
(dp4190
g25
I00
sg31
I00
sg32
I00
sg451
I1
sbsg3989
g0
(g105
g47
(lp4191
tp4192
Rp4193
(dp4194
g25
I00
sg31
I00
sg32
I00
sg451
I1
sbsg3990
g0
(g691
g47
(lp4195
tp4196
Rp4197
(dp4198
g25
I00
sg31
I00
sg32
I00
sg451
I1
sbsg3991
g0
(g105
g47
(lp4199
tp4200
Rp4201
(dp4202
g25
I00
sg31
I00
sg32
I00
sg451
I1
sbsg3992
g0
(g73
g2
Ntp4203
Rp4204
(dp4205
g25
I00
sg31
I00
sg32
I00
sg42
I00
sbsg3993
g0
(g4083
g2
Ntp4206
Rp4207
(dp4208
g25
I00
sg31
I00
sg32
I00
sg104
g73
sg106
Nsbsg3994
g0
(g4083
g2
Ntp4209
Rp4210
(dp4211
g25
I00
sg31
I00
sg32
I00
sg104
g121
sg106
Nsbsg3995
g0
(g4083
g2
Ntp4212
Rp4213
(dp4214
g25
I00
sg31
I00
sg32
I00
sg104
g73
sg106
Nsbsg62
NsbsL140708558788736L
g0
(g693
g2
Ntp4215
Rp4216
(dp4217
g25
I00
sg31
I00
sg32
I00
sg17
(lp4218
g3927
ag1179
asg26
Nsg3927
g0
(g100
g2
Ntp4219
Rp4220
(dp4221
g25
I00
sg31
I00
sg32
I00
sg104
g52
sg106
Nsbsg1179
g0
(g100
g2
Ntp4222
Rp4223
(dp4224
g25
I00
sg31
I00
sg32
I00
sg104
g0
(g4107
g2
Ntp4225
Rp4226
(dp4227
g4111
(g52
g693
tp4228
sg4113
Nsg4114
Vallowed(cms.int32,cms.PSet)
p4229
sbsg106
Nsbsg62
NsbsL140708558789744L
g3924
sL140708557983856L
g2780
sL140708569068496L
g2824
sL140708556501440L
g2841
sL140708555423696L
g2846
sL140708555420384L
g2854
sL140708555421536L
g2859
sL140708555351520L
g2867
sL140708556555840L
g2904
sL140708569071136L
g2912
sL140708556554784L
g2917
sL140708556554928L
g2925
sL140708556502592L
g2933
sL140708556502496L
g2943
sL140708556554496L
g2948
sL140708569069504L
g2953
sL140708556502352L
g2961
sL140708557984096L
g2966
sL140708554084560L
g2977
sL140708555419904L
g2986
sL140708569444256L
g1735
sL140708554426112L
g2994
sL140708554427024L
g3005
sL140708567277968L
g3014
sL140708555421440L
g3023
sL140708569442720L
g3040
sL140708569444160L
g3077
sL140708569443152L
g3107
sL140708556488864L
g3126
sL140708556501056L
g3138
sL140708555352096L
g3155
sL140708556503312L
g3170
sL140708570578128L
g3179
sL140708554401632L
g3184
sL140708556577040L
g3199
sL140708570574912L
g3211
sL140708554400624L
g3228
sL140708570574960L
g3244
sL140708570575296L
g3259
sL140708556578048L
g3268
sL140708556576464L
g3280
sL140708556578384L
g1757
sL140708555254224L
g3933
sL140708555402352L
g470
sL140708555674048L
g3348
sL140708555489728L
g3367
sL140708551969904L
g3383
sL140708555676304L
g3942
sL140708555433104L
g3391
sL140708555434352L
g3400
sL140708555433728L
g1769
sL140708555300624L
g2104
sL140708555299760L
g1871
sL140708552073952L
g3408
sL140708552044352L
g3426
sL140708551622864L
g3498
sL140708551623392L
g3563
sL140708551969616L
g2041
sL140708551969856L
g3914
sL140708554046864L
g3579
sL140708551570816L
g3594
sL140708551570288L
g3603
sL140708552041808L
g3647
sL140708551978624L
g3690
sL140708552040896L
g3743
sL140708552076352L
g3782
sL140708551969760L
g3888
sL140708552043296L
g3894
sL140708551625744L
g477
sL140708558517632L
g3969
sL140708551647968L
g4095
sL140708551649600L
g563
sL140708551714800L
g751
sL140708551459360L
g13
sL140708551417568L
g65
sL140708551715232L
g110
sL140708551716048L
g587
sL140708551799520L
g656
sL140708551798896L
g607
sL140708551799616L
g633
sL140708551396560L
g682
sL140708551802688L
g954
sL140708551461568L
g132
sL140708551459504L
g152
sL140708551462720L
g166
sL140708551478240L
g180
sL140708551462000L
g194
sL140708551459552L
g208
sL140708551462384L
g222
sL140708551416320L
g236
sL140708551462432L
g250
sL140708551460272L
g264
sL140708551476944L
g278
sL140708551415840L
g292
sL140708551478960L
g306
sL140708551462816L
g320
sL140708551460704L
g334
sL140708551477376L
g348
sL140708551395840L
g362
sL140708551462768L
g376
sL140708551461136L
g390
sL140708551477808L
g404
sL140708551396608L
g418
sL140708551650608L
g938
sL140708551472224L
g432
sL140708551474912L
g828
sL140708551473280L
g898
ssV_Process__InExtendCall
p4230
I00
sV_Process__partialschedules
p4231
(dp4232
sV_Process__isStrict
p4233
I00
sV_Process__modifiers
p4234
(tsV_Process__accelerators
p4235
(dp4236
sg3922
g3924
sg966
g969
sg2777
g2780
sg2822
g2824
sg2839
g2841
sg2844
g2846
sg2852
g2854
sg2857
g2859
sg2865
g2867
sg2902
g2904
sg2910
g2912
sg2915
g2917
sg2923
g2925
sg2931
g2933
sg2941
g2943
sg2946
g2948
sg2951
g2953
sg2959
g2961
sg2964
g2966
sg2975
g2977
sg2984
g2986
sg1732
g1735
sg2992
g2994
sg3003
g3005
sg3012
g3014
sg3021
g3023
sg3038
g3040
sg3075
g3077
sg3105
g3107
sg3124
g3126
sg3136
g3138
sg3153
g3155
sg3168
g3170
sg3177
g3179
sg3182
g3184
sg3197
g3199
sg3209
g3211
sg3226
g3228
sg3242
g3244
sg3257
g3259
sg3266
g3268
sg3278
g3280
sg1211
g1213
sg1755
g1757
sg1442
g1444
sg3931
g3933
sg467
g470
sg3346
g3348
sg3365
g3367
sg3381
g3383
sg3940
g3942
sg3389
g3391
sg3398
g3400
sg1767
g1769
sg2053
g2104
sg1869
g1871
sg3406
g3408
sg3424
g3426
sg3496
g3498
sg3561
g3563
sg2039
g2041
sg3911
g3914
sg3577
g3579
sg3592
g3594
sg3601
g3603
sg3645
g3647
sg3688
g3690
sg3741
g3743
sg3780
g3782
sg3886
g3888
sg3892
g3894
sg475
g477
sg3967
g3969
sg4093
g4095
sVsource
p4237
g718
sg720
g718
sg521
g563
sg748
g751
sg10
g13
sg63
g65
sg108
g110
sg80
g587
sg653
g656
sg605
g607
sg631
g633
sg680
g682
sg951
g954
sg130
g132
sg150
g152
sg164
g166
sg178
g180
sg192
g194
sg206
g208
sg220
g222
sg234
g236
sg248
g250
sg262
g264
sg276
g278
sg290
g292
sg304
g306
sg318
g320
sg332
g334
sg346
g348
sg360
g362
sg374
g376
sg388
g390
sg402
g404
sg416
g418
sg935
g938
sg1720
g1722
sg430
g432
sg826
g828
sg895
g898
sb.