ccopy_reg
_reconstructor
p0
(cFWCore.ParameterSet.Config
Process
p1
c__builtin__
object
p2
Ntp3
Rp4
(dp5
V_Process__name
p6
VRaghuEffTest
p7
sV_Process__filters
p8
(dp9
VclusterCompatibilityFilter
p10
g0
(cFWCore.ParameterSet.Modules
EDFilter
p11
g2
Ntp12
Rp13
(dp14
V_TypedParameterizable__type
p15
VHIClusterCompatibilityFilter
p16
sV_Parameterizable__parameterNames
p17
(lp18
VcluscomSrc
p19
aVminZ
p20
aVmaxZ
p21
aVclusterPars
p22
aVnhitsTrunc
p23
aVclusterTrunc
p24
asV_isFrozen
p25
I00
sV_Parameterizable__validator
p26
Nsg19
g0
(cFWCore.ParameterSet.Types
InputTag
p27
g2
Ntp28
Rp29
(dp30
g25
I00
sV_ParameterTypeBase__isTracked
p31
I01
sV_isModified
p32
I00
sV_InputTag__moduleLabel
p33
VhiClusterCompatibility
p34
sV_InputTag__productInstance
p35
V
p36
sV_InputTag__processName
p37
g36
sbsg32
I00
sg20
g0
(cFWCore.ParameterSet.Types
double
p38
g2
Ntp39
Rp40
(dp41
g25
I00
sg31
I01
sg32
I00
sV_value
p42
F-20.0
sbsg21
g0
(g38
g2
Ntp43
Rp44
(dp45
g25
I00
sg31
I01
sg32
I00
sg42
F20.05
sbsg22
g0
(cFWCore.ParameterSet.Types
vdouble
p46
c__builtin__
list
p47
(lp48
F0.0
aF0.0045
atp49
Rp50
(dp51
g25
I00
sg31
I01
sg32
I00
sbsg23
g0
(cFWCore.ParameterSet.Types
int32
p52
g2
Ntp53
Rp54
(dp55
g25
I00
sg31
I01
sg32
I00
sg42
I150
sbsg24
g0
(g38
g2
Ntp56
Rp57
(dp58
g25
I00
sg31
I01
sg32
I00
sg42
F2.0
sbsV_filename
p59
V/afs/cern.ch/user/v/vpant/CMSSW_15_0_0_pre1_v2/CMSSW_15_0_0_pre1/src/HeavyIonsAnalysis/EventAnalysis/python/clusterCompatibilityFilter_cfi.py
p60
sV_lineNumber
p61
I3
sV_Labelable__label
p62
g10
sbsVhltPixelClusterShapeFilter
p63
g0
(g11
g2
Ntp64
Rp65
(dp66
g15
VHLTPixelClusterShapeFilter
p67
sg17
(lp68
VsaveTags
p69
aVinputTag
p70
ag20
ag21
aVzStep
p71
ag22
ag23
ag24
aVmightGet
p72
asg25
I00
sg26
Nsg69
g0
(cFWCore.ParameterSet.Types
bool
p73
g2
Ntp74
Rp75
(dp76
g25
I00
sg31
I01
sg32
I00
sg42
I01
sbsg32
I01
sg70
g0
(g27
g2
Ntp77
Rp78
(dp79
g25
I00
sg31
I01
sg32
I01
sg33
VsiPixelRecHits
p80
sg35
g36
sg37
g36
sbsg20
g0
(g38
g2
Ntp81
Rp82
(dp83
g25
I00
sg31
I01
sg32
I00
sg42
I-20
sbsg21
g0
(g38
g2
Ntp84
Rp85
(dp86
g25
I00
sg31
I01
sg32
I00
sg42
F20.05
sbsg71
g0
(g38
g2
Ntp87
Rp88
(dp89
g25
I00
sg31
I01
sg32
I00
sg42
F0.2
sbsg22
g0
(g46
g47
(lp90
I0
aF0.0045
atp91
Rp92
(dp93
g25
I00
sg31
I01
sg32
I00
sbsg23
g0
(g52
g2
Ntp94
Rp95
(dp96
g25
I00
sg31
I01
sg32
I00
sg42
I150
sbsg24
g0
(g38
g2
Ntp97
Rp98
(dp99
g25
I00
sg31
I01
sg32
I00
sg42
I2
sbsg72
g0
(cFWCore.ParameterSet.Types
_OptionalParameter
p100
g2
Ntp101
Rp102
(dp103
g25
I00
sg31
I00
sg32
I00
sV_ProxyParameter__type
p104
cFWCore.ParameterSet.Types
vstring
p105
sV_ProxyParameter__value
p106
Nsbsg59
V/cvmfs/cms.cern.ch/el8_amd64_gcc12/cms/cmssw/CMSSW_15_0_0_pre1/cfipython/el8_amd64_gcc12/HLTrigger/special/HLTPixelClusterShapeFilter.py
p107
sg61
I4
sg62
g63
sbsVprimaryVertexFilter
p108
g0
(g11
g2
Ntp109
Rp110
(dp111
g15
VVertexSelector
p112
sg17
(lp113
Vsrc
p114
aVcut
p115
aVfilter
p116
asg25
I00
sg26
Nsg114
g0
(g27
g2
Ntp117
Rp118
(dp119
g25
I00
sg31
I01
sg32
I00
sg33
VofflineSlimmedPrimaryVertices
p120
sg35
g36
sg37
g36
sbsg32
I00
sg115
g0
(cFWCore.ParameterSet.Types
string
p121
g2
Ntp122
Rp123
(dp124
g25
I00
sg31
I01
sg32
I00
sg42
V!isFake && abs(z) <= 25 && position.Rho <= 2
p125
sbsg116
g0
(g73
g2
Ntp126
Rp127
(dp128
g25
I00
sg31
I01
sg32
I00
sg42
I01
sbsg59
V/afs/cern.ch/user/v/vpant/CMSSW_15_0_0_pre1_v2/CMSSW_15_0_0_pre1/src/HeavyIonsAnalysis/EventAnalysis/python/collisionEventSelection_cff.py
p129
sg61
I5
sg62
g108
sbsVphfCoincFilter1Th3
p130
g0
(g11
g2
Ntp131
Rp132
(dp133
g15
VHiHFFilter
p134
sg17
(lp135
VHFfilters
p136
aVthreshold
p137
aVminnumtowers
p138
asg25
I00
sg26
Nsg136
g0
(g27
g2
Ntp139
Rp140
(dp141
g25
I00
sg31
I01
sg32
I00
sg33
VhiHFfilters
p142
sg35
g142
sg37
g36
sbsg32
I00
sg137
g0
(g52
g2
Ntp143
Rp144
(dp145
g25
I00
sg31
I01
sg32
I01
sg42
I3
sbsg138
g0
(g52
g2
Ntp146
Rp147
(dp148
g25
I00
sg31
I01
sg32
I01
sg42
I1
sbsg59
V/afs/cern.ch/user/v/vpant/CMSSW_15_0_0_pre1_v2/CMSSW_15_0_0_pre1/src/HeavyIonsAnalysis/EventAnalysis/python/hffilter_cfi.py
p149
sg61
I14
sg62
g130
sbsVphfCoincFilter1Th4
p150
g0
(g11
g2
Ntp151
Rp152
(dp153
g15
g134
sg17
(lp154
g136
ag137
ag138
asg25
I00
sg26
Nsg136
g0
(g27
g2
Ntp155
Rp156
(dp157
g25
I00
sg31
I01
sg32
I00
sg33
g142
sg35
g142
sg37
g36
sbsg32
I00
sg137
g0
(g52
g2
Ntp158
Rp159
(dp160
g25
I00
sg31
I01
sg32
I00
sg42
I4
sbsg138
g0
(g52
g2
Ntp161
Rp162
(dp163
g25
I00
sg31
I01
sg32
I01
sg42
I1
sbsg59
g149
sg61
I9
sg62
g150
sbsVphfCoincFilter1Th5
p164
g0
(g11
g2
Ntp165
Rp166
(dp167
g15
g134
sg17
(lp168
g136
ag137
ag138
asg25
I00
sg26
Nsg136
g0
(g27
g2
Ntp169
Rp170
(dp171
g25
I00
sg31
I01
sg32
I00
sg33
g142
sg35
g142
sg37
g36
sbsg32
I00
sg137
g0
(g52
g2
Ntp172
Rp173
(dp174
g25
I00
sg31
I01
sg32
I01
sg42
I5
sbsg138
g0
(g52
g2
Ntp175
Rp176
(dp177
g25
I00
sg31
I01
sg32
I01
sg42
I1
sbsg59
g149
sg61
I20
sg62
g164
sbsVphfCoincFilter1Th6
p178
g0
(g11
g2
Ntp179
Rp180
(dp181
g15
g134
sg17
(lp182
g136
ag137
ag138
asg25
I00
sg26
Nsg136
g0
(g27
g2
Ntp183
Rp184
(dp185
g25
I00
sg31
I01
sg32
I00
sg33
g142
sg35
g142
sg37
g36
sbsg32
I00
sg137
g0
(g52
g2
Ntp186
Rp187
(dp188
g25
I00
sg31
I01
sg32
I01
sg42
I6
sbsg138
g0
(g52
g2
Ntp189
Rp190
(dp191
g25
I00
sg31
I01
sg32
I01
sg42
I1
sbsg59
g149
sg61
I26
sg62
g178
sbsVphfCoincFilter2Th3
p192
g0
(g11
g2
Ntp193
Rp194
(dp195
g15
g134
sg17
(lp196
g136
ag137
ag138
asg25
I00
sg26
Nsg136
g0
(g27
g2
Ntp197
Rp198
(dp199
g25
I00
sg31
I01
sg32
I00
sg33
g142
sg35
g142
sg37
g36
sbsg32
I00
sg137
g0
(g52
g2
Ntp200
Rp201
(dp202
g25
I00
sg31
I01
sg32
I01
sg42
I3
sbsg138
g0
(g52
g2
Ntp203
Rp204
(dp205
g25
I00
sg31
I01
sg32
I00
sg42
I2
sbsg59
g149
sg61
I15
sg62
g192
sbsVphfCoincFilter2Th4
p206
g0
(g11
g2
Ntp207
Rp208
(dp209
g15
g134
sg17
(lp210
g136
ag137
ag138
asg25
I00
sg26
Nsg136
g0
(g27
g2
Ntp211
Rp212
(dp213
g25
I00
sg31
I01
sg32
I00
sg33
g142
sg35
g142
sg37
g36
sbsg32
I00
sg137
g0
(g52
g2
Ntp214
Rp215
(dp216
g25
I00
sg31
I01
sg32
I00
sg42
I4
sbsg138
g0
(g52
g2
Ntp217
Rp218
(dp219
g25
I00
sg31
I01
sg32
I00
sg42
I2
sbsg59
g149
sg61
I3
sg62
g206
sbsVphfCoincFilter2Th5
p220
g0
(g11
g2
Ntp221
Rp222
(dp223
g15
g134
sg17
(lp224
g136
ag137
ag138
asg25
I00
sg26
Nsg136
g0
(g27
g2
Ntp225
Rp226
(dp227
g25
I00
sg31
I01
sg32
I00
sg33
g142
sg35
g142
sg37
g36
sbsg32
I00
sg137
g0
(g52
g2
Ntp228
Rp229
(dp230
g25
I00
sg31
I01
sg32
I01
sg42
I5
sbsg138
g0
(g52
g2
Ntp231
Rp232
(dp233
g25
I00
sg31
I01
sg32
I00
sg42
I2
sbsg59
g149
sg61
I21
sg62
g220
sbsVphfCoincFilter2Th6
p234
g0
(g11
g2
Ntp235
Rp236
(dp237
g15
g134
sg17
(lp238
g136
ag137
ag138
asg25
I00
sg26
Nsg136
g0
(g27
g2
Ntp239
Rp240
(dp241
g25
I00
sg31
I01
sg32
I00
sg33
g142
sg35
g142
sg37
g36
sbsg32
I00
sg137
g0
(g52
g2
Ntp242
Rp243
(dp244
g25
I00
sg31
I01
sg32
I01
sg42
I6
sbsg138
g0
(g52
g2
Ntp245
Rp246
(dp247
g25
I00
sg31
I01
sg32
I00
sg42
I2
sbsg59
g149
sg61
I27
sg62
g234
sbsVphfCoincFilter3Th3
p248
g0
(g11
g2
Ntp249
Rp250
(dp251
g15
g134
sg17
(lp252
g136
ag137
ag138
asg25
I00
sg26
Nsg136
g0
(g27
g2
Ntp253
Rp254
(dp255
g25
I00
sg31
I01
sg32
I00
sg33
g142
sg35
g142
sg37
g36
sbsg32
I00
sg137
g0
(g52
g2
Ntp256
Rp257
(dp258
g25
I00
sg31
I01
sg32
I01
sg42
I3
sbsg138
g0
(g52
g2
Ntp259
Rp260
(dp261
g25
I00
sg31
I01
sg32
I01
sg42
I3
sbsg59
g149
sg61
I16
sg62
g248
sbsVphfCoincFilter3Th4
p262
g0
(g11
g2
Ntp263
Rp264
(dp265
g15
g134
sg17
(lp266
g136
ag137
ag138
asg25
I00
sg26
Nsg136
g0
(g27
g2
Ntp267
Rp268
(dp269
g25
I00
sg31
I01
sg32
I00
sg33
g142
sg35
g142
sg37
g36
sbsg32
I00
sg137
g0
(g52
g2
Ntp270
Rp271
(dp272
g25
I00
sg31
I01
sg32
I00
sg42
I4
sbsg138
g0
(g52
g2
Ntp273
Rp274
(dp275
g25
I00
sg31
I01
sg32
I01
sg42
I3
sbsg59
g149
sg61
I10
sg62
g262
sbsVphfCoincFilter3Th5
p276
g0
(g11
g2
Ntp277
Rp278
(dp279
g15
g134
sg17
(lp280
g136
ag137
ag138
asg25
I00
sg26
Nsg136
g0
(g27
g2
Ntp281
Rp282
(dp283
g25
I00
sg31
I01
sg32
I00
sg33
g142
sg35
g142
sg37
g36
sbsg32
I00
sg137
g0
(g52
g2
Ntp284
Rp285
(dp286
g25
I00
sg31
I01
sg32
I01
sg42
I5
sbsg138
g0
(g52
g2
Ntp287
Rp288
(dp289
g25
I00
sg31
I01
sg32
I01
sg42
I3
sbsg59
g149
sg61
I22
sg62
g276
sbsVphfCoincFilter3Th6
p290
g0
(g11
g2
Ntp291
Rp292
(dp293
g15
g134
sg17
(lp294
g136
ag137
ag138
asg25
I00
sg26
Nsg136
g0
(g27
g2
Ntp295
Rp296
(dp297
g25
I00
sg31
I01
sg32
I00
sg33
g142
sg35
g142
sg37
g36
sbsg32
I00
sg137
g0
(g52
g2
Ntp298
Rp299
(dp300
g25
I00
sg31
I01
sg32
I01
sg42
I6
sbsg138
g0
(g52
g2
Ntp301
Rp302
(dp303
g25
I00
sg31
I01
sg32
I01
sg42
I3
sbsg59
g149
sg61
I28
sg62
g290
sbsVphfCoincFilter4Th2
p304
g0
(g11
g2
Ntp305
Rp306
(dp307
g15
g134
sg17
(lp308
g136
ag137
ag138
asg25
I00
sg26
Nsg136
g0
(g27
g2
Ntp309
Rp310
(dp311
g25
I00
sg31
I01
sg32
I00
sg33
g142
sg35
g142
sg37
g36
sbsg32
I00
sg137
g0
(g52
g2
Ntp312
Rp313
(dp314
g25
I00
sg31
I01
sg32
I01
sg42
I2
sbsg138
g0
(g52
g2
Ntp315
Rp316
(dp317
g25
I00
sg31
I01
sg32
I01
sg42
I4
sbsg59
g149
sg61
I32
sg62
g304
sbsVphfCoincFilter4Th3
p318
g0
(g11
g2
Ntp319
Rp320
(dp321
g15
g134
sg17
(lp322
g136
ag137
ag138
asg25
I00
sg26
Nsg136
g0
(g27
g2
Ntp323
Rp324
(dp325
g25
I00
sg31
I01
sg32
I00
sg33
g142
sg35
g142
sg37
g36
sbsg32
I00
sg137
g0
(g52
g2
Ntp326
Rp327
(dp328
g25
I00
sg31
I01
sg32
I01
sg42
I3
sbsg138
g0
(g52
g2
Ntp329
Rp330
(dp331
g25
I00
sg31
I01
sg32
I01
sg42
I4
sbsg59
g149
sg61
I17
sg62
g318
sbsVphfCoincFilter4Th4
p332
g0
(g11
g2
Ntp333
Rp334
(dp335
g15
g134
sg17
(lp336
g136
ag137
ag138
asg25
I00
sg26
Nsg136
g0
(g27
g2
Ntp337
Rp338
(dp339
g25
I00
sg31
I01
sg32
I00
sg33
g142
sg35
g142
sg37
g36
sbsg32
I00
sg137
g0
(g52
g2
Ntp340
Rp341
(dp342
g25
I00
sg31
I01
sg32
I00
sg42
I4
sbsg138
g0
(g52
g2
Ntp343
Rp344
(dp345
g25
I00
sg31
I01
sg32
I01
sg42
I4
sbsg59
g149
sg61
I11
sg62
g332
sbsVphfCoincFilter4Th5
p346
g0
(g11
g2
Ntp347
Rp348
(dp349
g15
g134
sg17
(lp350
g136
ag137
ag138
asg25
I00
sg26
Nsg136
g0
(g27
g2
Ntp351
Rp352
(dp353
g25
I00
sg31
I01
sg32
I00
sg33
g142
sg35
g142
sg37
g36
sbsg32
I00
sg137
g0
(g52
g2
Ntp354
Rp355
(dp356
g25
I00
sg31
I01
sg32
I01
sg42
I5
sbsg138
g0
(g52
g2
Ntp357
Rp358
(dp359
g25
I00
sg31
I01
sg32
I01
sg42
I4
sbsg59
g149
sg61
I23
sg62
g346
sbsVphfCoincFilter4Th6
p360
g0
(g11
g2
Ntp361
Rp362
(dp363
g15
g134
sg17
(lp364
g136
ag137
ag138
asg25
I00
sg26
Nsg136
g0
(g27
g2
Ntp365
Rp366
(dp367
g25
I00
sg31
I01
sg32
I00
sg33
g142
sg35
g142
sg37
g36
sbsg32
I00
sg137
g0
(g52
g2
Ntp368
Rp369
(dp370
g25
I00
sg31
I01
sg32
I01
sg42
I6
sbsg138
g0
(g52
g2
Ntp371
Rp372
(dp373
g25
I00
sg31
I01
sg32
I01
sg42
I4
sbsg59
g149
sg61
I29
sg62
g360
sbsVphfCoincFilter5Th3
p374
g0
(g11
g2
Ntp375
Rp376
(dp377
g15
g134
sg17
(lp378
g136
ag137
ag138
asg25
I00
sg26
Nsg136
g0
(g27
g2
Ntp379
Rp380
(dp381
g25
I00
sg31
I01
sg32
I00
sg33
g142
sg35
g142
sg37
g36
sbsg32
I00
sg137
g0
(g52
g2
Ntp382
Rp383
(dp384
g25
I00
sg31
I01
sg32
I01
sg42
I3
sbsg138
g0
(g52
g2
Ntp385
Rp386
(dp387
g25
I00
sg31
I01
sg32
I01
sg42
I5
sbsg59
g149
sg61
I18
sg62
g374
sbsVphfCoincFilter5Th4
p388
g0
(g11
g2
Ntp389
Rp390
(dp391
g15
g134
sg17
(lp392
g136
ag137
ag138
asg25
I00
sg26
Nsg136
g0
(g27
g2
Ntp393
Rp394
(dp395
g25
I00
sg31
I01
sg32
I00
sg33
g142
sg35
g142
sg37
g36
sbsg32
I00
sg137
g0
(g52
g2
Ntp396
Rp397
(dp398
g25
I00
sg31
I01
sg32
I00
sg42
I4
sbsg138
g0
(g52
g2
Ntp399
Rp400
(dp401
g25
I00
sg31
I01
sg32
I01
sg42
I5
sbsg59
g149
sg61
I12
sg62
g388
sbsVphfCoincFilter5Th5
p402
g0
(g11
g2
Ntp403
Rp404
(dp405
g15
g134
sg17
(lp406
g136
ag137
ag138
asg25
I00
sg26
Nsg136
g0
(g27
g2
Ntp407
Rp408
(dp409
g25
I00
sg31
I01
sg32
I00
sg33
g142
sg35
g142
sg37
g36
sbsg32
I00
sg137
g0
(g52
g2
Ntp410
Rp411
(dp412
g25
I00
sg31
I01
sg32
I01
sg42
I5
sbsg138
g0
(g52
g2
Ntp413
Rp414
(dp415
g25
I00
sg31
I01
sg32
I01
sg42
I5
sbsg59
g149
sg61
I24
sg62
g402
sbsVphfCoincFilter5Th6
p416
g0
(g11
g2
Ntp417
Rp418
(dp419
g15
g134
sg17
(lp420
g136
ag137
ag138
asg25
I00
sg26
Nsg136
g0
(g27
g2
Ntp421
Rp422
(dp423
g25
I00
sg31
I01
sg32
I00
sg33
g142
sg35
g142
sg37
g36
sbsg32
I00
sg137
g0
(g52
g2
Ntp424
Rp425
(dp426
g25
I00
sg31
I01
sg32
I01
sg42
I6
sbsg138
g0
(g52
g2
Ntp427
Rp428
(dp429
g25
I00
sg31
I01
sg32
I01
sg42
I5
sbsg59
g149
sg61
I30
sg62
g416
sbsVhltMB
p430
g0
(g11
g2
Ntp431
Rp432
(dp433
g15
VHLTHighLevel
p434
sg17
(lp435
VTriggerResultsTag
p436
aVHLTPaths
p437
aVeventSetupPathsKey
p438
aVeventSetupPathsLabel
p439
aVandOr
p440
aVthrow
p441
ag72
asg25
I00
sg26
Nsg436
g0
(g27
g2
Ntp442
Rp443
(dp444
g25
I00
sg31
I01
sg32
I00
sg33
VTriggerResults
p445
sg35
g36
sg37
VHLT
p446
sbsg32
I01
sg437
g0
(g105
g47
(lp447
VHLT_HIMinimumBiasHF1AND*
p448
atp449
Rp450
(dp451
g25
I00
sg31
I01
sg32
I01
sV_nPerLine
p452
I1
sbsg438
g0
(g121
g2
Ntp453
Rp454
(dp455
g25
I00
sg31
I01
sg32
I00
sg42
g36
sbsg439
g0
(g121
g2
Ntp456
Rp457
(dp458
g25
I00
sg31
I01
sg32
I00
sg42
g36
sbsg440
g0
(g73
g2
Ntp459
Rp460
(dp461
g25
I00
sg31
I01
sg32
I00
sg42
I01
sbsg441
g0
(g73
g2
Ntp462
Rp463
(dp464
g25
I00
sg31
I01
sg32
I00
sg42
I00
sbsg72
g0
(g100
g2
Ntp465
Rp466
(dp467
g25
I00
sg31
I00
sg32
I00
sg104
g105
sg106
Nsbsg59
V/afs/cern.ch/user/v/vpant/CMSSW_15_0_0_pre1_v2/CMSSW_15_0_0_pre1/src/Analyzers/RaghuEffTest/cfg/EfficiecnyTest_genTrk_cfg.py
p468
sg61
I100
sg62
g430
sbssV_Process__producers
p469
(dp470
VrandomEngineStateProducer
p471
g0
(cFWCore.ParameterSet.Modules
EDProducer
p472
g2
Ntp473
Rp474
(dp475
g15
VRandomEngineStateProducer
p476
sg17
(lp477
sg25
I00
sg26
Nsg32
I00
sg59
V/cvmfs/cms.cern.ch/el8_amd64_gcc12/cms/cmssw/CMSSW_15_0_0_pre1/src/IOMC/RandomEngine/python/IOMC_cff.py
p478
sg61
I172
sg62
g471
sbsVgeneralAndHiPixelTracks
p479
g0
(g472
g2
Ntp480
Rp481
(dp482
g15
g479
sg17
(lp483
VsrcPFcand
p484
aVchi2Map
p485
aVgenTrackSrc
p486
aVpixTrackSrc
p487
aVvertexSrc
p488
aVcentralitySrc
p489
aVmvaSrc
p490
aVcutWidth
p491
aVtrkRes
p492
aVqualityString
p493
aVdxyErrMax
p494
aVdzErrMax
p495
aVptErrMax
p496
aVnhitsMin
p497
aVchi2nMax
p498
aVchi2nMaxPixel
p499
aVdzErrMaxPixel
p500
aVdxyErrMaxPixel
p501
asg25
I00
sg26
Nsg484
g0
(g27
g2
Ntp502
Rp503
(dp504
g25
I00
sg31
I01
sg32
I00
sg33
VpackedPFCandidates
p505
sg35
g36
sg37
g36
sbsg32
I00
sg485
g0
(g27
g2
Ntp506
Rp507
(dp508
g25
I00
sg31
I01
sg32
I00
sg33
VpackedPFCandidateTrackChi2
p509
sg35
g36
sg37
g36
sbsg486
g0
(g27
g2
Ntp510
Rp511
(dp512
g25
I00
sg31
I01
sg32
I00
sg33
VgeneralTracks
p513
sg35
g36
sg37
g36
sbsg487
g0
(g27
g2
Ntp514
Rp515
(dp516
g25
I00
sg31
I01
sg32
I00
sg33
VhiPixelTracks
p517
sg35
g36
sg37
g36
sbsg488
g0
(g27
g2
Ntp518
Rp519
(dp520
g25
I00
sg31
I01
sg32
I00
sg33
VofflineSlimmedPrimaryVerticesRecovery
p521
sg35
g36
sg37
g36
sbsg489
g0
(g27
g2
Ntp522
Rp523
(dp524
g25
I00
sg31
I01
sg32
I00
sg33
VcentralityBin
p525
sg35
VHFtowers
p526
sg37
g36
sbsg490
g0
(g27
g2
Ntp527
Rp528
(dp529
g25
I00
sg31
I01
sg32
I00
sg33
g513
sg35
VMVAValues
p530
sg37
g36
sbsg491
g0
(g38
g2
Ntp531
Rp532
(dp533
g25
I00
sg31
I01
sg32
I00
sg42
F0.2
sbsg492
g0
(g38
g2
Ntp534
Rp535
(dp536
g25
I00
sg31
I01
sg32
I00
sg42
F0.02
sbsg493
g0
(g121
g2
Ntp537
Rp538
(dp539
g25
I00
sg31
I01
sg32
I00
sg42
VhighPurity
p540
sbsg494
g0
(g38
g2
Ntp541
Rp542
(dp543
g25
I00
sg31
I01
sg32
I00
sg42
F3.0
sbsg495
g0
(g38
g2
Ntp544
Rp545
(dp546
g25
I00
sg31
I01
sg32
I00
sg42
F3.0
sbsg496
g0
(g38
g2
Ntp547
Rp548
(dp549
g25
I00
sg31
I01
sg32
I00
sg42
F0.1
sbsg497
g0
(g52
g2
Ntp550
Rp551
(dp552
g25
I00
sg31
I01
sg32
I00
sg42
I11
sbsg498
g0
(g38
g2
Ntp553
Rp554
(dp555
g25
I00
sg31
I01
sg32
I00
sg42
F0.18
sbsg499
g0
(g38
g2
Ntp556
Rp557
(dp558
g25
I00
sg31
I01
sg32
I00
sg42
F9999.0
sbsg500
g0
(g38
g2
Ntp559
Rp560
(dp561
g25
I00
sg31
I01
sg32
I00
sg42
F20.0
sbsg501
g0
(g38
g2
Ntp562
Rp563
(dp564
g25
I00
sg31
I01
sg32
I00
sg42
F7.0
sbsg59
V/afs/cern.ch/user/v/vpant/CMSSW_15_0_0_pre1_v2/CMSSW_15_0_0_pre1/src/MergingProducer/generalAndHiPixelTracks/python/MergingPixAndGenProducer_cfi.py
p565
sg61
I3
sg62
g479
sbsg525
g0
(g472
g2
Ntp566
Rp567
(dp568
g15
VCentralityBinProducer
p569
sg17
(lp570
VCentrality
p571
aVcentralityVariable
p572
aVnonDefaultGlauberModel
p573
aVpPbRunFlip
p574
asg25
I00
sg26
Nsg571
g0
(g27
g2
Ntp575
Rp576
(dp577
g25
I00
sg31
I01
sg32
I00
sg33
VhiCentrality
p578
sg35
g36
sg37
g36
sbsg32
I01
sg572
g0
(g121
g2
Ntp579
Rp580
(dp581
g25
I00
sg31
I01
sg32
I00
sg42
g526
sbsg573
g0
(g121
g2
Ntp582
Rp583
(dp584
g25
I00
sg31
I01
sg32
I00
sg42
g36
sbsg574
g0
(cFWCore.ParameterSet.Types
uint32
p585
g2
Ntp586
Rp587
(dp588
g25
I00
sg31
I01
sg32
I00
sg42
I99999999
sbsg59
V/cvmfs/cms.cern.ch/el8_amd64_gcc12/cms/cmssw/CMSSW_15_0_0_pre1/src/RecoHI/HiCentralityAlgos/python/CentralityBin_cfi.py
p589
sg61
I3
sg62
g525
sbsg80
g0
(g472
g2
Ntp590
Rp591
(dp592
g15
VSiPixelRecHitConverter
p593
sg17
(lp594
g114
aVCPE
p595
aVVerboseLevel
p596
asg25
I00
sg26
Nsg114
g0
(g27
g2
Ntp597
Rp598
(dp599
g25
I00
sg31
I01
sg32
I00
sg33
VsiPixelClusters
p600
sg35
g36
sg37
g36
sbsg32
I00
sg595
g0
(g121
g2
Ntp601
Rp602
(dp603
g25
I00
sg31
I01
sg32
I00
sg42
VPixelCPEGeneric
p604
sbsg596
g0
(g52
g2
Ntp605
Rp606
(dp607
g25
I00
sg31
I00
sg32
I00
sg42
I0
sbsg59
V/cvmfs/cms.cern.ch/el8_amd64_gcc12/cms/cmssw/CMSSW_15_0_0_pre1/src/RecoLocalTracker/SiPixelRecHits/python/SiPixelRecHits_cfi.py
p608
sg61
I8
sg62
g80
sbsVsiPixelRecHitsPreSplittingAlpaka
p609
g0
(g472
g2
Ntp610
Rp611
(dp612
g15
VSiPixelRecHitAlpakaPhase1@alpaka
p613
sg17
(lp614
VbeamSpot
p615
ag114
ag595
ag72
aValpaka
p616
asg25
I00
sg26
Nsg615
g0
(g27
g2
Ntp617
Rp618
(dp619
g25
I00
sg31
I01
sg32
I00
sg33
VofflineBeamSpotDevice
p620
sg35
g36
sg37
g36
sbsg32
I00
sg114
g0
(g27
g2
Ntp621
Rp622
(dp623
g25
I00
sg31
I01
sg32
I01
sg33
VsiPixelClustersPreSplittingAlpaka
p624
sg35
g36
sg37
g36
sbsg595
g0
(g121
g2
Ntp625
Rp626
(dp627
g25
I00
sg31
I01
sg32
I00
sg42
VPixelCPEFastParams
p628
sbsg72
g0
(g100
g2
Ntp629
Rp630
(dp631
g25
I00
sg31
I00
sg32
I00
sg104
g105
sg106
Nsbsg616
g0
(cFWCore.ParameterSet.Types
PSet
p632
g2
Ntp633
Rp634
(dp635
g25
I00
sg31
I00
sg32
I00
sg17
(lp636
Vbackend
p637
asg26
Nsg637
g0
(g121
g2
Ntp638
Rp639
(dp640
g25
I00
sg31
I00
sg32
I00
sg42
g36
sbsbsg59
g608
sg61
I137
sg62
g609
sbsVsiPixelRecHitsPreSplittingAlpakaSerial
p641
g0
(g472
g2
Ntp642
Rp643
(dp644
g15
Valpaka_serial_sync::SiPixelRecHitAlpakaPhase1
p645
sg17
(lp646
g615
ag114
ag595
ag72
asg25
I00
sg26
Nsg615
g0
(g27
g2
Ntp647
Rp648
(dp649
g25
I00
sg31
I01
sg32
I00
sg33
g620
sg35
g36
sg37
g36
sbsg32
I00
sg114
g0
(g27
g2
Ntp650
Rp651
(dp652
g25
I00
sg31
I01
sg32
I01
sg33
VsiPixelClustersPreSplittingAlpakaSerial
p653
sg35
g36
sg37
g36
sbsg595
g0
(g121
g2
Ntp654
Rp655
(dp656
g25
I00
sg31
I01
sg32
I00
sg42
g628
sbsg72
g0
(g100
g2
Ntp657
Rp658
(dp659
g25
I00
sg31
I00
sg32
I00
sg104
g105
sg106
Nsbsg59
V/cvmfs/cms.cern.ch/el8_amd64_gcc12/cms/cmssw/CMSSW_15_0_0_pre1/src/HeterogeneousCore/AlpakaCore/python/functions.py
p660
sg61
I19
sg62
g641
sbsVsiPixelRecHitsPreSplittingCPU
p661
g0
(g472
g2
Ntp662
Rp663
(dp664
g15
VSiPixelRecHitSoAFromLegacyPhase1
p665
sg17
(lp666
g615
ag114
ag595
aVconvertToLegacy
p667
ag72
asg25
I00
sg26
Nsg615
g0
(g27
g2
Ntp668
Rp669
(dp670
g25
I00
sg31
I01
sg32
I00
sg33
VofflineBeamSpot
p671
sg35
g36
sg37
g36
sbsg32
I00
sg114
g0
(g27
g2
Ntp672
Rp673
(dp674
g25
I00
sg31
I01
sg32
I00
sg33
VsiPixelClustersPreSplitting
p675
sg35
g36
sg37
g36
sbsg595
g0
(g121
g2
Ntp676
Rp677
(dp678
g25
I00
sg31
I01
sg32
I00
sg42
VPixelCPEFast
p679
sbsg667
g0
(g73
g2
Ntp680
Rp681
(dp682
g25
I00
sg31
I01
sg32
I01
sg42
I01
sbsg72
g0
(g100
g2
Ntp683
Rp684
(dp685
g25
I00
sg31
I00
sg32
I00
sg104
g105
sg106
Nsbsg59
g608
sg61
I31
sg62
g661
sbsVsiPixelRecHitsPreSplittingCUDA
p686
g0
(g472
g2
Ntp687
Rp688
(dp689
g15
VSiPixelRecHitCUDAPhase1
p690
sg17
(lp691
g615
ag114
ag595
ag72
asg25
I00
sg26
Nsg615
g0
(g27
g2
Ntp692
Rp693
(dp694
g25
I00
sg31
I01
sg32
I01
sg33
VofflineBeamSpotToCUDA
p695
sg35
g36
sg37
g36
sbsg32
I00
sg114
g0
(g27
g2
Ntp696
Rp697
(dp698
g25
I00
sg31
I01
sg32
I00
sg33
VsiPixelClustersPreSplittingCUDA
p699
sg35
g36
sg37
g36
sbsg595
g0
(g121
g2
Ntp700
Rp701
(dp702
g25
I00
sg31
I01
sg32
I00
sg42
g679
sbsg72
g0
(g100
g2
Ntp703
Rp704
(dp705
g25
I00
sg31
I00
sg32
I00
sg104
g105
sg106
Nsbsg59
g608
sg61
I56
sg62
g686
sbssV_Process__switchproducers
p706
(dp707
VsiPixelRecHitsPreSplitting
p708
g0
(cHeterogeneousCore.CUDACore.SwitchProducerCUDA
SwitchProducerCUDA
p709
g2
Ntp710
Rp711
(dp712
g15
Nsg17
(lp713
Vcpu
p714
asg25
I00
sg26
Nsg32
I00
sg59
V/cvmfs/cms.cern.ch/el8_amd64_gcc12/cms/cmssw/CMSSW_15_0_0_pre1/src/FWCore/ParameterSet/python/Modules.py
p715
sg61
I249
sV_caseFunctionDict
p716
(dp717
g714
cFWCore.ParameterSet.Modules
_switch_cpu
p718
sVcuda
p719
cHeterogeneousCore.CUDACore.SwitchProducerCUDA
_switch_cuda
p720
ssg714
g0
(g472
g2
Ntp721
Rp722
(dp723
g15
g593
sg17
(lp724
g114
ag595
ag596
asg25
I00
sg26
Nsg114
g0
(g27
g2
Ntp725
Rp726
(dp727
g25
I00
sg31
I01
sg32
I01
sg33
g675
sg35
g36
sg37
g36
sbsg32
I00
sg595
g0
(g121
g2
Ntp728
Rp729
(dp730
g25
I00
sg31
I01
sg32
I00
sg42
g604
sbsg596
g0
(g52
g2
Ntp731
Rp732
(dp733
g25
I00
sg31
I00
sg32
I00
sg42
I0
sbsg59
g608
sg61
I16
sg62
VsiPixelRecHitsPreSplitting@cpu
p734
sbsg62
g708
sbsVsiPixelRecHitsPreSplittingSoA
p735
g0
(g709
g2
Ntp736
Rp737
(dp738
g15
Nsg17
(lp739
g714
asg25
I00
sg26
Nsg32
I00
sg59
g715
sg61
I249
sg716
(dp740
g714
g718
sg719
g720
ssg714
g0
(cFWCore.ParameterSet.Types
EDAlias
p741
g2
Ntp742
Rp743
(dp744
g17
(lp745
g661
asg25
I00
sg26
Nsg661
g0
(cFWCore.ParameterSet.Types
VPSet
p746
g47
(lp747
g0
(g632
g2
Ntp748
Rp749
(dp750
g25
I00
sg31
I01
sg32
I00
sg17
(lp751
Vtype
p752
asg26
Nsg752
g0
(g121
g2
Ntp753
Rp754
(dp755
g25
I00
sg31
I01
sg32
I00
sg42
VpixelTopologyPhase1TrackingRecHitSoAHost
p756
sbsbag0
(g632
g2
Ntp757
Rp758
(dp759
g25
I00
sg31
I01
sg32
I00
sg17
(lp760
g752
asg26
Nsg752
g0
(g121
g2
Ntp761
Rp762
(dp763
g25
I00
sg31
I01
sg32
I00
sg42
VuintAsHostProduct
p764
sbsbatp765
Rp766
(dp767
g25
I00
sg31
I01
sg32
I00
sg452
I1
sbsg32
I00
sg62
VsiPixelRecHitsPreSplittingSoA@cpu
p768
sbsg62
g735
sbssV_Process__source
p769
g0
(cFWCore.ParameterSet.Modules
Source
p770
g2
Ntp771
Rp772
(dp773
g15
VPoolSource
p774
sg17
(lp775
VfileNames
p776
aVduplicateCheckMode
p777
aVskipBadFiles
p778
asg25
I00
sg26
Nsg776
g0
(g105
g47
(lp779
V/store/user/rpradhan/Pythia8_NoPU_0p5MEvents_TuneCP5_QCD_ptHat15_5360GeV/PrivatePythia8_NoPU_0p5MEvents_TuneCP5_QCD_ptHat15_MiniAOD/250223_174633/0000/output_QCDpthat15_MINIAOD_1.root
p780
atp781
Rp782
(dp783
g25
I00
sg31
I00
sg32
I00
sg452
I1
sbsg32
I00
sg777
g0
(g121
g2
Ntp784
Rp785
(dp786
g25
I00
sg31
I00
sg32
I00
sg42
VnoDuplicateCheck
p787
sbsg778
g0
(g73
g2
Ntp788
Rp789
(dp790
g25
I00
sg31
I00
sg32
I00
sg42
I01
sbsg59
g715
sg61
I194
sbsV_Process__looper
p791
NsV_Process__subProcesses
p792
(lp793
sV_Process__schedule
p794
NsV_Process__analyzers
p795
(dp796
VhiEvtAnalyzer
p797
g0
(cFWCore.ParameterSet.Modules
EDAnalyzer
p798
g2
Ntp799
Rp800
(dp801
g15
VHiEvtAnalyzer
p802
sg17
(lp803
VCentralitySrc
p804
aVCentralityBinSrc
p805
aVpfCandidateSrc
p806
aVEvtPlane
p807
aVEvtPlaneFlat
p808
aVHiMC
p809
aVVertex
p810
ag136
aVdoCentrality
p811
aVdoEvtPlane
p812
aVdoEvtPlaneFlat
p813
aVdoVertex
p814
aVdoMC
p815
aVdoHiMC
p816
aVuseHepMC
p817
aVdoHFfilters
p818
aVevtPlaneLevel
p819
asg25
I00
sg26
Nsg804
g0
(g27
g2
Ntp820
Rp821
(dp822
g25
I00
sg31
I01
sg32
I00
sg33
g578
sg35
g36
sg37
g36
sbsg32
I00
sg805
g0
(g27
g2
Ntp823
Rp824
(dp825
g25
I00
sg31
I01
sg32
I00
sg33
g525
sg35
g526
sg37
g36
sbsg806
g0
(g27
g2
Ntp826
Rp827
(dp828
g25
I00
sg31
I01
sg32
I00
sg33
g505
sg35
g36
sg37
g36
sbsg807
g0
(g27
g2
Ntp829
Rp830
(dp831
g25
I00
sg31
I01
sg32
I00
sg33
VhiEvtPlane
p832
sg35
g36
sg37
g36
sbsg808
g0
(g27
g2
Ntp833
Rp834
(dp835
g25
I00
sg31
I01
sg32
I00
sg33
VhiEvtPlaneFlat
p836
sg35
g36
sg37
g36
sbsg809
g0
(g27
g2
Ntp837
Rp838
(dp839
g25
I00
sg31
I01
sg32
I00
sg33
VheavyIon
p840
sg35
g36
sg37
g36
sbsg810
g0
(g27
g2
Ntp841
Rp842
(dp843
g25
I00
sg31
I01
sg32
I00
sg33
g120
sg35
g36
sg37
g36
sbsg136
g0
(g27
g2
Ntp844
Rp845
(dp846
g25
I00
sg31
I01
sg32
I00
sg33
g142
sg35
g142
sg37
g36
sbsg811
g0
(g73
g2
Ntp847
Rp848
(dp849
g25
I00
sg31
I01
sg32
I00
sg42
I01
sbsg812
g0
(g73
g2
Ntp850
Rp851
(dp852
g25
I00
sg31
I01
sg32
I00
sg42
I01
sbsg813
g0
(g73
g2
Ntp853
Rp854
(dp855
g25
I00
sg31
I01
sg32
I00
sg42
I01
sbsg814
g0
(g73
g2
Ntp856
Rp857
(dp858
g25
I00
sg31
I01
sg32
I00
sg42
I01
sbsg815
g0
(g73
g2
Ntp859
Rp860
(dp861
g25
I00
sg31
I01
sg32
I00
sg42
I00
sbsg816
g0
(g73
g2
Ntp862
Rp863
(dp864
g25
I00
sg31
I01
sg32
I00
sg42
I00
sbsg817
g0
(g73
g2
Ntp865
Rp866
(dp867
g25
I00
sg31
I01
sg32
I00
sg42
I00
sbsg818
g0
(g73
g2
Ntp868
Rp869
(dp870
g25
I00
sg31
I01
sg32
I00
sg42
I01
sbsg819
g0
(g52
g2
Ntp871
Rp872
(dp873
g25
I00
sg31
I01
sg32
I00
sg42
I0
sbsg59
V/afs/cern.ch/user/v/vpant/CMSSW_15_0_0_pre1_v2/CMSSW_15_0_0_pre1/src/HeavyIonsAnalysis/EventAnalysis/python/hievtanalyzer_data_cfi.py
p874
sg61
I3
sg62
g797
sbsVdefaultCPDC
p875
g0
(g798
g2
Ntp876
Rp877
(dp878
g15
g7
sg17
(lp879
Vtracks
p880
aVtracksgen
p881
aVtrackschi2
p882
aVvertex
p883
aVzminVtx
p884
aVzmaxVtx
p885
aVfGeneral
p886
aVfGeneral2
p887
aVpTBins
p888
aVetaBins
p889
aValgoParameters
p890
asg25
I00
sg26
Nsg880
g0
(g27
g2
Ntp891
Rp892
(dp893
g25
I00
sg31
I01
sg32
I00
sg33
g505
sg35
g36
sg37
g36
sbsg32
I00
sg881
g0
(g27
g2
Ntp894
Rp895
(dp896
g25
I00
sg31
I01
sg32
I00
sg33
VpackedGenParticles
p897
sg35
g36
sg37
g36
sbsg882
g0
(g27
g2
Ntp898
Rp899
(dp900
g25
I00
sg31
I01
sg32
I00
sg33
g509
sg35
g36
sg37
g36
sbsg883
g0
(g27
g2
Ntp901
Rp902
(dp903
g25
I00
sg31
I01
sg32
I00
sg33
g120
sg35
g36
sg37
g36
sbsg884
g0
(g38
g2
Ntp904
Rp905
(dp906
g25
I00
sg31
I00
sg32
I00
sg42
F-15.0
sbsg885
g0
(g38
g2
Ntp907
Rp908
(dp909
g25
I00
sg31
I00
sg32
I00
sg42
F15.0
sbsg886
g0
(g27
g2
Ntp910
Rp911
(dp912
g25
I00
sg31
I00
sg32
I00
sg33
VPythia_pthat15_ppref24.root
p913
sg35
g36
sg37
g36
sbsg887
g0
(g27
g2
Ntp914
Rp915
(dp916
g25
I00
sg31
I00
sg32
I00
sg33
VGeneral_TrackEff_3D_nhits0_noChi2Cut_ptGt10ptResoCut_Nominal_NewSampleQCD.root
p917
sg35
g36
sg37
g36
sbsg888
g0
(g46
g47
(lp918
F0.0
aF0.05
aF0.1
aF0.15
aF0.2
aF0.25
aF0.3
aF0.35
aF0.4
aF0.45
aF0.5
aF0.55
aF0.6
aF0.65
aF0.7
aF0.75
aF0.8
aF0.85
aF0.9
aF0.95
aF1.0
aF1.05
aF1.1
aF1.15
aF1.2
aF1.3
aF1.4
aF1.5
aF1.6
aF1.7
aF1.8
aF1.9
aF2.0
aF2.5
aF3.0
atp919
Rp920
(dp921
g25
I00
sg31
I00
sg32
I00
sbsg889
g0
(g46
g47
(lp922
F-3.0
aF-2.4
aF-2.0
aF-1.6
aF-1.2
aF-0.8
aF-0.4
aF0.0
aF0.4
aF0.8
aF1.2
aF1.6
aF2.0
aF2.4
aF3.0
atp923
Rp924
(dp925
g25
I00
sg31
I00
sg32
I00
sbsg890
g0
(cFWCore.ParameterSet.Types
vint32
p926
g47
(lp927
I0
aI1
aI2
aI3
aI4
aI5
aI6
aI7
aI8
aI9
aI10
aI11
aI12
aI13
aI14
aI15
aI16
aI17
aI18
aI19
aI20
aI21
aI22
aI23
aI24
aI25
aI26
aI27
aI28
aI29
aI30
aI31
aI32
aI33
aI34
aI35
aI36
aI37
aI38
aI39
aI40
aI41
aI42
aI43
aI44
aI45
aI46
atp928
Rp929
(dp930
g25
I00
sg31
I01
sg32
I00
sbsg59
V/afs/cern.ch/user/v/vpant/CMSSW_15_0_0_pre1_v2/CMSSW_15_0_0_pre1/src/Analyzers/RaghuEffTest/python/RaghuEffTest_cfi.py
p931
sg61
I3
sg62
g875
sbssV_Process__outputmodules
p932
(dp933
sV_Process__paths
p934
g0
(cFWCore.ParameterSet.DictTypes
SortedKeysDict
p935
c__builtin__
dict
p936
(dp937
Vp
p938
g0
(cFWCore.ParameterSet.SequenceTypes
Path
p939
g2
Ntp940
Rp941
(dp942
g25
I00
sV_seq
p943
g0
(cFWCore.ParameterSet.SequenceTypes
_SequenceCollection
p944
g2
Ntp945
Rp946
(dp947
V_collection
p948
(lp949
g877
asbsg32
I00
sV_tasks
p950
g0
(cFWCore.ParameterSet.OrderedSet
OrderedSet
p951
g2
Ntp952
Rp953
(dp954
Vend
p955
(lp956
Nag956
ag956
asVmap
p957
(dp958
sbsg62
g938
sbstp959
Rp960
(dp961
Vlist
p962
(lp963
g938
asbsV_Process__endpaths
p964
g0
(g935
g936
(dp965
tp966
Rp967
(dp968
g962
(lp969
sbsV_Process__finalpaths
p970
g0
(g935
g936
(dp971
tp972
Rp973
(dp974
g962
(lp975
sbsV_Process__sequences
p976
(dp977
VeventFilter
p978
g0
(cFWCore.ParameterSet.SequenceTypes
Sequence
p979
g2
Ntp980
Rp981
(dp982
g25
I00
sg943
g0
(g944
g2
Ntp983
Rp984
(dp985
g948
(lp986
g208
ag110
ag13
asbsg32
I00
sg950
g0
(g951
g2
Ntp987
Rp988
(dp989
g955
(lp990
Nag990
ag990
asg957
(dp991
sbsg62
g978
sbssV_Process__tasks
p992
(dp993
VsiPixelRecHitsPreSplittingTask
p994
g0
(cFWCore.ParameterSet.SequenceTypes
Task
p995
g2
Ntp996
Rp997
(dp998
g948
g0
(g951
g2
Ntp999
Rp1000
(dp1001
g955
(lp1002
Na(lp1003
g711
ag1002
ag1002
aag1003
asg957
(dp1004
g711
g1003
ssbsg62
g994
sbssV_Process__conditionaltasks
p1005
(dp1006
sV_Process__services
p1007
(dp1008
VMessageLogger
p1009
g0
(cFWCore.ParameterSet.Modules
Service
p1010
g2
Ntp1011
Rp1012
(dp1013
g15
g1009
sg17
(lp1014
VsuppressWarning
p1015
aVsuppressFwkInfo
p1016
aVsuppressInfo
p1017
aVsuppressDebug
p1018
aVdebugModules
p1019
aVcout
p1020
aVdefault
p1021
aVcerr
p1022
aVfiles
p1023
asg25
I00
sg26
g0
(g100
g2
Ntp1024
Rp1025
(dp1026
g25
I00
sg31
I00
sg32
I00
sg104
g0
(cFWCore.ParameterSet.Types
_PSetTemplate
p1027
g2
Ntp1028
Rp1029
(dp1030
V_pset
p1031
g0
(g632
g2
Ntp1032
Rp1033
(dp1034
g25
I00
sg31
I01
sg32
I00
sg17
(lp1035
VreportEvery
p1036
aVlimit
p1037
aVtimespan
p1038
asg26
Nsg1036
g0
(g52
g2
Ntp1039
Rp1040
(dp1041
g25
I00
sg31
I00
sg32
I00
sg42
I1
sbsg1037
g0
(g100
g2
Ntp1042
Rp1043
(dp1044
g25
I00
sg31
I00
sg32
I00
sg104
g52
sg106
Nsbsg1038
g0
(g100
g2
Ntp1045
Rp1046
(dp1047
g25
I00
sg31
I00
sg32
I00
sg104
g52
sg106
Nsbsbsbsg106
Nsbsg1015
g0
(g105
g47
(lp1048
tp1049
Rp1050
(dp1051
g25
I00
sg31
I00
sg32
I00
sg452
I1
sbsg32
I00
sg1016
g0
(g105
g47
(lp1052
tp1053
Rp1054
(dp1055
g25
I00
sg31
I00
sg32
I00
sg452
I1
sbsg1017
g0
(g105
g47
(lp1056
tp1057
Rp1058
(dp1059
g25
I00
sg31
I00
sg32
I00
sg452
I1
sbsg1018
g0
(g105
g47
(lp1060
tp1061
Rp1062
(dp1063
g25
I00
sg31
I00
sg32
I00
sg452
I1
sbsg1019
g0
(g105
g47
(lp1064
tp1065
Rp1066
(dp1067
g25
I00
sg31
I00
sg32
I00
sg452
I1
sbsg1020
g0
(g632
g2
Ntp1068
Rp1069
(dp1070
g25
I00
sg31
I00
sg32
I00
sg17
(lp1071
VnoLineBreaks
p1072
aVnoTimeStamps
p1073
aVlineLength
p1074
ag137
aVstatisticsThreshold
p1075
aVenableStatistics
p1076
aVresetStatistics
p1077
aVenable
p1078
asg26
g1025
sg1072
g0
(g100
g2
Ntp1079
Rp1080
(dp1081
g25
I00
sg31
I00
sg32
I00
sg104
g73
sg106
Nsbsg1073
g0
(g100
g2
Ntp1082
Rp1083
(dp1084
g25
I00
sg31
I00
sg32
I00
sg104
g73
sg106
Nsbsg1074
g0
(g100
g2
Ntp1085
Rp1086
(dp1087
g25
I00
sg31
I00
sg32
I00
sg104
g52
sg106
Nsbsg137
g0
(g100
g2
Ntp1088
Rp1089
(dp1090
g25
I00
sg31
I00
sg32
I00
sg104
g121
sg106
Nsbsg1075
g0
(g100
g2
Ntp1091
Rp1092
(dp1093
g25
I00
sg31
I00
sg32
I00
sg104
g121
sg106
Nsbsg1076
g0
(g73
g2
Ntp1094
Rp1095
(dp1096
g25
I00
sg31
I00
sg32
I00
sg42
I00
sbsg1077
g0
(g73
g2
Ntp1097
Rp1098
(dp1099
g25
I00
sg31
I00
sg32
I00
sg42
I00
sbsg1078
g0
(g73
g2
Ntp1100
Rp1101
(dp1102
g25
I00
sg31
I00
sg32
I00
sg42
I00
sbsbsg1021
g0
(g632
g2
Ntp1103
Rp1104
(dp1105
g25
I00
sg31
I00
sg32
I00
sg17
(lp1106
g1036
ag1037
ag1038
ag1072
ag1073
ag1074
ag137
ag1075
asg26
g1025
sg1036
g0
(g52
g2
Ntp1107
Rp1108
(dp1109
g25
I00
sg31
I00
sg32
I00
sg42
I1
sbsg1037
g0
(g100
g2
Ntp1110
Rp1111
(dp1112
g25
I00
sg31
I00
sg32
I00
sg104
g52
sg106
Nsbsg1038
g0
(g100
g2
Ntp1113
Rp1114
(dp1115
g25
I00
sg31
I00
sg32
I00
sg104
g52
sg106
Nsbsg1072
g0
(g73
g2
Ntp1116
Rp1117
(dp1118
g25
I00
sg31
I00
sg32
I00
sg42
I00
sbsg1073
g0
(g73
g2
Ntp1119
Rp1120
(dp1121
g25
I00
sg31
I00
sg32
I00
sg42
I00
sbsg1074
g0
(g52
g2
Ntp1122
Rp1123
(dp1124
g25
I00
sg31
I00
sg32
I00
sg42
I80
sbsg137
g0
(g121
g2
Ntp1125
Rp1126
(dp1127
g25
I00
sg31
I00
sg32
I00
sg42
VINFO
p1128
sbsg1075
g0
(g121
g2
Ntp1129
Rp1130
(dp1131
g25
I00
sg31
I00
sg32
I00
sg42
g1128
sbsbsg1022
g0
(g632
g2
Ntp1132
Rp1133
(dp1134
g25
I00
sg31
I00
sg32
I00
sg17
(lp1135
g1072
ag1073
ag1074
ag137
ag1075
ag1078
ag1076
ag1077
ag1128
aVFwkReport
p1136
ag1021
aVRoot_NoDictionary
p1137
aVFwkSummary
p1138
asg26
g1025
sg1072
g0
(g100
g2
Ntp1139
Rp1140
(dp1141
g25
I00
sg31
I00
sg32
I00
sg104
g73
sg106
Nsbsg1073
g0
(g73
g2
Ntp1142
Rp1143
(dp1144
g25
I00
sg31
I00
sg32
I00
sg42
I00
sbsg1074
g0
(g100
g2
Ntp1145
Rp1146
(dp1147
g25
I00
sg31
I00
sg32
I00
sg104
g52
sg106
Nsbsg137
g0
(g121
g2
Ntp1148
Rp1149
(dp1150
g25
I00
sg31
I00
sg32
I00
sg42
g1128
sbsg1075
g0
(g121
g2
Ntp1151
Rp1152
(dp1153
g25
I00
sg31
I00
sg32
I00
sg42
VWARNING
p1154
sbsg1078
g0
(g73
g2
Ntp1155
Rp1156
(dp1157
g25
I00
sg31
I00
sg32
I00
sg42
I01
sbsg1076
g0
(g73
g2
Ntp1158
Rp1159
(dp1160
g25
I00
sg31
I00
sg32
I00
sg42
I00
sbsg1077
g0
(g73
g2
Ntp1161
Rp1162
(dp1163
g25
I00
sg31
I00
sg32
I00
sg42
I00
sbsg1128
g0
(g632
g2
Ntp1164
Rp1165
(dp1166
g25
I00
sg31
I00
sg32
I00
sg17
(lp1167
g1037
asg26
Nsg1037
g0
(g52
g2
Ntp1168
Rp1169
(dp1170
g25
I00
sg31
I00
sg32
I00
sg42
I0
sbsbsg1136
g0
(g632
g2
Ntp1171
Rp1172
(dp1173
g25
I00
sg31
I00
sg32
I01
sg17
(lp1174
g1036
ag1037
asg26
Nsg1036
g0
(g52
g2
Ntp1175
Rp1176
(dp1177
g25
I00
sg31
I00
sg32
I01
sg42
I200
sbsg1037
g0
(g52
g2
Ntp1178
Rp1179
(dp1180
g25
I00
sg31
I00
sg32
I00
sg42
I10000000
sbsbsg1021
g0
(g632
g2
Ntp1181
Rp1182
(dp1183
g25
I00
sg31
I00
sg32
I00
sg17
(lp1184
g1037
asg26
Nsg1037
g0
(g52
g2
Ntp1185
Rp1186
(dp1187
g25
I00
sg31
I00
sg32
I00
sg42
I10000000
sbsbsg1137
g0
(g632
g2
Ntp1188
Rp1189
(dp1190
g25
I00
sg31
I00
sg32
I00
sg17
(lp1191
g1037
asg26
Nsg1037
g0
(g52
g2
Ntp1192
Rp1193
(dp1194
g25
I00
sg31
I00
sg32
I00
sg42
I0
sbsbsg1138
g0
(g632
g2
Ntp1195
Rp1196
(dp1197
g25
I00
sg31
I00
sg32
I00
sg17
(lp1198
g1036
ag1037
asg26
Nsg1036
g0
(g52
g2
Ntp1199
Rp1200
(dp1201
g25
I00
sg31
I00
sg32
I00
sg42
I1
sbsg1037
g0
(g52
g2
Ntp1202
Rp1203
(dp1204
g25
I00
sg31
I00
sg32
I00
sg42
I10000000
sbsbsbsg1023
g0
(g632
g2
Ntp1205
Rp1206
(dp1207
g25
I00
sg31
I00
sg32
I00
sg17
(lp1208
sg26
g0
(g100
g2
Ntp1209
Rp1210
(dp1211
g25
I00
sg31
I00
sg32
I00
sg104
g0
(g1027
g2
Ntp1212
Rp1213
(dp1214
g1031
g0
(g632
g2
Ntp1215
Rp1216
(dp1217
g25
I00
sg31
I01
sg32
I00
sg17
(lp1218
g1072
ag1073
ag1074
ag137
ag1075
ag1076
ag1077
aVfilename
p1219
aVextension
p1220
aVoutput
p1221
asg26
g1025
sg1072
g0
(g100
g2
Ntp1222
Rp1223
(dp1224
g25
I00
sg31
I00
sg32
I00
sg104
g73
sg106
Nsbsg1073
g0
(g100
g2
Ntp1225
Rp1226
(dp1227
g25
I00
sg31
I00
sg32
I00
sg104
g73
sg106
Nsbsg1074
g0
(g100
g2
Ntp1228
Rp1229
(dp1230
g25
I00
sg31
I00
sg32
I00
sg104
g52
sg106
Nsbsg137
g0
(g100
g2
Ntp1231
Rp1232
(dp1233
g25
I00
sg31
I00
sg32
I00
sg104
g121
sg106
Nsbsg1075
g0
(g100
g2
Ntp1234
Rp1235
(dp1236
g25
I00
sg31
I00
sg32
I00
sg104
g121
sg106
Nsbsg1076
g0
(g73
g2
Ntp1237
Rp1238
(dp1239
g25
I00
sg31
I00
sg32
I00
sg42
I00
sbsg1077
g0
(g73
g2
Ntp1240
Rp1241
(dp1242
g25
I00
sg31
I00
sg32
I00
sg42
I00
sbsg1219
g0
(g100
g2
Ntp1243
Rp1244
(dp1245
g25
I00
sg31
I00
sg32
I00
sg104
g121
sg106
Nsbsg1220
g0
(g100
g2
Ntp1246
Rp1247
(dp1248
g25
I00
sg31
I00
sg32
I00
sg104
g121
sg106
Nsbsg1221
g0
(g100
g2
Ntp1249
Rp1250
(dp1251
g25
I00
sg31
I00
sg32
I00
sg104
g121
sg106
Nsbsbsbsg106
Nsbsbsg59
g715
sg61
I12
sV_inProcess
p1252
I00
sbsVDQMStore
p1253
g0
(g1010
g2
Ntp1254
Rp1255
(dp1256
g15
g1253
sg17
(lp1257
Vverbose
p1258
aVsaveByLumi
p1259
aVMEsToSave
p1260
aVtrackME
p1261
aVassertLegacySafe
p1262
aVenableMultiThread
p1263
aVonlineMode
p1264
asg25
I00
sg26
Nsg1258
g0
(g52
g2
Ntp1265
Rp1266
(dp1267
g25
I00
sg31
I00
sg32
I00
sg42
I0
sbsg32
I00
sg1259
g0
(g73
g2
Ntp1268
Rp1269
(dp1270
g25
I00
sg31
I00
sg32
I00
sg42
I00
sbsg1260
g0
(g105
g47
(lp1271
VHcal/DigiTask/Occupancy/depth/depth1
p1272
aVHcal/DigiTask/Occupancy/depth/depth2
p1273
aVHcal/DigiTask/Occupancy/depth/depth3
p1274
aVHcal/DigiTask/Occupancy/depth/depth4
p1275
aVHcal/DigiTask/Occupancy/depth/depth5
p1276
aVHcal/DigiTask/Occupancy/depth/depth6
p1277
aVHcal/DigiTask/Occupancy/depth/depth7
p1278
aVHcal/DigiTask/Occupancy/depth/depthHO
p1279
aVHcal/DigiTask/OccupancyCut/depth/depth1
p1280
aVHcal/DigiTask/OccupancyCut/depth/depth2
p1281
aVHcal/DigiTask/OccupancyCut/depth/depth3
p1282
aVHcal/DigiTask/OccupancyCut/depth/depth4
p1283
aVHcal/DigiTask/OccupancyCut/depth/depth5
p1284
aVHcal/DigiTask/OccupancyCut/depth/depth6
p1285
aVHcal/DigiTask/OccupancyCut/depth/depth7
p1286
aVHcal/DigiTask/OccupancyCut/depth/depthHO
p1287
aVEcalBarrel/EBOccupancyTask/EBOT digi occupancy
p1288
aVEcalEndcap/EEOccupancyTask/EEOT digi occupancy EE -
p1289
aVEcalEndcap/EEOccupancyTask/EEOT digi occupancy EE +
p1290
aVEcalBarrel/EBOccupancyTask/EBOT DCC entries
p1291
aVEcalEndcap/EEOccupancyTask/EEOT DCC entries
p1292
aVEcal/EventInfo/processedEvents
p1293
aVPixelPhase1/Tracks/charge_PXBarrel
p1294
aVPixelPhase1/Tracks/charge_PXForward
p1295
aVPixelPhase1/Tracks/PXBarrel/charge_PXLayer_1
p1296
aVPixelPhase1/Tracks/PXBarrel/charge_PXLayer_2
p1297
aVPixelPhase1/Tracks/PXBarrel/charge_PXLayer_3
p1298
aVPixelPhase1/Tracks/PXBarrel/charge_PXLayer_4
p1299
aVPixelPhase1/Tracks/PXForward/charge_PXDisk_+1
p1300
aVPixelPhase1/Tracks/PXForward/charge_PXDisk_+2
p1301
aVPixelPhase1/Tracks/PXForward/charge_PXDisk_+3
p1302
aVPixelPhase1/Tracks/PXForward/charge_PXDisk_-1
p1303
aVPixelPhase1/Tracks/PXForward/charge_PXDisk_-2
p1304
aVPixelPhase1/Tracks/PXForward/charge_PXDisk_-3
p1305
aVPixelPhase1/Tracks/PXBarrel/size_PXLayer_1
p1306
aVPixelPhase1/Tracks/PXBarrel/size_PXLayer_2
p1307
aVPixelPhase1/Tracks/PXBarrel/size_PXLayer_3
p1308
aVPixelPhase1/Tracks/PXBarrel/size_PXLayer_4
p1309
aVPixelPhase1/Tracks/PXForward/size_PXDisk_+1
p1310
aVPixelPhase1/Tracks/PXForward/size_PXDisk_+2
p1311
aVPixelPhase1/Tracks/PXForward/size_PXDisk_+3
p1312
aVPixelPhase1/Tracks/PXForward/size_PXDisk_-1
p1313
aVPixelPhase1/Tracks/PXForward/size_PXDisk_-2
p1314
aVPixelPhase1/Tracks/PXForward/size_PXDisk_-3
p1315
aVCSC/CSCOfflineMonitor/recHits/hRHGlobalm1
p1316
aVCSC/CSCOfflineMonitor/recHits/hRHGlobalm2
p1317
aVCSC/CSCOfflineMonitor/recHits/hRHGlobalm3
p1318
aVCSC/CSCOfflineMonitor/recHits/hRHGlobalm4
p1319
aVCSC/CSCOfflineMonitor/recHits/hRHGlobalp1
p1320
aVCSC/CSCOfflineMonitor/recHits/hRHGlobalp2
p1321
aVCSC/CSCOfflineMonitor/recHits/hRHGlobalp3
p1322
aVCSC/CSCOfflineMonitor/recHits/hRHGlobalp4
p1323
aVHLT/Vertexing/hltPixelVertices/hltPixelVertices/goodvtxNbr
p1324
aVHLT/Tracking/ValidationWRTOffline/hltMergedWrtHighPurityPV/mon_eta
p1325
aVHLT/Tracking/ValidationWRTOffline/hltMergedWrtHighPurityPV/mon_hits
p1326
aVHLT/Tracking/ValidationWRTOffline/hltMergedWrtHighPurityPV/mon_phi
p1327
aVHLT/Tracking/ValidationWRTOffline/hltMergedWrtHighPurityPV/mon_pt
p1328
aVHLT/Tracking/ValidationWRTOffline/hltMergedWrtHighPurityPV/mon_unMatched_eta
p1329
aVHLT/Tracking/ValidationWRTOffline/hltMergedWrtHighPurityPV/mon_unMatched_hits
p1330
aVHLT/Tracking/ValidationWRTOffline/hltMergedWrtHighPurityPV/mon_unMatched_phi
p1331
aVHLT/Tracking/ValidationWRTOffline/hltMergedWrtHighPurityPV/mon_unMatched_pt
p1332
aVHLT/Tracking/ValidationWRTOffline/hltMergedWrtHighPurityPV/ref_eta
p1333
aVHLT/Tracking/ValidationWRTOffline/hltMergedWrtHighPurityPV/ref_hits
p1334
aVHLT/Tracking/ValidationWRTOffline/hltMergedWrtHighPurityPV/ref_matched_eta
p1335
aVHLT/Tracking/ValidationWRTOffline/hltMergedWrtHighPurityPV/ref_matched_hits
p1336
aVHLT/Tracking/ValidationWRTOffline/hltMergedWrtHighPurityPV/ref_matched_phi
p1337
aVHLT/Tracking/ValidationWRTOffline/hltMergedWrtHighPurityPV/ref_matched_pt
p1338
aVHLT/Tracking/ValidationWRTOffline/hltMergedWrtHighPurityPV/ref_phi
p1339
aVHLT/Tracking/ValidationWRTOffline/hltMergedWrtHighPurityPV/ref_pt
p1340
aVHLT/Tracking/pixelTracks/GeneralProperties/Chi2Prob_GenTk
p1341
aVHLT/Tracking/pixelTracks/GeneralProperties/Chi2oNDFVsEta_ImpactPoint_GenTk
p1342
aVHLT/Tracking/pixelTracks/GeneralProperties/DeltaZToPVZoom_GenTk
p1343
aVHLT/Tracking/pixelTracks/GeneralProperties/DistanceOfClosestApproachToPVVsPhi_GenTk
p1344
aVHLT/Tracking/pixelTracks/GeneralProperties/DistanceOfClosestApproachToPVZoom_GenTk
p1345
aVHLT/Tracking/pixelTracks/GeneralProperties/NumberOfTracks_GenTk
p1346
aVHLT/Tracking/tracks/GeneralProperties/Chi2Prob_GenTk
p1347
aVHLT/Tracking/tracks/GeneralProperties/Chi2oNDFVsEta_ImpactPoint_GenTk
p1348
aVHLT/Tracking/tracks/GeneralProperties/DeltaZToPVZoom_GenTk
p1349
aVHLT/Tracking/tracks/GeneralProperties/DistanceOfClosestApproachToPVVsPhi_GenTk
p1350
aVHLT/Tracking/tracks/GeneralProperties/DistanceOfClosestApproachToPVZoom_GenTk
p1351
aVHLT/Tracking/tracks/GeneralProperties/NumberOfTracks_GenTk
p1352
aVHLT/Tracking/tracks/LUMIanalysis/NumberEventsVsLUMI
p1353
aVHLT/Tracking/tracks/PUmonitoring/NumberEventsVsGoodPVtx
p1354
aVPixelPhase1/Tracks/num_clusters_ontrack_PXBarrel
p1355
aVPixelPhase1/Tracks/num_clusters_ontrack_PXForward
p1356
aVPixelPhase1/Tracks/clusterposition_zphi_ontrack
p1357
aVPixelPhase1/Tracks/PXBarrel/clusterposition_zphi_ontrack_PXLayer_1
p1358
aVPixelPhase1/Tracks/PXBarrel/clusterposition_zphi_ontrack_PXLayer_2
p1359
aVPixelPhase1/Tracks/PXBarrel/clusterposition_zphi_ontrack_PXLayer_3
p1360
aVPixelPhase1/Tracks/PXBarrel/clusterposition_zphi_ontrack_PXLayer_4
p1361
aVPixelPhase1/Tracks/PXForward/clusterposition_xy_ontrack_PXDisk_+1
p1362
aVPixelPhase1/Tracks/PXForward/clusterposition_xy_ontrack_PXDisk_+2
p1363
aVPixelPhase1/Tracks/PXForward/clusterposition_xy_ontrack_PXDisk_+3
p1364
aVPixelPhase1/Tracks/PXForward/clusterposition_xy_ontrack_PXDisk_-1
p1365
aVPixelPhase1/Tracks/PXForward/clusterposition_xy_ontrack_PXDisk_-2
p1366
aVPixelPhase1/Tracks/PXForward/clusterposition_xy_ontrack_PXDisk_-3
p1367
aVPixelPhase1/Phase1_MechanicalView/PXBarrel/digi_occupancy_per_SignedModuleCoord_per_SignedLadderCoord_PXLayer_1
p1368
aVPixelPhase1/Phase1_MechanicalView/PXBarrel/digi_occupancy_per_SignedModuleCoord_per_SignedLadderCoord_PXLayer_2
p1369
aVPixelPhase1/Phase1_MechanicalView/PXBarrel/digi_occupancy_per_SignedModuleCoord_per_SignedLadderCoord_PXLayer_3
p1370
aVPixelPhase1/Phase1_MechanicalView/PXBarrel/digi_occupancy_per_SignedModuleCoord_per_SignedLadderCoord_PXLayer_4
p1371
aVPixelPhase1/Phase1_MechanicalView/PXForward/digi_occupancy_per_SignedDiskCoord_per_SignedBladePanelCoord_PXRing_1
p1372
aVPixelPhase1/Phase1_MechanicalView/PXForward/digi_occupancy_per_SignedDiskCoord_per_SignedBladePanelCoord_PXRing_2
p1373
aVPixelPhase1/Phase1_MechanicalView/PXBarrel/clusters_per_SignedModuleCoord_per_SignedLadderCoord_PXLayer_1
p1374
aVPixelPhase1/Phase1_MechanicalView/PXBarrel/clusters_per_SignedModuleCoord_per_SignedLadderCoord_PXLayer_2
p1375
aVPixelPhase1/Phase1_MechanicalView/PXBarrel/clusters_per_SignedModuleCoord_per_SignedLadderCoord_PXLayer_3
p1376
aVPixelPhase1/Phase1_MechanicalView/PXBarrel/clusters_per_SignedModuleCoord_per_SignedLadderCoord_PXLayer_4
p1377
aVPixelPhase1/Phase1_MechanicalView/PXForward/clusters_per_SignedDiskCoord_per_SignedBladePanelCoord_PXRing_1
p1378
aVPixelPhase1/Phase1_MechanicalView/PXForward/clusters_per_SignedDiskCoord_per_SignedBladePanelCoord_PXRing_2
p1379
aVSiStrip/MechanicalView/TEC/PLUS/wheel_1/NormalizedHitResiduals_TEC__wheel__1
p1380
aVSiStrip/MechanicalView/TEC/PLUS/wheel_2/NormalizedHitResiduals_TEC__wheel__2
p1381
aVSiStrip/MechanicalView/TEC/PLUS/wheel_3/NormalizedHitResiduals_TEC__wheel__3
p1382
aVSiStrip/MechanicalView/TEC/PLUS/wheel_4/NormalizedHitResiduals_TEC__wheel__4
p1383
aVSiStrip/MechanicalView/TEC/PLUS/wheel_5/NormalizedHitResiduals_TEC__wheel__5
p1384
aVSiStrip/MechanicalView/TEC/PLUS/wheel_6/NormalizedHitResiduals_TEC__wheel__6
p1385
aVSiStrip/MechanicalView/TEC/PLUS/wheel_7/NormalizedHitResiduals_TEC__wheel__7
p1386
aVSiStrip/MechanicalView/TEC/PLUS/wheel_8/NormalizedHitResiduals_TEC__wheel__8
p1387
aVSiStrip/MechanicalView/TEC/PLUS/wheel_9/NormalizedHitResiduals_TEC__wheel__9
p1388
aVSiStrip/MechanicalView/TEC/MINUS/wheel_1/NormalizedHitResiduals_TEC__wheel__1
p1389
aVSiStrip/MechanicalView/TEC/MINUS/wheel_2/NormalizedHitResiduals_TEC__wheel__2
p1390
aVSiStrip/MechanicalView/TEC/MINUS/wheel_3/NormalizedHitResiduals_TEC__wheel__3
p1391
aVSiStrip/MechanicalView/TEC/MINUS/wheel_4/NormalizedHitResiduals_TEC__wheel__4
p1392
aVSiStrip/MechanicalView/TEC/MINUS/wheel_5/NormalizedHitResiduals_TEC__wheel__5
p1393
aVSiStrip/MechanicalView/TEC/MINUS/wheel_6/NormalizedHitResiduals_TEC__wheel__6
p1394
aVSiStrip/MechanicalView/TEC/MINUS/wheel_7/NormalizedHitResiduals_TEC__wheel__7
p1395
aVSiStrip/MechanicalView/TEC/MINUS/wheel_8/NormalizedHitResiduals_TEC__wheel__8
p1396
aVSiStrip/MechanicalView/TEC/MINUS/wheel_9/NormalizedHitResiduals_TEC__wheel__9
p1397
aVSiStrip/MechanicalView/TEC/PLUS/wheel_1/Summary_ClusterStoNCorr__OnTrack__TEC__PLUS__wheel__1
p1398
aVSiStrip/MechanicalView/TEC/PLUS/wheel_2/Summary_ClusterStoNCorr__OnTrack__TEC__PLUS__wheel__2
p1399
aVSiStrip/MechanicalView/TEC/PLUS/wheel_3/Summary_ClusterStoNCorr__OnTrack__TEC__PLUS__wheel__3
p1400
aVSiStrip/MechanicalView/TEC/PLUS/wheel_4/Summary_ClusterStoNCorr__OnTrack__TEC__PLUS__wheel__4
p1401
aVSiStrip/MechanicalView/TEC/PLUS/wheel_5/Summary_ClusterStoNCorr__OnTrack__TEC__PLUS__wheel__5
p1402
aVSiStrip/MechanicalView/TEC/PLUS/wheel_6/Summary_ClusterStoNCorr__OnTrack__TEC__PLUS__wheel__6
p1403
aVSiStrip/MechanicalView/TEC/PLUS/wheel_7/Summary_ClusterStoNCorr__OnTrack__TEC__PLUS__wheel__7
p1404
aVSiStrip/MechanicalView/TEC/PLUS/wheel_8/Summary_ClusterStoNCorr__OnTrack__TEC__PLUS__wheel__8
p1405
aVSiStrip/MechanicalView/TEC/PLUS/wheel_9/Summary_ClusterStoNCorr__OnTrack__TEC__PLUS__wheel__9
p1406
aVSiStrip/MechanicalView/TEC/MINUS/wheel_1/Summary_ClusterStoNCorr__OnTrack__TEC__MINUS__wheel__1
p1407
aVSiStrip/MechanicalView/TEC/MINUS/wheel_2/Summary_ClusterStoNCorr__OnTrack__TEC__MINUS__wheel__2
p1408
aVSiStrip/MechanicalView/TEC/MINUS/wheel_3/Summary_ClusterStoNCorr__OnTrack__TEC__MINUS__wheel__3
p1409
aVSiStrip/MechanicalView/TEC/MINUS/wheel_4/Summary_ClusterStoNCorr__OnTrack__TEC__MINUS__wheel__4
p1410
aVSiStrip/MechanicalView/TEC/MINUS/wheel_5/Summary_ClusterStoNCorr__OnTrack__TEC__MINUS__wheel__5
p1411
aVSiStrip/MechanicalView/TEC/MINUS/wheel_6/Summary_ClusterStoNCorr__OnTrack__TEC__MINUS__wheel__6
p1412
aVSiStrip/MechanicalView/TEC/MINUS/wheel_7/Summary_ClusterStoNCorr__OnTrack__TEC__MINUS__wheel__7
p1413
aVSiStrip/MechanicalView/TEC/MINUS/wheel_8/Summary_ClusterStoNCorr__OnTrack__TEC__MINUS__wheel__8
p1414
aVSiStrip/MechanicalView/TEC/MINUS/wheel_9/Summary_ClusterStoNCorr__OnTrack__TEC__MINUS__wheel__9
p1415
aVSiStrip/MechanicalView/TIB/layer_1/NormalizedHitResiduals_TIB__Layer__1
p1416
aVSiStrip/MechanicalView/TIB/layer_2/NormalizedHitResiduals_TIB__Layer__2
p1417
aVSiStrip/MechanicalView/TIB/layer_3/NormalizedHitResiduals_TIB__Layer__3
p1418
aVSiStrip/MechanicalView/TIB/layer_4/NormalizedHitResiduals_TIB__Layer__4
p1419
aVSiStrip/MechanicalView/TIB/layer_1/Summary_ClusterStoNCorr__OnTrack__TIB__layer__1
p1420
aVSiStrip/MechanicalView/TIB/layer_2/Summary_ClusterStoNCorr__OnTrack__TIB__layer__2
p1421
aVSiStrip/MechanicalView/TIB/layer_3/Summary_ClusterStoNCorr__OnTrack__TIB__layer__3
p1422
aVSiStrip/MechanicalView/TIB/layer_4/Summary_ClusterStoNCorr__OnTrack__TIB__layer__4
p1423
aVSiStrip/MechanicalView/TID/PLUS/wheel_1/NormalizedHitResiduals_TID__wheel__1
p1424
aVSiStrip/MechanicalView/TID/PLUS/wheel_2/NormalizedHitResiduals_TID__wheel__2
p1425
aVSiStrip/MechanicalView/TID/PLUS/wheel_3/NormalizedHitResiduals_TID__wheel__3
p1426
aVSiStrip/MechanicalView/TID/MINUS/wheel_1/NormalizedHitResiduals_TID__wheel__1
p1427
aVSiStrip/MechanicalView/TID/MINUS/wheel_2/NormalizedHitResiduals_TID__wheel__2
p1428
aVSiStrip/MechanicalView/TID/MINUS/wheel_3/NormalizedHitResiduals_TID__wheel__3
p1429
aVSiStrip/MechanicalView/TID/PLUS/wheel_1/Summary_ClusterStoNCorr__OnTrack__TID__PLUS__wheel__1
p1430
aVSiStrip/MechanicalView/TID/PLUS/wheel_2/Summary_ClusterStoNCorr__OnTrack__TID__PLUS__wheel__2
p1431
aVSiStrip/MechanicalView/TID/PLUS/wheel_3/Summary_ClusterStoNCorr__OnTrack__TID__PLUS__wheel__3
p1432
aVSiStrip/MechanicalView/TID/MINUS/wheel_1/Summary_ClusterStoNCorr__OnTrack__TID__MINUS__wheel__1
p1433
aVSiStrip/MechanicalView/TID/MINUS/wheel_2/Summary_ClusterStoNCorr__OnTrack__TID__MINUS__wheel__2
p1434
aVSiStrip/MechanicalView/TID/MINUS/wheel_3/Summary_ClusterStoNCorr__OnTrack__TID__MINUS__wheel__3
p1435
aVSiStrip/MechanicalView/TOB/layer_1/NormalizedHitResiduals_TOB__Layer__1
p1436
aVSiStrip/MechanicalView/TOB/layer_2/NormalizedHitResiduals_TOB__Layer__2
p1437
aVSiStrip/MechanicalView/TOB/layer_3/NormalizedHitResiduals_TOB__Layer__3
p1438
aVSiStrip/MechanicalView/TOB/layer_4/NormalizedHitResiduals_TOB__Layer__4
p1439
aVSiStrip/MechanicalView/TOB/layer_5/NormalizedHitResiduals_TOB__Layer__5
p1440
aVSiStrip/MechanicalView/TOB/layer_6/NormalizedHitResiduals_TOB__Layer__6
p1441
aVSiStrip/MechanicalView/TOB/layer_1/Summary_ClusterStoNCorr__OnTrack__TOB__layer__1
p1442
aVSiStrip/MechanicalView/TOB/layer_2/Summary_ClusterStoNCorr__OnTrack__TOB__layer__2
p1443
aVSiStrip/MechanicalView/TOB/layer_3/Summary_ClusterStoNCorr__OnTrack__TOB__layer__3
p1444
aVSiStrip/MechanicalView/TOB/layer_4/Summary_ClusterStoNCorr__OnTrack__TOB__layer__4
p1445
aVSiStrip/MechanicalView/TOB/layer_5/Summary_ClusterStoNCorr__OnTrack__TOB__layer__5
p1446
aVSiStrip/MechanicalView/TOB/layer_6/Summary_ClusterStoNCorr__OnTrack__TOB__layer__6
p1447
aVSiStrip/MechanicalView/MainDiagonal Position
p1448
aVSiStrip/MechanicalView/NumberOfClustersInPixel
p1449
aVSiStrip/MechanicalView/NumberOfClustersInStrip
p1450
aVSiStrip/MechanicalView/TID/PLUS/wheel_1/TkHMap_NumberOfDigi_TIDP_D1
p1451
aVSiStrip/MechanicalView/TID/PLUS/wheel_1/TkHMap_NumberOfCluster_TIDP_D1
p1452
aVSiStrip/MechanicalView/TIB/layer_1/TkHMap_NumberOfDigi_TIB_L1
p1453
aVSiStrip/MechanicalView/TIB/layer_1/TkHMap_NumberOfCluster_TIB_L1
p1454
aVSiStrip/MechanicalView/TOB/layer_1/TkHMap_NumberOfDigi_TOB_L1
p1455
aVSiStrip/MechanicalView/TOB/layer_1/TkHMap_NumberOfCluster_TOB_L1
p1456
aVSiStrip/MechanicalView/TEC/PLUS/wheel_1/TkHMap_NumberOfDigi_TECP_W1
p1457
aVSiStrip/MechanicalView/TEC/PLUS/wheel_1/TkHMap_NumberOfCluster_TECP_W1
p1458
aVTracking/TrackParameters/generalTracks/LSanalysis/Chi2oNDF_lumiFlag_GenTk
p1459
aVTracking/TrackParameters/generalTracks/LSanalysis/NumberOfRecHitsPerTrack_lumiFlag_GenTk
p1460
aVTracking/TrackParameters/generalTracks/LSanalysis/NumberOfTracks_lumiFlag_GenTk
p1461
aVTracking/TrackParameters/highPurityTracks/pt_1/GeneralProperties/SIPDxyToPV_GenTk
p1462
aVTracking/TrackParameters/highPurityTracks/pt_1/GeneralProperties/SIPDzToPV_GenTk
p1463
aVTracking/TrackParameters/highPurityTracks/pt_1/GeneralProperties/SIP3DToPV_GenTk
p1464
aVTracking/TrackParameters/generalTracks/HitProperties/NumberOfMissingOuterRecHitsPerTrack_GenTk
p1465
aVTracking/TrackParameters/generalTracks/HitProperties/NumberMORecHitsPerTrackVsPt_GenTk
p1466
aVTracking/TrackParameters/highPurityTracks/pt_1/GeneralProperties/TrackEtaPhi_ImpactPoint_GenTk
p1467
aVTracking/TrackParameters/highPurityTracks/pt_1/GeneralProperties/NumberOfTracks_GenTk
p1468
aVTracking/TrackParameters/highPurityTracks/pt_1/HitProperties/NumberOfRecHitsPerTrack_GenTk
p1469
aVTracking/TrackParameters/highPurityTracks/pt_1/GeneralProperties/TrackPt_ImpactPoint_GenTk
p1470
aVTracking/TrackParameters/highPurityTracks/pt_1/GeneralProperties/Chi2oNDF_GenTk
p1471
aVTracking/TrackParameters/highPurityTracks/pt_1/GeneralProperties/TrackPhi_ImpactPoint_GenTk
p1472
aVTracking/TrackParameters/highPurityTracks/pt_1/GeneralProperties/TrackEta_ImpactPoint_GenTk
p1473
aVTracking/TrackParameters/highPurityTracks/pt_1/HitProperties/NumberOfRecHitsPerTrack_Strip_GenTk
p1474
aVTracking/TrackParameters/highPurityTracks/pt_1/HitProperties/NumberOfRecHitsPerTrack_Pixel_GenTk
p1475
aVTracking/TrackParameters/highPurityTracks/pt_1/GeneralProperties/DistanceOfClosestApproachToBS_GenTk
p1476
aVTracking/TrackParameters/highPurityTracks/pt_1/GeneralProperties/DistanceOfClosestApproachToBSdz_GenTk
p1477
aVTracking/TrackParameters/highPurityTracks/pt_1/GeneralProperties/DistanceOfClosestApproachToBSVsPhi_GenTk
p1478
aVTracking/TrackParameters/highPurityTracks/pt_1/GeneralProperties/DistanceOfClosestApproachToBSVsEta_GenTk
p1479
aVTracking/TrackParameters/highPurityTracks/pt_1/GeneralProperties/TrackQoverP_ImpactPoint_GenTk
p1480
aVTracking/TrackParameters/generalTracks/GeneralProperties/Quality_GenTk
p1481
aVTracking/TrackParameters/generalTracks/GeneralProperties/NumberofTracks_Hardvtx_GenTk
p1482
aVTracking/TrackParameters/generalTracks/GeneralProperties/NumberofTracks_PUvtx_GenTk
p1483
aVTracking/TrackParameters/generalTracks/GeneralProperties/TrackPtHighpurity_ImpactPoint_GenTk
p1484
aVTracking/TrackParameters/generalTracks/GeneralProperties/TrackPtTight_ImpactPoint_GenTk
p1485
aVTracking/TrackParameters/generalTracks/GeneralProperties/TrackPtLoose_ImpactPoint_GenTk
p1486
aVTracking/TrackParameters/generalTracks/GeneralProperties/TrackEtaHighpurity_ImpactPoint_GenTk
p1487
aVTracking/TrackParameters/generalTracks/GeneralProperties/TrackEtaTight_ImpactPoint_GenTk
p1488
aVTracking/TrackParameters/generalTracks/GeneralProperties/TrackEtaLoose_ImpactPoint_GenTk
p1489
aVTracking/PrimaryVertices/highPurityTracks/pt_0to1/offline/NumberOfGoodPVtx_offline
p1490
aVTracking/PrimaryVertices/highPurityTracks/pt_0to1/offline/GoodPVtxNumberOfTracks_offline
p1491
aVTracking/TrackParameters/generalTracks/GeneralProperties/NumberofTracks_Hardvtx_PUvtx_GenTk
p1492
aVTracking/PrimaryVertices/highPurityTracks/pt_0to1/offline/FractionOfGoodPVtx_offline
p1493
aVTracking/TrackParameters/generalTracks/GeneralProperties/TkEtaPhi_Ratio_byFoldingmap_ImpactPoint_GenTk
p1494
aVTracking/TrackParameters/generalTracks/GeneralProperties/TkEtaPhi_Ratio_byFoldingmap_op_ImpactPoint_GenTk
p1495
aVTracking/TrackParameters/generalTracks/GeneralProperties/TkEtaPhi_RelativeDifference_byFoldingmap_ImpactPoint_GenTk
p1496
aVTracking/TrackParameters/generalTracks/GeneralProperties/TkEtaPhi_RelativeDifference_byFoldingmap_op_ImpactPoint_GenTk
p1497
aVOfflinePV/offlinePrimaryVertices/tagVtxProb
p1498
aVOfflinePV/offlinePrimaryVertices/tagType
p1499
aVOfflinePV/Resolution/PV/pull_x
p1500
aVOfflinePV/Resolution/PV/pull_y
p1501
aVOfflinePV/Resolution/PV/pull_z
p1502
aVOfflinePV/offlinePrimaryVertices/tagDiffX
p1503
aVOfflinePV/offlinePrimaryVertices/tagDiffY
p1504
aVJetMET/Jet/Cleanedak4PFJetsCHS/CHFrac_highPt_Barrel
p1505
aVJetMET/Jet/Cleanedak4PFJetsCHS/CHFrac_highPt_EndCap
p1506
aVJetMET/Jet/Cleanedak4PFJetsCHS/CHFrac_mediumPt_Barrel
p1507
aVJetMET/Jet/Cleanedak4PFJetsCHS/CHFrac_mediumPt_EndCap
p1508
aVJetMET/Jet/Cleanedak4PFJetsCHS/CHFrac_lowPt_Barrel
p1509
aVJetMET/Jet/Cleanedak4PFJetsCHS/CHFrac_lowPt_EndCap
p1510
aVJetMET/Jet/Cleanedak4PFJetsCHS/ChMultiplicity_highPt_Barrel
p1511
aVJetMET/Jet/Cleanedak4PFJetsCHS/ChMultiplicity_highPt_EndCap
p1512
aVJetMET/Jet/Cleanedak4PFJetsCHS/ChMultiplicity_mediumPt_Barrel
p1513
aVJetMET/Jet/Cleanedak4PFJetsCHS/ChMultiplicity_mediumPt_EndCap
p1514
aVJetMET/Jet/Cleanedak4PFJetsCHS/ChMultiplicity_lowPt_Barrel
p1515
aVJetMET/Jet/Cleanedak4PFJetsCHS/ChMultiplicity_lowPt_EndCap
p1516
aVJetMET/Jet/Cleanedak4PFJetsCHS/Constituents
p1517
aVJetMET/Jet/Cleanedak4PFJetsCHS/Eta
p1518
aVJetMET/Jet/Cleanedak4PFJetsCHS/Eta_uncor
p1519
aVJetMET/Jet/Cleanedak4PFJetsCHS/JetEnergyCorr
p1520
aVJetMET/Jet/Cleanedak4PFJetsCHS/NJets
p1521
aVJetMET/Jet/Cleanedak4PFJetsCHS/Phi
p1522
aVJetMET/Jet/Cleanedak4PFJetsCHS/Phi_Barrel
p1523
aVJetMET/Jet/Cleanedak4PFJetsCHS/Phi_EndCap
p1524
aVJetMET/Jet/Cleanedak4PFJetsCHS/Pt
p1525
aVJetMET/Jet/Cleanedak4PFJetsPuppi/PtJetMET/Jet/Cleanedak4PFJetsPuppi/Phi
p1526
aVJetMET/Jet/Cleanedak4PFJetsPuppi/Phi_Barrel
p1527
aVJetMET/Jet/Cleanedak4PFJetsPuppi/Phi_EndCap
p1528
aVJetMET/Jet/Cleanedak4PFJetsPuppi/JetEnergyCorr
p1529
aVJetMET/Jet/Cleanedak4PFJetsPuppi/NJets
p1530
aVJetMET/Jet/Cleanedak4PFJetsPuppi/Eta
p1531
aVJetMET/Jet/Cleanedak4PFJetsPuppi/Eta_uncor
p1532
aVJetMET/MET/pfMETT1/Cleaned/METSig
p1533
aVJetMET/vertices
p1534
aVJetMET/HIJetValidation/akCs4PFJets/SumPFPt
p1535
aVJetMET/HIJetValidation/akCs4PFJets/NJets
p1536
aVJetMET/HIJetValidation/akCs4PFJets/NPFpart
p1537
aVJetMET/HIJetValidation/akPu4CaloJets/SumCaloPt
p1538
aVJetMET/HIJetValidation/akPu4CaloJets/NCalopart
p1539
aVJetMET/HIJetValidation/akPu4CaloJets/NJets
p1540
aVMuons/MuonRecoAnalyzer/GlbMuon_Glb_pt
p1541
aVMuons/MuonRecoAnalyzer/GlbMuon_Glb_eta
p1542
aVMuons/MuonRecoAnalyzer/GlbMuon_Glb_phi
p1543
aVMuons/MuonRecoAnalyzer/Res_TkGlb_qOverlap
p1544
aVMuons/diMuonHistograms/GlbGlbMuon_LM
p1545
aVMuons/diMuonHistograms/GlbGlbMuon_HM
p1546
aVMuons/Isolation/global/relPFIso_R03
p1547
aVMuons/globalMuons/GeneralProperties/NumberOfMeanRecHitsPerTrack_glb
p1548
aVMuons/standAloneMuonsUpdatedAtVtx/HitProperties/NumberOfValidRecHitsPerTrack_sta
p1549
aVMuons/MuonRecoOneHLT/GlbMuon_Glb_pt
p1550
aVMuons/MuonRecoOneHLT/GlbMuon_Glb_eta
p1551
aVEgamma/Electrons/Ele5_TagAndProbe/ele0_vertexPt_barrel
p1552
aVEgamma/Electrons/Ele5_TagAndProbe/ele1_vertexPt_endcaps
p1553
aVEgamma/Electrons/Ele5_TagAndProbe/ele2_vertexEta
p1554
aVEgamma/Electrons/Ele5_TagAndProbe/ele5_vertexZ
p1555
aVEgamma/Electrons/Ele5_TagAndProbe/ele10_Eop_barrel
p1556
aVEgamma/Electrons/Ele5_TagAndProbe/ele10_Eop_endcaps
p1557
aVEgamma/Electrons/Ele5_TagAndProbe/ele101_etaEff
p1558
aVEgamma/Electrons/Ele5_TagAndProbe/ele102_phiEff
p1559
aVEgamma/Electrons/Ele5_TagAndProbe/ele201_mee_os
p1560
atp1561
Rp1562
(dp1563
g25
I00
sg31
I00
sg32
I00
sg452
I1
sbsg1261
g0
(g121
g2
Ntp1564
Rp1565
(dp1566
g25
I00
sg31
I00
sg32
I00
sg42
g36
sbsg1262
g0
(g73
g2
Ntp1567
Rp1568
(dp1569
g25
I00
sg31
I00
sg32
I00
sg42
I00
sbsg1263
g0
(g73
g2
Ntp1570
Rp1571
(dp1572
g25
I00
sg31
I00
sg32
I00
sg42
I01
sbsg1264
g0
(g73
g2
Ntp1573
Rp1574
(dp1575
g25
I00
sg31
I00
sg32
I00
sg42
I00
sbsg59
g715
sg61
I12
sg1252
I01
sbsVRandomNumberGeneratorService
p1576
g0
(g1010
g2
Ntp1577
Rp1578
(dp1579
g15
g1576
sg17
(lp1580
VexternalLHEProducer
p1581
aVgenerator
p1582
aVVtxSmeared
p1583
aVLHCTransport
p1584
aVhiSignalLHCTransport
p1585
aVg4SimHits
p1586
aVmix
p1587
aVmixData
p1588
aVsimSiStripDigiSimLink
p1589
aVsimMuonDTDigis
p1590
aVsimMuonCSCDigis
p1591
aVsimMuonRPCDigis
p1592
aVhiSignal
p1593
aVhiSignalG4SimHits
p1594
aVfamosPileUp
p1595
aVmixGenPU
p1596
aVmixSimCaloHits
p1597
aVmixRecoTracks
p1598
aVfastSimProducer
p1599
aVfastTrackerRecHits
p1600
aVecalRecHit
p1601
aVecalPreshowerRecHit
p1602
aVhbhereco
p1603
aVhoreco
p1604
aVhfreco
p1605
aVparamMuons
p1606
aVl1ParamMuons
p1607
aVMuonSimHits
p1608
aVCTPPSFastRecHits
p1609
aVsimBeamSpotFilter
p1610
aVRPixDetDigitizer
p1611
aVRPSiDetDigitizer
p1612
aVsaveFileName
p1613
asg25
I00
sg26
Nsg1581
g0
(g632
g2
Ntp1614
Rp1615
(dp1616
g25
I00
sg31
I01
sg32
I00
sg17
(lp1617
VinitialSeed
p1618
aVengineName
p1619
asg26
Nsg1618
g0
(g585
g2
Ntp1620
Rp1621
(dp1622
g25
I00
sg31
I00
sg32
I00
sg42
I234567
sbsg1619
g0
(g121
g2
Ntp1623
Rp1624
(dp1625
g25
I00
sg31
I00
sg32
I00
sg42
VMixMaxRng
p1626
sbsbsg32
I00
sg1582
g0
(g632
g2
Ntp1627
Rp1628
(dp1629
g25
I00
sg31
I01
sg32
I00
sg17
(lp1630
g1618
ag1619
asg26
Nsg1618
g0
(g585
g2
Ntp1631
Rp1632
(dp1633
g25
I00
sg31
I00
sg32
I00
sg42
I123456789
sbsg1619
g1624
sbsg1583
g0
(g632
g2
Ntp1634
Rp1635
(dp1636
g25
I00
sg31
I01
sg32
I00
sg17
(lp1637
g1618
ag1619
asg26
Nsg1618
g0
(g585
g2
Ntp1638
Rp1639
(dp1640
g25
I00
sg31
I00
sg32
I00
sg42
I98765432
sbsg1619
g1624
sbsg1584
g0
(g632
g2
Ntp1641
Rp1642
(dp1643
g25
I00
sg31
I01
sg32
I00
sg17
(lp1644
g1618
ag1619
asg26
Nsg1618
g0
(g585
g2
Ntp1645
Rp1646
(dp1647
g25
I00
sg31
I00
sg32
I00
sg42
I87654321
sbsg1619
g0
(g121
g2
Ntp1648
Rp1649
(dp1650
g25
I00
sg31
I00
sg32
I00
sg42
VTRandom3
p1651
sbsbsg1585
g0
(g632
g2
Ntp1652
Rp1653
(dp1654
g25
I00
sg31
I01
sg32
I00
sg17
(lp1655
g1618
ag1619
asg26
Nsg1618
g0
(g585
g2
Ntp1656
Rp1657
(dp1658
g25
I00
sg31
I00
sg32
I00
sg42
I88776655
sbsg1619
g0
(g121
g2
Ntp1659
Rp1660
(dp1661
g25
I00
sg31
I00
sg32
I00
sg42
g1626
sbsbsg1586
g0
(g632
g2
Ntp1662
Rp1663
(dp1664
g25
I00
sg31
I01
sg32
I00
sg17
(lp1665
g1618
ag1619
asg26
Nsg1618
g0
(g585
g2
Ntp1666
Rp1667
(dp1668
g25
I00
sg31
I00
sg32
I00
sg42
I11
sbsg1619
g1624
sbsg1587
g0
(g632
g2
Ntp1669
Rp1670
(dp1671
g25
I00
sg31
I01
sg32
I00
sg17
(lp1672
g1618
ag1619
asg26
Nsg1618
g0
(g585
g2
Ntp1673
Rp1674
(dp1675
g25
I00
sg31
I00
sg32
I00
sg42
I12345
sbsg1619
g1624
sbsg1588
g0
(g632
g2
Ntp1676
Rp1677
(dp1678
g25
I00
sg31
I01
sg32
I00
sg17
(lp1679
g1618
ag1619
asg26
Nsg1618
g0
(g585
g2
Ntp1680
Rp1681
(dp1682
g25
I00
sg31
I00
sg32
I00
sg42
I12345
sbsg1619
g1624
sbsg1589
g0
(g632
g2
Ntp1683
Rp1684
(dp1685
g25
I00
sg31
I01
sg32
I00
sg17
(lp1686
g1618
ag1619
asg26
Nsg1618
g0
(g585
g2
Ntp1687
Rp1688
(dp1689
g25
I00
sg31
I00
sg32
I00
sg42
I1234567
sbsg1619
g1624
sbsg1590
g0
(g632
g2
Ntp1690
Rp1691
(dp1692
g25
I00
sg31
I01
sg32
I00
sg17
(lp1693
g1618
ag1619
asg26
Nsg1618
g0
(g585
g2
Ntp1694
Rp1695
(dp1696
g25
I00
sg31
I00
sg32
I00
sg42
I1234567
sbsg1619
g1624
sbsg1591
g0
(g632
g2
Ntp1697
Rp1698
(dp1699
g25
I00
sg31
I01
sg32
I00
sg17
(lp1700
g1618
ag1619
asg26
Nsg1618
g0
(g585
g2
Ntp1701
Rp1702
(dp1703
g25
I00
sg31
I00
sg32
I00
sg42
I11223344
sbsg1619
g1624
sbsg1592
g0
(g632
g2
Ntp1704
Rp1705
(dp1706
g25
I00
sg31
I01
sg32
I00
sg17
(lp1707
g1618
ag1619
asg26
Nsg1618
g0
(g585
g2
Ntp1708
Rp1709
(dp1710
g25
I00
sg31
I00
sg32
I00
sg42
I1234567
sbsg1619
g1624
sbsg1593
g0
(g632
g2
Ntp1711
Rp1712
(dp1713
g25
I00
sg31
I01
sg32
I00
sg17
(lp1714
g1618
ag1619
asg26
Nsg1618
g0
(g585
g2
Ntp1715
Rp1716
(dp1717
g25
I00
sg31
I00
sg32
I00
sg42
I123456789
sbsg1619
g1624
sbsg1594
g0
(g632
g2
Ntp1718
Rp1719
(dp1720
g25
I00
sg31
I01
sg32
I00
sg17
(lp1721
g1618
ag1619
asg26
Nsg1618
g0
(g585
g2
Ntp1722
Rp1723
(dp1724
g25
I00
sg31
I00
sg32
I00
sg42
I11
sbsg1619
g1624
sbsg1595
g0
(g632
g2
Ntp1725
Rp1726
(dp1727
g25
I00
sg31
I01
sg32
I00
sg17
(lp1728
g1618
ag1619
asg26
Nsg1618
g0
(g585
g2
Ntp1729
Rp1730
(dp1731
g25
I00
sg31
I00
sg32
I00
sg42
I918273
sbsg1619
g1660
sbsg1596
g0
(g632
g2
Ntp1732
Rp1733
(dp1734
g25
I00
sg31
I01
sg32
I00
sg17
(lp1735
g1618
ag1619
asg26
Nsg1618
g0
(g585
g2
Ntp1736
Rp1737
(dp1738
g25
I00
sg31
I00
sg32
I00
sg42
I918273
sbsg1619
g1660
sbsg1597
g0
(g632
g2
Ntp1739
Rp1740
(dp1741
g25
I00
sg31
I01
sg32
I00
sg17
(lp1742
g1618
ag1619
asg26
Nsg1618
g0
(g585
g2
Ntp1743
Rp1744
(dp1745
g25
I00
sg31
I00
sg32
I00
sg42
I918273
sbsg1619
g1660
sbsg1598
g0
(g632
g2
Ntp1746
Rp1747
(dp1748
g25
I00
sg31
I01
sg32
I00
sg17
(lp1749
g1618
ag1619
asg26
Nsg1618
g0
(g585
g2
Ntp1750
Rp1751
(dp1752
g25
I00
sg31
I00
sg32
I00
sg42
I918273
sbsg1619
g1660
sbsg1599
g0
(g632
g2
Ntp1753
Rp1754
(dp1755
g25
I00
sg31
I01
sg32
I00
sg17
(lp1756
g1618
ag1619
asg26
Nsg1618
g0
(g585
g2
Ntp1757
Rp1758
(dp1759
g25
I00
sg31
I00
sg32
I00
sg42
I13579
sbsg1619
g1660
sbsg1600
g0
(g632
g2
Ntp1760
Rp1761
(dp1762
g25
I00
sg31
I01
sg32
I00
sg17
(lp1763
g1618
ag1619
asg26
Nsg1618
g0
(g585
g2
Ntp1764
Rp1765
(dp1766
g25
I00
sg31
I00
sg32
I00
sg42
I24680
sbsg1619
g1660
sbsg1601
g0
(g632
g2
Ntp1767
Rp1768
(dp1769
g25
I00
sg31
I01
sg32
I00
sg17
(lp1770
g1618
ag1619
asg26
Nsg1618
g0
(g585
g2
Ntp1771
Rp1772
(dp1773
g25
I00
sg31
I00
sg32
I00
sg42
I654321
sbsg1619
g1660
sbsg1602
g0
(g632
g2
Ntp1774
Rp1775
(dp1776
g25
I00
sg31
I01
sg32
I00
sg17
(lp1777
g1618
ag1619
asg26
Nsg1618
g0
(g585
g2
Ntp1778
Rp1779
(dp1780
g25
I00
sg31
I00
sg32
I00
sg42
I6541321
sbsg1619
g1660
sbsg1603
g0
(g632
g2
Ntp1781
Rp1782
(dp1783
g25
I00
sg31
I01
sg32
I00
sg17
(lp1784
g1618
ag1619
asg26
Nsg1618
g0
(g585
g2
Ntp1785
Rp1786
(dp1787
g25
I00
sg31
I00
sg32
I00
sg42
I541321
sbsg1619
g1660
sbsg1604
g0
(g632
g2
Ntp1788
Rp1789
(dp1790
g25
I00
sg31
I01
sg32
I00
sg17
(lp1791
g1618
ag1619
asg26
Nsg1618
g0
(g585
g2
Ntp1792
Rp1793
(dp1794
g25
I00
sg31
I00
sg32
I00
sg42
I541321
sbsg1619
g1660
sbsg1605
g0
(g632
g2
Ntp1795
Rp1796
(dp1797
g25
I00
sg31
I01
sg32
I00
sg17
(lp1798
g1618
ag1619
asg26
Nsg1618
g0
(g585
g2
Ntp1799
Rp1800
(dp1801
g25
I00
sg31
I00
sg32
I00
sg42
I541321
sbsg1619
g1660
sbsg1606
g0
(g632
g2
Ntp1802
Rp1803
(dp1804
g25
I00
sg31
I01
sg32
I00
sg17
(lp1805
g1618
ag1619
asg26
Nsg1618
g0
(g585
g2
Ntp1806
Rp1807
(dp1808
g25
I00
sg31
I00
sg32
I00
sg42
I54525
sbsg1619
g1660
sbsg1607
g0
(g632
g2
Ntp1809
Rp1810
(dp1811
g25
I00
sg31
I01
sg32
I00
sg17
(lp1812
g1618
ag1619
asg26
Nsg1618
g0
(g585
g2
Ntp1813
Rp1814
(dp1815
g25
I00
sg31
I00
sg32
I00
sg42
I6453209
sbsg1619
g1660
sbsg1608
g0
(g632
g2
Ntp1816
Rp1817
(dp1818
g25
I00
sg31
I01
sg32
I00
sg17
(lp1819
g1618
ag1619
asg26
Nsg1618
g0
(g585
g2
Ntp1820
Rp1821
(dp1822
g25
I00
sg31
I00
sg32
I00
sg42
I987346
sbsg1619
g1660
sbsg1609
g0
(g632
g2
Ntp1823
Rp1824
(dp1825
g25
I00
sg31
I01
sg32
I00
sg17
(lp1826
g1618
ag1619
asg26
Nsg1618
g0
(g585
g2
Ntp1827
Rp1828
(dp1829
g25
I00
sg31
I00
sg32
I00
sg42
I1357987
sbsg1619
g1660
sbsg1610
g0
(g632
g2
Ntp1830
Rp1831
(dp1832
g25
I00
sg31
I01
sg32
I00
sg17
(lp1833
g1618
ag1619
asg26
Nsg1618
g0
(g585
g2
Ntp1834
Rp1835
(dp1836
g25
I00
sg31
I00
sg32
I00
sg42
I87654321
sbsg1619
g1624
sbsg1611
g0
(g632
g2
Ntp1837
Rp1838
(dp1839
g25
I00
sg31
I01
sg32
I00
sg17
(lp1840
g1618
ag1619
asg26
Nsg1618
g0
(g585
g2
Ntp1841
Rp1842
(dp1843
g25
I00
sg31
I00
sg32
I00
sg42
I137137
sbsg1619
g1624
sbsg1612
g0
(g632
g2
Ntp1844
Rp1845
(dp1846
g25
I00
sg31
I01
sg32
I00
sg17
(lp1847
g1618
ag1619
asg26
Nsg1618
g0
(g585
g2
Ntp1848
Rp1849
(dp1850
g25
I00
sg31
I00
sg32
I00
sg42
I137137
sbsg1619
g1624
sbsg1613
g0
(g121
g2
Ntp1851
Rp1852
(dp1853
g25
I00
sg31
I00
sg32
I00
sg42
g36
sbsg59
g715
sg61
I12
sg1252
I01
sbsVTFileService
p1854
g0
(g1010
g2
Ntp1855
Rp1856
(dp1857
g15
g1854
sg17
(lp1858
VfileName
p1859
asg25
I00
sg26
Nsg1859
g0
(g121
g2
Ntp1860
Rp1861
(dp1862
g25
I00
sg31
I01
sg32
I00
sg42
VHistogram_OOMC_Test.root
p1863
sbsg32
I00
sg59
g715
sg61
I12
sg1252
I01
sbssV_Process__essources
p1864
(dp1865
Veegeom
p1866
g0
(cFWCore.ParameterSet.Modules
ESSource
p1867
g2
Ntp1868
Rp1869
(dp1870
g15
VEmptyESSource
p1871
sg17
(lp1872
VrecordName
p1873
aViovIsRunNotTime
p1874
aVfirstValid
p1875
asg25
I00
sg26
Nsg1873
g0
(g121
g2
Ntp1876
Rp1877
(dp1878
g25
I00
sg31
I01
sg32
I00
sg42
VEcalMappingRcd
p1879
sbsg32
I00
sg1874
g0
(g73
g2
Ntp1880
Rp1881
(dp1882
g25
I00
sg31
I01
sg32
I00
sg42
I01
sbsg1875
g0
(cFWCore.ParameterSet.Types
vuint32
p1883
g47
(lp1884
I1
atp1885
Rp1886
(dp1887
g25
I00
sg31
I01
sg32
I00
sbsg59
V/cvmfs/cms.cern.ch/el8_amd64_gcc12/cms/cmssw/CMSSW_15_0_0_pre1/src/Geometry/EcalMapping/python/EcalMappingRecord_cfi.py
p1888
sg61
I3
sg62
g1866
sbsVHepPDTESSource
p1889
g0
(g1867
g2
Ntp1890
Rp1891
(dp1892
g15
g1889
sg17
(lp1893
VpdtFileName
p1894
asg25
I00
sg26
Nsg1894
g0
(cFWCore.ParameterSet.Types
FileInPath
p1895
g2
Ntp1896
Rp1897
(dp1898
g25
I00
sg31
I01
sg32
I00
sg42
VSimGeneral/HepPDTESSource/data/pythiaparticle.tbl
p1899
sbsg32
I00
sg59
V/cvmfs/cms.cern.ch/el8_amd64_gcc12/cms/cmssw/CMSSW_15_0_0_pre1/src/SimGeneral/HepPDTESSource/python/pythiapdt_cfi.py
p1900
sg61
I3
sg62
g1889
sbsVGlobalTag
p1901
g0
(g1867
g2
Ntp1902
Rp1903
(dp1904
g15
VPoolDBESSource
p1905
sg17
(lp1906
VDBParameters
p1907
aVconnect
p1908
aVglobaltag
p1909
aVsnapshotTime
p1910
aVtoGet
p1911
aVDumpStat
p1912
aVReconnectEachRun
p1913
aVRefreshAlways
p1914
aVRefreshEachRun
p1915
aVRefreshOpenIOVs
p1916
aVpfnPostfix
p1917
aVpfnPrefix
p1918
asg25
I00
sg26
Nsg1907
g0
(g632
g2
Ntp1919
Rp1920
(dp1921
g25
I00
sg31
I01
sg32
I00
sg17
(lp1922
VauthenticationPath
p1923
aVauthenticationSystem
p1924
aVsecurity
p1925
aVmessageLevel
p1926
aVconnectionTimeout
p1927
asg26
Nsg1923
g0
(g121
g2
Ntp1928
Rp1929
(dp1930
g25
I00
sg31
I00
sg32
I00
sg42
g36
sbsg1924
g0
(g52
g2
Ntp1931
Rp1932
(dp1933
g25
I00
sg31
I00
sg32
I00
sg42
I0
sbsg1925
g0
(g121
g2
Ntp1934
Rp1935
(dp1936
g25
I00
sg31
I00
sg32
I00
sg42
g36
sbsg1926
g0
(g52
g2
Ntp1937
Rp1938
(dp1939
g25
I00
sg31
I00
sg32
I00
sg42
I0
sbsg1927
g0
(g52
g2
Ntp1940
Rp1941
(dp1942
g25
I00
sg31
I00
sg32
I00
sg42
I0
sbsbsg32
I01
sg1908
g0
(g121
g2
Ntp1943
Rp1944
(dp1945
g25
I00
sg31
I01
sg32
I00
sg42
Vfrontier://FrontierProd/CMS_CONDITIONS
p1946
sbsg1909
g0
(g121
g2
Ntp1947
Rp1948
(dp1949
g25
I00
sg31
I01
sg32
I00
sg42
V132X_mcRun3_2023_realistic_HI_v5
p1950
sbsg1910
g0
(g121
g2
Ntp1951
Rp1952
(dp1953
g25
I00
sg31
I01
sg32
I00
sg42
V9999-12-31 23:59:59.000
p1954
sbsg1911
g0
(g746
g47
(lp1955
g0
(g632
g2
Ntp1956
Rp1957
(dp1958
g25
I00
sg31
I01
sg32
I00
sg17
(lp1959
Vrecord
p1960
aVtag
p1961
ag1908
aVlabel
p1962
asg26
Nsg1960
g0
(g121
g2
Ntp1963
Rp1964
(dp1965
g25
I00
sg31
I01
sg32
I00
sg42
VHeavyIonRcd
p1966
sbsg1961
g0
(g121
g2
Ntp1967
Rp1968
(dp1969
g25
I00
sg31
I01
sg32
I00
sg42
VCentralityTable_HFtowers200_DataPbPb_periHYDJETshape_run3v1302x04_offline_Nominal
p1970
sbsg1908
g0
(g121
g2
Ntp1971
Rp1972
(dp1973
g25
I00
sg31
I01
sg32
I00
sg42
Vsqlite_file:CentralityTable_HFtowers200_DataPbPb_periHYDJETshape_run3v1302x04_offline_Nominal.db
p1974
sbsg1962
g0
(g121
g2
Ntp1975
Rp1976
(dp1977
g25
I00
sg31
I00
sg32
I00
sg42
g526
sbsbatp1978
Rp1979
(dp1980
g25
I00
sg31
I01
sg32
I00
sg452
I1
sbsg1912
g0
(g73
g2
Ntp1981
Rp1982
(dp1983
g25
I00
sg31
I00
sg32
I00
sg42
I00
sbsg1913
g0
(g73
g2
Ntp1984
Rp1985
(dp1986
g25
I00
sg31
I00
sg32
I00
sg42
I00
sbsg1914
g0
(g73
g2
Ntp1987
Rp1988
(dp1989
g25
I00
sg31
I00
sg32
I00
sg42
I00
sbsg1915
g0
(g73
g2
Ntp1990
Rp1991
(dp1992
g25
I00
sg31
I00
sg32
I00
sg42
I00
sbsg1916
g0
(g73
g2
Ntp1993
Rp1994
(dp1995
g25
I00
sg31
I00
sg32
I00
sg42
I00
sbsg1917
g0
(g121
g2
Ntp1996
Rp1997
(dp1998
g25
I00
sg31
I00
sg32
I00
sg42
g36
sbsg1918
g0
(g121
g2
Ntp1999
Rp2000
(dp2001
g25
I00
sg31
I00
sg32
I00
sg42
g36
sbsg59
V/cvmfs/cms.cern.ch/el8_amd64_gcc12/cms/cmssw/CMSSW_15_0_0_pre1/src/CondCore/ESSources/python/CondDBESSource_cfi.py
p2002
sg61
I8
sg62
g1901
sbsVHcalTimeSlewEP
p2003
g0
(g1867
g2
Ntp2004
Rp2005
(dp2006
g15
g2003
sg17
(lp2007
VappendToDataLabel
p2008
aVtimeSlewParametersM2
p2009
aVtimeSlewParametersM3
p2010
asg25
I00
sg26
Nsg2008
g0
(g121
g2
Ntp2011
Rp2012
(dp2013
g25
I00
sg31
I01
sg32
I00
sg42
VHBHE
p2014
sbsg32
I00
sg2009
g0
(g746
g47
(lp2015
g0
(g632
g2
Ntp2016
Rp2017
(dp2018
g25
I00
sg31
I01
sg32
I00
sg17
(lp2019
Vtzero
p2020
aVslope
p2021
aVtmax
p2022
asg26
Nsg2020
g0
(g38
g2
Ntp2023
Rp2024
(dp2025
g25
I00
sg31
I01
sg32
I00
sg42
F23.960177
sbsg2021
g0
(g38
g2
Ntp2026
Rp2027
(dp2028
g25
I00
sg31
I01
sg32
I00
sg42
F-3.178648
sbsg2022
g0
(g38
g2
Ntp2029
Rp2030
(dp2031
g25
I00
sg31
I01
sg32
I00
sg42
F16.0
sbsbag0
(g632
g2
Ntp2032
Rp2033
(dp2034
g25
I00
sg31
I01
sg32
I00
sg17
(lp2035
g2020
ag2021
ag2022
asg26
Nsg2020
g0
(g38
g2
Ntp2036
Rp2037
(dp2038
g25
I00
sg31
I01
sg32
I00
sg42
F11.977461
sbsg2021
g0
(g38
g2
Ntp2039
Rp2040
(dp2041
g25
I00
sg31
I01
sg32
I00
sg42
F-1.5610227
sbsg2022
g0
(g38
g2
Ntp2042
Rp2043
(dp2044
g25
I00
sg31
I01
sg32
I00
sg42
F10.0
sbsbag0
(g632
g2
Ntp2045
Rp2046
(dp2047
g25
I00
sg31
I01
sg32
I00
sg17
(lp2048
g2020
ag2021
ag2022
asg26
Nsg2020
g0
(g38
g2
Ntp2049
Rp2050
(dp2051
g25
I00
sg31
I01
sg32
I00
sg42
F9.109694
sbsg2021
g0
(g38
g2
Ntp2052
Rp2053
(dp2054
g25
I00
sg31
I01
sg32
I00
sg42
F-1.075824
sbsg2022
g0
(g38
g2
Ntp2055
Rp2056
(dp2057
g25
I00
sg31
I01
sg32
I00
sg42
F6.25
sbsbatp2058
Rp2059
(dp2060
g25
I00
sg31
I01
sg32
I00
sg452
I1
sbsg2010
g0
(g746
g47
(lp2061
g0
(g632
g2
Ntp2062
Rp2063
(dp2064
g25
I00
sg31
I01
sg32
I00
sg17
(lp2065
Vcap
p2066
aVtspar0
p2067
aVtspar1
p2068
aVtspar2
p2069
aVtspar0_siPM
p2070
aVtspar1_siPM
p2071
aVtspar2_siPM
p2072
asg26
Nsg2066
g0
(g38
g2
Ntp2073
Rp2074
(dp2075
g25
I00
sg31
I01
sg32
I00
sg42
F6.0
sbsg2067
g0
(g38
g2
Ntp2076
Rp2077
(dp2078
g25
I00
sg31
I01
sg32
I00
sg42
F12.2999
sbsg2068
g0
(g38
g2
Ntp2079
Rp2080
(dp2081
g25
I00
sg31
I01
sg32
I00
sg42
F-2.19142
sbsg2069
g0
(g38
g2
Ntp2082
Rp2083
(dp2084
g25
I00
sg31
I01
sg32
I00
sg42
F0.0
sbsg2070
g0
(g38
g2
Ntp2085
Rp2086
(dp2087
g25
I00
sg31
I01
sg32
I00
sg42
F0.0
sbsg2071
g0
(g38
g2
Ntp2088
Rp2089
(dp2090
g25
I00
sg31
I01
sg32
I00
sg42
F0.0
sbsg2072
g0
(g38
g2
Ntp2091
Rp2092
(dp2093
g25
I00
sg31
I01
sg32
I00
sg42
F0.0
sbsbag0
(g632
g2
Ntp2094
Rp2095
(dp2096
g25
I00
sg31
I01
sg32
I00
sg17
(lp2097
g2066
ag2067
ag2068
ag2069
ag2070
ag2071
ag2072
asg26
Nsg2066
g0
(g38
g2
Ntp2098
Rp2099
(dp2100
g25
I00
sg31
I01
sg32
I00
sg42
F6.0
sbsg2067
g0
(g38
g2
Ntp2101
Rp2102
(dp2103
g25
I00
sg31
I01
sg32
I00
sg42
F15.5
sbsg2068
g0
(g38
g2
Ntp2104
Rp2105
(dp2106
g25
I00
sg31
I01
sg32
I00
sg42
F-3.2
sbsg2069
g0
(g38
g2
Ntp2107
Rp2108
(dp2109
g25
I00
sg31
I01
sg32
I00
sg42
F32.0
sbsg2070
g0
(g38
g2
Ntp2110
Rp2111
(dp2112
g25
I00
sg31
I01
sg32
I00
sg42
F0.0
sbsg2071
g0
(g38
g2
Ntp2113
Rp2114
(dp2115
g25
I00
sg31
I01
sg32
I00
sg42
F0.0
sbsg2072
g0
(g38
g2
Ntp2116
Rp2117
(dp2118
g25
I00
sg31
I01
sg32
I00
sg42
F0.0
sbsbag0
(g632
g2
Ntp2119
Rp2120
(dp2121
g25
I00
sg31
I01
sg32
I00
sg17
(lp2122
g2066
ag2067
ag2068
ag2069
ag2070
ag2071
ag2072
asg26
Nsg2066
g0
(g38
g2
Ntp2123
Rp2124
(dp2125
g25
I00
sg31
I01
sg32
I00
sg42
F6.0
sbsg2067
g0
(g38
g2
Ntp2126
Rp2127
(dp2128
g25
I00
sg31
I01
sg32
I00
sg42
F12.2999
sbsg2068
g0
(g38
g2
Ntp2129
Rp2130
(dp2131
g25
I00
sg31
I01
sg32
I00
sg42
F-2.19142
sbsg2069
g0
(g38
g2
Ntp2132
Rp2133
(dp2134
g25
I00
sg31
I01
sg32
I00
sg42
F0.0
sbsg2070
g0
(g38
g2
Ntp2135
Rp2136
(dp2137
g25
I00
sg31
I01
sg32
I00
sg42
F0.0
sbsg2071
g0
(g38
g2
Ntp2138
Rp2139
(dp2140
g25
I00
sg31
I01
sg32
I00
sg42
F0.0
sbsg2072
g0
(g38
g2
Ntp2141
Rp2142
(dp2143
g25
I00
sg31
I01
sg32
I00
sg42
F0.0
sbsbag0
(g632
g2
Ntp2144
Rp2145
(dp2146
g25
I00
sg31
I01
sg32
I00
sg17
(lp2147
g2066
ag2067
ag2068
ag2069
ag2070
ag2071
ag2072
asg26
Nsg2066
g0
(g38
g2
Ntp2148
Rp2149
(dp2150
g25
I00
sg31
I01
sg32
I00
sg42
F6.0
sbsg2067
g0
(g38
g2
Ntp2151
Rp2152
(dp2153
g25
I00
sg31
I01
sg32
I00
sg42
F12.2999
sbsg2068
g0
(g38
g2
Ntp2154
Rp2155
(dp2156
g25
I00
sg31
I01
sg32
I00
sg42
F-2.19142
sbsg2069
g0
(g38
g2
Ntp2157
Rp2158
(dp2159
g25
I00
sg31
I01
sg32
I00
sg42
F0.0
sbsg2070
g0
(g38
g2
Ntp2160
Rp2161
(dp2162
g25
I00
sg31
I01
sg32
I00
sg42
F0.0
sbsg2071
g0
(g38
g2
Ntp2163
Rp2164
(dp2165
g25
I00
sg31
I01
sg32
I00
sg42
F0.0
sbsg2072
g0
(g38
g2
Ntp2166
Rp2167
(dp2168
g25
I00
sg31
I01
sg32
I00
sg42
F0.0
sbsbatp2169
Rp2170
(dp2171
g25
I00
sg31
I01
sg32
I00
sg452
I1
sbsg59
V/cvmfs/cms.cern.ch/el8_amd64_gcc12/cms/cmssw/CMSSW_15_0_0_pre1/src/CalibCalorimetry/HcalPlugins/python/HcalTimeSlew_cff.py
p2172
sg61
I3
sg62
g2003
sbsVes_hardcode
p2173
g0
(g1867
g2
Ntp2174
Rp2175
(dp2176
g15
VHcalHardcodeCalibrations
p2177
sg17
(lp2178
g1911
aViLumi
p2179
aVHBRecalibration
p2180
aVHBreCalibCutoff
p2181
aVHBmeanenergies
p2182
aVHERecalibration
p2183
aVHEreCalibCutoff
p2184
aVHEmeanenergies
p2185
aVHFRecalibration
p2186
aVHFRecalParameterBlock
p2187
aVGainWidthsForTrigPrims
p2188
aVuseHBUpgrade
p2189
aVuseHEUpgrade
p2190
aVuseHFUpgrade
p2191
aVuseHOUpgrade
p2192
aVtestHFQIE10
p2193
aVtestHEPlan1
p2194
aVkillHE
p2195
aVuseLayer0Weight
p2196
aVuseIeta18depth1
p2197
aVhb
p2198
aVhe
p2199
aVhf
p2200
aVho
p2201
aVhbUpgrade
p2202
aVheUpgrade
p2203
aVhfUpgrade
p2204
aVSiPMCharacteristics
p2205
asg25
I00
sg26
Nsg1911
g0
(g105
g47
(lp2206
VGainWidths
p2207
atp2208
Rp2209
(dp2210
g25
I00
sg31
I00
sg32
I00
sg452
I1
sbsg32
I00
sg2179
g0
(g38
g2
Ntp2211
Rp2212
(dp2213
g25
I00
sg31
I01
sg32
I00
sg42
F-1.0
sbsg2180
g0
(g73
g2
Ntp2214
Rp2215
(dp2216
g25
I00
sg31
I01
sg32
I00
sg42
I00
sbsg2181
g0
(g38
g2
Ntp2217
Rp2218
(dp2219
g25
I00
sg31
I01
sg32
I00
sg42
F20.0
sbsg2182
g0
(g1895
g2
Ntp2220
Rp2221
(dp2222
g25
I00
sg31
I01
sg32
I00
sg42
VCalibCalorimetry/HcalPlugins/data/meanenergiesHB.txt
p2223
sbsg2183
g0
(g73
g2
Ntp2224
Rp2225
(dp2226
g25
I00
sg31
I01
sg32
I00
sg42
I00
sbsg2184
g0
(g38
g2
Ntp2227
Rp2228
(dp2229
g25
I00
sg31
I01
sg32
I00
sg42
F20.0
sbsg2185
g0
(g1895
g2
Ntp2230
Rp2231
(dp2232
g25
I00
sg31
I01
sg32
I00
sg42
VCalibCalorimetry/HcalPlugins/data/meanenergiesHE.txt
p2233
sbsg2186
g0
(g73
g2
Ntp2234
Rp2235
(dp2236
g25
I00
sg31
I01
sg32
I00
sg42
I00
sbsg2187
g0
(g632
g2
Ntp2237
Rp2238
(dp2239
g25
I00
sg31
I01
sg32
I00
sg17
(lp2240
VHFdepthOneParameterA
p2241
aVHFdepthOneParameterB
p2242
aVHFdepthTwoParameterA
p2243
aVHFdepthTwoParameterB
p2244
asg26
Nsg2241
g0
(g46
g47
(lp2245
F0.004123
aF0.00602
aF0.008201
aF0.010489
aF0.013379
aF0.016997
aF0.021464
aF0.027371
aF0.034195
aF0.044807
aF0.058939
aF0.125497
atp2246
Rp2247
(dp2248
g25
I00
sg31
I01
sg32
I00
sbsg2242
g0
(g46
g47
(lp2249
F-4e-06
aF-2e-06
aF0.0
aF4e-06
aF1.5e-05
aF2.6e-05
aF6.3e-05
aF8.4e-05
aF0.00016
aF0.000107
aF0.000425
aF0.000209
atp2250
Rp2251
(dp2252
g25
I00
sg31
I01
sg32
I00
sbsg2243
g0
(g46
g47
(lp2253
F0.002861
aF0.004168
aF0.0064
aF0.008388
aF0.011601
aF0.014425
aF0.018633
aF0.023232
aF0.028274
aF0.035447
aF0.051579
aF0.086593
atp2254
Rp2255
(dp2256
g25
I00
sg31
I01
sg32
I00
sbsg2244
g0
(g46
g47
(lp2257
F-2e-06
aF-0.0
aF-7e-06
aF-6e-06
aF-2e-06
aF1e-06
aF1.9e-05
aF3.1e-05
aF6.7e-05
aF1.2e-05
aF0.000157
aF-3e-06
atp2258
Rp2259
(dp2260
g25
I00
sg31
I01
sg32
I00
sbsg62
g2187
sbsg2188
g0
(g73
g2
Ntp2261
Rp2262
(dp2263
g25
I00
sg31
I01
sg32
I00
sg42
I00
sbsg2189
g0
(g73
g2
Ntp2264
Rp2265
(dp2266
g25
I00
sg31
I01
sg32
I00
sg42
I00
sbsg2190
g0
(g73
g2
Ntp2267
Rp2268
(dp2269
g25
I00
sg31
I01
sg32
I00
sg42
I00
sbsg2191
g0
(g73
g2
Ntp2270
Rp2271
(dp2272
g25
I00
sg31
I01
sg32
I00
sg42
I00
sbsg2192
g0
(g73
g2
Ntp2273
Rp2274
(dp2275
g25
I00
sg31
I01
sg32
I00
sg42
I01
sbsg2193
g0
(g73
g2
Ntp2276
Rp2277
(dp2278
g25
I00
sg31
I01
sg32
I00
sg42
I00
sbsg2194
g0
(g73
g2
Ntp2279
Rp2280
(dp2281
g25
I00
sg31
I01
sg32
I00
sg42
I00
sbsg2195
g0
(g73
g2
Ntp2282
Rp2283
(dp2284
g25
I00
sg31
I01
sg32
I00
sg42
I00
sbsg2196
g0
(g73
g2
Ntp2285
Rp2286
(dp2287
g25
I00
sg31
I01
sg32
I00
sg42
I00
sbsg2197
g0
(g73
g2
Ntp2288
Rp2289
(dp2290
g25
I00
sg31
I01
sg32
I00
sg42
I01
sbsg2198
g0
(g632
g2
Ntp2291
Rp2292
(dp2293
g25
I00
sg31
I01
sg32
I00
sg17
(lp2294
Vpedestal
p2295
aVpedestalWidth
p2296
aVgain
p2297
aVgainWidth
p2298
aVzsThreshold
p2299
aVqieType
p2300
aVqieOffset
p2301
aVqieSlope
p2302
aVmcShape
p2303
aVrecoShape
p2304
aVphotoelectronsToAnalog
p2305
aVdarkCurrent
p2306
aVnoiseCorrelation
p2307
aVnoiseThreshold
p2308
aVseedThreshold
p2309
aVdoRadiationDamage
p2310
asg26
Nsg2295
g0
(g38
g2
Ntp2311
Rp2312
(dp2313
g25
I00
sg31
I01
sg32
I00
sg42
F3.285
sbsg2296
g0
(g38
g2
Ntp2314
Rp2315
(dp2316
g25
I00
sg31
I01
sg32
I00
sg42
F0.809
sbsg2297
g0
(g46
g47
(lp2317
F0.19
atp2318
Rp2319
(dp2320
g25
I00
sg31
I01
sg32
I00
sbsg2298
g0
(g46
g47
(lp2321
F0.0
atp2322
Rp2323
(dp2324
g25
I00
sg31
I01
sg32
I00
sbsg2299
g0
(g52
g2
Ntp2325
Rp2326
(dp2327
g25
I00
sg31
I01
sg32
I00
sg42
I8
sbsg2300
g0
(g52
g2
Ntp2328
Rp2329
(dp2330
g25
I00
sg31
I01
sg32
I00
sg42
I0
sbsg2301
g0
(g46
g47
(lp2331
F-0.49
aF1.8
aF7.2
aF37.9
atp2332
Rp2333
(dp2334
g25
I00
sg31
I01
sg32
I00
sbsg2302
g0
(g46
g47
(lp2335
F0.912
aF0.917
aF0.922
aF0.923
atp2336
Rp2337
(dp2338
g25
I00
sg31
I01
sg32
I00
sbsg2303
g0
(g52
g2
Ntp2339
Rp2340
(dp2341
g25
I00
sg31
I01
sg32
I00
sg42
I125
sbsg2304
g0
(g52
g2
Ntp2342
Rp2343
(dp2344
g25
I00
sg31
I01
sg32
I00
sg42
I105
sbsg2305
g0
(g38
g2
Ntp2345
Rp2346
(dp2347
g25
I00
sg31
I01
sg32
I00
sg42
F0.3305
sbsg2306
g0
(g46
g47
(lp2348
F0.0
atp2349
Rp2350
(dp2351
g25
I00
sg31
I01
sg32
I00
sbsg2307
g0
(g46
g47
(lp2352
F0.0
atp2353
Rp2354
(dp2355
g25
I00
sg31
I01
sg32
I00
sbsg2308
g0
(g38
g2
Ntp2356
Rp2357
(dp2358
g25
I00
sg31
I01
sg32
I00
sg42
F0.0
sbsg2309
g0
(g38
g2
Ntp2359
Rp2360
(dp2361
g25
I00
sg31
I01
sg32
I00
sg42
F0.1
sbsg2310
g0
(g73
g2
Ntp2362
Rp2363
(dp2364
g25
I00
sg31
I01
sg32
I00
sg42
I00
sbsbsg2199
g0
(g632
g2
Ntp2365
Rp2366
(dp2367
g25
I00
sg31
I01
sg32
I00
sg17
(lp2368
g2295
ag2296
ag2297
ag2298
ag2299
ag2300
ag2301
ag2302
ag2303
ag2304
ag2305
ag2306
ag2307
ag2308
ag2309
ag2310
asg26
Nsg2295
g0
(g38
g2
Ntp2369
Rp2370
(dp2371
g25
I00
sg31
I01
sg32
I00
sg42
F3.163
sbsg2296
g0
(g38
g2
Ntp2372
Rp2373
(dp2374
g25
I00
sg31
I01
sg32
I00
sg42
F0.9698
sbsg2297
g0
(g46
g47
(lp2375
F0.23
atp2376
Rp2377
(dp2378
g25
I00
sg31
I01
sg32
I00
sbsg2298
g0
(g46
g47
(lp2379
I0
atp2380
Rp2381
(dp2382
g25
I00
sg31
I01
sg32
I00
sbsg2299
g0
(g52
g2
Ntp2383
Rp2384
(dp2385
g25
I00
sg31
I01
sg32
I00
sg42
I9
sbsg2300
g0
(g52
g2
Ntp2386
Rp2387
(dp2388
g25
I00
sg31
I01
sg32
I00
sg42
I0
sbsg2301
g0
(g46
g47
(lp2389
F-0.38
aF2.0
aF7.6
aF39.6
atp2390
Rp2391
(dp2392
g25
I00
sg31
I01
sg32
I00
sbsg2302
g0
(g46
g47
(lp2393
F0.912
aF0.916
aF0.92
aF0.922
atp2394
Rp2395
(dp2396
g25
I00
sg31
I01
sg32
I00
sbsg2303
g0
(g52
g2
Ntp2397
Rp2398
(dp2399
g25
I00
sg31
I01
sg32
I00
sg42
I125
sbsg2304
g0
(g52
g2
Ntp2400
Rp2401
(dp2402
g25
I00
sg31
I01
sg32
I00
sg42
I105
sbsg2305
g0
(g38
g2
Ntp2403
Rp2404
(dp2405
g25
I00
sg31
I01
sg32
I00
sg42
F0.3305
sbsg2306
g0
(g46
g47
(lp2406
F0.0
atp2407
Rp2408
(dp2409
g25
I00
sg31
I01
sg32
I00
sbsg2307
g0
(g46
g47
(lp2410
F0.0
atp2411
Rp2412
(dp2413
g25
I00
sg31
I01
sg32
I00
sbsg2308
g0
(g38
g2
Ntp2414
Rp2415
(dp2416
g25
I00
sg31
I01
sg32
I00
sg42
F0.0
sbsg2309
g0
(g38
g2
Ntp2417
Rp2418
(dp2419
g25
I00
sg31
I01
sg32
I00
sg42
F0.1
sbsg2310
g0
(g73
g2
Ntp2420
Rp2421
(dp2422
g25
I00
sg31
I01
sg32
I00
sg42
I00
sbsbsg2200
g0
(g632
g2
Ntp2423
Rp2424
(dp2425
g25
I00
sg31
I01
sg32
I00
sg17
(lp2426
g2295
ag2296
ag2297
ag2298
ag2299
ag2300
ag2301
ag2302
ag2303
ag2304
ag2305
ag2306
ag2307
ag2308
ag2309
ag2310
asg26
Nsg2295
g0
(g38
g2
Ntp2427
Rp2428
(dp2429
g25
I00
sg31
I01
sg32
I00
sg42
F9.354
sbsg2296
g0
(g38
g2
Ntp2430
Rp2431
(dp2432
g25
I00
sg31
I01
sg32
I00
sg42
F2.516
sbsg2297
g0
(g46
g47
(lp2433
F0.14
aF0.135
atp2434
Rp2435
(dp2436
g25
I00
sg31
I01
sg32
I00
sbsg2298
g0
(g46
g47
(lp2437
F0.0
aF0.0
atp2438
Rp2439
(dp2440
g25
I00
sg31
I01
sg32
I00
sbsg2299
g0
(g52
g2
Ntp2441
Rp2442
(dp2443
g25
I00
sg31
I01
sg32
I00
sg42
I-9999
sbsg2300
g0
(g52
g2
Ntp2444
Rp2445
(dp2446
g25
I00
sg31
I01
sg32
I00
sg42
I0
sbsg2301
g0
(g46
g47
(lp2447
F-0.87
aF1.4
aF7.8
aF-29.6
atp2448
Rp2449
(dp2450
g25
I00
sg31
I01
sg32
I00
sbsg2302
g0
(g46
g47
(lp2451
F0.359
aF0.358
aF0.36
aF0.367
atp2452
Rp2453
(dp2454
g25
I00
sg31
I01
sg32
I00
sbsg2303
g0
(g52
g2
Ntp2455
Rp2456
(dp2457
g25
I00
sg31
I01
sg32
I00
sg42
I301
sbsg2304
g0
(g52
g2
Ntp2458
Rp2459
(dp2460
g25
I00
sg31
I01
sg32
I00
sg42
I301
sbsg2305
g0
(g38
g2
Ntp2461
Rp2462
(dp2463
g25
I00
sg31
I01
sg32
I00
sg42
F0.0
sbsg2306
g0
(g46
g47
(lp2464
F0.0
atp2465
Rp2466
(dp2467
g25
I00
sg31
I01
sg32
I00
sbsg2307
g0
(g46
g47
(lp2468
F0.0
atp2469
Rp2470
(dp2471
g25
I00
sg31
I01
sg32
I00
sbsg2308
g0
(g38
g2
Ntp2472
Rp2473
(dp2474
g25
I00
sg31
I01
sg32
I00
sg42
F0.0
sbsg2309
g0
(g38
g2
Ntp2475
Rp2476
(dp2477
g25
I00
sg31
I01
sg32
I00
sg42
F0.1
sbsg2310
g0
(g73
g2
Ntp2478
Rp2479
(dp2480
g25
I00
sg31
I01
sg32
I00
sg42
I00
sbsbsg2201
g0
(g632
g2
Ntp2481
Rp2482
(dp2483
g25
I00
sg31
I01
sg32
I00
sg17
(lp2484
g2295
ag2296
ag2297
ag2298
ag2299
ag2300
ag2301
ag2302
ag2303
ag2304
ag2305
ag2306
ag2307
ag2308
ag2309
ag2310
asg26
Nsg2295
g0
(g38
g2
Ntp2485
Rp2486
(dp2487
g25
I00
sg31
I01
sg32
I00
sg42
F12.06
sbsg2296
g0
(g38
g2
Ntp2488
Rp2489
(dp2490
g25
I00
sg31
I01
sg32
I00
sg42
F0.6285
sbsg2297
g0
(g46
g47
(lp2491
F0.006
aF0.0087
atp2492
Rp2493
(dp2494
g25
I00
sg31
I01
sg32
I00
sbsg2298
g0
(g46
g47
(lp2495
F0.0
aF0.0
atp2496
Rp2497
(dp2498
g25
I00
sg31
I01
sg32
I00
sbsg2299
g0
(g52
g2
Ntp2499
Rp2500
(dp2501
g25
I00
sg31
I01
sg32
I00
sg42
I24
sbsg2300
g0
(g52
g2
Ntp2502
Rp2503
(dp2504
g25
I00
sg31
I01
sg32
I00
sg42
I0
sbsg2301
g0
(g46
g47
(lp2505
F-0.44
aF1.4
aF7.1
aF38.5
atp2506
Rp2507
(dp2508
g25
I00
sg31
I01
sg32
I00
sbsg2302
g0
(g46
g47
(lp2509
F0.907
aF0.915
aF0.92
aF0.921
atp2510
Rp2511
(dp2512
g25
I00
sg31
I01
sg32
I00
sbsg2303
g0
(g52
g2
Ntp2513
Rp2514
(dp2515
g25
I00
sg31
I01
sg32
I00
sg42
I201
sbsg2304
g0
(g52
g2
Ntp2516
Rp2517
(dp2518
g25
I00
sg31
I01
sg32
I00
sg42
I201
sbsg2305
g0
(g38
g2
Ntp2519
Rp2520
(dp2521
g25
I00
sg31
I01
sg32
I00
sg42
F4.0
sbsg2306
g0
(g46
g47
(lp2522
F0.0
atp2523
Rp2524
(dp2525
g25
I00
sg31
I01
sg32
I00
sbsg2307
g0
(g46
g47
(lp2526
F0.0
atp2527
Rp2528
(dp2529
g25
I00
sg31
I01
sg32
I00
sbsg2308
g0
(g38
g2
Ntp2530
Rp2531
(dp2532
g25
I00
sg31
I01
sg32
I00
sg42
F0.0
sbsg2309
g0
(g38
g2
Ntp2533
Rp2534
(dp2535
g25
I00
sg31
I01
sg32
I00
sg42
F0.1
sbsg2310
g0
(g73
g2
Ntp2536
Rp2537
(dp2538
g25
I00
sg31
I01
sg32
I00
sg42
I00
sbsbsg2202
g0
(g632
g2
Ntp2539
Rp2540
(dp2541
g25
I00
sg31
I01
sg32
I00
sg17
(lp2542
g2295
ag2296
ag2297
ag2298
ag2299
ag2300
ag2301
ag2302
ag2303
ag2304
ag2305
ag2306
ag2307
ag2308
ag2309
ag2310
aVradiationDamage
p2543
asg26
Nsg2295
g0
(g38
g2
Ntp2544
Rp2545
(dp2546
g25
I00
sg31
I01
sg32
I00
sg42
F17.3
sbsg2296
g0
(g38
g2
Ntp2547
Rp2548
(dp2549
g25
I00
sg31
I01
sg32
I00
sg42
F1.5
sbsg2297
g0
(g46
g47
(lp2550
F0.0006252
atp2551
Rp2552
(dp2553
g25
I00
sg31
I01
sg32
I00
sbsg2298
g0
(g46
g47
(lp2554
I0
atp2555
Rp2556
(dp2557
g25
I00
sg31
I01
sg32
I00
sbsg2299
g0
(g52
g2
Ntp2558
Rp2559
(dp2560
g25
I00
sg31
I01
sg32
I00
sg42
I16
sbsg2300
g0
(g52
g2
Ntp2561
Rp2562
(dp2563
g25
I00
sg31
I01
sg32
I00
sg42
I2
sbsg2301
g0
(g46
g47
(lp2564
F0.0
aF0.0
aF0.0
aF0.0
atp2565
Rp2566
(dp2567
g25
I00
sg31
I01
sg32
I00
sbsg2302
g0
(g46
g47
(lp2568
F0.05376
aF0.05376
aF0.05376
aF0.05376
atp2569
Rp2570
(dp2571
g25
I00
sg31
I01
sg32
I00
sbsg2303
g0
(g52
g2
Ntp2572
Rp2573
(dp2574
g25
I00
sg31
I01
sg32
I00
sg42
I206
sbsg2304
g0
(g52
g2
Ntp2575
Rp2576
(dp2577
g25
I00
sg31
I01
sg32
I00
sg42
I208
sbsg2305
g0
(g38
g2
Ntp2578
Rp2579
(dp2580
g25
I00
sg31
I01
sg32
I00
sg42
F40.0
sbsg2306
g0
(g46
g47
(lp2581
F0.01
aF0.015
atp2582
Rp2583
(dp2584
g25
I00
sg31
I01
sg32
I00
sbsg2307
g0
(g46
g47
(lp2585
F0.26
aF0.254
atp2586
Rp2587
(dp2588
g25
I00
sg31
I01
sg32
I00
sbsg2308
g0
(g38
g2
Ntp2589
Rp2590
(dp2591
g25
I00
sg31
I01
sg32
I00
sg42
F0.0
sbsg2309
g0
(g38
g2
Ntp2592
Rp2593
(dp2594
g25
I00
sg31
I01
sg32
I00
sg42
F0.1
sbsg2310
g0
(g73
g2
Ntp2595
Rp2596
(dp2597
g25
I00
sg31
I01
sg32
I00
sg42
I01
sbsg2543
g0
(g632
g2
Ntp2598
Rp2599
(dp2600
g25
I00
sg31
I01
sg32
I00
sg17
(lp2601
VtemperatureBase
p2602
aVtemperatureNew
p2603
aVintlumiOffset
p2604
aVdepVsTemp
p2605
aVintlumiToNeutrons
p2606
aVdepVsNeutrons
p2607
asg26
Nsg2602
g0
(g38
g2
Ntp2608
Rp2609
(dp2610
g25
I00
sg31
I01
sg32
I00
sg42
I20
sbsg2603
g0
(g38
g2
Ntp2611
Rp2612
(dp2613
g25
I00
sg31
I01
sg32
I00
sg42
I-5
sbsg2604
g0
(g38
g2
Ntp2614
Rp2615
(dp2616
g25
I00
sg31
I01
sg32
I00
sg42
I150
sbsg2605
g0
(g38
g2
Ntp2617
Rp2618
(dp2619
g25
I00
sg31
I01
sg32
I00
sg42
F0.0631
sbsg2606
g0
(g38
g2
Ntp2620
Rp2621
(dp2622
g25
I00
sg31
I01
sg32
I00
sg42
F367000000.0
sbsg2607
g0
(g46
g47
(lp2623
F5.543e-10
aF8.012e-10
atp2624
Rp2625
(dp2626
g25
I00
sg31
I01
sg32
I00
sbsbsbsg2203
g0
(g632
g2
Ntp2627
Rp2628
(dp2629
g25
I00
sg31
I01
sg32
I00
sg17
(lp2630
g2295
ag2296
ag2297
ag2298
ag2299
ag2300
ag2301
ag2302
ag2303
ag2304
ag2305
ag2306
ag2307
ag2308
ag2309
ag2310
ag2543
asg26
Nsg2295
g0
(g38
g2
Ntp2631
Rp2632
(dp2633
g25
I00
sg31
I01
sg32
I00
sg42
F17.3
sbsg2296
g0
(g38
g2
Ntp2634
Rp2635
(dp2636
g25
I00
sg31
I01
sg32
I00
sg42
F1.5
sbsg2297
g0
(g46
g47
(lp2637
F0.0006252
atp2638
Rp2639
(dp2640
g25
I00
sg31
I01
sg32
I00
sbsg2298
g0
(g46
g47
(lp2641
I0
atp2642
Rp2643
(dp2644
g25
I00
sg31
I01
sg32
I00
sbsg2299
g0
(g52
g2
Ntp2645
Rp2646
(dp2647
g25
I00
sg31
I01
sg32
I00
sg42
I16
sbsg2300
g0
(g52
g2
Ntp2648
Rp2649
(dp2650
g25
I00
sg31
I01
sg32
I00
sg42
I2
sbsg2301
g0
(g46
g47
(lp2651
F0.0
aF0.0
aF0.0
aF0.0
atp2652
Rp2653
(dp2654
g25
I00
sg31
I01
sg32
I00
sbsg2302
g0
(g46
g47
(lp2655
F0.05376
aF0.05376
aF0.05376
aF0.05376
atp2656
Rp2657
(dp2658
g25
I00
sg31
I01
sg32
I00
sbsg2303
g0
(g52
g2
Ntp2659
Rp2660
(dp2661
g25
I00
sg31
I01
sg32
I00
sg42
I206
sbsg2304
g0
(g52
g2
Ntp2662
Rp2663
(dp2664
g25
I00
sg31
I01
sg32
I00
sg42
I208
sbsg2305
g0
(g38
g2
Ntp2665
Rp2666
(dp2667
g25
I00
sg31
I01
sg32
I00
sg42
F40.0
sbsg2306
g0
(g46
g47
(lp2668
F0.01
aF0.015
atp2669
Rp2670
(dp2671
g25
I00
sg31
I01
sg32
I00
sbsg2307
g0
(g46
g47
(lp2672
F0.26
aF0.254
atp2673
Rp2674
(dp2675
g25
I00
sg31
I01
sg32
I00
sbsg2308
g0
(g38
g2
Ntp2676
Rp2677
(dp2678
g25
I00
sg31
I01
sg32
I00
sg42
F0.0
sbsg2309
g0
(g38
g2
Ntp2679
Rp2680
(dp2681
g25
I00
sg31
I01
sg32
I00
sg42
F0.1
sbsg2310
g0
(g73
g2
Ntp2682
Rp2683
(dp2684
g25
I00
sg31
I01
sg32
I00
sg42
I01
sbsg2543
g0
(g632
g2
Ntp2685
Rp2686
(dp2687
g25
I00
sg31
I01
sg32
I00
sg17
(lp2688
g2602
ag2603
ag2604
ag2605
ag2606
ag2607
asg26
Nsg2602
g0
(g38
g2
Ntp2689
Rp2690
(dp2691
g25
I00
sg31
I01
sg32
I00
sg42
I20
sbsg2603
g0
(g38
g2
Ntp2692
Rp2693
(dp2694
g25
I00
sg31
I01
sg32
I00
sg42
I5
sbsg2604
g0
(g38
g2
Ntp2695
Rp2696
(dp2697
g25
I00
sg31
I01
sg32
I00
sg42
I75
sbsg2605
g0
(g38
g2
Ntp2698
Rp2699
(dp2700
g25
I00
sg31
I01
sg32
I00
sg42
F0.0631
sbsg2606
g0
(g38
g2
Ntp2701
Rp2702
(dp2703
g25
I00
sg31
I01
sg32
I00
sg42
F29200000.0
sbsg2607
g0
(g46
g47
(lp2704
F5.543e-10
aF8.012e-10
atp2705
Rp2706
(dp2707
g25
I00
sg31
I01
sg32
I00
sbsbsbsg2204
g0
(g632
g2
Ntp2708
Rp2709
(dp2710
g25
I00
sg31
I01
sg32
I00
sg17
(lp2711
g2295
ag2296
ag2297
ag2298
ag2299
ag2300
ag2301
ag2302
ag2303
ag2304
ag2305
ag2306
ag2307
ag2308
ag2309
ag2310
asg26
Nsg2295
g0
(g38
g2
Ntp2712
Rp2713
(dp2714
g25
I00
sg31
I01
sg32
I00
sg42
F13.33
sbsg2296
g0
(g38
g2
Ntp2715
Rp2716
(dp2717
g25
I00
sg31
I01
sg32
I00
sg42
F3.33
sbsg2297
g0
(g46
g47
(lp2718
F0.14
aF0.135
atp2719
Rp2720
(dp2721
g25
I00
sg31
I01
sg32
I00
sbsg2298
g0
(g46
g47
(lp2722
F0.0
aF0.0
atp2723
Rp2724
(dp2725
g25
I00
sg31
I01
sg32
I00
sbsg2299
g0
(g52
g2
Ntp2726
Rp2727
(dp2728
g25
I00
sg31
I01
sg32
I00
sg42
I-9999
sbsg2300
g0
(g52
g2
Ntp2729
Rp2730
(dp2731
g25
I00
sg31
I01
sg32
I00
sg42
I1
sbsg2301
g0
(g46
g47
(lp2732
F0.0697
aF-0.7405
aF12.38
aF-671.9
atp2733
Rp2734
(dp2735
g25
I00
sg31
I01
sg32
I00
sbsg2302
g0
(g46
g47
(lp2736
F0.297
aF0.298
aF0.298
aF0.313
atp2737
Rp2738
(dp2739
g25
I00
sg31
I01
sg32
I00
sbsg2303
g0
(g52
g2
Ntp2740
Rp2741
(dp2742
g25
I00
sg31
I01
sg32
I00
sg42
I301
sbsg2304
g0
(g52
g2
Ntp2743
Rp2744
(dp2745
g25
I00
sg31
I01
sg32
I00
sg42
I301
sbsg2305
g0
(g38
g2
Ntp2746
Rp2747
(dp2748
g25
I00
sg31
I01
sg32
I00
sg42
F0.0
sbsg2306
g0
(g46
g47
(lp2749
F0.0
atp2750
Rp2751
(dp2752
g25
I00
sg31
I01
sg32
I00
sbsg2307
g0
(g46
g47
(lp2753
F0.0
atp2754
Rp2755
(dp2756
g25
I00
sg31
I01
sg32
I00
sbsg2308
g0
(g38
g2
Ntp2757
Rp2758
(dp2759
g25
I00
sg31
I01
sg32
I00
sg42
F0.0
sbsg2309
g0
(g38
g2
Ntp2760
Rp2761
(dp2762
g25
I00
sg31
I01
sg32
I00
sg42
F0.1
sbsg2310
g0
(g73
g2
Ntp2763
Rp2764
(dp2765
g25
I00
sg31
I01
sg32
I00
sg42
I00
sbsbsg2205
g0
(g746
g47
(lp2766
g0
(g632
g2
Ntp2767
Rp2768
(dp2769
g25
I00
sg31
I01
sg32
I00
sg17
(lp2770
Vpixels
p2771
aVcrosstalk
p2772
aVnonlin1
p2773
aVnonlin2
p2774
aVnonlin3
p2775
asg26
Nsg2771
g0
(g52
g2
Ntp2776
Rp2777
(dp2778
g25
I00
sg31
I01
sg32
I00
sg42
I36000
sbsg2772
g0
(g38
g2
Ntp2779
Rp2780
(dp2781
g25
I00
sg31
I01
sg32
I00
sg42
F0.0
sbsg2773
g0
(g38
g2
Ntp2782
Rp2783
(dp2784
g25
I00
sg31
I01
sg32
I00
sg42
F1.0
sbsg2774
g0
(g38
g2
Ntp2785
Rp2786
(dp2787
g25
I00
sg31
I01
sg32
I00
sg42
F0.0
sbsg2775
g0
(g38
g2
Ntp2788
Rp2789
(dp2790
g25
I00
sg31
I01
sg32
I00
sg42
F0.0
sbsbag0
(g632
g2
Ntp2791
Rp2792
(dp2793
g25
I00
sg31
I01
sg32
I00
sg17
(lp2794
g2771
ag2772
ag2773
ag2774
ag2775
asg26
Nsg2771
g0
(g52
g2
Ntp2795
Rp2796
(dp2797
g25
I00
sg31
I01
sg32
I00
sg42
I2500
sbsg2772
g0
(g38
g2
Ntp2798
Rp2799
(dp2800
g25
I00
sg31
I01
sg32
I00
sg42
F0.0
sbsg2773
g0
(g38
g2
Ntp2801
Rp2802
(dp2803
g25
I00
sg31
I01
sg32
I00
sg42
F1.0
sbsg2774
g0
(g38
g2
Ntp2804
Rp2805
(dp2806
g25
I00
sg31
I01
sg32
I00
sg42
F0.0
sbsg2775
g0
(g38
g2
Ntp2807
Rp2808
(dp2809
g25
I00
sg31
I01
sg32
I00
sg42
F0.0
sbsbag0
(g632
g2
Ntp2810
Rp2811
(dp2812
g25
I00
sg31
I01
sg32
I00
sg17
(lp2813
g2771
ag2772
ag2773
ag2774
ag2775
asg26
Nsg2771
g0
(g52
g2
Ntp2814
Rp2815
(dp2816
g25
I00
sg31
I01
sg32
I00
sg42
I27370
sbsg2772
g0
(g38
g2
Ntp2817
Rp2818
(dp2819
g25
I00
sg31
I01
sg32
I00
sg42
F0.17
sbsg2773
g0
(g38
g2
Ntp2820
Rp2821
(dp2822
g25
I00
sg31
I01
sg32
I00
sg42
F1.00985
sbsg2774
g0
(g38
g2
Ntp2823
Rp2824
(dp2825
g25
I00
sg31
I01
sg32
I00
sg42
F7.84089e-06
sbsg2775
g0
(g38
g2
Ntp2826
Rp2827
(dp2828
g25
I00
sg31
I01
sg32
I00
sg42
F2.86282e-10
sbsbag0
(g632
g2
Ntp2829
Rp2830
(dp2831
g25
I00
sg31
I01
sg32
I00
sg17
(lp2832
g2771
ag2772
ag2773
ag2774
ag2775
asg26
Nsg2771
g0
(g52
g2
Ntp2833
Rp2834
(dp2835
g25
I00
sg31
I01
sg32
I00
sg42
I38018
sbsg2772
g0
(g38
g2
Ntp2836
Rp2837
(dp2838
g25
I00
sg31
I01
sg32
I00
sg42
F0.196
sbsg2773
g0
(g38
g2
Ntp2839
Rp2840
(dp2841
g25
I00
sg31
I01
sg32
I00
sg42
F1.00546
sbsg2774
g0
(g38
g2
Ntp2842
Rp2843
(dp2844
g25
I00
sg31
I01
sg32
I00
sg42
F6.40239e-06
sbsg2775
g0
(g38
g2
Ntp2845
Rp2846
(dp2847
g25
I00
sg31
I01
sg32
I00
sg42
F1.27011e-10
sbsbag0
(g632
g2
Ntp2848
Rp2849
(dp2850
g25
I00
sg31
I01
sg32
I00
sg17
(lp2851
g2771
ag2772
ag2773
ag2774
ag2775
asg26
Nsg2771
g0
(g52
g2
Ntp2852
Rp2853
(dp2854
g25
I00
sg31
I01
sg32
I00
sg42
I27370
sbsg2772
g0
(g38
g2
Ntp2855
Rp2856
(dp2857
g25
I00
sg31
I01
sg32
I00
sg42
F0.17
sbsg2773
g0
(g38
g2
Ntp2858
Rp2859
(dp2860
g25
I00
sg31
I01
sg32
I00
sg42
F1.00985
sbsg2774
g0
(g38
g2
Ntp2861
Rp2862
(dp2863
g25
I00
sg31
I01
sg32
I00
sg42
F7.84089e-06
sbsg2775
g0
(g38
g2
Ntp2864
Rp2865
(dp2866
g25
I00
sg31
I01
sg32
I00
sg42
F2.86282e-10
sbsbag0
(g632
g2
Ntp2867
Rp2868
(dp2869
g25
I00
sg31
I01
sg32
I00
sg17
(lp2870
g2771
ag2772
ag2773
ag2774
ag2775
asg26
Nsg2771
g0
(g52
g2
Ntp2871
Rp2872
(dp2873
g25
I00
sg31
I01
sg32
I00
sg42
I38018
sbsg2772
g0
(g38
g2
Ntp2874
Rp2875
(dp2876
g25
I00
sg31
I01
sg32
I00
sg42
F0.196
sbsg2773
g0
(g38
g2
Ntp2877
Rp2878
(dp2879
g25
I00
sg31
I01
sg32
I00
sg42
F1.00546
sbsg2774
g0
(g38
g2
Ntp2880
Rp2881
(dp2882
g25
I00
sg31
I01
sg32
I00
sg42
F6.40239e-06
sbsg2775
g0
(g38
g2
Ntp2883
Rp2884
(dp2885
g25
I00
sg31
I01
sg32
I00
sg42
F1.27011e-10
sbsbag0
(g632
g2
Ntp2886
Rp2887
(dp2888
g25
I00
sg31
I01
sg32
I00
sg17
(lp2889
g2771
ag2772
ag2773
ag2774
ag2775
asg26
Nsg2771
g0
(g52
g2
Ntp2890
Rp2891
(dp2892
g25
I00
sg31
I01
sg32
I00
sg42
I0
sbsg2772
g0
(g38
g2
Ntp2893
Rp2894
(dp2895
g25
I00
sg31
I01
sg32
I00
sg42
F0.0
sbsg2773
g0
(g38
g2
Ntp2896
Rp2897
(dp2898
g25
I00
sg31
I01
sg32
I00
sg42
F1.0
sbsg2774
g0
(g38
g2
Ntp2899
Rp2900
(dp2901
g25
I00
sg31
I01
sg32
I00
sg42
F0.0
sbsg2775
g0
(g38
g2
Ntp2902
Rp2903
(dp2904
g25
I00
sg31
I01
sg32
I00
sg42
F0.0
sbsbatp2905
Rp2906
(dp2907
g25
I00
sg31
I01
sg32
I00
sg452
I1
sbsg59
V/cvmfs/cms.cern.ch/el8_amd64_gcc12/cms/cmssw/CMSSW_15_0_0_pre1/src/CalibCalorimetry/HcalPlugins/python/Hcal_Conditions_forGlobalTag_cff.py
p2908
sg61
I16
sg62
g2173
sbssV_Process__esproducers
p2909
(dp2910
VCSCGeometryESModule
p2911
g0
(cFWCore.ParameterSet.Modules
ESProducer
p2912
g2
Ntp2913
Rp2914
(dp2915
g15
g2911
sg17
(lp2916
VfromDDD
p2917
aVfromDD4hep
p2918
aValignmentsLabel
p2919
ag2008
aVuseRealWireGeometry
p2920
aVuseOnlyWiresInME1a
p2921
aVuseGangedStripsInME1a
p2922
aVuseCentreTIOffsets
p2923
aVapplyAlignment
p2924
aVdebugV
p2925
asg25
I00
sg26
Nsg2917
g0
(g73
g2
Ntp2926
Rp2927
(dp2928
g25
I00
sg31
I01
sg32
I00
sg42
I00
sbsg32
I00
sg2918
g0
(g73
g2
Ntp2929
Rp2930
(dp2931
g25
I00
sg31
I01
sg32
I00
sg42
I00
sbsg2919
g0
(g121
g2
Ntp2932
Rp2933
(dp2934
g25
I00
sg31
I01
sg32
I00
sg42
g36
sbsg2008
g0
(g121
g2
Ntp2935
Rp2936
(dp2937
g25
I00
sg31
I01
sg32
I00
sg42
g36
sbsg2920
g0
(g73
g2
Ntp2938
Rp2939
(dp2940
g25
I00
sg31
I01
sg32
I00
sg42
I01
sbsg2921
g0
(g73
g2
Ntp2941
Rp2942
(dp2943
g25
I00
sg31
I01
sg32
I00
sg42
I00
sbsg2922
g0
(g73
g2
Ntp2944
Rp2945
(dp2946
g25
I00
sg31
I01
sg32
I00
sg42
I01
sbsg2923
g0
(g73
g2
Ntp2947
Rp2948
(dp2949
g25
I00
sg31
I01
sg32
I00
sg42
I00
sbsg2924
g0
(g73
g2
Ntp2950
Rp2951
(dp2952
g25
I00
sg31
I01
sg32
I00
sg42
I01
sbsg2925
g0
(g73
g2
Ntp2953
Rp2954
(dp2955
g25
I00
sg31
I00
sg32
I00
sg42
I00
sbsg59
g715
sg61
I54
sg62
g2911
sbsVCaloGeometryBuilder
p2956
g0
(g2912
g2
Ntp2957
Rp2958
(dp2959
g15
g2956
sg17
(lp2960
VSelectedCalos
p2961
asg25
I00
sg26
Nsg2961
g0
(g105
g47
(lp2962
VHCAL
p2963
aVZDC
p2964
aVCASTOR
p2965
aVEcalBarrel
p2966
aVEcalEndcap
p2967
aVEcalPreshower
p2968
aVTOWER
p2969
atp2970
Rp2971
(dp2972
g25
I00
sg31
I01
sg32
I00
sg452
I1
sbsg32
I00
sg59
g715
sg61
I54
sg62
g2956
sbsVCaloTopologyBuilder
p2973
g0
(g2912
g2
Ntp2974
Rp2975
(dp2976
g15
g2973
sg17
(lp2977
sg25
I00
sg26
Nsg32
I00
sg59
g715
sg61
I54
sg62
g2973
sbsVCaloTowerGeometryFromDBEP
p2978
g0
(g2912
g2
Ntp2979
Rp2980
(dp2981
g15
g2978
sg17
(lp2982
g2924
asg25
I00
sg26
Nsg2924
g0
(g73
g2
Ntp2983
Rp2984
(dp2985
g25
I00
sg31
I01
sg32
I00
sg42
I00
sbsg32
I00
sg59
g715
sg61
I54
sg62
g2978
sbsVCaloTowerTopologyEP
p2986
g0
(g2912
g2
Ntp2987
Rp2988
(dp2989
g15
g2986
sg17
(lp2990
g2008
asg25
I00
sg26
Nsg2008
g0
(g121
g2
Ntp2991
Rp2992
(dp2993
g25
I00
sg31
I01
sg32
I00
sg42
g36
sbsg32
I00
sg59
g715
sg61
I54
sg62
g2986
sbsVCastorGeometryFromDBEP
p2994
g0
(g2912
g2
Ntp2995
Rp2996
(dp2997
g15
g2994
sg17
(lp2998
g2924
asg25
I00
sg26
Nsg2924
g0
(g73
g2
Ntp2999
Rp3000
(dp3001
g25
I00
sg31
I01
sg32
I00
sg42
I00
sbsg32
I00
sg59
g715
sg61
I54
sg62
g2994
sbsVDTGeometryESModule
p3002
g0
(g2912
g2
Ntp3003
Rp3004
(dp3005
g15
g3002
sg17
(lp3006
g2917
ag2918
aVDDDetector
p3007
ag2919
ag2008
aVattribute
p3008
aVvalue
p3009
ag2924
asg25
I00
sg26
Nsg2917
g0
(g73
g2
Ntp3010
Rp3011
(dp3012
g25
I00
sg31
I01
sg32
I01
sg42
I00
sbsg32
I01
sg2918
g0
(g73
g2
Ntp3013
Rp3014
(dp3015
g25
I00
sg31
I01
sg32
I00
sg42
I00
sbsg3007
g0
(cFWCore.ParameterSet.Types
ESInputTag
p3016
g2
Ntp3017
Rp3018
(dp3019
g25
I00
sg31
I01
sg32
I00
sV_ESInputTag__moduleLabel
p3020
g36
sV_ESInputTag__data
p3021
g36
sbsg2919
g0
(g121
g2
Ntp3022
Rp3023
(dp3024
g25
I00
sg31
I01
sg32
I00
sg42
g36
sbsg2008
g0
(g121
g2
Ntp3025
Rp3026
(dp3027
g25
I00
sg31
I01
sg32
I00
sg42
g36
sbsg3008
g0
(g121
g2
Ntp3028
Rp3029
(dp3030
g25
I00
sg31
I01
sg32
I00
sg42
VMuStructure
p3031
sbsg3009
g0
(g121
g2
Ntp3032
Rp3033
(dp3034
g25
I00
sg31
I01
sg32
I00
sg42
VMuonBarrelDT
p3035
sbsg2924
g0
(g73
g2
Ntp3036
Rp3037
(dp3038
g25
I00
sg31
I01
sg32
I00
sg42
I01
sbsg59
g715
sg61
I54
sg62
g3002
sbsVEcalBarrelGeometryFromDBEP
p3039
g0
(g2912
g2
Ntp3040
Rp3041
(dp3042
g15
g3039
sg17
(lp3043
g2924
asg25
I00
sg26
Nsg2924
g0
(g73
g2
Ntp3044
Rp3045
(dp3046
g25
I00
sg31
I01
sg32
I01
sg42
I01
sbsg32
I01
sg59
g715
sg61
I54
sg62
g3039
sbsVEcalElectronicsMappingBuilder
p3047
g0
(g2912
g2
Ntp3048
Rp3049
(dp3050
g15
g3047
sg17
(lp3051
sg25
I00
sg26
Nsg32
I00
sg59
g715
sg61
I54
sg62
g3047
sbsVEcalEndcapGeometryFromDBEP
p3052
g0
(g2912
g2
Ntp3053
Rp3054
(dp3055
g15
g3052
sg17
(lp3056
g2924
asg25
I00
sg26
Nsg2924
g0
(g73
g2
Ntp3057
Rp3058
(dp3059
g25
I00
sg31
I01
sg32
I01
sg42
I01
sbsg32
I01
sg59
g715
sg61
I54
sg62
g3052
sbsVEcalPreshowerGeometryFromDBEP
p3060
g0
(g2912
g2
Ntp3061
Rp3062
(dp3063
g15
g3060
sg17
(lp3064
g2924
asg25
I00
sg26
Nsg2924
g0
(g73
g2
Ntp3065
Rp3066
(dp3067
g25
I00
sg31
I01
sg32
I01
sg42
I01
sbsg32
I01
sg59
g715
sg61
I54
sg62
g3060
sbsVEcalTrigTowerConstituentsMapBuilder
p3068
g0
(g2912
g2
Ntp3069
Rp3070
(dp3071
g15
g3068
sg17
(lp3072
VMapFile
p3073
asg25
I00
sg26
Nsg3073
g0
(g121
g2
Ntp3074
Rp3075
(dp3076
g25
I00
sg31
I00
sg32
I00
sg42
VGeometry/EcalMapping/data/EndCap_TTMap.txt
p3077
sbsg32
I00
sg59
g715
sg61
I54
sg62
g3068
sbsVGlobalTrackingGeometryESProducer
p3078
g0
(g2912
g2
Ntp3079
Rp3080
(dp3081
g15
g3078
sg17
(lp3082
sg25
I00
sg26
Nsg32
I00
sg59
g715
sg61
I54
sg62
g3078
sbsVHcalAlignmentEP
p3083
g0
(g2912
g2
Ntp3084
Rp3085
(dp3086
g15
g3083
sg17
(lp3087
sg25
I00
sg26
Nsg32
I00
sg59
g715
sg61
I54
sg62
g3083
sbsVHcalGeometryFromDBEP
p3088
g0
(g2912
g2
Ntp3089
Rp3090
(dp3091
g15
g3088
sg17
(lp3092
g2924
asg25
I00
sg26
Nsg2924
g0
(g73
g2
Ntp3093
Rp3094
(dp3095
g25
I00
sg31
I01
sg32
I01
sg42
I01
sbsg32
I01
sg59
g715
sg61
I54
sg62
g3088
sbsVMuonDetLayerGeometryESProducer
p3096
g0
(g2912
g2
Ntp3097
Rp3098
(dp3099
g15
g3096
sg17
(lp3100
sg25
I00
sg26
Nsg32
I00
sg59
g715
sg61
I54
sg62
g3096
sbsVRPCGeometryESModule
p3101
g0
(g2912
g2
Ntp3102
Rp3103
(dp3104
g15
g3101
sg17
(lp3105
g2917
ag2918
asg25
I00
sg26
Nsg2917
g0
(g73
g2
Ntp3106
Rp3107
(dp3108
g25
I00
sg31
I00
sg32
I00
sg42
I00
sbsg32
I00
sg2918
g0
(g73
g2
Ntp3109
Rp3110
(dp3111
g25
I00
sg31
I00
sg32
I00
sg42
I00
sbsg59
g715
sg61
I54
sg62
g3101
sbsVTrackerAdditionalParametersPerDet
p3112
g0
(g2912
g2
Ntp3113
Rp3114
(dp3115
g15
VTrackerAdditionalParametersPerDetESModule
p3116
sg17
(lp3117
g2008
asg25
I00
sg26
Nsg2008
g0
(g121
g2
Ntp3118
Rp3119
(dp3120
g25
I00
sg31
I01
sg32
I00
sg42
g36
sbsg32
I00
sg59
g715
sg61
I54
sg62
g3112
sbsVTrackerRecoGeometryESProducer
p3121
g0
(g2912
g2
Ntp3122
Rp3123
(dp3124
g15
g3121
sg17
(lp3125
VusePhase2Stacks
p3126
asg25
I00
sg26
Nsg3126
g0
(g73
g2
Ntp3127
Rp3128
(dp3129
g25
I00
sg31
I01
sg32
I00
sg42
I00
sbsg32
I00
sg59
g715
sg61
I54
sg62
g3121
sbsVZdcGeometryFromDBEP
p3130
g0
(g2912
g2
Ntp3131
Rp3132
(dp3133
g15
g3130
sg17
(lp3134
g2924
asg25
I00
sg26
Nsg2924
g0
(g73
g2
Ntp3135
Rp3136
(dp3137
g25
I00
sg31
I01
sg32
I00
sg42
I00
sbsg32
I00
sg59
g715
sg61
I54
sg62
g3130
sbsVfakeForIdealAlignment
p3138
g0
(g2912
g2
Ntp3139
Rp3140
(dp3141
g15
VFakeAlignmentProducer
p3142
sg17
(lp3143
g2008
asg25
I00
sg26
Nsg2008
g0
(g121
g2
Ntp3144
Rp3145
(dp3146
g25
I00
sg31
I01
sg32
I01
sg42
VfakeForIdeal
p3147
sbsg32
I01
sg59
V/cvmfs/cms.cern.ch/el8_amd64_gcc12/cms/cmssw/CMSSW_15_0_0_pre1/src/Alignment/CommonAlignmentProducer/python/fakeForIdealAlignmentProducer_cfi.py
p3148
sg61
I5
sg62
g3138
sbsVhcalDDDRecConstants
p3149
g0
(g2912
g2
Ntp3150
Rp3151
(dp3152
g15
VHcalDDDRecConstantsESModule
p3153
sg17
(lp3154
g2008
asg25
I00
sg26
Nsg2008
g0
(g121
g2
Ntp3155
Rp3156
(dp3157
g25
I00
sg31
I01
sg32
I00
sg42
g36
sbsg32
I00
sg59
g715
sg61
I54
sg62
g3149
sbsVhcalDDDSimConstants
p3158
g0
(g2912
g2
Ntp3159
Rp3160
(dp3161
g15
VHcalDDDSimConstantsESModule
p3162
sg17
(lp3163
g2008
asg25
I00
sg26
Nsg2008
g0
(g121
g2
Ntp3164
Rp3165
(dp3166
g25
I00
sg31
I01
sg32
I00
sg42
g36
sbsg32
I00
sg59
g715
sg61
I54
sg62
g3158
sbsVhcalTopologyIdeal
p3167
g0
(g2912
g2
Ntp3168
Rp3169
(dp3170
g15
VHcalTopologyIdealEP
p3171
sg17
(lp3172
VExclude
p3173
aVMergePosition
p3174
ag2008
asg25
I00
sg26
Nsg3173
g0
(g121
g2
Ntp3175
Rp3176
(dp3177
g25
I00
sg31
I00
sg32
I00
sg42
g36
sbsg32
I00
sg3174
g0
(g73
g2
Ntp3178
Rp3179
(dp3180
g25
I00
sg31
I00
sg32
I00
sg42
I00
sbsg2008
g0
(g121
g2
Ntp3181
Rp3182
(dp3183
g25
I00
sg31
I01
sg32
I00
sg42
g36
sbsg59
g715
sg61
I54
sg62
g3167
sbsVidealForDigiCSCGeometry
p3184
g0
(g2912
g2
Ntp3185
Rp3186
(dp3187
g15
g2911
sg17
(lp3188
g2917
ag2918
ag2919
ag2008
ag2920
ag2921
ag2922
ag2923
ag2924
ag2925
asg25
I00
sg26
Nsg2917
g0
(g73
g2
Ntp3189
Rp3190
(dp3191
g25
I00
sg31
I01
sg32
I00
sg42
I00
sbsg32
I01
sg2918
g0
(g73
g2
Ntp3192
Rp3193
(dp3194
g25
I00
sg31
I01
sg32
I00
sg42
I00
sbsg2919
g0
(g121
g2
Ntp3195
Rp3196
(dp3197
g25
I00
sg31
I01
sg32
I01
sg42
g3147
sbsg2008
g0
(g121
g2
Ntp3198
Rp3199
(dp3200
g25
I00
sg31
I01
sg32
I01
sg42
VidealForDigi
p3201
sbsg2920
g0
(g73
g2
Ntp3202
Rp3203
(dp3204
g25
I00
sg31
I01
sg32
I00
sg42
I01
sbsg2921
g0
(g73
g2
Ntp3205
Rp3206
(dp3207
g25
I00
sg31
I01
sg32
I00
sg42
I00
sbsg2922
g0
(g73
g2
Ntp3208
Rp3209
(dp3210
g25
I00
sg31
I01
sg32
I00
sg42
I01
sbsg2923
g0
(g73
g2
Ntp3211
Rp3212
(dp3213
g25
I00
sg31
I01
sg32
I00
sg42
I00
sbsg2924
g0
(g73
g2
Ntp3214
Rp3215
(dp3216
g25
I00
sg31
I01
sg32
I01
sg42
I00
sbsg2925
g0
(g73
g2
Ntp3217
Rp3218
(dp3219
g25
I00
sg31
I00
sg32
I00
sg42
I00
sbsg59
V/cvmfs/cms.cern.ch/el8_amd64_gcc12/cms/cmssw/CMSSW_15_0_0_pre1/src/Geometry/CSCGeometryBuilder/python/idealForDigiCscGeometryDB_cff.py
p3220
sg61
I8
sg62
g3184
sbsVidealForDigiDTGeometry
p3221
g0
(g2912
g2
Ntp3222
Rp3223
(dp3224
g15
g3002
sg17
(lp3225
g2917
ag2918
ag3007
ag2919
ag2008
ag3008
ag3009
ag2924
asg25
I00
sg26
Nsg2917
g0
(g73
g2
Ntp3226
Rp3227
(dp3228
g25
I00
sg31
I01
sg32
I01
sg42
I00
sbsg32
I01
sg2918
g0
(g73
g2
Ntp3229
Rp3230
(dp3231
g25
I00
sg31
I01
sg32
I00
sg42
I00
sbsg3007
g0
(g3016
g2
Ntp3232
Rp3233
(dp3234
g25
I00
sg31
I01
sg32
I00
sg3020
g36
sg3021
g36
sbsg2919
g0
(g121
g2
Ntp3235
Rp3236
(dp3237
g25
I00
sg31
I01
sg32
I01
sg42
g3147
sbsg2008
g0
(g121
g2
Ntp3238
Rp3239
(dp3240
g25
I00
sg31
I01
sg32
I01
sg42
g3201
sbsg3008
g0
(g121
g2
Ntp3241
Rp3242
(dp3243
g25
I00
sg31
I01
sg32
I00
sg42
g3031
sbsg3009
g0
(g121
g2
Ntp3244
Rp3245
(dp3246
g25
I00
sg31
I01
sg32
I00
sg42
g3035
sbsg2924
g0
(g73
g2
Ntp3247
Rp3248
(dp3249
g25
I00
sg31
I01
sg32
I01
sg42
I00
sbsg59
V/cvmfs/cms.cern.ch/el8_amd64_gcc12/cms/cmssw/CMSSW_15_0_0_pre1/src/Geometry/DTGeometryBuilder/python/idealForDigiDtGeometryDB_cff.py
p3250
sg61
I8
sg62
g3221
sbsVidealForDigiTrackerGeometry
p3251
g0
(g2912
g2
Ntp3252
Rp3253
(dp3254
g15
VTrackerDigiGeometryESModule
p3255
sg17
(lp3256
g2008
ag2917
ag2924
ag2919
asg25
I00
sg26
Nsg2008
g0
(g121
g2
Ntp3257
Rp3258
(dp3259
g25
I00
sg31
I01
sg32
I01
sg42
g3201
sbsg32
I01
sg2917
g0
(g73
g2
Ntp3260
Rp3261
(dp3262
g25
I00
sg31
I01
sg32
I00
sg42
I00
sbsg2924
g0
(g73
g2
Ntp3263
Rp3264
(dp3265
g25
I00
sg31
I01
sg32
I01
sg42
I00
sbsg2919
g0
(g121
g2
Ntp3266
Rp3267
(dp3268
g25
I00
sg31
I01
sg32
I01
sg42
g3147
sbsg59
V/cvmfs/cms.cern.ch/el8_amd64_gcc12/cms/cmssw/CMSSW_15_0_0_pre1/src/Geometry/TrackerGeometryBuilder/python/idealForDigiTrackerGeometryDB_cff.py
p3269
sg61
I8
sg62
g3251
sbsVmuonGeometryConstants
p3270
g0
(g2912
g2
Ntp3271
Rp3272
(dp3273
g15
VMuonGeometryConstantsESModule
p3274
sg17
(lp3275
g2918
ag2008
asg25
I00
sg26
Nsg2918
g0
(g73
g2
Ntp3276
Rp3277
(dp3278
g25
I00
sg31
I01
sg32
I00
sg42
I00
sbsg32
I00
sg2008
g0
(g121
g2
Ntp3279
Rp3280
(dp3281
g25
I00
sg31
I01
sg32
I00
sg42
g36
sbsg59
g715
sg61
I54
sg62
g3270
sbsVtrackerGeometryDB
p3282
g0
(g2912
g2
Ntp3283
Rp3284
(dp3285
g15
g3255
sg17
(lp3286
g2008
ag2917
ag2924
ag2919
asg25
I00
sg26
Nsg2008
g0
(g121
g2
Ntp3287
Rp3288
(dp3289
g25
I00
sg31
I01
sg32
I00
sg42
g36
sbsg32
I00
sg2917
g0
(g73
g2
Ntp3290
Rp3291
(dp3292
g25
I00
sg31
I01
sg32
I00
sg42
I00
sbsg2924
g0
(g73
g2
Ntp3293
Rp3294
(dp3295
g25
I00
sg31
I01
sg32
I00
sg42
I01
sbsg2919
g0
(g121
g2
Ntp3296
Rp3297
(dp3298
g25
I00
sg31
I01
sg32
I00
sg42
g36
sbsg59
g715
sg61
I54
sg62
g3282
sbsVtrackerNumberingGeometryDB
p3299
g0
(g2912
g2
Ntp3300
Rp3301
(dp3302
g15
VTrackerGeometricDetESModule
p3303
sg17
(lp3304
g2917
ag2918
ag2008
asg25
I00
sg26
Nsg2917
g0
(g73
g2
Ntp3305
Rp3306
(dp3307
g25
I00
sg31
I01
sg32
I00
sg42
I00
sbsg32
I00
sg2918
g0
(g73
g2
Ntp3308
Rp3309
(dp3310
g25
I00
sg31
I01
sg32
I00
sg42
I00
sbsg2008
g0
(g121
g2
Ntp3311
Rp3312
(dp3313
g25
I00
sg31
I01
sg32
I00
sg42
g36
sbsg59
g715
sg61
I54
sg62
g3299
sbsVtrackerTopology
p3314
g0
(g2912
g2
Ntp3315
Rp3316
(dp3317
g15
VTrackerTopologyEP
p3318
sg17
(lp3319
g2008
asg25
I00
sg26
Nsg2008
g0
(g121
g2
Ntp3320
Rp3321
(dp3322
g25
I00
sg31
I01
sg32
I00
sg42
g36
sbsg32
I00
sg59
g715
sg61
I54
sg62
g3314
sbsVzdcTopologyEP
p3323
g0
(g2912
g2
Ntp3324
Rp3325
(dp3326
g15
VZdcTopologyEP
p3327
sg17
(lp3328
g2008
asg25
I00
sg26
Nsg2008
g0
(g121
g2
Ntp3329
Rp3330
(dp3331
g25
I00
sg31
I01
sg32
I00
sg42
g36
sbsg32
I00
sg59
g715
sg61
I54
sg62
g3323
sbsVMuonNumberingInitialization
p3332
g0
(g2912
g2
Ntp3333
Rp3334
(dp3335
g15
g3332
sg17
(lp3336
sg25
I00
sg26
Nsg32
I00
sg59
g715
sg61
I54
sg62
g3332
sbsVXMLFromDBSource
p3337
g0
(g2912
g2
Ntp3338
Rp3339
(dp3340
g15
VXMLIdealGeometryESProducer
p3341
sg17
(lp3342
VrootDDName
p3343
ag1962
asg25
I00
sg26
Nsg3343
g0
(g121
g2
Ntp3344
Rp3345
(dp3346
g25
I00
sg31
I01
sg32
I00
sg42
Vcms:OCMS
p3347
sbsg32
I00
sg1962
g0
(g121
g2
Ntp3348
Rp3349
(dp3350
g25
I00
sg31
I01
sg32
I00
sg42
VExtended
p3351
sbsg59
g715
sg61
I54
sg62
g3337
sbsVcaloSimulationParameters
p3352
g0
(g2912
g2
Ntp3353
Rp3354
(dp3355
g15
VCaloSimParametersESModule
p3356
sg17
(lp3357
g2918
ag2008
asg25
I00
sg26
Nsg2918
g0
(g73
g2
Ntp3358
Rp3359
(dp3360
g25
I00
sg31
I01
sg32
I00
sg42
I00
sbsg32
I00
sg2008
g0
(g121
g2
Ntp3361
Rp3362
(dp3363
g25
I00
sg31
I01
sg32
I00
sg42
g36
sbsg59
g715
sg61
I54
sg62
g3352
sbsVecalSimulationParametersEB
p3364
g0
(g2912
g2
Ntp3365
Rp3366
(dp3367
g15
VEcalSimParametersESModule
p3368
sg17
(lp3369
g2918
aVname
p3370
ag2008
asg25
I00
sg26
Nsg2918
g0
(g73
g2
Ntp3371
Rp3372
(dp3373
g25
I00
sg31
I01
sg32
I00
sg42
I00
sbsg32
I00
sg3370
g0
(g121
g2
Ntp3374
Rp3375
(dp3376
g25
I00
sg31
I01
sg32
I00
sg42
VEcalHitsEB
p3377
sbsg2008
g0
(g121
g2
Ntp3378
Rp3379
(dp3380
g25
I00
sg31
I01
sg32
I00
sg42
g36
sbsg59
g715
sg61
I54
sg62
g3364
sbsVecalSimulationParametersEE
p3381
g0
(g2912
g2
Ntp3382
Rp3383
(dp3384
g15
g3368
sg17
(lp3385
g2918
ag3370
ag2008
asg25
I00
sg26
Nsg2918
g0
(g73
g2
Ntp3386
Rp3387
(dp3388
g25
I00
sg31
I01
sg32
I00
sg42
I00
sbsg32
I00
sg3370
g0
(g121
g2
Ntp3389
Rp3390
(dp3391
g25
I00
sg31
I01
sg32
I01
sg42
VEcalHitsEE
p3392
sbsg2008
g0
(g121
g2
Ntp3393
Rp3394
(dp3395
g25
I00
sg31
I01
sg32
I00
sg42
g36
sbsg59
V/cvmfs/cms.cern.ch/el8_amd64_gcc12/cms/cmssw/CMSSW_15_0_0_pre1/src/Geometry/EcalCommonData/python/ecalSimulationParameters_cff.py
p3396
sg61
I11
sg62
g3381
sbsVecalSimulationParametersES
p3397
g0
(g2912
g2
Ntp3398
Rp3399
(dp3400
g15
g3368
sg17
(lp3401
g2918
ag3370
ag2008
asg25
I00
sg26
Nsg2918
g0
(g73
g2
Ntp3402
Rp3403
(dp3404
g25
I00
sg31
I01
sg32
I00
sg42
I00
sbsg32
I00
sg3370
g0
(g121
g2
Ntp3405
Rp3406
(dp3407
g25
I00
sg31
I01
sg32
I01
sg42
VEcalHitsES
p3408
sbsg2008
g0
(g121
g2
Ntp3409
Rp3410
(dp3411
g25
I00
sg31
I01
sg32
I00
sg42
g36
sbsg59
g3396
sg61
I14
sg62
g3397
sbsVhcalSimulationConstants
p3412
g0
(g2912
g2
Ntp3413
Rp3414
(dp3415
g15
VHcalSimulationConstantsESModule
p3416
sg17
(lp3417
g2008
asg25
I00
sg26
Nsg2008
g0
(g121
g2
Ntp3418
Rp3419
(dp3420
g25
I00
sg31
I01
sg32
I00
sg42
g36
sbsg32
I00
sg59
g715
sg61
I54
sg62
g3412
sbsVhcalSimulationParameters
p3421
g0
(g2912
g2
Ntp3422
Rp3423
(dp3424
g15
VHcalSimParametersESModule
p3425
sg17
(lp3426
g2918
ag2008
asg25
I00
sg26
Nsg2918
g0
(g73
g2
Ntp3427
Rp3428
(dp3429
g25
I00
sg31
I01
sg32
I00
sg42
I00
sbsg32
I00
sg2008
g0
(g121
g2
Ntp3430
Rp3431
(dp3432
g25
I00
sg31
I01
sg32
I00
sg42
g36
sbsg59
g715
sg61
I54
sg62
g3421
sbsVmuonOffsetESProducer
p3433
g0
(g2912
g2
Ntp3434
Rp3435
(dp3436
g15
VMuonOffsetESProducer
p3437
sg17
(lp3438
g2918
aVnames
p3439
ag2008
asg25
I00
sg26
Nsg2918
g0
(g73
g2
Ntp3440
Rp3441
(dp3442
g25
I00
sg31
I01
sg32
I00
sg42
I00
sbsg32
I00
sg3439
g0
(g105
g47
(lp3443
VMuonCommonNumbering
p3444
aVMuonBarrel
p3445
aVMuonEndcap
p3446
aVMuonBarrelWheels
p3447
aVMuonBarrelStation1
p3448
aVMuonBarrelStation2
p3449
aVMuonBarrelStation3
p3450
aVMuonBarrelStation4
p3451
aVMuonBarrelSuperLayer
p3452
aVMuonBarrelLayer
p3453
aVMuonBarrelWire
p3454
aVMuonRpcPlane1I
p3455
aVMuonRpcPlane1O
p3456
aVMuonRpcPlane2I
p3457
aVMuonRpcPlane2O
p3458
aVMuonRpcPlane3S
p3459
aVMuonRpcPlane4
p3460
aVMuonRpcChamberLeft
p3461
aVMuonRpcChamberMiddle
p3462
aVMuonRpcChamberRight
p3463
aVMuonRpcEndcap1
p3464
aVMuonRpcEndcap2
p3465
aVMuonRpcEndcap3
p3466
aVMuonRpcEndcap4
p3467
aVMuonRpcEndcapSector
p3468
aVMuonRpcEndcapChamberB1
p3469
aVMuonRpcEndcapChamberB2
p3470
aVMuonRpcEndcapChamberB3
p3471
aVMuonRpcEndcapChamberC1
p3472
aVMuonRpcEndcapChamberC2
p3473
aVMuonRpcEndcapChamberC3
p3474
aVMuonRpcEndcapChamberE1
p3475
aVMuonRpcEndcapChamberE2
p3476
aVMuonRpcEndcapChamberE3
p3477
aVMuonRpcEndcapChamberF1
p3478
aVMuonRpcEndcapChamberF2
p3479
aVMuonRpcEndcapChamberF3
p3480
aVMuonEndcapStation1
p3481
aVMuonEndcapStation2
p3482
aVMuonEndcapStation3
p3483
aVMuonEndcapStation4
p3484
aVMuonEndcapSubrings
p3485
aVMuonEndcapSectors
p3486
aVMuonEndcapLayers
p3487
aVMuonEndcapRing1
p3488
aVMuonEndcapRing2
p3489
aVMuonEndcapRing3
p3490
aVMuonEndcapRingA
p3491
aVMuonGEMEndcap
p3492
aVMuonGEMSector
p3493
aVMuonGEMChamber
p3494
atp3495
Rp3496
(dp3497
g25
I00
sg31
I01
sg32
I00
sg452
I1
sbsg2008
g0
(g121
g2
Ntp3498
Rp3499
(dp3500
g25
I00
sg31
I01
sg32
I00
sg42
g36
sbsg59
g715
sg61
I54
sg62
g3433
sbsVParabolicParametrizedMagneticFieldProducer
p3501
g0
(g2912
g2
Ntp3502
Rp3503
(dp3504
g15
VAutoParametrizedMagneticFieldProducer
p3505
sg17
(lp3506
Vversion
p3507
ag1962
aVvalueOverride
p3508
asg25
I00
sg26
Nsg3507
g0
(g121
g2
Ntp3509
Rp3510
(dp3511
g25
I00
sg31
I01
sg32
I00
sg42
VParabolic
p3512
sbsg32
I01
sg1962
g0
(g121
g2
Ntp3513
Rp3514
(dp3515
g25
I00
sg31
I00
sg32
I01
sg42
VParabolicMf
p3516
sbsg3508
g0
(g52
g2
Ntp3517
Rp3518
(dp3519
g25
I00
sg31
I01
sg32
I01
sg42
I18268
sbsg59
g715
sg61
I54
sg62
g3501
sbsVVolumeBasedMagneticFieldESProducer
p3520
g0
(g2912
g2
Ntp3521
Rp3522
(dp3523
g15
VVolumeBasedMagneticFieldESProducerFromDB
p3524
sg17
(lp3525
g1962
aVdebugBuilder
p3526
ag3508
asg25
I00
sg26
Nsg1962
g0
(g121
g2
Ntp3527
Rp3528
(dp3529
g25
I00
sg31
I00
sg32
I00
sg42
g36
sbsg32
I01
sg3526
g0
(g73
g2
Ntp3530
Rp3531
(dp3532
g25
I00
sg31
I00
sg32
I00
sg42
I00
sbsg3508
g0
(g52
g2
Ntp3533
Rp3534
(dp3535
g25
I00
sg31
I01
sg32
I01
sg42
I18268
sbsg59
g715
sg61
I54
sg62
g3520
sbsVCastorDbProducer
p3536
g0
(g2912
g2
Ntp3537
Rp3538
(dp3539
g15
g3536
sg17
(lp3540
g2008
asg25
I00
sg26
Nsg2008
g0
(g121
g2
Ntp3541
Rp3542
(dp3543
g25
I00
sg31
I01
sg32
I00
sg42
g36
sbsg32
I00
sg59
g715
sg61
I54
sg62
g3536
sbsVEcalLaserCorrectionService
p3544
g0
(g2912
g2
Ntp3545
Rp3546
(dp3547
g15
g3544
sg17
(lp3548
VmaxExtrapolationTimeInSec
p3549
asg25
I00
sg26
Nsg3549
g0
(g585
g2
Ntp3550
Rp3551
(dp3552
g25
I00
sg31
I01
sg32
I00
sg42
I0
sbsg32
I00
sg59
g715
sg61
I54
sg62
g3544
sbsVEcalLaserCorrectionServiceMC
p3553
g0
(g2912
g2
Ntp3554
Rp3555
(dp3556
g15
g3553
sg17
(lp3557
g2008
asg25
I00
sg26
Nsg2008
g0
(g121
g2
Ntp3558
Rp3559
(dp3560
g25
I00
sg31
I01
sg32
I00
sg42
g36
sbsg32
I00
sg59
g715
sg61
I54
sg62
g3553
sbsVSiStripRecHitMatcherESProducer
p3561
g0
(g2912
g2
Ntp3562
Rp3563
(dp3564
g15
g3561
sg17
(lp3565
VComponentName
p3566
aVNSigmaInside
p3567
aVPreFilter
p3568
asg25
I00
sg26
Nsg3566
g0
(g121
g2
Ntp3569
Rp3570
(dp3571
g25
I00
sg31
I01
sg32
I00
sg42
VStandardMatcher
p3572
sbsg32
I00
sg3567
g0
(g38
g2
Ntp3573
Rp3574
(dp3575
g25
I00
sg31
I01
sg32
I00
sg42
F3.0
sbsg3568
g0
(g73
g2
Ntp3576
Rp3577
(dp3578
g25
I00
sg31
I01
sg32
I00
sg42
I00
sbsg59
g715
sg61
I54
sg62
g3561
sbsVStripCPEfromTrackAngleESProducer
p3579
g0
(g2912
g2
Ntp3580
Rp3581
(dp3582
g15
VStripCPEESProducer
p3583
sg17
(lp3584
g3566
aVComponentType
p3585
aVparameters
p3586
asg25
I00
sg26
Nsg3566
g0
(g121
g2
Ntp3587
Rp3588
(dp3589
g25
I00
sg31
I01
sg32
I01
sg42
VStripCPEfromTrackAngle
p3590
sbsg32
I00
sg3585
g0
(g121
g2
Ntp3591
Rp3592
(dp3593
g25
I00
sg31
I01
sg32
I01
sg42
g3590
sbsg3586
g0
(g632
g2
Ntp3594
Rp3595
(dp3596
g25
I00
sg31
I01
sg32
I00
sg17
(lp3597
VmLC_P0
p3598
aVmLC_P1
p3599
aVmLC_P2
p3600
aVmTIB_P0
p3601
aVmTIB_P1
p3602
aVmTOB_P0
p3603
aVmTOB_P1
p3604
aVmTID_P0
p3605
aVmTID_P1
p3606
aVmTEC_P0
p3607
aVmTEC_P1
p3608
aVuseLegacyError
p3609
aVmaxChgOneMIP
p3610
asg26
Nsg3598
g0
(g38
g2
Ntp3611
Rp3612
(dp3613
g25
I00
sg31
I01
sg32
I00
sg42
F-0.326
sbsg3599
g0
(g38
g2
Ntp3614
Rp3615
(dp3616
g25
I00
sg31
I01
sg32
I00
sg42
F0.618
sbsg3600
g0
(g38
g2
Ntp3617
Rp3618
(dp3619
g25
I00
sg31
I01
sg32
I00
sg42
F0.3
sbsg3601
g0
(g38
g2
Ntp3620
Rp3621
(dp3622
g25
I00
sg31
I01
sg32
I00
sg42
F-0.742
sbsg3602
g0
(g38
g2
Ntp3623
Rp3624
(dp3625
g25
I00
sg31
I01
sg32
I00
sg42
F0.202
sbsg3603
g0
(g38
g2
Ntp3626
Rp3627
(dp3628
g25
I00
sg31
I01
sg32
I00
sg42
F-1.026
sbsg3604
g0
(g38
g2
Ntp3629
Rp3630
(dp3631
g25
I00
sg31
I01
sg32
I00
sg42
F0.253
sbsg3605
g0
(g38
g2
Ntp3632
Rp3633
(dp3634
g25
I00
sg31
I01
sg32
I00
sg42
F-1.427
sbsg3606
g0
(g38
g2
Ntp3635
Rp3636
(dp3637
g25
I00
sg31
I01
sg32
I00
sg42
F0.433
sbsg3607
g0
(g38
g2
Ntp3638
Rp3639
(dp3640
g25
I00
sg31
I01
sg32
I00
sg42
F-1.885
sbsg3608
g0
(g38
g2
Ntp3641
Rp3642
(dp3643
g25
I00
sg31
I01
sg32
I00
sg42
F0.471
sbsg3609
g0
(g73
g2
Ntp3644
Rp3645
(dp3646
g25
I00
sg31
I01
sg32
I00
sg42
I00
sbsg3610
g0
(g38
g2
Ntp3647
Rp3648
(dp3649
g25
I00
sg31
I01
sg32
I00
sg42
F6000.0
sbsbsg59
V/cvmfs/cms.cern.ch/el8_amd64_gcc12/cms/cmssw/CMSSW_15_0_0_pre1/src/RecoLocalTracker/SiStripRecHitConverter/python/StripCPEfromTrackAngle_cfi.py
p3650
sg61
I4
sg62
g3579
sbsVctppsBeamParametersFromLHCInfoESSource
p3651
g0
(g2912
g2
Ntp3652
Rp3653
(dp3654
g15
VCTPPSBeamParametersFromLHCInfoESSource
p3655
sg17
(lp3656
VlhcInfoLabel
p3657
aVlhcInfoPerLSLabel
p3658
aVlhcInfoPerFillLabel
p3659
aVuseNewLHCInfo
p3660
aVbeamDivX45
p3661
aVbeamDivY45
p3662
aVbeamDivX56
p3663
aVbeamDivY56
p3664
aVvtxOffsetX45
p3665
aVvtxOffsetY45
p3666
aVvtxOffsetZ45
p3667
aVvtxOffsetX56
p3668
aVvtxOffsetY56
p3669
aVvtxOffsetZ56
p3670
aVvtxStddevX
p3671
aVvtxStddevY
p3672
aVvtxStddevZ
p3673
ag2008
asg25
I00
sg26
Nsg3657
g0
(g121
g2
Ntp3674
Rp3675
(dp3676
g25
I00
sg31
I01
sg32
I00
sg42
g36
sbsg32
I00
sg3658
g0
(g121
g2
Ntp3677
Rp3678
(dp3679
g25
I00
sg31
I01
sg32
I00
sg42
g36
sbsg3659
g0
(g121
g2
Ntp3680
Rp3681
(dp3682
g25
I00
sg31
I01
sg32
I00
sg42
g36
sbsg3660
g0
(g73
g2
Ntp3683
Rp3684
(dp3685
g25
I00
sg31
I01
sg32
I00
sg42
I00
sbsg3661
g0
(g38
g2
Ntp3686
Rp3687
(dp3688
g25
I00
sg31
I01
sg32
I00
sg42
F0.1
sbsg3662
g0
(g38
g2
Ntp3689
Rp3690
(dp3691
g25
I00
sg31
I01
sg32
I00
sg42
F0.1
sbsg3663
g0
(g38
g2
Ntp3692
Rp3693
(dp3694
g25
I00
sg31
I01
sg32
I00
sg42
F0.1
sbsg3664
g0
(g38
g2
Ntp3695
Rp3696
(dp3697
g25
I00
sg31
I01
sg32
I00
sg42
F0.1
sbsg3665
g0
(g38
g2
Ntp3698
Rp3699
(dp3700
g25
I00
sg31
I01
sg32
I00
sg42
F0.01
sbsg3666
g0
(g38
g2
Ntp3701
Rp3702
(dp3703
g25
I00
sg31
I01
sg32
I00
sg42
F0.01
sbsg3667
g0
(g38
g2
Ntp3704
Rp3705
(dp3706
g25
I00
sg31
I01
sg32
I00
sg42
F0.01
sbsg3668
g0
(g38
g2
Ntp3707
Rp3708
(dp3709
g25
I00
sg31
I01
sg32
I00
sg42
F0.01
sbsg3669
g0
(g38
g2
Ntp3710
Rp3711
(dp3712
g25
I00
sg31
I01
sg32
I00
sg42
F0.01
sbsg3670
g0
(g38
g2
Ntp3713
Rp3714
(dp3715
g25
I00
sg31
I01
sg32
I00
sg42
F0.01
sbsg3671
g0
(g38
g2
Ntp3716
Rp3717
(dp3718
g25
I00
sg31
I01
sg32
I00
sg42
F0.02
sbsg3672
g0
(g38
g2
Ntp3719
Rp3720
(dp3721
g25
I00
sg31
I01
sg32
I00
sg42
F0.02
sbsg3673
g0
(g38
g2
Ntp3722
Rp3723
(dp3724
g25
I00
sg31
I01
sg32
I00
sg42
F0.02
sbsg2008
g0
(g121
g2
Ntp3725
Rp3726
(dp3727
g25
I00
sg31
I01
sg32
I00
sg42
g36
sbsg59
V/cvmfs/cms.cern.ch/el8_amd64_gcc12/cms/cmssw/CMSSW_15_0_0_pre1/src/CalibPPS/ESProducers/python/ctppsBeamParametersFromLHCInfoESSource_cfi.py
p3728
sg61
I2
sg62
g3651
sbsVctppsInterpolatedOpticalFunctionsESSource
p3729
g0
(g2912
g2
Ntp3730
Rp3731
(dp3732
g15
VCTPPSInterpolatedOpticalFunctionsESSource
p3733
sg17
(lp3734
g3657
ag3659
ag3658
aVopticsLabel
p3735
ag3660
ag2008
asg25
I00
sg26
Nsg3657
g0
(g121
g2
Ntp3736
Rp3737
(dp3738
g25
I00
sg31
I01
sg32
I00
sg42
g36
sbsg32
I01
sg3659
g0
(g121
g2
Ntp3739
Rp3740
(dp3741
g25
I00
sg31
I01
sg32
I00
sg42
g36
sbsg3658
g0
(g121
g2
Ntp3742
Rp3743
(dp3744
g25
I00
sg31
I01
sg32
I00
sg42
g36
sbsg3735
g0
(g121
g2
Ntp3745
Rp3746
(dp3747
g25
I00
sg31
I01
sg32
I00
sg42
g36
sbsg3660
g0
(g73
g2
Ntp3748
Rp3749
(dp3750
g25
I00
sg31
I01
sg32
I00
sg42
I00
sbsg2008
g0
(g121
g2
Ntp3751
Rp3752
(dp3753
g25
I00
sg31
I01
sg32
I00
sg42
g36
sbsg59
V/cvmfs/cms.cern.ch/el8_amd64_gcc12/cms/cmssw/CMSSW_15_0_0_pre1/src/CalibPPS/ESProducers/python/ctppsInterpolatedOpticalFunctionsESSource_cfi.py
p3754
sg61
I2
sg62
g3729
sbsVhcal_db_producer
p3755
g0
(g2912
g2
Ntp3756
Rp3757
(dp3758
g15
VHcalDbProducer
p3759
sg17
(lp3760
Vdump
p3761
aVfile
p3762
asg25
I00
sg26
Nsg3761
g0
(g105
g47
(lp3763
g36
atp3764
Rp3765
(dp3766
g25
I00
sg31
I00
sg32
I00
sg452
I1
sbsg32
I00
sg3762
g0
(g121
g2
Ntp3767
Rp3768
(dp3769
g25
I00
sg31
I00
sg32
I00
sg42
g36
sbsg59
g715
sg61
I54
sg62
g3755
sbsVmultipleScatteringParametrisationMakerESProducer
p3770
g0
(g2912
g2
Ntp3771
Rp3772
(dp3773
g15
VMultipleScatteringParametrisationMakerESProducer
p3774
sg17
(lp3775
g2008
asg25
I00
sg26
Nsg2008
g0
(g121
g2
Ntp3776
Rp3777
(dp3778
g25
I00
sg31
I01
sg32
I00
sg42
g36
sbsg32
I00
sg59
g715
sg61
I54
sg62
g3770
sbsVsiPixelQualityESProducer
p3779
g0
(g2912
g2
Ntp3780
Rp3781
(dp3782
g15
VSiPixelQualityESProducer
p3783
sg17
(lp3784
VsiPixelQualityFromDbLabel
p3785
aVListOfRecordToMerge
p3786
ag2008
asg25
I00
sg26
Nsg3785
g0
(g121
g2
Ntp3787
Rp3788
(dp3789
g25
I00
sg31
I01
sg32
I00
sg42
g36
sbsg32
I00
sg3786
g0
(g746
g47
(lp3790
g0
(g632
g2
Ntp3791
Rp3792
(dp3793
g25
I00
sg31
I01
sg32
I00
sg17
(lp3794
g1960
ag1961
asg26
Nsg1960
g0
(g121
g2
Ntp3795
Rp3796
(dp3797
g25
I00
sg31
I01
sg32
I00
sg42
VSiPixelQualityFromDbRcd
p3798
sbsg1961
g0
(g121
g2
Ntp3799
Rp3800
(dp3801
g25
I00
sg31
I01
sg32
I00
sg42
g36
sbsbag0
(g632
g2
Ntp3802
Rp3803
(dp3804
g25
I00
sg31
I01
sg32
I00
sg17
(lp3805
g1960
ag1961
asg26
Nsg1960
g0
(g121
g2
Ntp3806
Rp3807
(dp3808
g25
I00
sg31
I01
sg32
I00
sg42
VSiPixelDetVOffRcd
p3809
sbsg1961
g0
(g121
g2
Ntp3810
Rp3811
(dp3812
g25
I00
sg31
I01
sg32
I00
sg42
g36
sbsbatp3813
Rp3814
(dp3815
g25
I00
sg31
I01
sg32
I00
sg452
I1
sbsg2008
g0
(g121
g2
Ntp3816
Rp3817
(dp3818
g25
I00
sg31
I01
sg32
I00
sg42
g36
sbsg59
g715
sg61
I54
sg62
g3779
sbsVsiStripBackPlaneCorrectionDepESProducer
p3819
g0
(g2912
g2
Ntp3820
Rp3821
(dp3822
g15
VSiStripBackPlaneCorrectionDepESProducer
p3823
sg17
(lp3824
VLatencyRecord
p3825
aVBackPlaneCorrectionPeakMode
p3826
aVBackPlaneCorrectionDeconvMode
p3827
asg25
I00
sg26
Nsg3825
g0
(g632
g2
Ntp3828
Rp3829
(dp3830
g25
I00
sg31
I01
sg32
I00
sg17
(lp3831
g1960
ag1962
asg26
Nsg1960
g0
(g121
g2
Ntp3832
Rp3833
(dp3834
g25
I00
sg31
I01
sg32
I00
sg42
VSiStripLatencyRcd
p3835
sbsg1962
g0
(g121
g2
Ntp3836
Rp3837
(dp3838
g25
I00
sg31
I00
sg32
I00
sg42
g36
sbsbsg32
I00
sg3826
g0
(g632
g2
Ntp3839
Rp3840
(dp3841
g25
I00
sg31
I01
sg32
I00
sg17
(lp3842
g1960
ag1962
asg26
Nsg1960
g0
(g121
g2
Ntp3843
Rp3844
(dp3845
g25
I00
sg31
I01
sg32
I00
sg42
VSiStripBackPlaneCorrectionRcd
p3846
sbsg1962
g0
(g121
g2
Ntp3847
Rp3848
(dp3849
g25
I00
sg31
I00
sg32
I00
sg42
Vpeak
p3850
sbsbsg3827
g0
(g632
g2
Ntp3851
Rp3852
(dp3853
g25
I00
sg31
I01
sg32
I00
sg17
(lp3854
g1960
ag1962
asg26
Nsg1960
g0
(g121
g2
Ntp3855
Rp3856
(dp3857
g25
I00
sg31
I01
sg32
I00
sg42
g3846
sbsg1962
g0
(g121
g2
Ntp3858
Rp3859
(dp3860
g25
I00
sg31
I00
sg32
I00
sg42
Vdeconvolution
p3861
sbsbsg59
g715
sg61
I54
sg62
g3819
sbsVsiStripGainESProducer
p3862
g0
(g2912
g2
Ntp3863
Rp3864
(dp3865
g15
VSiStripGainESProducer
p3866
sg17
(lp3867
g2008
aVprintDebug
p3868
aVAutomaticNormalization
p3869
aVAPVGain
p3870
asg25
I00
sg26
Nsg2008
g0
(g121
g2
Ntp3871
Rp3872
(dp3873
g25
I00
sg31
I01
sg32
I00
sg42
g36
sbsg32
I00
sg3868
g0
(g73
g2
Ntp3874
Rp3875
(dp3876
g25
I00
sg31
I00
sg32
I00
sg42
I00
sbsg3869
g0
(g73
g2
Ntp3877
Rp3878
(dp3879
g25
I00
sg31
I01
sg32
I00
sg42
I00
sbsg3870
g0
(g746
g47
(lp3880
g0
(g632
g2
Ntp3881
Rp3882
(dp3883
g25
I00
sg31
I01
sg32
I00
sg17
(lp3884
VRecord
p3885
aVLabel
p3886
aVNormalizationFactor
p3887
asg26
Nsg3885
g0
(g121
g2
Ntp3888
Rp3889
(dp3890
g25
I00
sg31
I01
sg32
I00
sg42
VSiStripApvGainRcd
p3891
sbsg3886
g0
(g121
g2
Ntp3892
Rp3893
(dp3894
g25
I00
sg31
I00
sg32
I00
sg42
g36
sbsg3887
g0
(g38
g2
Ntp3895
Rp3896
(dp3897
g25
I00
sg31
I00
sg32
I00
sg42
F1.0
sbsbag0
(g632
g2
Ntp3898
Rp3899
(dp3900
g25
I00
sg31
I01
sg32
I00
sg17
(lp3901
g3885
ag3886
ag3887
asg26
Nsg3885
g0
(g121
g2
Ntp3902
Rp3903
(dp3904
g25
I00
sg31
I01
sg32
I00
sg42
VSiStripApvGain2Rcd
p3905
sbsg3886
g0
(g121
g2
Ntp3906
Rp3907
(dp3908
g25
I00
sg31
I00
sg32
I00
sg42
g36
sbsg3887
g0
(g38
g2
Ntp3909
Rp3910
(dp3911
g25
I00
sg31
I00
sg32
I00
sg42
F1.0
sbsbatp3912
Rp3913
(dp3914
g25
I00
sg31
I01
sg32
I00
sg452
I1
sbsg59
g715
sg61
I54
sg62
g3862
sbsVsiStripLorentzAngleDepESProducer
p3915
g0
(g2912
g2
Ntp3916
Rp3917
(dp3918
g15
VSiStripLorentzAngleDepESProducer
p3919
sg17
(lp3920
g3825
aVLorentzAnglePeakMode
p3921
aVLorentzAngleDeconvMode
p3922
asg25
I00
sg26
Nsg3825
g0
(g632
g2
Ntp3923
Rp3924
(dp3925
g25
I00
sg31
I01
sg32
I00
sg17
(lp3926
g1960
ag1962
asg26
Nsg1960
g0
(g121
g2
Ntp3927
Rp3928
(dp3929
g25
I00
sg31
I01
sg32
I00
sg42
g3835
sbsg1962
g0
(g121
g2
Ntp3930
Rp3931
(dp3932
g25
I00
sg31
I00
sg32
I00
sg42
g36
sbsbsg32
I00
sg3921
g0
(g632
g2
Ntp3933
Rp3934
(dp3935
g25
I00
sg31
I01
sg32
I00
sg17
(lp3936
g1960
ag1962
asg26
Nsg1960
g0
(g121
g2
Ntp3937
Rp3938
(dp3939
g25
I00
sg31
I01
sg32
I00
sg42
VSiStripLorentzAngleRcd
p3940
sbsg1962
g0
(g121
g2
Ntp3941
Rp3942
(dp3943
g25
I00
sg31
I00
sg32
I00
sg42
g3850
sbsbsg3922
g0
(g632
g2
Ntp3944
Rp3945
(dp3946
g25
I00
sg31
I01
sg32
I00
sg17
(lp3947
g1960
ag1962
asg26
Nsg1960
g0
(g121
g2
Ntp3948
Rp3949
(dp3950
g25
I00
sg31
I01
sg32
I00
sg42
g3940
sbsg1962
g0
(g121
g2
Ntp3951
Rp3952
(dp3953
g25
I00
sg31
I00
sg32
I00
sg42
g3861
sbsbsg59
g715
sg61
I54
sg62
g3915
sbsVsiStripQualityESProducer
p3954
g0
(g2912
g2
Ntp3955
Rp3956
(dp3957
g15
VSiStripQualityESProducer
p3958
sg17
(lp3959
g2008
ag3786
aVReduceGranularity
p3960
aVThresholdForReducedGranularity
p3961
aVPrintDebugOutput
p3962
aVUseEmptyRunInfo
p3963
asg25
I00
sg26
Nsg2008
g0
(g121
g2
Ntp3964
Rp3965
(dp3966
g25
I00
sg31
I01
sg32
I00
sg42
g36
sbsg32
I01
sg3786
g0
(g746
g47
(lp3967
g0
(g632
g2
Ntp3968
Rp3969
(dp3970
g25
I00
sg31
I01
sg32
I00
sg17
(lp3971
g1960
ag1961
asg26
Nsg1960
g0
(g121
g2
Ntp3972
Rp3973
(dp3974
g25
I00
sg31
I01
sg32
I00
sg42
VSiStripDetVOffRcd
p3975
sbsg1961
g0
(g121
g2
Ntp3976
Rp3977
(dp3978
g25
I00
sg31
I01
sg32
I00
sg42
g36
sbsbag0
(g632
g2
Ntp3979
Rp3980
(dp3981
g25
I00
sg31
I01
sg32
I00
sg17
(lp3982
g1960
ag1961
asg26
Nsg1960
g0
(g121
g2
Ntp3983
Rp3984
(dp3985
g25
I00
sg31
I01
sg32
I00
sg42
VSiStripDetCablingRcd
p3986
sbsg1961
g0
(g121
g2
Ntp3987
Rp3988
(dp3989
g25
I00
sg31
I01
sg32
I00
sg42
g36
sbsbag0
(g632
g2
Ntp3990
Rp3991
(dp3992
g25
I00
sg31
I01
sg32
I00
sg17
(lp3993
g1960
ag1961
asg26
Nsg1960
g0
(g121
g2
Ntp3994
Rp3995
(dp3996
g25
I00
sg31
I01
sg32
I00
sg42
VRunInfoRcd
p3997
sbsg1961
g0
(g121
g2
Ntp3998
Rp3999
(dp4000
g25
I00
sg31
I01
sg32
I00
sg42
g36
sbsbag0
(g632
g2
Ntp4001
Rp4002
(dp4003
g25
I00
sg31
I01
sg32
I00
sg17
(lp4004
g1960
ag1961
asg26
Nsg1960
g0
(g121
g2
Ntp4005
Rp4006
(dp4007
g25
I00
sg31
I01
sg32
I00
sg42
VSiStripBadChannelRcd
p4008
sbsg1961
g0
(g121
g2
Ntp4009
Rp4010
(dp4011
g25
I00
sg31
I01
sg32
I00
sg42
g36
sbsbag0
(g632
g2
Ntp4012
Rp4013
(dp4014
g25
I00
sg31
I01
sg32
I00
sg17
(lp4015
g1960
ag1961
asg26
Nsg1960
g0
(g121
g2
Ntp4016
Rp4017
(dp4018
g25
I00
sg31
I01
sg32
I00
sg42
VSiStripBadFiberRcd
p4019
sbsg1961
g0
(g121
g2
Ntp4020
Rp4021
(dp4022
g25
I00
sg31
I01
sg32
I00
sg42
g36
sbsbag0
(g632
g2
Ntp4023
Rp4024
(dp4025
g25
I00
sg31
I01
sg32
I00
sg17
(lp4026
g1960
ag1961
asg26
Nsg1960
g0
(g121
g2
Ntp4027
Rp4028
(dp4029
g25
I00
sg31
I01
sg32
I00
sg42
VSiStripBadModuleRcd
p4030
sbsg1961
g0
(g121
g2
Ntp4031
Rp4032
(dp4033
g25
I00
sg31
I01
sg32
I00
sg42
g36
sbsbag0
(g632
g2
Ntp4034
Rp4035
(dp4036
g25
I00
sg31
I01
sg32
I00
sg17
(lp4037
g1960
ag1961
asg26
Nsg1960
g0
(g121
g2
Ntp4038
Rp4039
(dp4040
g25
I00
sg31
I01
sg32
I00
sg42
VSiStripBadStripRcd
p4041
sbsg1961
g0
(g121
g2
Ntp4042
Rp4043
(dp4044
g25
I00
sg31
I01
sg32
I00
sg42
g36
sbsbatp4045
Rp4046
(dp4047
g25
I00
sg31
I01
sg32
I00
sg452
I1
sbsg3960
g0
(g73
g2
Ntp4048
Rp4049
(dp4050
g25
I00
sg31
I01
sg32
I00
sg42
I00
sbsg3961
g0
(g38
g2
Ntp4051
Rp4052
(dp4053
g25
I00
sg31
I01
sg32
I00
sg42
F0.3
sbsg3962
g0
(g73
g2
Ntp4054
Rp4055
(dp4056
g25
I00
sg31
I01
sg32
I00
sg42
I00
sbsg3963
g0
(g73
g2
Ntp4057
Rp4058
(dp4059
g25
I00
sg31
I01
sg32
I00
sg42
I00
sbsg59
g715
sg61
I54
sg62
g3954
sbsVsistripconn
p4060
g0
(g2912
g2
Ntp4061
Rp4062
(dp4063
g15
VSiStripConnectivity
p4064
sg17
(lp4065
sg25
I00
sg26
Nsg32
I00
sg59
g715
sg61
I54
sg62
g4060
sbsVstripCPEESProducer
p4066
g0
(g2912
g2
Ntp4067
Rp4068
(dp4069
g15
g3583
sg17
(lp4070
g3566
ag3585
ag3586
asg25
I00
sg26
Nsg3566
g0
(g121
g2
Ntp4071
Rp4072
(dp4073
g25
I00
sg31
I01
sg32
I00
sg42
VstripCPE
p4074
sbsg32
I00
sg3585
g0
(g121
g2
Ntp4075
Rp4076
(dp4077
g25
I00
sg31
I01
sg32
I00
sg42
VSimpleStripCPE
p4078
sbsg3586
g0
(g632
g2
Ntp4079
Rp4080
(dp4081
g25
I00
sg31
I01
sg32
I00
sg17
(lp4082
sg26
Nsbsg59
g715
sg61
I54
sg62
g4066
sbssV_Process__esprefers
p4083
(dp4084
Ves_prefer_hcalHardcode
p4085
g0
(cFWCore.ParameterSet.Modules
ESPrefer
p4086
g2
Ntp4087
Rp4088
(dp4089
g15
g2177
sg17
(lp4090
sg25
I00
sg26
Nsg32
I00
sg59
g715
sg61
I90
sV_targetLabel
p4091
g2173
sg62
g4085
sbssV_Process__aliases
p4092
(dp4093
sV_Process__psets
p4094
(dp4095
VmaxLuminosityBlocks
p4096
g0
(g632
g2
Ntp4097
Rp4098
(dp4099
g25
I00
sg31
I00
sg32
I00
sg17
(lp4100
Vinput
p4101
asg26
Nsg4101
g0
(g52
g2
Ntp4102
Rp4103
(dp4104
g25
I00
sg31
I00
sg32
I00
sg42
I-1
sbsg62
g4096
sbsVnanoDQMIO_perLSoutput
p4105
g0
(g632
g2
Ntp4106
Rp4107
(dp4108
g25
I00
sg31
I01
sg32
I00
sg17
(lp4109
g1260
asg26
Nsg1260
g0
(g105
g47
(lp4110
g1272
ag1273
ag1274
ag1275
ag1276
ag1277
ag1278
ag1279
ag1280
ag1281
ag1282
ag1283
ag1284
ag1285
ag1286
ag1287
ag1288
ag1289
ag1290
ag1291
ag1292
ag1293
ag1294
ag1295
ag1296
ag1297
ag1298
ag1299
ag1300
ag1301
ag1302
ag1303
ag1304
ag1305
ag1306
ag1307
ag1308
ag1309
ag1310
ag1311
ag1312
ag1313
ag1314
ag1315
ag1316
ag1317
ag1318
ag1319
ag1320
ag1321
ag1322
ag1323
ag1324
ag1325
ag1326
ag1327
ag1328
ag1329
ag1330
ag1331
ag1332
ag1333
ag1334
ag1335
ag1336
ag1337
ag1338
ag1339
ag1340
ag1341
ag1342
ag1343
ag1344
ag1345
ag1346
ag1347
ag1348
ag1349
ag1350
ag1351
ag1352
ag1353
ag1354
ag1355
ag1356
ag1357
ag1358
ag1359
ag1360
ag1361
ag1362
ag1363
ag1364
ag1365
ag1366
ag1367
ag1368
ag1369
ag1370
ag1371
ag1372
ag1373
ag1374
ag1375
ag1376
ag1377
ag1378
ag1379
ag1380
ag1381
ag1382
ag1383
ag1384
ag1385
ag1386
ag1387
ag1388
ag1389
ag1390
ag1391
ag1392
ag1393
ag1394
ag1395
ag1396
ag1397
ag1398
ag1399
ag1400
ag1401
ag1402
ag1403
ag1404
ag1405
ag1406
ag1407
ag1408
ag1409
ag1410
ag1411
ag1412
ag1413
ag1414
ag1415
ag1416
ag1417
ag1418
ag1419
ag1420
ag1421
ag1422
ag1423
ag1424
ag1425
ag1426
ag1427
ag1428
ag1429
ag1430
ag1431
ag1432
ag1433
ag1434
ag1435
ag1436
ag1437
ag1438
ag1439
ag1440
ag1441
ag1442
ag1443
ag1444
ag1445
ag1446
ag1447
ag1448
ag1449
ag1450
ag1451
ag1452
ag1453
ag1454
ag1455
ag1456
ag1457
ag1458
ag1459
ag1460
ag1461
ag1462
ag1463
ag1464
ag1465
ag1466
ag1467
ag1468
ag1469
ag1470
ag1471
ag1472
ag1473
ag1474
ag1475
ag1476
ag1477
ag1478
ag1479
ag1480
ag1481
ag1482
ag1483
ag1484
ag1485
ag1486
ag1487
ag1488
ag1489
ag1490
ag1491
ag1492
ag1493
ag1494
ag1495
ag1496
ag1497
ag1498
ag1499
ag1500
ag1501
ag1502
ag1503
ag1504
ag1505
ag1506
ag1507
ag1508
ag1509
ag1510
ag1511
ag1512
ag1513
ag1514
ag1515
ag1516
ag1517
ag1518
ag1519
ag1520
ag1521
ag1522
ag1523
ag1524
ag1525
ag1526
ag1527
ag1528
ag1529
ag1530
ag1531
ag1532
ag1533
ag1534
ag1535
ag1536
ag1537
ag1538
ag1539
ag1540
ag1541
ag1542
ag1543
ag1544
ag1545
ag1546
ag1547
ag1548
ag1549
ag1550
ag1551
ag1552
ag1553
ag1554
ag1555
ag1556
ag1557
ag1558
ag1559
ag1560
atp4111
Rp4112
(dp4113
g25
I00
sg31
I00
sg32
I00
sg452
I1
sbsg62
g4105
sbsVCondDB
p4114
g0
(g632
g2
Ntp4115
Rp4116
(dp4117
g25
I00
sg31
I01
sg32
I00
sg17
(lp4118
g1907
ag1908
asg26
Nsg1907
g0
(g632
g2
Ntp4119
Rp4120
(dp4121
g25
I00
sg31
I01
sg32
I00
sg17
(lp4122
g1923
ag1924
ag1925
ag1926
ag1927
asg26
Nsg1923
g0
(g121
g2
Ntp4123
Rp4124
(dp4125
g25
I00
sg31
I00
sg32
I00
sg42
g36
sbsg1924
g0
(g52
g2
Ntp4126
Rp4127
(dp4128
g25
I00
sg31
I00
sg32
I00
sg42
I0
sbsg1925
g0
(g121
g2
Ntp4129
Rp4130
(dp4131
g25
I00
sg31
I00
sg32
I00
sg42
g36
sbsg1926
g0
(g52
g2
Ntp4132
Rp4133
(dp4134
g25
I00
sg31
I00
sg32
I00
sg42
I0
sbsg1927
g0
(g52
g2
Ntp4135
Rp4136
(dp4137
g25
I00
sg31
I00
sg32
I00
sg42
I0
sbsbsg1908
g0
(g121
g2
Ntp4138
Rp4139
(dp4140
g25
I00
sg31
I01
sg32
I00
sg42
g36
sbsg62
g4114
sbsg2187
g2238
sVoptions
p4141
g0
(g632
g2
Ntp4142
Rp4143
(dp4144
g25
I00
sg31
I00
sg32
I01
sg17
(lp4145
VnumberOfThreads
p4146
aVnumberOfStreams
p4147
aVnumberOfConcurrentRuns
p4148
aVnumberOfConcurrentLuminosityBlocks
p4149
aVeventSetup
p4150
aVaccelerators
p4151
aVwantSummary
p4152
aVfileMode
p4153
aVforceEventSetupCacheClearOnNewRun
p4154
aVthrowIfIllegalParameter
p4155
aVprintDependencies
p4156
aVdeleteNonConsumedUnscheduledModules
p4157
aVsizeOfStackForThreadsInKB
p4158
aVRethrow
p4159
aVTryToContinue
p4160
aVIgnoreCompletely
p4161
aVmodulesToCallForTryToContinue
p4162
aVcanDeleteEarly
p4163
aVholdsReferencesToDeleteEarly
p4164
aVmodulesToIgnoreForDeleteEarly
p4165
aVdumpOptions
p4166
aVallowUnscheduled
p4167
aVemptyRunLumiMode
p4168
aVmakeTriggerResults
p4169
asg26
Nsg4146
g0
(g585
g2
Ntp4170
Rp4171
(dp4172
g25
I00
sg31
I00
sg32
I00
sg42
I1
sbsg4147
g0
(g585
g2
Ntp4173
Rp4174
(dp4175
g25
I00
sg31
I00
sg32
I00
sg42
I0
sbsg4148
g0
(g585
g2
Ntp4176
Rp4177
(dp4178
g25
I00
sg31
I00
sg32
I00
sg42
I1
sbsg4149
g0
(g585
g2
Ntp4179
Rp4180
(dp4181
g25
I00
sg31
I00
sg32
I00
sg42
I0
sbsg4150
g0
(g632
g2
Ntp4182
Rp4183
(dp4184
g25
I00
sg31
I00
sg32
I00
sg17
(lp4185
VnumberOfConcurrentIOVs
p4186
aVforceNumberOfConcurrentIOVs
p4187
asg26
Nsg4186
g0
(g585
g2
Ntp4188
Rp4189
(dp4190
g25
I00
sg31
I00
sg32
I00
sg42
I0
sbsg4187
g0
(g632
g2
Ntp4191
Rp4192
(dp4193
g25
I00
sg31
I00
sg32
I00
sg17
(lp4194
sg26
g0
(cFWCore.ParameterSet.Types
_RequiredParameter
p4195
g2
Ntp4196
Rp4197
(dp4198
g25
I00
sg31
I00
sg32
I00
sg104
g585
sg106
Nsbsbsbsg4151
g0
(g105
g47
(lp4199
V*
p4200
atp4201
Rp4202
(dp4203
g25
I00
sg31
I00
sg32
I00
sg452
I1
sbsg4152
g0
(g73
g2
Ntp4204
Rp4205
(dp4206
g25
I00
sg31
I00
sg32
I00
sg42
I01
sbsg4153
g0
(g121
g2
Ntp4207
Rp4208
(dp4209
g25
I00
sg31
I00
sg32
I00
sg42
VFULLMERGE
p4210
sbsg4154
g0
(g73
g2
Ntp4211
Rp4212
(dp4213
g25
I00
sg31
I00
sg32
I00
sg42
I00
sbsg4155
g0
(g73
g2
Ntp4214
Rp4215
(dp4216
g25
I00
sg31
I00
sg32
I00
sg42
I01
sbsg4156
g0
(g73
g2
Ntp4217
Rp4218
(dp4219
g25
I00
sg31
I00
sg32
I00
sg42
I00
sbsg4157
g0
(g73
g2
Ntp4220
Rp4221
(dp4222
g25
I00
sg31
I00
sg32
I00
sg42
I01
sbsg4158
g0
(g100
g2
Ntp4223
Rp4224
(dp4225
g25
I00
sg31
I00
sg32
I00
sg104
g585
sg106
Nsbsg4159
g0
(g105
g47
(lp4226
tp4227
Rp4228
(dp4229
g25
I00
sg31
I00
sg32
I00
sg452
I1
sbsg4160
g0
(g105
g47
(lp4230
VProductNotFound
p4231
atp4232
Rp4233
(dp4234
g25
I00
sg31
I00
sg32
I00
sg452
I1
sbsg4161
g0
(g105
g47
(lp4235
tp4236
Rp4237
(dp4238
g25
I00
sg31
I00
sg32
I00
sg452
I1
sbsg4162
g0
(g105
g47
(lp4239
tp4240
Rp4241
(dp4242
g25
I00
sg31
I00
sg32
I00
sg452
I1
sbsg4163
g0
(g105
g47
(lp4243
tp4244
Rp4245
(dp4246
g25
I00
sg31
I00
sg32
I00
sg452
I1
sbsg4164
g0
(g746
g47
(lp4247
tp4248
Rp4249
(dp4250
g25
I00
sg31
I00
sg32
I00
sg452
I1
sbsg4165
g0
(g105
g47
(lp4251
tp4252
Rp4253
(dp4254
g25
I00
sg31
I00
sg32
I00
sg452
I1
sbsg4166
g0
(g73
g2
Ntp4255
Rp4256
(dp4257
g25
I00
sg31
I00
sg32
I00
sg42
I00
sbsg4167
g0
(cFWCore.ParameterSet.Types
_ObsoleteParameter
p4258
g2
Ntp4259
Rp4260
(dp4261
g25
I00
sg31
I00
sg32
I00
sg104
g73
sg106
Nsbsg4168
g0
(g4258
g2
Ntp4262
Rp4263
(dp4264
g25
I00
sg31
I00
sg32
I00
sg104
g121
sg106
Nsbsg4169
g0
(g4258
g2
Ntp4265
Rp4266
(dp4267
g25
I00
sg31
I00
sg32
I00
sg104
g73
sg106
Nsbsg62
g4141
sbsVmaxEvents
p4268
g0
(g632
g2
Ntp4269
Rp4270
(dp4271
g25
I00
sg31
I00
sg32
I01
sg17
(lp4272
g4101
ag1221
asg26
Nsg4101
g0
(g100
g2
Ntp4273
Rp4274
(dp4275
g25
I00
sg31
I00
sg32
I00
sg104
g52
sg106
g0
(g52
g2
Ntp4276
Rp4277
(dp4278
g25
I00
sg31
I00
sg32
I00
sg42
I-1
sbsbsg1221
g0
(g100
g2
Ntp4279
Rp4280
(dp4281
g25
I00
sg31
I00
sg32
I00
sg104
g0
(cFWCore.ParameterSet.Types
_AllowedParameterTypes
p4282
g2
Ntp4283
Rp4284
(dp4285
V_AllowedParameterTypes__types
p4286
(g52
g632
tp4287
sV_default
p4288
NsV__name__
p4289
Vallowed(cms.int32,cms.PSet)
p4290
sbsg106
Nsbsg62
g4268
sbssV_Process__vpsets
p4291
(dp4292
sV_cloneToObjectDict
p4293
(dp4294
L140561695416768L
g0
(g632
g2
Ntp4295
Rp4296
(dp4297
g25
I00
sg31
I00
sg32
I00
sg17
(lp4298
g4146
ag4147
ag4148
ag4149
ag4150
ag4151
ag4152
ag4153
ag4154
ag4155
ag4156
ag4157
ag4158
ag4159
ag4160
ag4161
ag4162
ag4163
ag4164
ag4165
ag4166
ag4167
ag4168
ag4169
asg26
Nsg4146
g0
(g585
g2
Ntp4299
Rp4300
(dp4301
g25
I00
sg31
I00
sg32
I00
sg42
I1
sbsg4147
g0
(g585
g2
Ntp4302
Rp4303
(dp4304
g25
I00
sg31
I00
sg32
I00
sg42
I0
sbsg4148
g0
(g585
g2
Ntp4305
Rp4306
(dp4307
g25
I00
sg31
I00
sg32
I00
sg42
I1
sbsg4149
g0
(g585
g2
Ntp4308
Rp4309
(dp4310
g25
I00
sg31
I00
sg32
I00
sg42
I0
sbsg4150
g0
(g632
g2
Ntp4311
Rp4312
(dp4313
g25
I00
sg31
I00
sg32
I00
sg17
(lp4314
g4186
ag4187
asg26
Nsg4186
g0
(g585
g2
Ntp4315
Rp4316
(dp4317
g25
I00
sg31
I00
sg32
I00
sg42
I0
sbsg4187
g0
(g632
g2
Ntp4318
Rp4319
(dp4320
g25
I00
sg31
I00
sg32
I00
sg17
(lp4321
sg26
g0
(g4195
g2
Ntp4322
Rp4323
(dp4324
g25
I00
sg31
I00
sg32
I00
sg104
g585
sg106
Nsbsbsbsg4151
g0
(g105
g47
(lp4325
g4200
atp4326
Rp4327
(dp4328
g25
I00
sg31
I00
sg32
I00
sg452
I1
sbsg4152
g0
(g73
g2
Ntp4329
Rp4330
(dp4331
g25
I00
sg31
I00
sg32
I00
sg42
I00
sbsg4153
g0
(g121
g2
Ntp4332
Rp4333
(dp4334
g25
I00
sg31
I00
sg32
I00
sg42
g4210
sbsg4154
g0
(g73
g2
Ntp4335
Rp4336
(dp4337
g25
I00
sg31
I00
sg32
I00
sg42
I00
sbsg4155
g0
(g73
g2
Ntp4338
Rp4339
(dp4340
g25
I00
sg31
I00
sg32
I00
sg42
I01
sbsg4156
g0
(g73
g2
Ntp4341
Rp4342
(dp4343
g25
I00
sg31
I00
sg32
I00
sg42
I00
sbsg4157
g0
(g73
g2
Ntp4344
Rp4345
(dp4346
g25
I00
sg31
I00
sg32
I00
sg42
I01
sbsg4158
g0
(g100
g2
Ntp4347
Rp4348
(dp4349
g25
I00
sg31
I00
sg32
I00
sg104
g585
sg106
Nsbsg4159
g0
(g105
g47
(lp4350
tp4351
Rp4352
(dp4353
g25
I00
sg31
I00
sg32
I00
sg452
I1
sbsg4160
g0
(g105
g47
(lp4354
tp4355
Rp4356
(dp4357
g25
I00
sg31
I00
sg32
I00
sg452
I1
sbsg4161
g0
(g105
g47
(lp4358
tp4359
Rp4360
(dp4361
g25
I00
sg31
I00
sg32
I00
sg452
I1
sbsg4162
g0
(g105
g47
(lp4362
tp4363
Rp4364
(dp4365
g25
I00
sg31
I00
sg32
I00
sg452
I1
sbsg4163
g0
(g105
g47
(lp4366
tp4367
Rp4368
(dp4369
g25
I00
sg31
I00
sg32
I00
sg452
I1
sbsg4164
g0
(g746
g47
(lp4370
tp4371
Rp4372
(dp4373
g25
I00
sg31
I00
sg32
I00
sg452
I1
sbsg4165
g0
(g105
g47
(lp4374
tp4375
Rp4376
(dp4377
g25
I00
sg31
I00
sg32
I00
sg452
I1
sbsg4166
g0
(g73
g2
Ntp4378
Rp4379
(dp4380
g25
I00
sg31
I00
sg32
I00
sg42
I00
sbsg4167
g0
(g4258
g2
Ntp4381
Rp4382
(dp4383
g25
I00
sg31
I00
sg32
I00
sg104
g73
sg106
Nsbsg4168
g0
(g4258
g2
Ntp4384
Rp4385
(dp4386
g25
I00
sg31
I00
sg32
I00
sg104
g121
sg106
Nsbsg4169
g0
(g4258
g2
Ntp4387
Rp4388
(dp4389
g25
I00
sg31
I00
sg32
I00
sg104
g73
sg106
Nsbsg62
NsbsL140561678835232L
g0
(g632
g2
Ntp4390
Rp4391
(dp4392
g25
I00
sg31
I00
sg32
I00
sg17
(lp4393
g4101
ag1221
asg26
Nsg4101
g0
(g100
g2
Ntp4394
Rp4395
(dp4396
g25
I00
sg31
I00
sg32
I00
sg104
g52
sg106
Nsbsg1221
g0
(g100
g2
Ntp4397
Rp4398
(dp4399
g25
I00
sg31
I00
sg32
I00
sg104
g0
(g4282
g2
Ntp4400
Rp4401
(dp4402
g4286
(g52
g632
tp4403
sg4288
Nsg4289
Vallowed(cms.int32,cms.PSet)
p4404
sbsg106
Nsbsg62
NsbsL140561678835328L
g4098
sL140561678889360L
g2914
sL140561678288592L
g2958
sL140561716827808L
g2975
sL140561680714048L
g2980
sL140561681183840L
g2988
sL140561691358688L
g2996
sL140561716829296L
g3004
sL140561680712560L
g3041
sL140561678288352L
g3049
sL140561680715632L
g3054
sL140561680713280L
g3062
sL140561716818032L
g3070
sL140561716827424L
g3080
sL140561680714000L
g3085
sL140561678288208L
g3090
sL140561716829488L
g3098
sL140561678889120L
g3103
sL140561716827760L
g3114
sL140561716511792L
g3123
sL140561691358016L
g3132
sL140561691358640L
g1869
sL140561678443808L
g3140
sL140561678298320L
g3151
sL140561678298992L
g3160
sL140561680714432L
g3169
sL140561678296160L
g3186
sL140561678298944L
g3223
sL140561678295776L
g3253
sL140561678289168L
g3272
sL140561716830064L
g3284
sL140561716828528L
g3301
sL140561716828864L
g3316
sL140561691358256L
g3325
sL140561680067408L
g3334
sL140561680067456L
g3339
sL140561678100800L
g3354
sL140561680830576L
g3366
sL140561680066736L
g3383
sL140561680067360L
g3399
sL140561678099408L
g3414
sL140561678101952L
g3423
sL140561678099792L
g3435
sL140561678895232L
g1891
sL140561694102624L
g4107
sL140561678325600L
g474
sL140561681277472L
g3503
sL140561678662912L
g3522
sL140561676174864L
g3538
sL140561679550304L
g4116
sL140561678656896L
g3546
sL140561678659248L
g3555
sL140561716985280L
g1903
sL140561693195472L
g2238
sL140561693193984L
g2005
sL140561675734080L
g3563
sL140561675733216L
g3581
sL140561675786416L
g3653
sL140561675787184L
g3731
sL140561676174576L
g2175
sL140561676174816L
g4088
sL140561678657952L
g3757
sL140561675784736L
g3772
sL140561675756400L
g3781
sL140561675758608L
g0
(g2912
g2
Ntp4405
Rp4406
(dp4407
g15
g3783
sg17
(lp4408
g3785
ag3786
ag2008
asg25
I00
sg26
Nsg3785
g0
(g121
g2
Ntp4409
Rp4410
(dp4411
g25
I00
sg31
I01
sg32
I01
sg42
VforRawToDigi
p4412
sbsg32
I00
sg3786
g0
(g746
g47
(lp4413
g0
(g632
g2
Ntp4414
Rp4415
(dp4416
g25
I00
sg31
I01
sg32
I00
sg17
(lp4417
g1960
ag1961
asg26
Nsg1960
g0
(g121
g2
Ntp4418
Rp4419
(dp4420
g25
I00
sg31
I01
sg32
I00
sg42
g3798
sbsg1961
g0
(g121
g2
Ntp4421
Rp4422
(dp4423
g25
I00
sg31
I01
sg32
I00
sg42
g36
sbsbag0
(g632
g2
Ntp4424
Rp4425
(dp4426
g25
I00
sg31
I01
sg32
I00
sg17
(lp4427
g1960
ag1961
asg26
Nsg1960
g0
(g121
g2
Ntp4428
Rp4429
(dp4430
g25
I00
sg31
I01
sg32
I00
sg42
g3809
sbsg1961
g0
(g121
g2
Ntp4431
Rp4432
(dp4433
g25
I00
sg31
I01
sg32
I00
sg42
g36
sbsbatp4434
Rp4435
(dp4436
g25
I00
sg31
I01
sg32
I00
sg452
I1
sbsg2008
g0
(g121
g2
Ntp4437
Rp4438
(dp4439
g25
I00
sg31
I01
sg32
I01
sg42
g4412
sbsg59
V/cvmfs/cms.cern.ch/el8_amd64_gcc12/cms/cmssw/CMSSW_15_0_0_pre1/src/CalibTracker/SiPixelESProducers/python/siPixelQualityForRawToDigiESProducer_cfi.py
p4440
sg61
I5
sg62
NsbsL140561676123824L
g3821
sL140561676122144L
g3864
sL140561676122912L
g3917
sL140561675757024L
g3956
sL140561676120128L
g4062
sL140561675732160L
g4068
sL140561675827904L
g481
sL140561678834896L
g4143
sL140561675866320L
g4270
sL140561675869440L
g567
sL140561675865008L
g800
sL140561675285936L
g13
sL140561675285216L
g65
sL140561675865440L
g110
sL140561675514064L
g591
sL140561675515984L
g711
sL140561675208112L
g611
sL140561675208352L
g643
sL140561675515552L
g663
sL140561675679872L
g688
sL140561675695584L
g737
sL140561675516080L
g997
sL140561675288144L
g132
sL140561675285984L
g152
sL140561675331328L
g166
sL140561675333488L
g180
sL140561675288000L
g194
sL140561675286128L
g208
sL140561675331760L
g222
sL140561675333344L
g236
sL140561675288480L
g250
sL140561675286848L
g264
sL140561675332192L
g278
sL140561675333440L
g292
sL140561675339808L
g306
sL140561675288432L
g320
sL140561675287280L
g334
sL140561675332624L
g348
sL140561675333008L
g362
sL140561675288096L
g376
sL140561675287712L
g390
sL140561675333056L
g404
sL140561675339376L
g418
sL140561675870064L
g981
sL140561675340336L
g432
sL140561675380288L
g877
sL140561675379088L
g941
ssV_Process__InExtendCall
p4441
I00
sV_Process__partialschedules
p4442
(dp4443
sV_Process__isStrict
p4444
I00
sV_Process__modifiers
p4445
(tsV_Process__accelerators
p4446
(dp4447
sg4096
g4098
sg1009
g1012
sg2911
g2914
sg2956
g2958
sg2973
g2975
sg2978
g2980
sg2986
g2988
sg2994
g2996
sg3002
g3004
sg3039
g3041
sg3047
g3049
sg3052
g3054
sg3060
g3062
sg3068
g3070
sg3078
g3080
sg3083
g3085
sg3088
g3090
sg3096
g3098
sg3101
g3103
sg3112
g3114
sg3121
g3123
sg3130
g3132
sg1866
g1869
sg3138
g3140
sg3149
g3151
sg3158
g3160
sg3167
g3169
sg3184
g3186
sg3221
g3223
sg3251
g3253
sg3270
g3272
sg3282
g3284
sg3299
g3301
sg3314
g3316
sg3323
g3325
sg3332
g3334
sg3337
g3339
sg3352
g3354
sg3364
g3366
sg3381
g3383
sg3397
g3399
sg3412
g3414
sg3421
g3423
sg3433
g3435
sg1253
g1255
sg1889
g1891
sg1576
g1578
sg4105
g4107
sg471
g474
sg3501
g3503
sg3520
g3522
sg3536
g3538
sg4114
g4116
sg3544
g3546
sg3553
g3555
sg1901
g1903
sg2187
g2238
sg2003
g2005
sg3561
g3563
sg3579
g3581
sg3651
g3653
sg3729
g3731
sg2173
g2175
sg4085
g4088
sg3755
g3757
sg3770
g3772
sg3779
g3781
sg3819
g3821
sg3862
g3864
sg3915
g3917
sg3954
g3956
sg4060
g4062
sg4066
g4068
sg479
g481
sg4141
g4143
sg4268
g4270
sVsource
p4448
g772
sg774
g772
sg525
g567
sg797
g800
sg10
g13
sg63
g65
sg108
g110
sg80
g591
sg708
g711
sg609
g611
sg641
g643
sg661
g663
sg686
g688
sg735
g737
sg994
g997
sg130
g132
sg150
g152
sg164
g166
sg178
g180
sg192
g194
sg206
g208
sg220
g222
sg234
g236
sg248
g250
sg262
g264
sg276
g278
sg290
g292
sg304
g306
sg318
g320
sg332
g334
sg346
g348
sg360
g362
sg374
g376
sg388
g390
sg402
g404
sg416
g418
sg978
g981
sg1854
g1856
sg430
g432
sg875
g877
sg938
g941
sb.