ccopy_reg
_reconstructor
p0
(cFWCore.ParameterSet.Config
Process
p1
c__builtin__
object
p2
Ntp3
Rp4
(dp5
V_Process__name
p6
VRaghuEffTest
p7
sV_Process__filters
p8
(dp9
VclusterCompatibilityFilter
p10
g0
(cFWCore.ParameterSet.Modules
EDFilter
p11
g2
Ntp12
Rp13
(dp14
V_TypedParameterizable__type
p15
VHIClusterCompatibilityFilter
p16
sV_Parameterizable__parameterNames
p17
(lp18
VcluscomSrc
p19
aVminZ
p20
aVmaxZ
p21
aVclusterPars
p22
aVnhitsTrunc
p23
aVclusterTrunc
p24
asV_isFrozen
p25
I00
sV_Parameterizable__validator
p26
Nsg19
g0
(cFWCore.ParameterSet.Types
InputTag
p27
g2
Ntp28
Rp29
(dp30
g25
I00
sV_ParameterTypeBase__isTracked
p31
I01
sV_isModified
p32
I00
sV_InputTag__moduleLabel
p33
VhiClusterCompatibility
p34
sV_InputTag__productInstance
p35
V
p36
sV_InputTag__processName
p37
g36
sbsg32
I00
sg20
g0
(cFWCore.ParameterSet.Types
double
p38
g2
Ntp39
Rp40
(dp41
g25
I00
sg31
I01
sg32
I00
sV_value
p42
F-20.0
sbsg21
g0
(g38
g2
Ntp43
Rp44
(dp45
g25
I00
sg31
I01
sg32
I00
sg42
F20.05
sbsg22
g0
(cFWCore.ParameterSet.Types
vdouble
p46
c__builtin__
list
p47
(lp48
F0.0
aF0.0045
atp49
Rp50
(dp51
g25
I00
sg31
I01
sg32
I00
sbsg23
g0
(cFWCore.ParameterSet.Types
int32
p52
g2
Ntp53
Rp54
(dp55
g25
I00
sg31
I01
sg32
I00
sg42
I150
sbsg24
g0
(g38
g2
Ntp56
Rp57
(dp58
g25
I00
sg31
I01
sg32
I00
sg42
F2.0
sbsV_filename
p59
V/afs/cern.ch/work/r/rpradhan/Tracking_Studies/newCode_AfterRun3/ForEffTest/CMSSW_13_2_5_patch1/src/HeavyIonsAnalysis/EventAnalysis/python/clusterCompatibilityFilter_cfi.py
p60
sV_lineNumber
p61
I3
sV_Labelable__label
p62
g10
sbsVhltPixelClusterShapeFilter
p63
g0
(g11
g2
Ntp64
Rp65
(dp66
g15
VHLTPixelClusterShapeFilter
p67
sg17
(lp68
VsaveTags
p69
aVinputTag
p70
ag20
ag21
aVzStep
p71
ag22
ag23
ag24
aVmightGet
p72
asg25
I00
sg26
Nsg69
g0
(cFWCore.ParameterSet.Types
bool
p73
g2
Ntp74
Rp75
(dp76
g25
I00
sg31
I01
sg32
I00
sg42
I01
sbsg32
I01
sg70
g0
(g27
g2
Ntp77
Rp78
(dp79
g25
I00
sg31
I01
sg32
I01
sg33
VsiPixelRecHits
p80
sg35
g36
sg37
g36
sbsg20
g0
(g38
g2
Ntp81
Rp82
(dp83
g25
I00
sg31
I01
sg32
I00
sg42
I-20
sbsg21
g0
(g38
g2
Ntp84
Rp85
(dp86
g25
I00
sg31
I01
sg32
I00
sg42
F20.05
sbsg71
g0
(g38
g2
Ntp87
Rp88
(dp89
g25
I00
sg31
I01
sg32
I00
sg42
F0.2
sbsg22
g0
(g46
g47
(lp90
I0
aF0.0045
atp91
Rp92
(dp93
g25
I00
sg31
I01
sg32
I00
sbsg23
g0
(g52
g2
Ntp94
Rp95
(dp96
g25
I00
sg31
I01
sg32
I00
sg42
I150
sbsg24
g0
(g38
g2
Ntp97
Rp98
(dp99
g25
I00
sg31
I01
sg32
I00
sg42
I2
sbsg72
g0
(cFWCore.ParameterSet.Types
_OptionalParameter
p100
g2
Ntp101
Rp102
(dp103
g25
I00
sg31
I00
sg32
I00
sV_ProxyParameter__type
p104
cFWCore.ParameterSet.Types
vstring
p105
sV_ProxyParameter__value
p106
Nsbsg59
V/cvmfs/cms.cern.ch/el8_amd64_gcc11/cms/cmssw-patch/CMSSW_13_2_5_patch1/cfipython/el8_amd64_gcc11/HLTrigger/special/hltPixelClusterShapeFilter_cfi.py
p107
sg61
I3
sg62
g63
sbsVprimaryVertexFilter
p108
g0
(g11
g2
Ntp109
Rp110
(dp111
g15
VVertexSelector
p112
sg17
(lp113
Vsrc
p114
aVcut
p115
aVfilter
p116
asg25
I00
sg26
Nsg114
g0
(g27
g2
Ntp117
Rp118
(dp119
g25
I00
sg31
I01
sg32
I00
sg33
VofflineSlimmedPrimaryVertices
p120
sg35
g36
sg37
g36
sbsg32
I00
sg115
g0
(cFWCore.ParameterSet.Types
string
p121
g2
Ntp122
Rp123
(dp124
g25
I00
sg31
I01
sg32
I00
sg42
V!isFake && abs(z) <= 25 && position.Rho <= 2
p125
sbsg116
g0
(g73
g2
Ntp126
Rp127
(dp128
g25
I00
sg31
I01
sg32
I00
sg42
I01
sbsg59
V/afs/cern.ch/work/r/rpradhan/Tracking_Studies/newCode_AfterRun3/ForEffTest/CMSSW_13_2_5_patch1/src/HeavyIonsAnalysis/EventAnalysis/python/collisionEventSelection_cff.py
p129
sg61
I5
sg62
g108
sbsVphfCoincFilter1Th3
p130
g0
(g11
g2
Ntp131
Rp132
(dp133
g15
VHiHFFilter
p134
sg17
(lp135
VHFfilters
p136
aVthreshold
p137
aVminnumtowers
p138
asg25
I00
sg26
Nsg136
g0
(g27
g2
Ntp139
Rp140
(dp141
g25
I00
sg31
I01
sg32
I00
sg33
VhiHFfilters
p142
sg35
g142
sg37
g36
sbsg32
I00
sg137
g0
(g52
g2
Ntp143
Rp144
(dp145
g25
I00
sg31
I01
sg32
I01
sg42
I3
sbsg138
g0
(g52
g2
Ntp146
Rp147
(dp148
g25
I00
sg31
I01
sg32
I01
sg42
I1
sbsg59
V/afs/cern.ch/work/r/rpradhan/Tracking_Studies/newCode_AfterRun3/ForEffTest/CMSSW_13_2_5_patch1/src/HeavyIonsAnalysis/EventAnalysis/python/hffilter_cfi.py
p149
sg61
I14
sg62
g130
sbsVphfCoincFilter1Th4
p150
g0
(g11
g2
Ntp151
Rp152
(dp153
g15
g134
sg17
(lp154
g136
ag137
ag138
asg25
I00
sg26
Nsg136
g0
(g27
g2
Ntp155
Rp156
(dp157
g25
I00
sg31
I01
sg32
I00
sg33
g142
sg35
g142
sg37
g36
sbsg32
I00
sg137
g0
(g52
g2
Ntp158
Rp159
(dp160
g25
I00
sg31
I01
sg32
I00
sg42
I4
sbsg138
g0
(g52
g2
Ntp161
Rp162
(dp163
g25
I00
sg31
I01
sg32
I01
sg42
I1
sbsg59
g149
sg61
I9
sg62
g150
sbsVphfCoincFilter1Th5
p164
g0
(g11
g2
Ntp165
Rp166
(dp167
g15
g134
sg17
(lp168
g136
ag137
ag138
asg25
I00
sg26
Nsg136
g0
(g27
g2
Ntp169
Rp170
(dp171
g25
I00
sg31
I01
sg32
I00
sg33
g142
sg35
g142
sg37
g36
sbsg32
I00
sg137
g0
(g52
g2
Ntp172
Rp173
(dp174
g25
I00
sg31
I01
sg32
I01
sg42
I5
sbsg138
g0
(g52
g2
Ntp175
Rp176
(dp177
g25
I00
sg31
I01
sg32
I01
sg42
I1
sbsg59
g149
sg61
I20
sg62
g164
sbsVphfCoincFilter1Th6
p178
g0
(g11
g2
Ntp179
Rp180
(dp181
g15
g134
sg17
(lp182
g136
ag137
ag138
asg25
I00
sg26
Nsg136
g0
(g27
g2
Ntp183
Rp184
(dp185
g25
I00
sg31
I01
sg32
I00
sg33
g142
sg35
g142
sg37
g36
sbsg32
I00
sg137
g0
(g52
g2
Ntp186
Rp187
(dp188
g25
I00
sg31
I01
sg32
I01
sg42
I6
sbsg138
g0
(g52
g2
Ntp189
Rp190
(dp191
g25
I00
sg31
I01
sg32
I01
sg42
I1
sbsg59
g149
sg61
I26
sg62
g178
sbsVphfCoincFilter2Th3
p192
g0
(g11
g2
Ntp193
Rp194
(dp195
g15
g134
sg17
(lp196
g136
ag137
ag138
asg25
I00
sg26
Nsg136
g0
(g27
g2
Ntp197
Rp198
(dp199
g25
I00
sg31
I01
sg32
I00
sg33
g142
sg35
g142
sg37
g36
sbsg32
I00
sg137
g0
(g52
g2
Ntp200
Rp201
(dp202
g25
I00
sg31
I01
sg32
I01
sg42
I3
sbsg138
g0
(g52
g2
Ntp203
Rp204
(dp205
g25
I00
sg31
I01
sg32
I00
sg42
I2
sbsg59
g149
sg61
I15
sg62
g192
sbsVphfCoincFilter2Th4
p206
g0
(g11
g2
Ntp207
Rp208
(dp209
g15
g134
sg17
(lp210
g136
ag137
ag138
asg25
I00
sg26
Nsg136
g0
(g27
g2
Ntp211
Rp212
(dp213
g25
I00
sg31
I01
sg32
I00
sg33
g142
sg35
g142
sg37
g36
sbsg32
I00
sg137
g0
(g52
g2
Ntp214
Rp215
(dp216
g25
I00
sg31
I01
sg32
I00
sg42
I4
sbsg138
g0
(g52
g2
Ntp217
Rp218
(dp219
g25
I00
sg31
I01
sg32
I00
sg42
I2
sbsg59
g149
sg61
I3
sg62
g206
sbsVphfCoincFilter2Th5
p220
g0
(g11
g2
Ntp221
Rp222
(dp223
g15
g134
sg17
(lp224
g136
ag137
ag138
asg25
I00
sg26
Nsg136
g0
(g27
g2
Ntp225
Rp226
(dp227
g25
I00
sg31
I01
sg32
I00
sg33
g142
sg35
g142
sg37
g36
sbsg32
I00
sg137
g0
(g52
g2
Ntp228
Rp229
(dp230
g25
I00
sg31
I01
sg32
I01
sg42
I5
sbsg138
g0
(g52
g2
Ntp231
Rp232
(dp233
g25
I00
sg31
I01
sg32
I00
sg42
I2
sbsg59
g149
sg61
I21
sg62
g220
sbsVphfCoincFilter2Th6
p234
g0
(g11
g2
Ntp235
Rp236
(dp237
g15
g134
sg17
(lp238
g136
ag137
ag138
asg25
I00
sg26
Nsg136
g0
(g27
g2
Ntp239
Rp240
(dp241
g25
I00
sg31
I01
sg32
I00
sg33
g142
sg35
g142
sg37
g36
sbsg32
I00
sg137
g0
(g52
g2
Ntp242
Rp243
(dp244
g25
I00
sg31
I01
sg32
I01
sg42
I6
sbsg138
g0
(g52
g2
Ntp245
Rp246
(dp247
g25
I00
sg31
I01
sg32
I00
sg42
I2
sbsg59
g149
sg61
I27
sg62
g234
sbsVphfCoincFilter3Th3
p248
g0
(g11
g2
Ntp249
Rp250
(dp251
g15
g134
sg17
(lp252
g136
ag137
ag138
asg25
I00
sg26
Nsg136
g0
(g27
g2
Ntp253
Rp254
(dp255
g25
I00
sg31
I01
sg32
I00
sg33
g142
sg35
g142
sg37
g36
sbsg32
I00
sg137
g0
(g52
g2
Ntp256
Rp257
(dp258
g25
I00
sg31
I01
sg32
I01
sg42
I3
sbsg138
g0
(g52
g2
Ntp259
Rp260
(dp261
g25
I00
sg31
I01
sg32
I01
sg42
I3
sbsg59
g149
sg61
I16
sg62
g248
sbsVphfCoincFilter3Th4
p262
g0
(g11
g2
Ntp263
Rp264
(dp265
g15
g134
sg17
(lp266
g136
ag137
ag138
asg25
I00
sg26
Nsg136
g0
(g27
g2
Ntp267
Rp268
(dp269
g25
I00
sg31
I01
sg32
I00
sg33
g142
sg35
g142
sg37
g36
sbsg32
I00
sg137
g0
(g52
g2
Ntp270
Rp271
(dp272
g25
I00
sg31
I01
sg32
I00
sg42
I4
sbsg138
g0
(g52
g2
Ntp273
Rp274
(dp275
g25
I00
sg31
I01
sg32
I01
sg42
I3
sbsg59
g149
sg61
I10
sg62
g262
sbsVphfCoincFilter3Th5
p276
g0
(g11
g2
Ntp277
Rp278
(dp279
g15
g134
sg17
(lp280
g136
ag137
ag138
asg25
I00
sg26
Nsg136
g0
(g27
g2
Ntp281
Rp282
(dp283
g25
I00
sg31
I01
sg32
I00
sg33
g142
sg35
g142
sg37
g36
sbsg32
I00
sg137
g0
(g52
g2
Ntp284
Rp285
(dp286
g25
I00
sg31
I01
sg32
I01
sg42
I5
sbsg138
g0
(g52
g2
Ntp287
Rp288
(dp289
g25
I00
sg31
I01
sg32
I01
sg42
I3
sbsg59
g149
sg61
I22
sg62
g276
sbsVphfCoincFilter3Th6
p290
g0
(g11
g2
Ntp291
Rp292
(dp293
g15
g134
sg17
(lp294
g136
ag137
ag138
asg25
I00
sg26
Nsg136
g0
(g27
g2
Ntp295
Rp296
(dp297
g25
I00
sg31
I01
sg32
I00
sg33
g142
sg35
g142
sg37
g36
sbsg32
I00
sg137
g0
(g52
g2
Ntp298
Rp299
(dp300
g25
I00
sg31
I01
sg32
I01
sg42
I6
sbsg138
g0
(g52
g2
Ntp301
Rp302
(dp303
g25
I00
sg31
I01
sg32
I01
sg42
I3
sbsg59
g149
sg61
I28
sg62
g290
sbsVphfCoincFilter4Th2
p304
g0
(g11
g2
Ntp305
Rp306
(dp307
g15
g134
sg17
(lp308
g136
ag137
ag138
asg25
I00
sg26
Nsg136
g0
(g27
g2
Ntp309
Rp310
(dp311
g25
I00
sg31
I01
sg32
I00
sg33
g142
sg35
g142
sg37
g36
sbsg32
I00
sg137
g0
(g52
g2
Ntp312
Rp313
(dp314
g25
I00
sg31
I01
sg32
I01
sg42
I2
sbsg138
g0
(g52
g2
Ntp315
Rp316
(dp317
g25
I00
sg31
I01
sg32
I01
sg42
I4
sbsg59
g149
sg61
I32
sg62
g304
sbsVphfCoincFilter4Th3
p318
g0
(g11
g2
Ntp319
Rp320
(dp321
g15
g134
sg17
(lp322
g136
ag137
ag138
asg25
I00
sg26
Nsg136
g0
(g27
g2
Ntp323
Rp324
(dp325
g25
I00
sg31
I01
sg32
I00
sg33
g142
sg35
g142
sg37
g36
sbsg32
I00
sg137
g0
(g52
g2
Ntp326
Rp327
(dp328
g25
I00
sg31
I01
sg32
I01
sg42
I3
sbsg138
g0
(g52
g2
Ntp329
Rp330
(dp331
g25
I00
sg31
I01
sg32
I01
sg42
I4
sbsg59
g149
sg61
I17
sg62
g318
sbsVphfCoincFilter4Th4
p332
g0
(g11
g2
Ntp333
Rp334
(dp335
g15
g134
sg17
(lp336
g136
ag137
ag138
asg25
I00
sg26
Nsg136
g0
(g27
g2
Ntp337
Rp338
(dp339
g25
I00
sg31
I01
sg32
I00
sg33
g142
sg35
g142
sg37
g36
sbsg32
I00
sg137
g0
(g52
g2
Ntp340
Rp341
(dp342
g25
I00
sg31
I01
sg32
I00
sg42
I4
sbsg138
g0
(g52
g2
Ntp343
Rp344
(dp345
g25
I00
sg31
I01
sg32
I01
sg42
I4
sbsg59
g149
sg61
I11
sg62
g332
sbsVphfCoincFilter4Th5
p346
g0
(g11
g2
Ntp347
Rp348
(dp349
g15
g134
sg17
(lp350
g136
ag137
ag138
asg25
I00
sg26
Nsg136
g0
(g27
g2
Ntp351
Rp352
(dp353
g25
I00
sg31
I01
sg32
I00
sg33
g142
sg35
g142
sg37
g36
sbsg32
I00
sg137
g0
(g52
g2
Ntp354
Rp355
(dp356
g25
I00
sg31
I01
sg32
I01
sg42
I5
sbsg138
g0
(g52
g2
Ntp357
Rp358
(dp359
g25
I00
sg31
I01
sg32
I01
sg42
I4
sbsg59
g149
sg61
I23
sg62
g346
sbsVphfCoincFilter4Th6
p360
g0
(g11
g2
Ntp361
Rp362
(dp363
g15
g134
sg17
(lp364
g136
ag137
ag138
asg25
I00
sg26
Nsg136
g0
(g27
g2
Ntp365
Rp366
(dp367
g25
I00
sg31
I01
sg32
I00
sg33
g142
sg35
g142
sg37
g36
sbsg32
I00
sg137
g0
(g52
g2
Ntp368
Rp369
(dp370
g25
I00
sg31
I01
sg32
I01
sg42
I6
sbsg138
g0
(g52
g2
Ntp371
Rp372
(dp373
g25
I00
sg31
I01
sg32
I01
sg42
I4
sbsg59
g149
sg61
I29
sg62
g360
sbsVphfCoincFilter5Th3
p374
g0
(g11
g2
Ntp375
Rp376
(dp377
g15
g134
sg17
(lp378
g136
ag137
ag138
asg25
I00
sg26
Nsg136
g0
(g27
g2
Ntp379
Rp380
(dp381
g25
I00
sg31
I01
sg32
I00
sg33
g142
sg35
g142
sg37
g36
sbsg32
I00
sg137
g0
(g52
g2
Ntp382
Rp383
(dp384
g25
I00
sg31
I01
sg32
I01
sg42
I3
sbsg138
g0
(g52
g2
Ntp385
Rp386
(dp387
g25
I00
sg31
I01
sg32
I01
sg42
I5
sbsg59
g149
sg61
I18
sg62
g374
sbsVphfCoincFilter5Th4
p388
g0
(g11
g2
Ntp389
Rp390
(dp391
g15
g134
sg17
(lp392
g136
ag137
ag138
asg25
I00
sg26
Nsg136
g0
(g27
g2
Ntp393
Rp394
(dp395
g25
I00
sg31
I01
sg32
I00
sg33
g142
sg35
g142
sg37
g36
sbsg32
I00
sg137
g0
(g52
g2
Ntp396
Rp397
(dp398
g25
I00
sg31
I01
sg32
I00
sg42
I4
sbsg138
g0
(g52
g2
Ntp399
Rp400
(dp401
g25
I00
sg31
I01
sg32
I01
sg42
I5
sbsg59
g149
sg61
I12
sg62
g388
sbsVphfCoincFilter5Th5
p402
g0
(g11
g2
Ntp403
Rp404
(dp405
g15
g134
sg17
(lp406
g136
ag137
ag138
asg25
I00
sg26
Nsg136
g0
(g27
g2
Ntp407
Rp408
(dp409
g25
I00
sg31
I01
sg32
I00
sg33
g142
sg35
g142
sg37
g36
sbsg32
I00
sg137
g0
(g52
g2
Ntp410
Rp411
(dp412
g25
I00
sg31
I01
sg32
I01
sg42
I5
sbsg138
g0
(g52
g2
Ntp413
Rp414
(dp415
g25
I00
sg31
I01
sg32
I01
sg42
I5
sbsg59
g149
sg61
I24
sg62
g402
sbsVphfCoincFilter5Th6
p416
g0
(g11
g2
Ntp417
Rp418
(dp419
g15
g134
sg17
(lp420
g136
ag137
ag138
asg25
I00
sg26
Nsg136
g0
(g27
g2
Ntp421
Rp422
(dp423
g25
I00
sg31
I01
sg32
I00
sg33
g142
sg35
g142
sg37
g36
sbsg32
I00
sg137
g0
(g52
g2
Ntp424
Rp425
(dp426
g25
I00
sg31
I01
sg32
I01
sg42
I6
sbsg138
g0
(g52
g2
Ntp427
Rp428
(dp429
g25
I00
sg31
I01
sg32
I01
sg42
I5
sbsg59
g149
sg61
I30
sg62
g416
sbsVhltMB
p430
g0
(g11
g2
Ntp431
Rp432
(dp433
g15
VHLTHighLevel
p434
sg17
(lp435
VTriggerResultsTag
p436
aVHLTPaths
p437
aVeventSetupPathsKey
p438
aVandOr
p439
aVthrow
p440
ag72
asg25
I00
sg26
Nsg436
g0
(g27
g2
Ntp441
Rp442
(dp443
g25
I00
sg31
I01
sg32
I00
sg33
VTriggerResults
p444
sg35
g36
sg37
VHLT
p445
sbsg32
I01
sg437
g0
(g105
g47
(lp446
VHLT_HIMinimumBiasHF1AND*
p447
atp448
Rp449
(dp450
g25
I00
sg31
I01
sg32
I01
sV_nPerLine
p451
I1
sbsg438
g0
(g121
g2
Ntp452
Rp453
(dp454
g25
I00
sg31
I01
sg32
I00
sg42
g36
sbsg439
g0
(g73
g2
Ntp455
Rp456
(dp457
g25
I00
sg31
I01
sg32
I00
sg42
I01
sbsg440
g0
(g73
g2
Ntp458
Rp459
(dp460
g25
I00
sg31
I01
sg32
I00
sg42
I00
sbsg72
g0
(g100
g2
Ntp461
Rp462
(dp463
g25
I00
sg31
I00
sg32
I00
sg104
g105
sg106
Nsbsg59
V/afs/cern.ch/work/r/rpradhan/Tracking_Studies/newCode_AfterRun3/ForEffTest/CMSSW_13_2_5_patch1/src/Analyzers/RaghuEffTest/cfg/EfficiecnyTest_genTrk_cfg.py
p464
sg61
I125
sg62
g430
sbssV_Process__producers
p465
(dp466
VrandomEngineStateProducer
p467
g0
(cFWCore.ParameterSet.Modules
EDProducer
p468
g2
Ntp469
Rp470
(dp471
g15
VRandomEngineStateProducer
p472
sg17
(lp473
sg25
I00
sg26
Nsg32
I00
sg59
V/cvmfs/cms.cern.ch/el8_amd64_gcc11/cms/cmssw-patch/CMSSW_13_2_5_patch1/src/IOMC/RandomEngine/python/IOMC_cff.py
p474
sg61
I172
sg62
g467
sbsVgeneralAndHiPixelTracks
p475
g0
(g468
g2
Ntp476
Rp477
(dp478
g15
g475
sg17
(lp479
VsrcPFcand
p480
aVchi2Map
p481
aVgenTrackSrc
p482
aVpixTrackSrc
p483
aVvertexSrc
p484
aVcentralitySrc
p485
aVmvaSrc
p486
aVcutWidth
p487
aVtrkRes
p488
aVqualityString
p489
aVdxyErrMax
p490
aVdzErrMax
p491
aVptErrMax
p492
aVnhitsMin
p493
aVchi2nMax
p494
aVchi2nMaxPixel
p495
aVdzErrMaxPixel
p496
aVdxyErrMaxPixel
p497
asg25
I00
sg26
Nsg480
g0
(g27
g2
Ntp498
Rp499
(dp500
g25
I00
sg31
I01
sg32
I00
sg33
VpackedPFCandidates
p501
sg35
g36
sg37
g36
sbsg32
I00
sg481
g0
(g27
g2
Ntp502
Rp503
(dp504
g25
I00
sg31
I01
sg32
I00
sg33
VpackedPFCandidateTrackChi2
p505
sg35
g36
sg37
g36
sbsg482
g0
(g27
g2
Ntp506
Rp507
(dp508
g25
I00
sg31
I01
sg32
I00
sg33
VgeneralTracks
p509
sg35
g36
sg37
g36
sbsg483
g0
(g27
g2
Ntp510
Rp511
(dp512
g25
I00
sg31
I01
sg32
I00
sg33
VhiPixelTracks
p513
sg35
g36
sg37
g36
sbsg484
g0
(g27
g2
Ntp514
Rp515
(dp516
g25
I00
sg31
I01
sg32
I00
sg33
VofflineSlimmedPrimaryVerticesRecovery
p517
sg35
g36
sg37
g36
sbsg485
g0
(g27
g2
Ntp518
Rp519
(dp520
g25
I00
sg31
I01
sg32
I00
sg33
VcentralityBin
p521
sg35
VHFtowers
p522
sg37
g36
sbsg486
g0
(g27
g2
Ntp523
Rp524
(dp525
g25
I00
sg31
I01
sg32
I00
sg33
g509
sg35
VMVAValues
p526
sg37
g36
sbsg487
g0
(g38
g2
Ntp527
Rp528
(dp529
g25
I00
sg31
I01
sg32
I00
sg42
F0.2
sbsg488
g0
(g38
g2
Ntp530
Rp531
(dp532
g25
I00
sg31
I01
sg32
I00
sg42
F0.02
sbsg489
g0
(g121
g2
Ntp533
Rp534
(dp535
g25
I00
sg31
I01
sg32
I00
sg42
VhighPurity
p536
sbsg490
g0
(g38
g2
Ntp537
Rp538
(dp539
g25
I00
sg31
I01
sg32
I00
sg42
F3.0
sbsg491
g0
(g38
g2
Ntp540
Rp541
(dp542
g25
I00
sg31
I01
sg32
I00
sg42
F3.0
sbsg492
g0
(g38
g2
Ntp543
Rp544
(dp545
g25
I00
sg31
I01
sg32
I00
sg42
F0.1
sbsg493
g0
(g52
g2
Ntp546
Rp547
(dp548
g25
I00
sg31
I01
sg32
I00
sg42
I11
sbsg494
g0
(g38
g2
Ntp549
Rp550
(dp551
g25
I00
sg31
I01
sg32
I00
sg42
F0.18
sbsg495
g0
(g38
g2
Ntp552
Rp553
(dp554
g25
I00
sg31
I01
sg32
I00
sg42
F9999.0
sbsg496
g0
(g38
g2
Ntp555
Rp556
(dp557
g25
I00
sg31
I01
sg32
I00
sg42
F20.0
sbsg497
g0
(g38
g2
Ntp558
Rp559
(dp560
g25
I00
sg31
I01
sg32
I00
sg42
F7.0
sbsg59
V/afs/cern.ch/work/r/rpradhan/Tracking_Studies/newCode_AfterRun3/ForEffTest/CMSSW_13_2_5_patch1/src/MergingProducer/generalAndHiPixelTracks/python/MergingPixAndGenProducer_cfi.py
p561
sg61
I3
sg62
g475
sbsg521
g0
(g468
g2
Ntp562
Rp563
(dp564
g15
VCentralityBinProducer
p565
sg17
(lp566
VCentrality
p567
aVcentralityVariable
p568
aVnonDefaultGlauberModel
p569
aVpPbRunFlip
p570
asg25
I00
sg26
Nsg567
g0
(g27
g2
Ntp571
Rp572
(dp573
g25
I00
sg31
I01
sg32
I00
sg33
VhiCentrality
p574
sg35
g36
sg37
g36
sbsg32
I01
sg568
g0
(g121
g2
Ntp575
Rp576
(dp577
g25
I00
sg31
I01
sg32
I00
sg42
g522
sbsg569
g0
(g121
g2
Ntp578
Rp579
(dp580
g25
I00
sg31
I01
sg32
I00
sg42
g36
sbsg570
g0
(cFWCore.ParameterSet.Types
uint32
p581
g2
Ntp582
Rp583
(dp584
g25
I00
sg31
I01
sg32
I00
sg42
I99999999
sbsg59
V/cvmfs/cms.cern.ch/el8_amd64_gcc11/cms/cmssw-patch/CMSSW_13_2_5_patch1/src/RecoHI/HiCentralityAlgos/python/CentralityBin_cfi.py
p585
sg61
I3
sg62
g521
sbsg80
g0
(g468
g2
Ntp586
Rp587
(dp588
g15
VSiPixelRecHitConverter
p589
sg17
(lp590
g114
aVCPE
p591
aVVerboseLevel
p592
asg25
I00
sg26
Nsg114
g0
(g27
g2
Ntp593
Rp594
(dp595
g25
I00
sg31
I01
sg32
I00
sg33
VsiPixelClusters
p596
sg35
g36
sg37
g36
sbsg32
I00
sg591
g0
(g121
g2
Ntp597
Rp598
(dp599
g25
I00
sg31
I01
sg32
I00
sg42
VPixelCPEGeneric
p600
sbsg592
g0
(g52
g2
Ntp601
Rp602
(dp603
g25
I00
sg31
I00
sg32
I00
sg42
I0
sbsg59
V/cvmfs/cms.cern.ch/el8_amd64_gcc11/cms/cmssw-patch/CMSSW_13_2_5_patch1/src/RecoLocalTracker/SiPixelRecHits/python/SiPixelRecHits_cfi.py
p604
sg61
I6
sg62
g80
sbsVsiPixelRecHitsPreSplittingCPU
p605
g0
(g468
g2
Ntp606
Rp607
(dp608
g15
VSiPixelRecHitSoAFromLegacyPhase1
p609
sg17
(lp610
VbeamSpot
p611
ag114
ag591
aVconvertToLegacy
p612
ag72
asg25
I00
sg26
Nsg611
g0
(g27
g2
Ntp613
Rp614
(dp615
g25
I00
sg31
I01
sg32
I00
sg33
VofflineBeamSpot
p616
sg35
g36
sg37
g36
sbsg32
I00
sg114
g0
(g27
g2
Ntp617
Rp618
(dp619
g25
I00
sg31
I01
sg32
I00
sg33
VsiPixelClustersPreSplitting
p620
sg35
g36
sg37
g36
sbsg591
g0
(g121
g2
Ntp621
Rp622
(dp623
g25
I00
sg31
I01
sg32
I00
sg42
VPixelCPEFast
p624
sbsg612
g0
(g73
g2
Ntp625
Rp626
(dp627
g25
I00
sg31
I01
sg32
I01
sg42
I01
sbsg72
g0
(g100
g2
Ntp628
Rp629
(dp630
g25
I00
sg31
I00
sg32
I00
sg104
g105
sg106
Nsbsg59
g604
sg61
I29
sg62
g605
sbsVsiPixelRecHitsPreSplittingCUDA
p631
g0
(g468
g2
Ntp632
Rp633
(dp634
g15
VSiPixelRecHitCUDAPhase1
p635
sg17
(lp636
g611
ag114
ag591
ag72
asg25
I00
sg26
Nsg611
g0
(g27
g2
Ntp637
Rp638
(dp639
g25
I00
sg31
I01
sg32
I01
sg33
VofflineBeamSpotToCUDA
p640
sg35
g36
sg37
g36
sbsg32
I00
sg114
g0
(g27
g2
Ntp641
Rp642
(dp643
g25
I00
sg31
I01
sg32
I00
sg33
VsiPixelClustersPreSplittingCUDA
p644
sg35
g36
sg37
g36
sbsg591
g0
(g121
g2
Ntp645
Rp646
(dp647
g25
I00
sg31
I01
sg32
I00
sg42
g624
sbsg72
g0
(g100
g2
Ntp648
Rp649
(dp650
g25
I00
sg31
I00
sg32
I00
sg104
g105
sg106
Nsbsg59
g604
sg61
I54
sg62
g631
sbssV_Process__switchproducers
p651
(dp652
VsiPixelRecHitsPreSplitting
p653
g0
(cHeterogeneousCore.CUDACore.SwitchProducerCUDA
SwitchProducerCUDA
p654
g2
Ntp655
Rp656
(dp657
g15
Nsg17
(lp658
Vcpu
p659
asg25
I00
sg26
Nsg32
I00
sg59
V/cvmfs/cms.cern.ch/el8_amd64_gcc11/cms/cmssw-patch/CMSSW_13_2_5_patch1/src/FWCore/ParameterSet/python/Modules.py
p660
sg61
I250
sV_caseFunctionDict
p661
(dp662
g659
cFWCore.ParameterSet.Modules
_switch_cpu
p663
sVcuda
p664
cHeterogeneousCore.CUDACore.SwitchProducerCUDA
_switch_cuda
p665
ssg659
g0
(g468
g2
Ntp666
Rp667
(dp668
g15
g589
sg17
(lp669
g114
ag591
ag592
asg25
I00
sg26
Nsg114
g0
(g27
g2
Ntp670
Rp671
(dp672
g25
I00
sg31
I01
sg32
I01
sg33
g620
sg35
g36
sg37
g36
sbsg32
I00
sg591
g0
(g121
g2
Ntp673
Rp674
(dp675
g25
I00
sg31
I01
sg32
I00
sg42
g600
sbsg592
g0
(g52
g2
Ntp676
Rp677
(dp678
g25
I00
sg31
I00
sg32
I00
sg42
I0
sbsg59
g604
sg61
I14
sg62
VsiPixelRecHitsPreSplitting@cpu
p679
sbsg62
g653
sbsVsiPixelRecHitsPreSplittingSoA
p680
g0
(g654
g2
Ntp681
Rp682
(dp683
g15
Nsg17
(lp684
g659
asg25
I00
sg26
Nsg32
I00
sg59
g660
sg61
I250
sg661
(dp685
g659
g663
sg664
g665
ssg659
g0
(cFWCore.ParameterSet.Types
EDAlias
p686
g2
Ntp687
Rp688
(dp689
g17
(lp690
g605
asg25
I00
sg26
Nsg605
g0
(cFWCore.ParameterSet.Types
VPSet
p691
g47
(lp692
g0
(cFWCore.ParameterSet.Types
PSet
p693
g2
Ntp694
Rp695
(dp696
g25
I00
sg31
I01
sg32
I00
sg17
(lp697
Vtype
p698
asg26
Nsg698
g0
(g121
g2
Ntp699
Rp700
(dp701
g25
I00
sg31
I01
sg32
I00
sg42
VpixelTopologyPhase1TrackingRecHitSoAHost
p702
sbsbag0
(g693
g2
Ntp703
Rp704
(dp705
g25
I00
sg31
I01
sg32
I00
sg17
(lp706
g698
asg26
Nsg698
g0
(g121
g2
Ntp707
Rp708
(dp709
g25
I00
sg31
I01
sg32
I00
sg42
VuintAsHostProduct
p710
sbsbatp711
Rp712
(dp713
g25
I00
sg31
I01
sg32
I00
sg451
I1
sbsg32
I00
sg62
VsiPixelRecHitsPreSplittingSoA@cpu
p714
sbsg62
g680
sbssV_Process__source
p715
g0
(cFWCore.ParameterSet.Modules
Source
p716
g2
Ntp717
Rp718
(dp719
g15
VPoolSource
p720
sg17
(lp721
VfileNames
p722
aVduplicateCheckMode
p723
aVskipBadFiles
p724
asg25
I00
sg26
Nsg722
g0
(g105
g47
(lp725
V/store/user/sarteaga/MinBias_PbPb_5p36TeV_Hydjet_v1/MinBias_PbPb_5p36TeV_Hydjet_RECODEBUG_v5/231023_223729/0000/stepRECO_1.root
p726
atp727
Rp728
(dp729
g25
I00
sg31
I00
sg32
I00
sg451
I1
sbsg32
I00
sg723
g0
(g121
g2
Ntp730
Rp731
(dp732
g25
I00
sg31
I00
sg32
I00
sg42
VnoDuplicateCheck
p733
sbsg724
g0
(g73
g2
Ntp734
Rp735
(dp736
g25
I00
sg31
I00
sg32
I00
sg42
I01
sbsg59
g660
sg61
I195
sbsV_Process__looper
p737
NsV_Process__subProcesses
p738
(lp739
sV_Process__schedule
p740
NsV_Process__analyzers
p741
(dp742
VhiEvtAnalyzer
p743
g0
(cFWCore.ParameterSet.Modules
EDAnalyzer
p744
g2
Ntp745
Rp746
(dp747
g15
VHiEvtAnalyzer
p748
sg17
(lp749
VCentralitySrc
p750
aVCentralityBinSrc
p751
aVpfCandidateSrc
p752
aVEvtPlane
p753
aVEvtPlaneFlat
p754
aVHiMC
p755
aVVertex
p756
ag136
aVdoCentrality
p757
aVdoEvtPlane
p758
aVdoEvtPlaneFlat
p759
aVdoVertex
p760
aVdoMC
p761
aVdoHiMC
p762
aVuseHepMC
p763
aVdoHFfilters
p764
aVevtPlaneLevel
p765
asg25
I00
sg26
Nsg750
g0
(g27
g2
Ntp766
Rp767
(dp768
g25
I00
sg31
I01
sg32
I00
sg33
g574
sg35
g36
sg37
g36
sbsg32
I00
sg751
g0
(g27
g2
Ntp769
Rp770
(dp771
g25
I00
sg31
I01
sg32
I00
sg33
g521
sg35
g522
sg37
g36
sbsg752
g0
(g27
g2
Ntp772
Rp773
(dp774
g25
I00
sg31
I01
sg32
I00
sg33
g501
sg35
g36
sg37
g36
sbsg753
g0
(g27
g2
Ntp775
Rp776
(dp777
g25
I00
sg31
I01
sg32
I00
sg33
VhiEvtPlane
p778
sg35
g36
sg37
g36
sbsg754
g0
(g27
g2
Ntp779
Rp780
(dp781
g25
I00
sg31
I01
sg32
I00
sg33
VhiEvtPlaneFlat
p782
sg35
g36
sg37
g36
sbsg755
g0
(g27
g2
Ntp783
Rp784
(dp785
g25
I00
sg31
I01
sg32
I00
sg33
VheavyIon
p786
sg35
g36
sg37
g36
sbsg756
g0
(g27
g2
Ntp787
Rp788
(dp789
g25
I00
sg31
I01
sg32
I00
sg33
g120
sg35
g36
sg37
g36
sbsg136
g0
(g27
g2
Ntp790
Rp791
(dp792
g25
I00
sg31
I01
sg32
I00
sg33
g142
sg35
g142
sg37
g36
sbsg757
g0
(g73
g2
Ntp793
Rp794
(dp795
g25
I00
sg31
I01
sg32
I00
sg42
I01
sbsg758
g0
(g73
g2
Ntp796
Rp797
(dp798
g25
I00
sg31
I01
sg32
I00
sg42
I01
sbsg759
g0
(g73
g2
Ntp799
Rp800
(dp801
g25
I00
sg31
I01
sg32
I00
sg42
I01
sbsg760
g0
(g73
g2
Ntp802
Rp803
(dp804
g25
I00
sg31
I01
sg32
I00
sg42
I01
sbsg761
g0
(g73
g2
Ntp805
Rp806
(dp807
g25
I00
sg31
I01
sg32
I00
sg42
I00
sbsg762
g0
(g73
g2
Ntp808
Rp809
(dp810
g25
I00
sg31
I01
sg32
I00
sg42
I00
sbsg763
g0
(g73
g2
Ntp811
Rp812
(dp813
g25
I00
sg31
I01
sg32
I00
sg42
I00
sbsg764
g0
(g73
g2
Ntp814
Rp815
(dp816
g25
I00
sg31
I01
sg32
I00
sg42
I01
sbsg765
g0
(g52
g2
Ntp817
Rp818
(dp819
g25
I00
sg31
I01
sg32
I00
sg42
I0
sbsg59
V/afs/cern.ch/work/r/rpradhan/Tracking_Studies/newCode_AfterRun3/ForEffTest/CMSSW_13_2_5_patch1/src/HeavyIonsAnalysis/EventAnalysis/python/hievtanalyzer_data_cfi.py
p820
sg61
I3
sg62
g743
sbsVdefaultCPDC
p821
g0
(g744
g2
Ntp822
Rp823
(dp824
g15
g7
sg17
(lp825
Vtracks
p826
aVtracksgen
p827
aVvertex
p828
aVcentralitybin
p829
aVzminVtx
p830
aVzmaxVtx
p831
aVfGeneral
p832
aVpTBins
p833
aVetaBins
p834
aVcentbins
p835
aValgoParameters
p836
asg25
I00
sg26
Nsg826
g0
(g27
g2
Ntp837
Rp838
(dp839
g25
I00
sg31
I01
sg32
I00
sg33
g509
sg35
g36
sg37
g36
sbsg32
I00
sg827
g0
(g27
g2
Ntp840
Rp841
(dp842
g25
I00
sg31
I01
sg32
I00
sg33
VgenParticles
p843
sg35
g36
sg37
g36
sbsg828
g0
(g27
g2
Ntp844
Rp845
(dp846
g25
I00
sg31
I01
sg32
I00
sg33
VofflinePrimaryVertices
p847
sg35
g36
sg37
g36
sbsg829
g0
(g27
g2
Ntp848
Rp849
(dp850
g25
I00
sg31
I01
sg32
I00
sg33
g521
sg35
g522
sg37
g36
sbsg830
g0
(g38
g2
Ntp851
Rp852
(dp853
g25
I00
sg31
I00
sg32
I00
sg42
F-15.0
sbsg831
g0
(g38
g2
Ntp854
Rp855
(dp856
g25
I00
sg31
I00
sg32
I00
sg42
F15.0
sbsg832
g0
(g27
g2
Ntp857
Rp858
(dp859
g25
I00
sg31
I00
sg32
I00
sg33
VGeneral_TrackEff_3D_nhits0_noChi2Cut_ptGt10ptResoCut_Nominal_V0.root
p860
sg35
g36
sg37
g36
sbsg833
g0
(g46
g47
(lp861
F0.0
aF0.05
aF0.1
aF0.15
aF0.2
aF0.25
aF0.3
aF0.35
aF0.4
aF0.45
aF0.5
aF0.55
aF0.6
aF0.65
aF0.7
aF0.75
aF0.8
aF0.85
aF0.9
aF0.95
aF1.0
aF1.05
aF1.1
aF1.15
aF1.2
aF1.3
aF1.4
aF1.5
aF1.6
aF1.7
aF1.8
aF1.9
aF2.0
aF2.5
aF3.0
atp862
Rp863
(dp864
g25
I00
sg31
I00
sg32
I00
sbsg834
g0
(g46
g47
(lp865
F-3.0
aF-2.4
aF-2.0
aF-1.6
aF-1.2
aF-0.8
aF-0.4
aF0.0
aF0.4
aF0.8
aF1.2
aF1.6
aF2.0
aF2.4
aF3.0
atp866
Rp867
(dp868
g25
I00
sg31
I00
sg32
I00
sbsg835
g0
(g46
g47
(lp869
F0.0
aF20.0
aF40.0
aF60.0
aF80.0
aF100.0
aF120.0
aF140.0
aF160.0
aF180.0
aF200.0
atp870
Rp871
(dp872
g25
I00
sg31
I00
sg32
I00
sbsg836
g0
(cFWCore.ParameterSet.Types
vint32
p873
g47
(lp874
I0
aI1
aI2
aI3
aI4
aI5
aI6
aI7
aI8
aI9
aI10
aI11
aI12
aI13
aI14
aI15
aI16
aI17
aI18
aI19
aI20
aI21
aI22
aI23
aI24
aI25
aI26
aI27
aI28
aI29
aI30
aI31
aI32
aI33
aI34
aI35
aI36
aI37
aI38
aI39
aI40
aI41
aI42
aI43
aI44
aI45
aI46
atp875
Rp876
(dp877
g25
I00
sg31
I01
sg32
I00
sbsg59
V/afs/cern.ch/work/r/rpradhan/Tracking_Studies/newCode_AfterRun3/ForEffTest/CMSSW_13_2_5_patch1/src/Analyzers/RaghuEffTest/python/RaghuEffTest_cfi.py
p878
sg61
I3
sg62
g821
sbssV_Process__outputmodules
p879
(dp880
sV_Process__paths
p881
g0
(cFWCore.ParameterSet.DictTypes
SortedKeysDict
p882
c__builtin__
dict
p883
(dp884
Vp
p885
g0
(cFWCore.ParameterSet.SequenceTypes
Path
p886
g2
Ntp887
Rp888
(dp889
g25
I00
sV_seq
p890
g0
(cFWCore.ParameterSet.SequenceTypes
_SequenceCollection
p891
g2
Ntp892
Rp893
(dp894
V_collection
p895
(lp896
g432
ag563
ag823
asbsg32
I00
sV_tasks
p897
g0
(cFWCore.ParameterSet.OrderedSet
OrderedSet
p898
g2
Ntp899
Rp900
(dp901
Vend
p902
(lp903
Nag903
ag903
asVmap
p904
(dp905
sbsg62
g885
sbstp906
Rp907
(dp908
Vlist
p909
(lp910
g885
asbsV_Process__endpaths
p911
g0
(g882
g883
(dp912
tp913
Rp914
(dp915
g909
(lp916
sbsV_Process__finalpaths
p917
g0
(g882
g883
(dp918
tp919
Rp920
(dp921
g909
(lp922
sbsV_Process__sequences
p923
(dp924
VeventFilter
p925
g0
(cFWCore.ParameterSet.SequenceTypes
Sequence
p926
g2
Ntp927
Rp928
(dp929
g25
I00
sg890
g0
(g891
g2
Ntp930
Rp931
(dp932
g895
(lp933
g208
ag110
ag13
asbsg32
I00
sg897
g0
(g898
g2
Ntp934
Rp935
(dp936
g902
(lp937
Nag937
ag937
asg904
(dp938
sbsg62
g925
sbssV_Process__tasks
p939
(dp940
VsiPixelRecHitsPreSplittingTask
p941
g0
(cFWCore.ParameterSet.SequenceTypes
Task
p942
g2
Ntp943
Rp944
(dp945
g895
g0
(g898
g2
Ntp946
Rp947
(dp948
g902
(lp949
Na(lp950
g656
ag949
ag949
aag950
asg904
(dp951
g656
g950
ssbsg62
g941
sbssV_Process__conditionaltasks
p952
(dp953
sV_Process__services
p954
(dp955
VMessageLogger
p956
g0
(cFWCore.ParameterSet.Modules
Service
p957
g2
Ntp958
Rp959
(dp960
g15
g956
sg17
(lp961
VsuppressWarning
p962
aVsuppressFwkInfo
p963
aVsuppressInfo
p964
aVsuppressDebug
p965
aVdebugModules
p966
aVcout
p967
aVdefault
p968
aVcerr
p969
aVfiles
p970
asg25
I00
sg26
g0
(g100
g2
Ntp971
Rp972
(dp973
g25
I00
sg31
I00
sg32
I00
sg104
g0
(cFWCore.ParameterSet.Types
_PSetTemplate
p974
g2
Ntp975
Rp976
(dp977
V_pset
p978
g0
(g693
g2
Ntp979
Rp980
(dp981
g25
I00
sg31
I01
sg32
I00
sg17
(lp982
VreportEvery
p983
aVlimit
p984
aVtimespan
p985
asg26
Nsg983
g0
(g52
g2
Ntp986
Rp987
(dp988
g25
I00
sg31
I00
sg32
I00
sg42
I1
sbsg984
g0
(g100
g2
Ntp989
Rp990
(dp991
g25
I00
sg31
I00
sg32
I00
sg104
g52
sg106
Nsbsg985
g0
(g100
g2
Ntp992
Rp993
(dp994
g25
I00
sg31
I00
sg32
I00
sg104
g52
sg106
NsbsbsV_PSetTemplate__value
p995
Nsbsg106
Nsbsg962
g0
(g105
g47
(lp996
tp997
Rp998
(dp999
g25
I00
sg31
I00
sg32
I00
sg451
I1
sbsg32
I00
sg963
g0
(g105
g47
(lp1000
tp1001
Rp1002
(dp1003
g25
I00
sg31
I00
sg32
I00
sg451
I1
sbsg964
g0
(g105
g47
(lp1004
tp1005
Rp1006
(dp1007
g25
I00
sg31
I00
sg32
I00
sg451
I1
sbsg965
g0
(g105
g47
(lp1008
tp1009
Rp1010
(dp1011
g25
I00
sg31
I00
sg32
I00
sg451
I1
sbsg966
g0
(g105
g47
(lp1012
tp1013
Rp1014
(dp1015
g25
I00
sg31
I00
sg32
I00
sg451
I1
sbsg967
g0
(g693
g2
Ntp1016
Rp1017
(dp1018
g25
I00
sg31
I00
sg32
I00
sg17
(lp1019
VnoLineBreaks
p1020
aVnoTimeStamps
p1021
aVlineLength
p1022
ag137
aVstatisticsThreshold
p1023
aVenableStatistics
p1024
aVresetStatistics
p1025
aVenable
p1026
asg26
g972
sg1020
g0
(g100
g2
Ntp1027
Rp1028
(dp1029
g25
I00
sg31
I00
sg32
I00
sg104
g73
sg106
Nsbsg1021
g0
(g100
g2
Ntp1030
Rp1031
(dp1032
g25
I00
sg31
I00
sg32
I00
sg104
g73
sg106
Nsbsg1022
g0
(g100
g2
Ntp1033
Rp1034
(dp1035
g25
I00
sg31
I00
sg32
I00
sg104
g52
sg106
Nsbsg137
g0
(g100
g2
Ntp1036
Rp1037
(dp1038
g25
I00
sg31
I00
sg32
I00
sg104
g121
sg106
Nsbsg1023
g0
(g100
g2
Ntp1039
Rp1040
(dp1041
g25
I00
sg31
I00
sg32
I00
sg104
g121
sg106
Nsbsg1024
g0
(g73
g2
Ntp1042
Rp1043
(dp1044
g25
I00
sg31
I00
sg32
I00
sg42
I00
sbsg1025
g0
(g73
g2
Ntp1045
Rp1046
(dp1047
g25
I00
sg31
I00
sg32
I00
sg42
I00
sbsg1026
g0
(g73
g2
Ntp1048
Rp1049
(dp1050
g25
I00
sg31
I00
sg32
I00
sg42
I00
sbsbsg968
g0
(g693
g2
Ntp1051
Rp1052
(dp1053
g25
I00
sg31
I00
sg32
I00
sg17
(lp1054
g983
ag984
ag985
ag1020
ag1021
ag1022
ag137
ag1023
asg26
g972
sg983
g0
(g52
g2
Ntp1055
Rp1056
(dp1057
g25
I00
sg31
I00
sg32
I00
sg42
I1
sbsg984
g0
(g100
g2
Ntp1058
Rp1059
(dp1060
g25
I00
sg31
I00
sg32
I00
sg104
g52
sg106
Nsbsg985
g0
(g100
g2
Ntp1061
Rp1062
(dp1063
g25
I00
sg31
I00
sg32
I00
sg104
g52
sg106
Nsbsg1020
g0
(g73
g2
Ntp1064
Rp1065
(dp1066
g25
I00
sg31
I00
sg32
I00
sg42
I00
sbsg1021
g0
(g73
g2
Ntp1067
Rp1068
(dp1069
g25
I00
sg31
I00
sg32
I00
sg42
I00
sbsg1022
g0
(g52
g2
Ntp1070
Rp1071
(dp1072
g25
I00
sg31
I00
sg32
I00
sg42
I80
sbsg137
g0
(g121
g2
Ntp1073
Rp1074
(dp1075
g25
I00
sg31
I00
sg32
I00
sg42
VINFO
p1076
sbsg1023
g0
(g121
g2
Ntp1077
Rp1078
(dp1079
g25
I00
sg31
I00
sg32
I00
sg42
g1076
sbsbsg969
g0
(g693
g2
Ntp1080
Rp1081
(dp1082
g25
I00
sg31
I00
sg32
I00
sg17
(lp1083
g1020
ag1021
ag1022
ag137
ag1023
ag1026
ag1024
ag1025
ag1076
aVFwkReport
p1084
ag968
aVRoot_NoDictionary
p1085
aVFwkSummary
p1086
asg26
g972
sg1020
g0
(g100
g2
Ntp1087
Rp1088
(dp1089
g25
I00
sg31
I00
sg32
I00
sg104
g73
sg106
Nsbsg1021
g0
(g73
g2
Ntp1090
Rp1091
(dp1092
g25
I00
sg31
I00
sg32
I00
sg42
I00
sbsg1022
g0
(g100
g2
Ntp1093
Rp1094
(dp1095
g25
I00
sg31
I00
sg32
I00
sg104
g52
sg106
Nsbsg137
g0
(g121
g2
Ntp1096
Rp1097
(dp1098
g25
I00
sg31
I00
sg32
I00
sg42
g1076
sbsg1023
g0
(g121
g2
Ntp1099
Rp1100
(dp1101
g25
I00
sg31
I00
sg32
I00
sg42
VWARNING
p1102
sbsg1026
g0
(g73
g2
Ntp1103
Rp1104
(dp1105
g25
I00
sg31
I00
sg32
I00
sg42
I01
sbsg1024
g0
(g73
g2
Ntp1106
Rp1107
(dp1108
g25
I00
sg31
I00
sg32
I00
sg42
I00
sbsg1025
g0
(g73
g2
Ntp1109
Rp1110
(dp1111
g25
I00
sg31
I00
sg32
I00
sg42
I00
sbsg1076
g0
(g693
g2
Ntp1112
Rp1113
(dp1114
g25
I00
sg31
I00
sg32
I00
sg17
(lp1115
g984
asg26
Nsg984
g0
(g52
g2
Ntp1116
Rp1117
(dp1118
g25
I00
sg31
I00
sg32
I00
sg42
I0
sbsbsg1084
g0
(g693
g2
Ntp1119
Rp1120
(dp1121
g25
I00
sg31
I00
sg32
I01
sg17
(lp1122
g983
ag984
asg26
Nsg983
g0
(g52
g2
Ntp1123
Rp1124
(dp1125
g25
I00
sg31
I00
sg32
I01
sg42
I100
sbsg984
g0
(g52
g2
Ntp1126
Rp1127
(dp1128
g25
I00
sg31
I00
sg32
I00
sg42
I10000000
sbsbsg968
g0
(g693
g2
Ntp1129
Rp1130
(dp1131
g25
I00
sg31
I00
sg32
I00
sg17
(lp1132
g984
asg26
Nsg984
g0
(g52
g2
Ntp1133
Rp1134
(dp1135
g25
I00
sg31
I00
sg32
I00
sg42
I10000000
sbsbsg1085
g0
(g693
g2
Ntp1136
Rp1137
(dp1138
g25
I00
sg31
I00
sg32
I00
sg17
(lp1139
g984
asg26
Nsg984
g0
(g52
g2
Ntp1140
Rp1141
(dp1142
g25
I00
sg31
I00
sg32
I00
sg42
I0
sbsbsg1086
g0
(g693
g2
Ntp1143
Rp1144
(dp1145
g25
I00
sg31
I00
sg32
I00
sg17
(lp1146
g983
ag984
asg26
Nsg983
g0
(g52
g2
Ntp1147
Rp1148
(dp1149
g25
I00
sg31
I00
sg32
I00
sg42
I1
sbsg984
g0
(g52
g2
Ntp1150
Rp1151
(dp1152
g25
I00
sg31
I00
sg32
I00
sg42
I10000000
sbsbsbsg970
g0
(g693
g2
Ntp1153
Rp1154
(dp1155
g25
I00
sg31
I00
sg32
I00
sg17
(lp1156
sg26
g0
(g100
g2
Ntp1157
Rp1158
(dp1159
g25
I00
sg31
I00
sg32
I00
sg104
g0
(g974
g2
Ntp1160
Rp1161
(dp1162
g978
g0
(g693
g2
Ntp1163
Rp1164
(dp1165
g25
I00
sg31
I01
sg32
I00
sg17
(lp1166
g1020
ag1021
ag1022
ag137
ag1023
ag1024
ag1025
aVfilename
p1167
aVextension
p1168
aVoutput
p1169
asg26
g972
sg1020
g0
(g100
g2
Ntp1170
Rp1171
(dp1172
g25
I00
sg31
I00
sg32
I00
sg104
g73
sg106
Nsbsg1021
g0
(g100
g2
Ntp1173
Rp1174
(dp1175
g25
I00
sg31
I00
sg32
I00
sg104
g73
sg106
Nsbsg1022
g0
(g100
g2
Ntp1176
Rp1177
(dp1178
g25
I00
sg31
I00
sg32
I00
sg104
g52
sg106
Nsbsg137
g0
(g100
g2
Ntp1179
Rp1180
(dp1181
g25
I00
sg31
I00
sg32
I00
sg104
g121
sg106
Nsbsg1023
g0
(g100
g2
Ntp1182
Rp1183
(dp1184
g25
I00
sg31
I00
sg32
I00
sg104
g121
sg106
Nsbsg1024
g0
(g73
g2
Ntp1185
Rp1186
(dp1187
g25
I00
sg31
I00
sg32
I00
sg42
I00
sbsg1025
g0
(g73
g2
Ntp1188
Rp1189
(dp1190
g25
I00
sg31
I00
sg32
I00
sg42
I00
sbsg1167
g0
(g100
g2
Ntp1191
Rp1192
(dp1193
g25
I00
sg31
I00
sg32
I00
sg104
g121
sg106
Nsbsg1168
g0
(g100
g2
Ntp1194
Rp1195
(dp1196
g25
I00
sg31
I00
sg32
I00
sg104
g121
sg106
Nsbsg1169
g0
(g100
g2
Ntp1197
Rp1198
(dp1199
g25
I00
sg31
I00
sg32
I00
sg104
g121
sg106
Nsbsbsg995
Nsbsg106
Nsbsbsg59
g660
sg61
I13
sV_inProcess
p1200
I00
sbsVDQMStore
p1201
g0
(g957
g2
Ntp1202
Rp1203
(dp1204
g15
g1201
sg17
(lp1205
Vverbose
p1206
aVsaveByLumi
p1207
aVMEsToSave
p1208
aVtrackME
p1209
aVassertLegacySafe
p1210
aVenableMultiThread
p1211
aVonlineMode
p1212
asg25
I00
sg26
Nsg1206
g0
(g52
g2
Ntp1213
Rp1214
(dp1215
g25
I00
sg31
I00
sg32
I00
sg42
I0
sbsg32
I00
sg1207
g0
(g73
g2
Ntp1216
Rp1217
(dp1218
g25
I00
sg31
I00
sg32
I00
sg42
I00
sbsg1208
g0
(g105
g47
(lp1219
VHcal/DigiTask/Occupancy/depth/depth1
p1220
aVHcal/DigiTask/Occupancy/depth/depth2
p1221
aVHcal/DigiTask/Occupancy/depth/depth3
p1222
aVHcal/DigiTask/Occupancy/depth/depth4
p1223
aVHcal/DigiTask/Occupancy/depth/depth5
p1224
aVHcal/DigiTask/Occupancy/depth/depth6
p1225
aVHcal/DigiTask/Occupancy/depth/depth7
p1226
aVHcal/DigiTask/Occupancy/depth/depthHO
p1227
aVHcal/DigiTask/OccupancyCut/depth/depth1
p1228
aVHcal/DigiTask/OccupancyCut/depth/depth2
p1229
aVHcal/DigiTask/OccupancyCut/depth/depth3
p1230
aVHcal/DigiTask/OccupancyCut/depth/depth4
p1231
aVHcal/DigiTask/OccupancyCut/depth/depth5
p1232
aVHcal/DigiTask/OccupancyCut/depth/depth6
p1233
aVHcal/DigiTask/OccupancyCut/depth/depth7
p1234
aVHcal/DigiTask/OccupancyCut/depth/depthHO
p1235
aVEcalBarrel/EBOccupancyTask/EBOT digi occupancy
p1236
aVEcalEndcap/EEOccupancyTask/EEOT digi occupancy EE -
p1237
aVEcalEndcap/EEOccupancyTask/EEOT digi occupancy EE +
p1238
aVEcalBarrel/EBOccupancyTask/EBOT DCC entries
p1239
aVEcalEndcap/EEOccupancyTask/EEOT DCC entries
p1240
aVEcal/EventInfo/processedEvents
p1241
aVPixelPhase1/Tracks/charge_PXBarrel
p1242
aVPixelPhase1/Tracks/charge_PXForward
p1243
aVPixelPhase1/Tracks/PXBarrel/charge_PXLayer_1
p1244
aVPixelPhase1/Tracks/PXBarrel/charge_PXLayer_2
p1245
aVPixelPhase1/Tracks/PXBarrel/charge_PXLayer_3
p1246
aVPixelPhase1/Tracks/PXBarrel/charge_PXLayer_4
p1247
aVPixelPhase1/Tracks/PXForward/charge_PXDisk_+1
p1248
aVPixelPhase1/Tracks/PXForward/charge_PXDisk_+2
p1249
aVPixelPhase1/Tracks/PXForward/charge_PXDisk_+3
p1250
aVPixelPhase1/Tracks/PXForward/charge_PXDisk_-1
p1251
aVPixelPhase1/Tracks/PXForward/charge_PXDisk_-2
p1252
aVPixelPhase1/Tracks/PXForward/charge_PXDisk_-3
p1253
aVPixelPhase1/Tracks/PXBarrel/size_PXLayer_1
p1254
aVPixelPhase1/Tracks/PXBarrel/size_PXLayer_2
p1255
aVPixelPhase1/Tracks/PXBarrel/size_PXLayer_3
p1256
aVPixelPhase1/Tracks/PXBarrel/size_PXLayer_4
p1257
aVPixelPhase1/Tracks/PXForward/size_PXDisk_+1
p1258
aVPixelPhase1/Tracks/PXForward/size_PXDisk_+2
p1259
aVPixelPhase1/Tracks/PXForward/size_PXDisk_+3
p1260
aVPixelPhase1/Tracks/PXForward/size_PXDisk_-1
p1261
aVPixelPhase1/Tracks/PXForward/size_PXDisk_-2
p1262
aVPixelPhase1/Tracks/PXForward/size_PXDisk_-3
p1263
aVHLT/Vertexing/hltPixelVertices/hltPixelVertices/goodvtxNbr
p1264
aVHLT/Tracking/ValidationWRTOffline/hltMergedWrtHighPurityPV/mon_eta
p1265
aVHLT/Tracking/ValidationWRTOffline/hltMergedWrtHighPurityPV/mon_hits
p1266
aVHLT/Tracking/ValidationWRTOffline/hltMergedWrtHighPurityPV/mon_phi
p1267
aVHLT/Tracking/ValidationWRTOffline/hltMergedWrtHighPurityPV/mon_pt
p1268
aVHLT/Tracking/ValidationWRTOffline/hltMergedWrtHighPurityPV/mon_unMatched_eta
p1269
aVHLT/Tracking/ValidationWRTOffline/hltMergedWrtHighPurityPV/mon_unMatched_hits
p1270
aVHLT/Tracking/ValidationWRTOffline/hltMergedWrtHighPurityPV/mon_unMatched_phi
p1271
aVHLT/Tracking/ValidationWRTOffline/hltMergedWrtHighPurityPV/mon_unMatched_pt
p1272
aVHLT/Tracking/ValidationWRTOffline/hltMergedWrtHighPurityPV/ref_eta
p1273
aVHLT/Tracking/ValidationWRTOffline/hltMergedWrtHighPurityPV/ref_hits
p1274
aVHLT/Tracking/ValidationWRTOffline/hltMergedWrtHighPurityPV/ref_matched_eta
p1275
aVHLT/Tracking/ValidationWRTOffline/hltMergedWrtHighPurityPV/ref_matched_hits
p1276
aVHLT/Tracking/ValidationWRTOffline/hltMergedWrtHighPurityPV/ref_matched_phi
p1277
aVHLT/Tracking/ValidationWRTOffline/hltMergedWrtHighPurityPV/ref_matched_pt
p1278
aVHLT/Tracking/ValidationWRTOffline/hltMergedWrtHighPurityPV/ref_phi
p1279
aVHLT/Tracking/ValidationWRTOffline/hltMergedWrtHighPurityPV/ref_pt
p1280
aVHLT/Tracking/pixelTracks/GeneralProperties/Chi2Prob_GenTk
p1281
aVHLT/Tracking/pixelTracks/GeneralProperties/Chi2oNDFVsEta_ImpactPoint_GenTk
p1282
aVHLT/Tracking/pixelTracks/GeneralProperties/DeltaZToPVZoom_GenTk
p1283
aVHLT/Tracking/pixelTracks/GeneralProperties/DistanceOfClosestApproachToPVVsPhi_GenTk
p1284
aVHLT/Tracking/pixelTracks/GeneralProperties/DistanceOfClosestApproachToPVZoom_GenTk
p1285
aVHLT/Tracking/pixelTracks/GeneralProperties/NumberOfTracks_GenTk
p1286
aVHLT/Tracking/tracks/GeneralProperties/Chi2Prob_GenTk
p1287
aVHLT/Tracking/tracks/GeneralProperties/Chi2oNDFVsEta_ImpactPoint_GenTk
p1288
aVHLT/Tracking/tracks/GeneralProperties/DeltaZToPVZoom_GenTk
p1289
aVHLT/Tracking/tracks/GeneralProperties/DistanceOfClosestApproachToPVVsPhi_GenTk
p1290
aVHLT/Tracking/tracks/GeneralProperties/DistanceOfClosestApproachToPVZoom_GenTk
p1291
aVHLT/Tracking/tracks/GeneralProperties/NumberOfTracks_GenTk
p1292
aVHLT/Tracking/tracks/LUMIanalysis/NumberEventsVsLUMI
p1293
aVHLT/Tracking/tracks/PUmonitoring/NumberEventsVsGoodPVtx
p1294
aVPixelPhase1/Tracks/num_clusters_ontrack_PXBarrel
p1295
aVPixelPhase1/Tracks/num_clusters_ontrack_PXForward
p1296
aVPixelPhase1/Tracks/clusterposition_zphi_ontrack
p1297
aVPixelPhase1/Tracks/PXBarrel/clusterposition_zphi_ontrack_PXLayer_1
p1298
aVPixelPhase1/Tracks/PXBarrel/clusterposition_zphi_ontrack_PXLayer_2
p1299
aVPixelPhase1/Tracks/PXBarrel/clusterposition_zphi_ontrack_PXLayer_3
p1300
aVPixelPhase1/Tracks/PXBarrel/clusterposition_zphi_ontrack_PXLayer_4
p1301
aVPixelPhase1/Tracks/PXForward/clusterposition_xy_ontrack_PXDisk_+1
p1302
aVPixelPhase1/Tracks/PXForward/clusterposition_xy_ontrack_PXDisk_+2
p1303
aVPixelPhase1/Tracks/PXForward/clusterposition_xy_ontrack_PXDisk_+3
p1304
aVPixelPhase1/Tracks/PXForward/clusterposition_xy_ontrack_PXDisk_-1
p1305
aVPixelPhase1/Tracks/PXForward/clusterposition_xy_ontrack_PXDisk_-2
p1306
aVPixelPhase1/Tracks/PXForward/clusterposition_xy_ontrack_PXDisk_-3
p1307
aVSiStrip/MechanicalView/TEC/PLUS/wheel_1/NormalizedHitResiduals_TEC__wheel__1
p1308
aVSiStrip/MechanicalView/TEC/PLUS/wheel_2/NormalizedHitResiduals_TEC__wheel__2
p1309
aVSiStrip/MechanicalView/TEC/PLUS/wheel_3/NormalizedHitResiduals_TEC__wheel__3
p1310
aVSiStrip/MechanicalView/TEC/PLUS/wheel_4/NormalizedHitResiduals_TEC__wheel__4
p1311
aVSiStrip/MechanicalView/TEC/PLUS/wheel_5/NormalizedHitResiduals_TEC__wheel__5
p1312
aVSiStrip/MechanicalView/TEC/PLUS/wheel_6/NormalizedHitResiduals_TEC__wheel__6
p1313
aVSiStrip/MechanicalView/TEC/PLUS/wheel_7/NormalizedHitResiduals_TEC__wheel__7
p1314
aVSiStrip/MechanicalView/TEC/PLUS/wheel_8/NormalizedHitResiduals_TEC__wheel__8
p1315
aVSiStrip/MechanicalView/TEC/PLUS/wheel_9/NormalizedHitResiduals_TEC__wheel__9
p1316
aVSiStrip/MechanicalView/TEC/MINUS/wheel_1/NormalizedHitResiduals_TEC__wheel__1
p1317
aVSiStrip/MechanicalView/TEC/MINUS/wheel_2/NormalizedHitResiduals_TEC__wheel__2
p1318
aVSiStrip/MechanicalView/TEC/MINUS/wheel_3/NormalizedHitResiduals_TEC__wheel__3
p1319
aVSiStrip/MechanicalView/TEC/MINUS/wheel_4/NormalizedHitResiduals_TEC__wheel__4
p1320
aVSiStrip/MechanicalView/TEC/MINUS/wheel_5/NormalizedHitResiduals_TEC__wheel__5
p1321
aVSiStrip/MechanicalView/TEC/MINUS/wheel_6/NormalizedHitResiduals_TEC__wheel__6
p1322
aVSiStrip/MechanicalView/TEC/MINUS/wheel_7/NormalizedHitResiduals_TEC__wheel__7
p1323
aVSiStrip/MechanicalView/TEC/MINUS/wheel_8/NormalizedHitResiduals_TEC__wheel__8
p1324
aVSiStrip/MechanicalView/TEC/MINUS/wheel_9/NormalizedHitResiduals_TEC__wheel__9
p1325
aVSiStrip/MechanicalView/TEC/PLUS/wheel_1/Summary_ClusterStoNCorr__OnTrack__TEC__PLUS__wheel__1
p1326
aVSiStrip/MechanicalView/TEC/PLUS/wheel_2/Summary_ClusterStoNCorr__OnTrack__TEC__PLUS__wheel__2
p1327
aVSiStrip/MechanicalView/TEC/PLUS/wheel_3/Summary_ClusterStoNCorr__OnTrack__TEC__PLUS__wheel__3
p1328
aVSiStrip/MechanicalView/TEC/PLUS/wheel_4/Summary_ClusterStoNCorr__OnTrack__TEC__PLUS__wheel__4
p1329
aVSiStrip/MechanicalView/TEC/PLUS/wheel_5/Summary_ClusterStoNCorr__OnTrack__TEC__PLUS__wheel__5
p1330
aVSiStrip/MechanicalView/TEC/PLUS/wheel_6/Summary_ClusterStoNCorr__OnTrack__TEC__PLUS__wheel__6
p1331
aVSiStrip/MechanicalView/TEC/PLUS/wheel_7/Summary_ClusterStoNCorr__OnTrack__TEC__PLUS__wheel__7
p1332
aVSiStrip/MechanicalView/TEC/PLUS/wheel_8/Summary_ClusterStoNCorr__OnTrack__TEC__PLUS__wheel__8
p1333
aVSiStrip/MechanicalView/TEC/PLUS/wheel_9/Summary_ClusterStoNCorr__OnTrack__TEC__PLUS__wheel__9
p1334
aVSiStrip/MechanicalView/TEC/MINUS/wheel_1/Summary_ClusterStoNCorr__OnTrack__TEC__MINUS__wheel__1
p1335
aVSiStrip/MechanicalView/TEC/MINUS/wheel_2/Summary_ClusterStoNCorr__OnTrack__TEC__MINUS__wheel__2
p1336
aVSiStrip/MechanicalView/TEC/MINUS/wheel_3/Summary_ClusterStoNCorr__OnTrack__TEC__MINUS__wheel__3
p1337
aVSiStrip/MechanicalView/TEC/MINUS/wheel_4/Summary_ClusterStoNCorr__OnTrack__TEC__MINUS__wheel__4
p1338
aVSiStrip/MechanicalView/TEC/MINUS/wheel_5/Summary_ClusterStoNCorr__OnTrack__TEC__MINUS__wheel__5
p1339
aVSiStrip/MechanicalView/TEC/MINUS/wheel_6/Summary_ClusterStoNCorr__OnTrack__TEC__MINUS__wheel__6
p1340
aVSiStrip/MechanicalView/TEC/MINUS/wheel_7/Summary_ClusterStoNCorr__OnTrack__TEC__MINUS__wheel__7
p1341
aVSiStrip/MechanicalView/TEC/MINUS/wheel_8/Summary_ClusterStoNCorr__OnTrack__TEC__MINUS__wheel__8
p1342
aVSiStrip/MechanicalView/TEC/MINUS/wheel_9/Summary_ClusterStoNCorr__OnTrack__TEC__MINUS__wheel__9
p1343
aVSiStrip/MechanicalView/TIB/layer_1/NormalizedHitResiduals_TIB__Layer__1
p1344
aVSiStrip/MechanicalView/TIB/layer_2/NormalizedHitResiduals_TIB__Layer__2
p1345
aVSiStrip/MechanicalView/TIB/layer_3/NormalizedHitResiduals_TIB__Layer__3
p1346
aVSiStrip/MechanicalView/TIB/layer_4/NormalizedHitResiduals_TIB__Layer__4
p1347
aVSiStrip/MechanicalView/TIB/layer_1/Summary_ClusterStoNCorr__OnTrack__TIB__layer__1
p1348
aVSiStrip/MechanicalView/TIB/layer_2/Summary_ClusterStoNCorr__OnTrack__TIB__layer__2
p1349
aVSiStrip/MechanicalView/TIB/layer_3/Summary_ClusterStoNCorr__OnTrack__TIB__layer__3
p1350
aVSiStrip/MechanicalView/TIB/layer_4/Summary_ClusterStoNCorr__OnTrack__TIB__layer__4
p1351
aVSiStrip/MechanicalView/TID/PLUS/wheel_1/NormalizedHitResiduals_TID__wheel__1
p1352
aVSiStrip/MechanicalView/TID/PLUS/wheel_2/NormalizedHitResiduals_TID__wheel__2
p1353
aVSiStrip/MechanicalView/TID/PLUS/wheel_3/NormalizedHitResiduals_TID__wheel__3
p1354
aVSiStrip/MechanicalView/TID/MINUS/wheel_1/NormalizedHitResiduals_TID__wheel__1
p1355
aVSiStrip/MechanicalView/TID/MINUS/wheel_2/NormalizedHitResiduals_TID__wheel__2
p1356
aVSiStrip/MechanicalView/TID/MINUS/wheel_3/NormalizedHitResiduals_TID__wheel__3
p1357
aVSiStrip/MechanicalView/TID/PLUS/wheel_1/Summary_ClusterStoNCorr__OnTrack__TID__PLUS__wheel__1
p1358
aVSiStrip/MechanicalView/TID/PLUS/wheel_2/Summary_ClusterStoNCorr__OnTrack__TID__PLUS__wheel__2
p1359
aVSiStrip/MechanicalView/TID/PLUS/wheel_3/Summary_ClusterStoNCorr__OnTrack__TID__PLUS__wheel__3
p1360
aVSiStrip/MechanicalView/TID/MINUS/wheel_1/Summary_ClusterStoNCorr__OnTrack__TID__MINUS__wheel__1
p1361
aVSiStrip/MechanicalView/TID/MINUS/wheel_2/Summary_ClusterStoNCorr__OnTrack__TID__MINUS__wheel__2
p1362
aVSiStrip/MechanicalView/TID/MINUS/wheel_3/Summary_ClusterStoNCorr__OnTrack__TID__MINUS__wheel__3
p1363
aVSiStrip/MechanicalView/TOB/layer_1/NormalizedHitResiduals_TOB__Layer__1
p1364
aVSiStrip/MechanicalView/TOB/layer_2/NormalizedHitResiduals_TOB__Layer__2
p1365
aVSiStrip/MechanicalView/TOB/layer_3/NormalizedHitResiduals_TOB__Layer__3
p1366
aVSiStrip/MechanicalView/TOB/layer_4/NormalizedHitResiduals_TOB__Layer__4
p1367
aVSiStrip/MechanicalView/TOB/layer_5/NormalizedHitResiduals_TOB__Layer__5
p1368
aVSiStrip/MechanicalView/TOB/layer_6/NormalizedHitResiduals_TOB__Layer__6
p1369
aVSiStrip/MechanicalView/TOB/layer_1/Summary_ClusterStoNCorr__OnTrack__TOB__layer__1
p1370
aVSiStrip/MechanicalView/TOB/layer_2/Summary_ClusterStoNCorr__OnTrack__TOB__layer__2
p1371
aVSiStrip/MechanicalView/TOB/layer_3/Summary_ClusterStoNCorr__OnTrack__TOB__layer__3
p1372
aVSiStrip/MechanicalView/TOB/layer_4/Summary_ClusterStoNCorr__OnTrack__TOB__layer__4
p1373
aVSiStrip/MechanicalView/TOB/layer_5/Summary_ClusterStoNCorr__OnTrack__TOB__layer__5
p1374
aVSiStrip/MechanicalView/TOB/layer_6/Summary_ClusterStoNCorr__OnTrack__TOB__layer__6
p1375
aVSiStrip/MechanicalView/MainDiagonal Position
p1376
aVSiStrip/MechanicalView/NumberOfClustersInPixel
p1377
aVSiStrip/MechanicalView/NumberOfClustersInStrip
p1378
aVTracking/TrackParameters/generalTracks/LSanalysis/Chi2oNDF_lumiFlag_GenTk
p1379
aVTracking/TrackParameters/generalTracks/LSanalysis/NumberOfRecHitsPerTrack_lumiFlag_GenTk
p1380
aVTracking/TrackParameters/generalTracks/LSanalysis/NumberOfTracks_lumiFlag_GenTk
p1381
aVTracking/TrackParameters/highPurityTracks/pt_1/GeneralProperties/SIPDxyToPV_GenTk
p1382
aVTracking/TrackParameters/highPurityTracks/pt_1/GeneralProperties/SIPDzToPV_GenTk
p1383
aVTracking/TrackParameters/highPurityTracks/pt_1/GeneralProperties/SIP3DToPV_GenTk
p1384
aVTracking/TrackParameters/generalTracks/HitProperties/NumberOfMissingOuterRecHitsPerTrack_GenTk
p1385
aVTracking/TrackParameters/generalTracks/HitProperties/NumberMORecHitsPerTrackVsPt_GenTk
p1386
aVOfflinePV/offlinePrimaryVertices/tagVtxProb
p1387
aVOfflinePV/offlinePrimaryVertices/tagType
p1388
aVOfflinePV/Resolution/PV/pull_x
p1389
aVOfflinePV/Resolution/PV/pull_y
p1390
aVOfflinePV/Resolution/PV/pull_z
p1391
aVJetMET/Jet/Cleanedak4PFJetsCHS/CHFrac_highPt_Barrel
p1392
aVJetMET/Jet/Cleanedak4PFJetsCHS/CHFrac_highPt_EndCap
p1393
aVJetMET/Jet/Cleanedak4PFJetsCHS/CHFrac_mediumPt_Barrel
p1394
aVJetMET/Jet/Cleanedak4PFJetsCHS/CHFrac_mediumPt_EndCap
p1395
aVJetMET/Jet/Cleanedak4PFJetsCHS/CHFrac_lowPt_Barrel
p1396
aVJetMET/Jet/Cleanedak4PFJetsCHS/CHFrac_lowPt_EndCap
p1397
aVJetMET/Jet/Cleanedak4PFJetsCHS/ChMultiplicity_highPt_Barrel
p1398
aVJetMET/Jet/Cleanedak4PFJetsCHS/ChMultiplicity_highPt_EndCap
p1399
aVJetMET/Jet/Cleanedak4PFJetsCHS/ChMultiplicity_mediumPt_Barrel
p1400
aVJetMET/Jet/Cleanedak4PFJetsCHS/ChMultiplicity_mediumPt_EndCap
p1401
aVJetMET/Jet/Cleanedak4PFJetsCHS/ChMultiplicity_lowPt_Barrel
p1402
aVJetMET/Jet/Cleanedak4PFJetsCHS/ChMultiplicity_lowPt_EndCap
p1403
aVJetMET/Jet/Cleanedak4PFJetsCHS/Constituents
p1404
aVJetMET/Jet/Cleanedak4PFJetsCHS/Eta
p1405
aVJetMET/Jet/Cleanedak4PFJetsCHS/Eta_uncor
p1406
aVJetMET/Jet/Cleanedak4PFJetsCHS/JetEnergyCorr
p1407
aVJetMET/Jet/Cleanedak4PFJetsCHS/NJets
p1408
aVJetMET/Jet/Cleanedak4PFJetsCHS/Phi
p1409
aVJetMET/Jet/Cleanedak4PFJetsCHS/Phi_Barrel
p1410
aVJetMET/Jet/Cleanedak4PFJetsCHS/Phi_EndCap
p1411
aVJetMET/Jet/Cleanedak4PFJetsCHS/Pt
p1412
aVJetMET/MET/pfMETT1/Cleaned/METSig
p1413
aVJetMET/vertices
p1414
atp1415
Rp1416
(dp1417
g25
I00
sg31
I00
sg32
I00
sg451
I1
sbsg1209
g0
(g121
g2
Ntp1418
Rp1419
(dp1420
g25
I00
sg31
I00
sg32
I00
sg42
g36
sbsg1210
g0
(g73
g2
Ntp1421
Rp1422
(dp1423
g25
I00
sg31
I00
sg32
I00
sg42
I00
sbsg1211
g0
(g73
g2
Ntp1424
Rp1425
(dp1426
g25
I00
sg31
I00
sg32
I00
sg42
I01
sbsg1212
g0
(g73
g2
Ntp1427
Rp1428
(dp1429
g25
I00
sg31
I00
sg32
I00
sg42
I00
sbsg59
g660
sg61
I13
sg1200
I01
sbsVRandomNumberGeneratorService
p1430
g0
(g957
g2
Ntp1431
Rp1432
(dp1433
g15
g1430
sg17
(lp1434
VexternalLHEProducer
p1435
aVgenerator
p1436
aVVtxSmeared
p1437
aVLHCTransport
p1438
aVhiSignalLHCTransport
p1439
aVg4SimHits
p1440
aVmix
p1441
aVmixData
p1442
aVsimSiStripDigiSimLink
p1443
aVsimMuonDTDigis
p1444
aVsimMuonCSCDigis
p1445
aVsimMuonRPCDigis
p1446
aVhiSignal
p1447
aVhiSignalG4SimHits
p1448
aVfamosPileUp
p1449
aVmixGenPU
p1450
aVmixSimCaloHits
p1451
aVmixRecoTracks
p1452
aVfastSimProducer
p1453
aVfastTrackerRecHits
p1454
aVecalRecHit
p1455
aVecalPreshowerRecHit
p1456
aVhbhereco
p1457
aVhoreco
p1458
aVhfreco
p1459
aVparamMuons
p1460
aVl1ParamMuons
p1461
aVMuonSimHits
p1462
aVCTPPSFastRecHits
p1463
aVsimBeamSpotFilter
p1464
aVRPixDetDigitizer
p1465
aVRPSiDetDigitizer
p1466
aVsaveFileName
p1467
asg25
I00
sg26
Nsg1435
g0
(g693
g2
Ntp1468
Rp1469
(dp1470
g25
I00
sg31
I01
sg32
I00
sg17
(lp1471
VinitialSeed
p1472
aVengineName
p1473
asg26
Nsg1472
g0
(g581
g2
Ntp1474
Rp1475
(dp1476
g25
I00
sg31
I00
sg32
I00
sg42
I234567
sbsg1473
g0
(g121
g2
Ntp1477
Rp1478
(dp1479
g25
I00
sg31
I00
sg32
I00
sg42
VMixMaxRng
p1480
sbsbsg32
I00
sg1436
g0
(g693
g2
Ntp1481
Rp1482
(dp1483
g25
I00
sg31
I01
sg32
I00
sg17
(lp1484
g1472
ag1473
asg26
Nsg1472
g0
(g581
g2
Ntp1485
Rp1486
(dp1487
g25
I00
sg31
I00
sg32
I00
sg42
I123456789
sbsg1473
g1478
sbsg1437
g0
(g693
g2
Ntp1488
Rp1489
(dp1490
g25
I00
sg31
I01
sg32
I00
sg17
(lp1491
g1472
ag1473
asg26
Nsg1472
g0
(g581
g2
Ntp1492
Rp1493
(dp1494
g25
I00
sg31
I00
sg32
I00
sg42
I98765432
sbsg1473
g1478
sbsg1438
g0
(g693
g2
Ntp1495
Rp1496
(dp1497
g25
I00
sg31
I01
sg32
I00
sg17
(lp1498
g1472
ag1473
asg26
Nsg1472
g0
(g581
g2
Ntp1499
Rp1500
(dp1501
g25
I00
sg31
I00
sg32
I00
sg42
I87654321
sbsg1473
g0
(g121
g2
Ntp1502
Rp1503
(dp1504
g25
I00
sg31
I00
sg32
I00
sg42
VTRandom3
p1505
sbsbsg1439
g0
(g693
g2
Ntp1506
Rp1507
(dp1508
g25
I00
sg31
I01
sg32
I00
sg17
(lp1509
g1472
ag1473
asg26
Nsg1472
g0
(g581
g2
Ntp1510
Rp1511
(dp1512
g25
I00
sg31
I00
sg32
I00
sg42
I88776655
sbsg1473
g0
(g121
g2
Ntp1513
Rp1514
(dp1515
g25
I00
sg31
I00
sg32
I00
sg42
g1480
sbsbsg1440
g0
(g693
g2
Ntp1516
Rp1517
(dp1518
g25
I00
sg31
I01
sg32
I00
sg17
(lp1519
g1472
ag1473
asg26
Nsg1472
g0
(g581
g2
Ntp1520
Rp1521
(dp1522
g25
I00
sg31
I00
sg32
I00
sg42
I11
sbsg1473
g1478
sbsg1441
g0
(g693
g2
Ntp1523
Rp1524
(dp1525
g25
I00
sg31
I01
sg32
I00
sg17
(lp1526
g1472
ag1473
asg26
Nsg1472
g0
(g581
g2
Ntp1527
Rp1528
(dp1529
g25
I00
sg31
I00
sg32
I00
sg42
I12345
sbsg1473
g1478
sbsg1442
g0
(g693
g2
Ntp1530
Rp1531
(dp1532
g25
I00
sg31
I01
sg32
I00
sg17
(lp1533
g1472
ag1473
asg26
Nsg1472
g0
(g581
g2
Ntp1534
Rp1535
(dp1536
g25
I00
sg31
I00
sg32
I00
sg42
I12345
sbsg1473
g1478
sbsg1443
g0
(g693
g2
Ntp1537
Rp1538
(dp1539
g25
I00
sg31
I01
sg32
I00
sg17
(lp1540
g1472
ag1473
asg26
Nsg1472
g0
(g581
g2
Ntp1541
Rp1542
(dp1543
g25
I00
sg31
I00
sg32
I00
sg42
I1234567
sbsg1473
g1478
sbsg1444
g0
(g693
g2
Ntp1544
Rp1545
(dp1546
g25
I00
sg31
I01
sg32
I00
sg17
(lp1547
g1472
ag1473
asg26
Nsg1472
g0
(g581
g2
Ntp1548
Rp1549
(dp1550
g25
I00
sg31
I00
sg32
I00
sg42
I1234567
sbsg1473
g1478
sbsg1445
g0
(g693
g2
Ntp1551
Rp1552
(dp1553
g25
I00
sg31
I01
sg32
I00
sg17
(lp1554
g1472
ag1473
asg26
Nsg1472
g0
(g581
g2
Ntp1555
Rp1556
(dp1557
g25
I00
sg31
I00
sg32
I00
sg42
I11223344
sbsg1473
g1478
sbsg1446
g0
(g693
g2
Ntp1558
Rp1559
(dp1560
g25
I00
sg31
I01
sg32
I00
sg17
(lp1561
g1472
ag1473
asg26
Nsg1472
g0
(g581
g2
Ntp1562
Rp1563
(dp1564
g25
I00
sg31
I00
sg32
I00
sg42
I1234567
sbsg1473
g1478
sbsg1447
g0
(g693
g2
Ntp1565
Rp1566
(dp1567
g25
I00
sg31
I01
sg32
I00
sg17
(lp1568
g1472
ag1473
asg26
Nsg1472
g0
(g581
g2
Ntp1569
Rp1570
(dp1571
g25
I00
sg31
I00
sg32
I00
sg42
I123456789
sbsg1473
g1478
sbsg1448
g0
(g693
g2
Ntp1572
Rp1573
(dp1574
g25
I00
sg31
I01
sg32
I00
sg17
(lp1575
g1472
ag1473
asg26
Nsg1472
g0
(g581
g2
Ntp1576
Rp1577
(dp1578
g25
I00
sg31
I00
sg32
I00
sg42
I11
sbsg1473
g1478
sbsg1449
g0
(g693
g2
Ntp1579
Rp1580
(dp1581
g25
I00
sg31
I01
sg32
I00
sg17
(lp1582
g1472
ag1473
asg26
Nsg1472
g0
(g581
g2
Ntp1583
Rp1584
(dp1585
g25
I00
sg31
I00
sg32
I00
sg42
I918273
sbsg1473
g1514
sbsg1450
g0
(g693
g2
Ntp1586
Rp1587
(dp1588
g25
I00
sg31
I01
sg32
I00
sg17
(lp1589
g1472
ag1473
asg26
Nsg1472
g0
(g581
g2
Ntp1590
Rp1591
(dp1592
g25
I00
sg31
I00
sg32
I00
sg42
I918273
sbsg1473
g1514
sbsg1451
g0
(g693
g2
Ntp1593
Rp1594
(dp1595
g25
I00
sg31
I01
sg32
I00
sg17
(lp1596
g1472
ag1473
asg26
Nsg1472
g0
(g581
g2
Ntp1597
Rp1598
(dp1599
g25
I00
sg31
I00
sg32
I00
sg42
I918273
sbsg1473
g1514
sbsg1452
g0
(g693
g2
Ntp1600
Rp1601
(dp1602
g25
I00
sg31
I01
sg32
I00
sg17
(lp1603
g1472
ag1473
asg26
Nsg1472
g0
(g581
g2
Ntp1604
Rp1605
(dp1606
g25
I00
sg31
I00
sg32
I00
sg42
I918273
sbsg1473
g1514
sbsg1453
g0
(g693
g2
Ntp1607
Rp1608
(dp1609
g25
I00
sg31
I01
sg32
I00
sg17
(lp1610
g1472
ag1473
asg26
Nsg1472
g0
(g581
g2
Ntp1611
Rp1612
(dp1613
g25
I00
sg31
I00
sg32
I00
sg42
I13579
sbsg1473
g1514
sbsg1454
g0
(g693
g2
Ntp1614
Rp1615
(dp1616
g25
I00
sg31
I01
sg32
I00
sg17
(lp1617
g1472
ag1473
asg26
Nsg1472
g0
(g581
g2
Ntp1618
Rp1619
(dp1620
g25
I00
sg31
I00
sg32
I00
sg42
I24680
sbsg1473
g1514
sbsg1455
g0
(g693
g2
Ntp1621
Rp1622
(dp1623
g25
I00
sg31
I01
sg32
I00
sg17
(lp1624
g1472
ag1473
asg26
Nsg1472
g0
(g581
g2
Ntp1625
Rp1626
(dp1627
g25
I00
sg31
I00
sg32
I00
sg42
I654321
sbsg1473
g1514
sbsg1456
g0
(g693
g2
Ntp1628
Rp1629
(dp1630
g25
I00
sg31
I01
sg32
I00
sg17
(lp1631
g1472
ag1473
asg26
Nsg1472
g0
(g581
g2
Ntp1632
Rp1633
(dp1634
g25
I00
sg31
I00
sg32
I00
sg42
I6541321
sbsg1473
g1514
sbsg1457
g0
(g693
g2
Ntp1635
Rp1636
(dp1637
g25
I00
sg31
I01
sg32
I00
sg17
(lp1638
g1472
ag1473
asg26
Nsg1472
g0
(g581
g2
Ntp1639
Rp1640
(dp1641
g25
I00
sg31
I00
sg32
I00
sg42
I541321
sbsg1473
g1514
sbsg1458
g0
(g693
g2
Ntp1642
Rp1643
(dp1644
g25
I00
sg31
I01
sg32
I00
sg17
(lp1645
g1472
ag1473
asg26
Nsg1472
g0
(g581
g2
Ntp1646
Rp1647
(dp1648
g25
I00
sg31
I00
sg32
I00
sg42
I541321
sbsg1473
g1514
sbsg1459
g0
(g693
g2
Ntp1649
Rp1650
(dp1651
g25
I00
sg31
I01
sg32
I00
sg17
(lp1652
g1472
ag1473
asg26
Nsg1472
g0
(g581
g2
Ntp1653
Rp1654
(dp1655
g25
I00
sg31
I00
sg32
I00
sg42
I541321
sbsg1473
g1514
sbsg1460
g0
(g693
g2
Ntp1656
Rp1657
(dp1658
g25
I00
sg31
I01
sg32
I00
sg17
(lp1659
g1472
ag1473
asg26
Nsg1472
g0
(g581
g2
Ntp1660
Rp1661
(dp1662
g25
I00
sg31
I00
sg32
I00
sg42
I54525
sbsg1473
g1514
sbsg1461
g0
(g693
g2
Ntp1663
Rp1664
(dp1665
g25
I00
sg31
I01
sg32
I00
sg17
(lp1666
g1472
ag1473
asg26
Nsg1472
g0
(g581
g2
Ntp1667
Rp1668
(dp1669
g25
I00
sg31
I00
sg32
I00
sg42
I6453209
sbsg1473
g1514
sbsg1462
g0
(g693
g2
Ntp1670
Rp1671
(dp1672
g25
I00
sg31
I01
sg32
I00
sg17
(lp1673
g1472
ag1473
asg26
Nsg1472
g0
(g581
g2
Ntp1674
Rp1675
(dp1676
g25
I00
sg31
I00
sg32
I00
sg42
I987346
sbsg1473
g1514
sbsg1463
g0
(g693
g2
Ntp1677
Rp1678
(dp1679
g25
I00
sg31
I01
sg32
I00
sg17
(lp1680
g1472
ag1473
asg26
Nsg1472
g0
(g581
g2
Ntp1681
Rp1682
(dp1683
g25
I00
sg31
I00
sg32
I00
sg42
I1357987
sbsg1473
g1514
sbsg1464
g0
(g693
g2
Ntp1684
Rp1685
(dp1686
g25
I00
sg31
I01
sg32
I00
sg17
(lp1687
g1472
ag1473
asg26
Nsg1472
g0
(g581
g2
Ntp1688
Rp1689
(dp1690
g25
I00
sg31
I00
sg32
I00
sg42
I87654321
sbsg1473
g1478
sbsg1465
g0
(g693
g2
Ntp1691
Rp1692
(dp1693
g25
I00
sg31
I01
sg32
I00
sg17
(lp1694
g1472
ag1473
asg26
Nsg1472
g0
(g581
g2
Ntp1695
Rp1696
(dp1697
g25
I00
sg31
I00
sg32
I00
sg42
I137137
sbsg1473
g1478
sbsg1466
g0
(g693
g2
Ntp1698
Rp1699
(dp1700
g25
I00
sg31
I01
sg32
I00
sg17
(lp1701
g1472
ag1473
asg26
Nsg1472
g0
(g581
g2
Ntp1702
Rp1703
(dp1704
g25
I00
sg31
I00
sg32
I00
sg42
I137137
sbsg1473
g1478
sbsg1467
g0
(g121
g2
Ntp1705
Rp1706
(dp1707
g25
I00
sg31
I00
sg32
I00
sg42
g36
sbsg59
g660
sg61
I13
sg1200
I01
sbsVTFileService
p1708
g0
(g957
g2
Ntp1709
Rp1710
(dp1711
g15
g1708
sg17
(lp1712
VfileName
p1713
asg25
I00
sg26
Nsg1713
g0
(g121
g2
Ntp1714
Rp1715
(dp1716
g25
I00
sg31
I01
sg32
I00
sg42
VEff_test_nopTresChi2_nhits0_AOD.root
p1717
sbsg32
I00
sg59
g660
sg61
I13
sg1200
I01
sbssV_Process__essources
p1718
(dp1719
Veegeom
p1720
g0
(cFWCore.ParameterSet.Modules
ESSource
p1721
g2
Ntp1722
Rp1723
(dp1724
g15
VEmptyESSource
p1725
sg17
(lp1726
VrecordName
p1727
aViovIsRunNotTime
p1728
aVfirstValid
p1729
asg25
I00
sg26
Nsg1727
g0
(g121
g2
Ntp1730
Rp1731
(dp1732
g25
I00
sg31
I01
sg32
I00
sg42
VEcalMappingRcd
p1733
sbsg32
I00
sg1728
g0
(g73
g2
Ntp1734
Rp1735
(dp1736
g25
I00
sg31
I01
sg32
I00
sg42
I01
sbsg1729
g0
(cFWCore.ParameterSet.Types
vuint32
p1737
g47
(lp1738
I1
atp1739
Rp1740
(dp1741
g25
I00
sg31
I01
sg32
I00
sbsg59
V/cvmfs/cms.cern.ch/el8_amd64_gcc11/cms/cmssw-patch/CMSSW_13_2_5_patch1/src/Geometry/EcalMapping/python/EcalMappingRecord_cfi.py
p1742
sg61
I3
sg62
g1720
sbsVHepPDTESSource
p1743
g0
(g1721
g2
Ntp1744
Rp1745
(dp1746
g15
g1743
sg17
(lp1747
VpdtFileName
p1748
asg25
I00
sg26
Nsg1748
g0
(cFWCore.ParameterSet.Types
FileInPath
p1749
g2
Ntp1750
Rp1751
(dp1752
g25
I00
sg31
I01
sg32
I00
sg42
VSimGeneral/HepPDTESSource/data/pythiaparticle.tbl
p1753
sbsg32
I00
sg59
V/cvmfs/cms.cern.ch/el8_amd64_gcc11/cms/cmssw-patch/CMSSW_13_2_5_patch1/src/SimGeneral/HepPDTESSource/python/pythiapdt_cfi.py
p1754
sg61
I3
sg62
g1743
sbsVGlobalTag
p1755
g0
(g1721
g2
Ntp1756
Rp1757
(dp1758
g15
VPoolDBESSource
p1759
sg17
(lp1760
VDBParameters
p1761
aVconnect
p1762
aVglobaltag
p1763
aVsnapshotTime
p1764
aVtoGet
p1765
aVDumpStat
p1766
aVReconnectEachRun
p1767
aVRefreshAlways
p1768
aVRefreshEachRun
p1769
aVRefreshOpenIOVs
p1770
aVpfnPostfix
p1771
aVpfnPrefix
p1772
asg25
I00
sg26
Nsg1761
g0
(g693
g2
Ntp1773
Rp1774
(dp1775
g25
I00
sg31
I01
sg32
I00
sg17
(lp1776
VauthenticationPath
p1777
aVauthenticationSystem
p1778
aVsecurity
p1779
aVmessageLevel
p1780
aVconnectionTimeout
p1781
asg26
Nsg1777
g0
(g121
g2
Ntp1782
Rp1783
(dp1784
g25
I00
sg31
I00
sg32
I00
sg42
g36
sbsg1778
g0
(g52
g2
Ntp1785
Rp1786
(dp1787
g25
I00
sg31
I00
sg32
I00
sg42
I0
sbsg1779
g0
(g121
g2
Ntp1788
Rp1789
(dp1790
g25
I00
sg31
I00
sg32
I00
sg42
g36
sbsg1780
g0
(g52
g2
Ntp1791
Rp1792
(dp1793
g25
I00
sg31
I00
sg32
I00
sg42
I0
sbsg1781
g0
(g52
g2
Ntp1794
Rp1795
(dp1796
g25
I00
sg31
I00
sg32
I00
sg42
I0
sbsbsg32
I01
sg1762
g0
(g121
g2
Ntp1797
Rp1798
(dp1799
g25
I00
sg31
I01
sg32
I00
sg42
Vfrontier://FrontierProd/CMS_CONDITIONS
p1800
sbsg1763
g0
(g121
g2
Ntp1801
Rp1802
(dp1803
g25
I00
sg31
I01
sg32
I00
sg42
V132X_mcRun3_2023_realistic_HI_v5
p1804
sbsg1764
g0
(g121
g2
Ntp1805
Rp1806
(dp1807
g25
I00
sg31
I01
sg32
I00
sg42
V9999-12-31 23:59:59.000
p1808
sbsg1765
g0
(g691
g47
(lp1809
g0
(g693
g2
Ntp1810
Rp1811
(dp1812
g25
I00
sg31
I01
sg32
I00
sg17
(lp1813
Vrecord
p1814
aVtag
p1815
ag1762
aVlabel
p1816
asg26
Nsg1814
g0
(g121
g2
Ntp1817
Rp1818
(dp1819
g25
I00
sg31
I01
sg32
I00
sg42
VHeavyIonRcd
p1820
sbsg1815
g0
(g121
g2
Ntp1821
Rp1822
(dp1823
g25
I00
sg31
I01
sg32
I00
sg42
VCentralityTable_HFtowers200_DataPbPb_periHYDJETshape_run3v1302x04_offline_Nominal
p1824
sbsg1762
g0
(g121
g2
Ntp1825
Rp1826
(dp1827
g25
I00
sg31
I01
sg32
I00
sg42
Vsqlite_file:CentralityTable_HFtowers200_DataPbPb_periHYDJETshape_run3v1302x04_offline_Nominal.db
p1828
sbsg1816
g0
(g121
g2
Ntp1829
Rp1830
(dp1831
g25
I00
sg31
I00
sg32
I00
sg42
g522
sbsbatp1832
Rp1833
(dp1834
g25
I00
sg31
I01
sg32
I00
sg451
I1
sbsg1766
g0
(g73
g2
Ntp1835
Rp1836
(dp1837
g25
I00
sg31
I00
sg32
I00
sg42
I00
sbsg1767
g0
(g73
g2
Ntp1838
Rp1839
(dp1840
g25
I00
sg31
I00
sg32
I00
sg42
I00
sbsg1768
g0
(g73
g2
Ntp1841
Rp1842
(dp1843
g25
I00
sg31
I00
sg32
I00
sg42
I00
sbsg1769
g0
(g73
g2
Ntp1844
Rp1845
(dp1846
g25
I00
sg31
I00
sg32
I00
sg42
I00
sbsg1770
g0
(g73
g2
Ntp1847
Rp1848
(dp1849
g25
I00
sg31
I00
sg32
I00
sg42
I00
sbsg1771
g0
(g121
g2
Ntp1850
Rp1851
(dp1852
g25
I00
sg31
I00
sg32
I00
sg42
g36
sbsg1772
g0
(g121
g2
Ntp1853
Rp1854
(dp1855
g25
I00
sg31
I00
sg32
I00
sg42
g36
sbsg59
V/cvmfs/cms.cern.ch/el8_amd64_gcc11/cms/cmssw-patch/CMSSW_13_2_5_patch1/src/CondCore/ESSources/python/CondDBESSource_cfi.py
p1856
sg61
I8
sg62
g1755
sbsVHcalTimeSlewEP
p1857
g0
(g1721
g2
Ntp1858
Rp1859
(dp1860
g15
g1857
sg17
(lp1861
VappendToDataLabel
p1862
aVtimeSlewParametersM2
p1863
aVtimeSlewParametersM3
p1864
asg25
I00
sg26
Nsg1862
g0
(g121
g2
Ntp1865
Rp1866
(dp1867
g25
I00
sg31
I01
sg32
I00
sg42
VHBHE
p1868
sbsg32
I00
sg1863
g0
(g691
g47
(lp1869
g0
(g693
g2
Ntp1870
Rp1871
(dp1872
g25
I00
sg31
I01
sg32
I00
sg17
(lp1873
Vtzero
p1874
aVslope
p1875
aVtmax
p1876
asg26
Nsg1874
g0
(g38
g2
Ntp1877
Rp1878
(dp1879
g25
I00
sg31
I01
sg32
I00
sg42
F23.960177
sbsg1875
g0
(g38
g2
Ntp1880
Rp1881
(dp1882
g25
I00
sg31
I01
sg32
I00
sg42
F-3.178648
sbsg1876
g0
(g38
g2
Ntp1883
Rp1884
(dp1885
g25
I00
sg31
I01
sg32
I00
sg42
F16.0
sbsbag0
(g693
g2
Ntp1886
Rp1887
(dp1888
g25
I00
sg31
I01
sg32
I00
sg17
(lp1889
g1874
ag1875
ag1876
asg26
Nsg1874
g0
(g38
g2
Ntp1890
Rp1891
(dp1892
g25
I00
sg31
I01
sg32
I00
sg42
F11.977461
sbsg1875
g0
(g38
g2
Ntp1893
Rp1894
(dp1895
g25
I00
sg31
I01
sg32
I00
sg42
F-1.5610227
sbsg1876
g0
(g38
g2
Ntp1896
Rp1897
(dp1898
g25
I00
sg31
I01
sg32
I00
sg42
F10.0
sbsbag0
(g693
g2
Ntp1899
Rp1900
(dp1901
g25
I00
sg31
I01
sg32
I00
sg17
(lp1902
g1874
ag1875
ag1876
asg26
Nsg1874
g0
(g38
g2
Ntp1903
Rp1904
(dp1905
g25
I00
sg31
I01
sg32
I00
sg42
F9.109694
sbsg1875
g0
(g38
g2
Ntp1906
Rp1907
(dp1908
g25
I00
sg31
I01
sg32
I00
sg42
F-1.075824
sbsg1876
g0
(g38
g2
Ntp1909
Rp1910
(dp1911
g25
I00
sg31
I01
sg32
I00
sg42
F6.25
sbsbatp1912
Rp1913
(dp1914
g25
I00
sg31
I01
sg32
I00
sg451
I1
sbsg1864
g0
(g691
g47
(lp1915
g0
(g693
g2
Ntp1916
Rp1917
(dp1918
g25
I00
sg31
I01
sg32
I00
sg17
(lp1919
Vcap
p1920
aVtspar0
p1921
aVtspar1
p1922
aVtspar2
p1923
aVtspar0_siPM
p1924
aVtspar1_siPM
p1925
aVtspar2_siPM
p1926
asg26
Nsg1920
g0
(g38
g2
Ntp1927
Rp1928
(dp1929
g25
I00
sg31
I01
sg32
I00
sg42
F6.0
sbsg1921
g0
(g38
g2
Ntp1930
Rp1931
(dp1932
g25
I00
sg31
I01
sg32
I00
sg42
F12.2999
sbsg1922
g0
(g38
g2
Ntp1933
Rp1934
(dp1935
g25
I00
sg31
I01
sg32
I00
sg42
F-2.19142
sbsg1923
g0
(g38
g2
Ntp1936
Rp1937
(dp1938
g25
I00
sg31
I01
sg32
I00
sg42
F0.0
sbsg1924
g0
(g38
g2
Ntp1939
Rp1940
(dp1941
g25
I00
sg31
I01
sg32
I00
sg42
F0.0
sbsg1925
g0
(g38
g2
Ntp1942
Rp1943
(dp1944
g25
I00
sg31
I01
sg32
I00
sg42
F0.0
sbsg1926
g0
(g38
g2
Ntp1945
Rp1946
(dp1947
g25
I00
sg31
I01
sg32
I00
sg42
F0.0
sbsbag0
(g693
g2
Ntp1948
Rp1949
(dp1950
g25
I00
sg31
I01
sg32
I00
sg17
(lp1951
g1920
ag1921
ag1922
ag1923
ag1924
ag1925
ag1926
asg26
Nsg1920
g0
(g38
g2
Ntp1952
Rp1953
(dp1954
g25
I00
sg31
I01
sg32
I00
sg42
F6.0
sbsg1921
g0
(g38
g2
Ntp1955
Rp1956
(dp1957
g25
I00
sg31
I01
sg32
I00
sg42
F15.5
sbsg1922
g0
(g38
g2
Ntp1958
Rp1959
(dp1960
g25
I00
sg31
I01
sg32
I00
sg42
F-3.2
sbsg1923
g0
(g38
g2
Ntp1961
Rp1962
(dp1963
g25
I00
sg31
I01
sg32
I00
sg42
F32.0
sbsg1924
g0
(g38
g2
Ntp1964
Rp1965
(dp1966
g25
I00
sg31
I01
sg32
I00
sg42
F0.0
sbsg1925
g0
(g38
g2
Ntp1967
Rp1968
(dp1969
g25
I00
sg31
I01
sg32
I00
sg42
F0.0
sbsg1926
g0
(g38
g2
Ntp1970
Rp1971
(dp1972
g25
I00
sg31
I01
sg32
I00
sg42
F0.0
sbsbag0
(g693
g2
Ntp1973
Rp1974
(dp1975
g25
I00
sg31
I01
sg32
I00
sg17
(lp1976
g1920
ag1921
ag1922
ag1923
ag1924
ag1925
ag1926
asg26
Nsg1920
g0
(g38
g2
Ntp1977
Rp1978
(dp1979
g25
I00
sg31
I01
sg32
I00
sg42
F6.0
sbsg1921
g0
(g38
g2
Ntp1980
Rp1981
(dp1982
g25
I00
sg31
I01
sg32
I00
sg42
F12.2999
sbsg1922
g0
(g38
g2
Ntp1983
Rp1984
(dp1985
g25
I00
sg31
I01
sg32
I00
sg42
F-2.19142
sbsg1923
g0
(g38
g2
Ntp1986
Rp1987
(dp1988
g25
I00
sg31
I01
sg32
I00
sg42
F0.0
sbsg1924
g0
(g38
g2
Ntp1989
Rp1990
(dp1991
g25
I00
sg31
I01
sg32
I00
sg42
F0.0
sbsg1925
g0
(g38
g2
Ntp1992
Rp1993
(dp1994
g25
I00
sg31
I01
sg32
I00
sg42
F0.0
sbsg1926
g0
(g38
g2
Ntp1995
Rp1996
(dp1997
g25
I00
sg31
I01
sg32
I00
sg42
F0.0
sbsbag0
(g693
g2
Ntp1998
Rp1999
(dp2000
g25
I00
sg31
I01
sg32
I00
sg17
(lp2001
g1920
ag1921
ag1922
ag1923
ag1924
ag1925
ag1926
asg26
Nsg1920
g0
(g38
g2
Ntp2002
Rp2003
(dp2004
g25
I00
sg31
I01
sg32
I00
sg42
F6.0
sbsg1921
g0
(g38
g2
Ntp2005
Rp2006
(dp2007
g25
I00
sg31
I01
sg32
I00
sg42
F12.2999
sbsg1922
g0
(g38
g2
Ntp2008
Rp2009
(dp2010
g25
I00
sg31
I01
sg32
I00
sg42
F-2.19142
sbsg1923
g0
(g38
g2
Ntp2011
Rp2012
(dp2013
g25
I00
sg31
I01
sg32
I00
sg42
F0.0
sbsg1924
g0
(g38
g2
Ntp2014
Rp2015
(dp2016
g25
I00
sg31
I01
sg32
I00
sg42
F0.0
sbsg1925
g0
(g38
g2
Ntp2017
Rp2018
(dp2019
g25
I00
sg31
I01
sg32
I00
sg42
F0.0
sbsg1926
g0
(g38
g2
Ntp2020
Rp2021
(dp2022
g25
I00
sg31
I01
sg32
I00
sg42
F0.0
sbsbatp2023
Rp2024
(dp2025
g25
I00
sg31
I01
sg32
I00
sg451
I1
sbsg59
V/cvmfs/cms.cern.ch/el8_amd64_gcc11/cms/cmssw-patch/CMSSW_13_2_5_patch1/src/CalibCalorimetry/HcalPlugins/python/HcalTimeSlew_cff.py
p2026
sg61
I3
sg62
g1857
sbsVes_hardcode
p2027
g0
(g1721
g2
Ntp2028
Rp2029
(dp2030
g15
VHcalHardcodeCalibrations
p2031
sg17
(lp2032
g1765
aViLumi
p2033
aVHBRecalibration
p2034
aVHBreCalibCutoff
p2035
aVHBmeanenergies
p2036
aVHERecalibration
p2037
aVHEreCalibCutoff
p2038
aVHEmeanenergies
p2039
aVHFRecalibration
p2040
aVHFRecalParameterBlock
p2041
aVGainWidthsForTrigPrims
p2042
aVuseHBUpgrade
p2043
aVuseHEUpgrade
p2044
aVuseHFUpgrade
p2045
aVuseHOUpgrade
p2046
aVtestHFQIE10
p2047
aVtestHEPlan1
p2048
aVkillHE
p2049
aVuseLayer0Weight
p2050
aVuseIeta18depth1
p2051
aVhb
p2052
aVhe
p2053
aVhf
p2054
aVho
p2055
aVhbUpgrade
p2056
aVheUpgrade
p2057
aVhfUpgrade
p2058
aVSiPMCharacteristics
p2059
asg25
I00
sg26
Nsg1765
g0
(g105
g47
(lp2060
VGainWidths
p2061
atp2062
Rp2063
(dp2064
g25
I00
sg31
I00
sg32
I00
sg451
I1
sbsg32
I00
sg2033
g0
(g38
g2
Ntp2065
Rp2066
(dp2067
g25
I00
sg31
I01
sg32
I00
sg42
F-1.0
sbsg2034
g0
(g73
g2
Ntp2068
Rp2069
(dp2070
g25
I00
sg31
I01
sg32
I00
sg42
I00
sbsg2035
g0
(g38
g2
Ntp2071
Rp2072
(dp2073
g25
I00
sg31
I01
sg32
I00
sg42
F20.0
sbsg2036
g0
(g1749
g2
Ntp2074
Rp2075
(dp2076
g25
I00
sg31
I01
sg32
I00
sg42
VCalibCalorimetry/HcalPlugins/data/meanenergiesHB.txt
p2077
sbsg2037
g0
(g73
g2
Ntp2078
Rp2079
(dp2080
g25
I00
sg31
I01
sg32
I00
sg42
I00
sbsg2038
g0
(g38
g2
Ntp2081
Rp2082
(dp2083
g25
I00
sg31
I01
sg32
I00
sg42
F20.0
sbsg2039
g0
(g1749
g2
Ntp2084
Rp2085
(dp2086
g25
I00
sg31
I01
sg32
I00
sg42
VCalibCalorimetry/HcalPlugins/data/meanenergiesHE.txt
p2087
sbsg2040
g0
(g73
g2
Ntp2088
Rp2089
(dp2090
g25
I00
sg31
I01
sg32
I00
sg42
I00
sbsg2041
g0
(g693
g2
Ntp2091
Rp2092
(dp2093
g25
I00
sg31
I01
sg32
I00
sg17
(lp2094
VHFdepthOneParameterA
p2095
aVHFdepthOneParameterB
p2096
aVHFdepthTwoParameterA
p2097
aVHFdepthTwoParameterB
p2098
asg26
Nsg2095
g0
(g46
g47
(lp2099
F0.004123
aF0.00602
aF0.008201
aF0.010489
aF0.013379
aF0.016997
aF0.021464
aF0.027371
aF0.034195
aF0.044807
aF0.058939
aF0.125497
atp2100
Rp2101
(dp2102
g25
I00
sg31
I01
sg32
I00
sbsg2096
g0
(g46
g47
(lp2103
F-4e-06
aF-2e-06
aF0.0
aF4e-06
aF1.5e-05
aF2.6e-05
aF6.3e-05
aF8.4e-05
aF0.00016
aF0.000107
aF0.000425
aF0.000209
atp2104
Rp2105
(dp2106
g25
I00
sg31
I01
sg32
I00
sbsg2097
g0
(g46
g47
(lp2107
F0.002861
aF0.004168
aF0.0064
aF0.008388
aF0.011601
aF0.014425
aF0.018633
aF0.023232
aF0.028274
aF0.035447
aF0.051579
aF0.086593
atp2108
Rp2109
(dp2110
g25
I00
sg31
I01
sg32
I00
sbsg2098
g0
(g46
g47
(lp2111
F-2e-06
aF-0.0
aF-7e-06
aF-6e-06
aF-2e-06
aF1e-06
aF1.9e-05
aF3.1e-05
aF6.7e-05
aF1.2e-05
aF0.000157
aF-3e-06
atp2112
Rp2113
(dp2114
g25
I00
sg31
I01
sg32
I00
sbsg62
g2041
sbsg2042
g0
(g73
g2
Ntp2115
Rp2116
(dp2117
g25
I00
sg31
I01
sg32
I00
sg42
I00
sbsg2043
g0
(g73
g2
Ntp2118
Rp2119
(dp2120
g25
I00
sg31
I01
sg32
I00
sg42
I00
sbsg2044
g0
(g73
g2
Ntp2121
Rp2122
(dp2123
g25
I00
sg31
I01
sg32
I00
sg42
I00
sbsg2045
g0
(g73
g2
Ntp2124
Rp2125
(dp2126
g25
I00
sg31
I01
sg32
I00
sg42
I00
sbsg2046
g0
(g73
g2
Ntp2127
Rp2128
(dp2129
g25
I00
sg31
I01
sg32
I00
sg42
I01
sbsg2047
g0
(g73
g2
Ntp2130
Rp2131
(dp2132
g25
I00
sg31
I01
sg32
I00
sg42
I00
sbsg2048
g0
(g73
g2
Ntp2133
Rp2134
(dp2135
g25
I00
sg31
I01
sg32
I00
sg42
I00
sbsg2049
g0
(g73
g2
Ntp2136
Rp2137
(dp2138
g25
I00
sg31
I01
sg32
I00
sg42
I00
sbsg2050
g0
(g73
g2
Ntp2139
Rp2140
(dp2141
g25
I00
sg31
I01
sg32
I00
sg42
I00
sbsg2051
g0
(g73
g2
Ntp2142
Rp2143
(dp2144
g25
I00
sg31
I01
sg32
I00
sg42
I01
sbsg2052
g0
(g693
g2
Ntp2145
Rp2146
(dp2147
g25
I00
sg31
I01
sg32
I00
sg17
(lp2148
Vpedestal
p2149
aVpedestalWidth
p2150
aVgain
p2151
aVgainWidth
p2152
aVzsThreshold
p2153
aVqieType
p2154
aVqieOffset
p2155
aVqieSlope
p2156
aVmcShape
p2157
aVrecoShape
p2158
aVphotoelectronsToAnalog
p2159
aVdarkCurrent
p2160
aVnoiseCorrelation
p2161
aVnoiseThreshold
p2162
aVseedThreshold
p2163
aVdoRadiationDamage
p2164
asg26
Nsg2149
g0
(g38
g2
Ntp2165
Rp2166
(dp2167
g25
I00
sg31
I01
sg32
I00
sg42
F3.285
sbsg2150
g0
(g38
g2
Ntp2168
Rp2169
(dp2170
g25
I00
sg31
I01
sg32
I00
sg42
F0.809
sbsg2151
g0
(g46
g47
(lp2171
F0.19
atp2172
Rp2173
(dp2174
g25
I00
sg31
I01
sg32
I00
sbsg2152
g0
(g46
g47
(lp2175
F0.0
atp2176
Rp2177
(dp2178
g25
I00
sg31
I01
sg32
I00
sbsg2153
g0
(g52
g2
Ntp2179
Rp2180
(dp2181
g25
I00
sg31
I01
sg32
I00
sg42
I8
sbsg2154
g0
(g52
g2
Ntp2182
Rp2183
(dp2184
g25
I00
sg31
I01
sg32
I00
sg42
I0
sbsg2155
g0
(g46
g47
(lp2185
F-0.49
aF1.8
aF7.2
aF37.9
atp2186
Rp2187
(dp2188
g25
I00
sg31
I01
sg32
I00
sbsg2156
g0
(g46
g47
(lp2189
F0.912
aF0.917
aF0.922
aF0.923
atp2190
Rp2191
(dp2192
g25
I00
sg31
I01
sg32
I00
sbsg2157
g0
(g52
g2
Ntp2193
Rp2194
(dp2195
g25
I00
sg31
I01
sg32
I00
sg42
I125
sbsg2158
g0
(g52
g2
Ntp2196
Rp2197
(dp2198
g25
I00
sg31
I01
sg32
I00
sg42
I105
sbsg2159
g0
(g38
g2
Ntp2199
Rp2200
(dp2201
g25
I00
sg31
I01
sg32
I00
sg42
F0.3305
sbsg2160
g0
(g46
g47
(lp2202
F0.0
atp2203
Rp2204
(dp2205
g25
I00
sg31
I01
sg32
I00
sbsg2161
g0
(g46
g47
(lp2206
F0.0
atp2207
Rp2208
(dp2209
g25
I00
sg31
I01
sg32
I00
sbsg2162
g0
(g38
g2
Ntp2210
Rp2211
(dp2212
g25
I00
sg31
I01
sg32
I00
sg42
F0.0
sbsg2163
g0
(g38
g2
Ntp2213
Rp2214
(dp2215
g25
I00
sg31
I01
sg32
I00
sg42
F0.1
sbsg2164
g0
(g73
g2
Ntp2216
Rp2217
(dp2218
g25
I00
sg31
I01
sg32
I00
sg42
I00
sbsbsg2053
g0
(g693
g2
Ntp2219
Rp2220
(dp2221
g25
I00
sg31
I01
sg32
I00
sg17
(lp2222
g2149
ag2150
ag2151
ag2152
ag2153
ag2154
ag2155
ag2156
ag2157
ag2158
ag2159
ag2160
ag2161
ag2162
ag2163
ag2164
asg26
Nsg2149
g0
(g38
g2
Ntp2223
Rp2224
(dp2225
g25
I00
sg31
I01
sg32
I00
sg42
F3.163
sbsg2150
g0
(g38
g2
Ntp2226
Rp2227
(dp2228
g25
I00
sg31
I01
sg32
I00
sg42
F0.9698
sbsg2151
g0
(g46
g47
(lp2229
F0.23
atp2230
Rp2231
(dp2232
g25
I00
sg31
I01
sg32
I00
sbsg2152
g0
(g46
g47
(lp2233
I0
atp2234
Rp2235
(dp2236
g25
I00
sg31
I01
sg32
I00
sbsg2153
g0
(g52
g2
Ntp2237
Rp2238
(dp2239
g25
I00
sg31
I01
sg32
I00
sg42
I9
sbsg2154
g0
(g52
g2
Ntp2240
Rp2241
(dp2242
g25
I00
sg31
I01
sg32
I00
sg42
I0
sbsg2155
g0
(g46
g47
(lp2243
F-0.38
aF2.0
aF7.6
aF39.6
atp2244
Rp2245
(dp2246
g25
I00
sg31
I01
sg32
I00
sbsg2156
g0
(g46
g47
(lp2247
F0.912
aF0.916
aF0.92
aF0.922
atp2248
Rp2249
(dp2250
g25
I00
sg31
I01
sg32
I00
sbsg2157
g0
(g52
g2
Ntp2251
Rp2252
(dp2253
g25
I00
sg31
I01
sg32
I00
sg42
I125
sbsg2158
g0
(g52
g2
Ntp2254
Rp2255
(dp2256
g25
I00
sg31
I01
sg32
I00
sg42
I105
sbsg2159
g0
(g38
g2
Ntp2257
Rp2258
(dp2259
g25
I00
sg31
I01
sg32
I00
sg42
F0.3305
sbsg2160
g0
(g46
g47
(lp2260
F0.0
atp2261
Rp2262
(dp2263
g25
I00
sg31
I01
sg32
I00
sbsg2161
g0
(g46
g47
(lp2264
F0.0
atp2265
Rp2266
(dp2267
g25
I00
sg31
I01
sg32
I00
sbsg2162
g0
(g38
g2
Ntp2268
Rp2269
(dp2270
g25
I00
sg31
I01
sg32
I00
sg42
F0.0
sbsg2163
g0
(g38
g2
Ntp2271
Rp2272
(dp2273
g25
I00
sg31
I01
sg32
I00
sg42
F0.1
sbsg2164
g0
(g73
g2
Ntp2274
Rp2275
(dp2276
g25
I00
sg31
I01
sg32
I00
sg42
I00
sbsbsg2054
g0
(g693
g2
Ntp2277
Rp2278
(dp2279
g25
I00
sg31
I01
sg32
I00
sg17
(lp2280
g2149
ag2150
ag2151
ag2152
ag2153
ag2154
ag2155
ag2156
ag2157
ag2158
ag2159
ag2160
ag2161
ag2162
ag2163
ag2164
asg26
Nsg2149
g0
(g38
g2
Ntp2281
Rp2282
(dp2283
g25
I00
sg31
I01
sg32
I00
sg42
F9.354
sbsg2150
g0
(g38
g2
Ntp2284
Rp2285
(dp2286
g25
I00
sg31
I01
sg32
I00
sg42
F2.516
sbsg2151
g0
(g46
g47
(lp2287
F0.14
aF0.135
atp2288
Rp2289
(dp2290
g25
I00
sg31
I01
sg32
I00
sbsg2152
g0
(g46
g47
(lp2291
F0.0
aF0.0
atp2292
Rp2293
(dp2294
g25
I00
sg31
I01
sg32
I00
sbsg2153
g0
(g52
g2
Ntp2295
Rp2296
(dp2297
g25
I00
sg31
I01
sg32
I00
sg42
I-9999
sbsg2154
g0
(g52
g2
Ntp2298
Rp2299
(dp2300
g25
I00
sg31
I01
sg32
I00
sg42
I0
sbsg2155
g0
(g46
g47
(lp2301
F-0.87
aF1.4
aF7.8
aF-29.6
atp2302
Rp2303
(dp2304
g25
I00
sg31
I01
sg32
I00
sbsg2156
g0
(g46
g47
(lp2305
F0.359
aF0.358
aF0.36
aF0.367
atp2306
Rp2307
(dp2308
g25
I00
sg31
I01
sg32
I00
sbsg2157
g0
(g52
g2
Ntp2309
Rp2310
(dp2311
g25
I00
sg31
I01
sg32
I00
sg42
I301
sbsg2158
g0
(g52
g2
Ntp2312
Rp2313
(dp2314
g25
I00
sg31
I01
sg32
I00
sg42
I301
sbsg2159
g0
(g38
g2
Ntp2315
Rp2316
(dp2317
g25
I00
sg31
I01
sg32
I00
sg42
F0.0
sbsg2160
g0
(g46
g47
(lp2318
F0.0
atp2319
Rp2320
(dp2321
g25
I00
sg31
I01
sg32
I00
sbsg2161
g0
(g46
g47
(lp2322
F0.0
atp2323
Rp2324
(dp2325
g25
I00
sg31
I01
sg32
I00
sbsg2162
g0
(g38
g2
Ntp2326
Rp2327
(dp2328
g25
I00
sg31
I01
sg32
I00
sg42
F0.0
sbsg2163
g0
(g38
g2
Ntp2329
Rp2330
(dp2331
g25
I00
sg31
I01
sg32
I00
sg42
F0.1
sbsg2164
g0
(g73
g2
Ntp2332
Rp2333
(dp2334
g25
I00
sg31
I01
sg32
I00
sg42
I00
sbsbsg2055
g0
(g693
g2
Ntp2335
Rp2336
(dp2337
g25
I00
sg31
I01
sg32
I00
sg17
(lp2338
g2149
ag2150
ag2151
ag2152
ag2153
ag2154
ag2155
ag2156
ag2157
ag2158
ag2159
ag2160
ag2161
ag2162
ag2163
ag2164
asg26
Nsg2149
g0
(g38
g2
Ntp2339
Rp2340
(dp2341
g25
I00
sg31
I01
sg32
I00
sg42
F12.06
sbsg2150
g0
(g38
g2
Ntp2342
Rp2343
(dp2344
g25
I00
sg31
I01
sg32
I00
sg42
F0.6285
sbsg2151
g0
(g46
g47
(lp2345
F0.006
aF0.0087
atp2346
Rp2347
(dp2348
g25
I00
sg31
I01
sg32
I00
sbsg2152
g0
(g46
g47
(lp2349
F0.0
aF0.0
atp2350
Rp2351
(dp2352
g25
I00
sg31
I01
sg32
I00
sbsg2153
g0
(g52
g2
Ntp2353
Rp2354
(dp2355
g25
I00
sg31
I01
sg32
I00
sg42
I24
sbsg2154
g0
(g52
g2
Ntp2356
Rp2357
(dp2358
g25
I00
sg31
I01
sg32
I00
sg42
I0
sbsg2155
g0
(g46
g47
(lp2359
F-0.44
aF1.4
aF7.1
aF38.5
atp2360
Rp2361
(dp2362
g25
I00
sg31
I01
sg32
I00
sbsg2156
g0
(g46
g47
(lp2363
F0.907
aF0.915
aF0.92
aF0.921
atp2364
Rp2365
(dp2366
g25
I00
sg31
I01
sg32
I00
sbsg2157
g0
(g52
g2
Ntp2367
Rp2368
(dp2369
g25
I00
sg31
I01
sg32
I00
sg42
I201
sbsg2158
g0
(g52
g2
Ntp2370
Rp2371
(dp2372
g25
I00
sg31
I01
sg32
I00
sg42
I201
sbsg2159
g0
(g38
g2
Ntp2373
Rp2374
(dp2375
g25
I00
sg31
I01
sg32
I00
sg42
F4.0
sbsg2160
g0
(g46
g47
(lp2376
F0.0
atp2377
Rp2378
(dp2379
g25
I00
sg31
I01
sg32
I00
sbsg2161
g0
(g46
g47
(lp2380
F0.0
atp2381
Rp2382
(dp2383
g25
I00
sg31
I01
sg32
I00
sbsg2162
g0
(g38
g2
Ntp2384
Rp2385
(dp2386
g25
I00
sg31
I01
sg32
I00
sg42
F0.0
sbsg2163
g0
(g38
g2
Ntp2387
Rp2388
(dp2389
g25
I00
sg31
I01
sg32
I00
sg42
F0.1
sbsg2164
g0
(g73
g2
Ntp2390
Rp2391
(dp2392
g25
I00
sg31
I01
sg32
I00
sg42
I00
sbsbsg2056
g0
(g693
g2
Ntp2393
Rp2394
(dp2395
g25
I00
sg31
I01
sg32
I00
sg17
(lp2396
g2149
ag2150
ag2151
ag2152
ag2153
ag2154
ag2155
ag2156
ag2157
ag2158
ag2159
ag2160
ag2161
ag2162
ag2163
ag2164
aVradiationDamage
p2397
asg26
Nsg2149
g0
(g38
g2
Ntp2398
Rp2399
(dp2400
g25
I00
sg31
I01
sg32
I00
sg42
F17.3
sbsg2150
g0
(g38
g2
Ntp2401
Rp2402
(dp2403
g25
I00
sg31
I01
sg32
I00
sg42
F1.5
sbsg2151
g0
(g46
g47
(lp2404
F0.0006252
atp2405
Rp2406
(dp2407
g25
I00
sg31
I01
sg32
I00
sbsg2152
g0
(g46
g47
(lp2408
I0
atp2409
Rp2410
(dp2411
g25
I00
sg31
I01
sg32
I00
sbsg2153
g0
(g52
g2
Ntp2412
Rp2413
(dp2414
g25
I00
sg31
I01
sg32
I00
sg42
I16
sbsg2154
g0
(g52
g2
Ntp2415
Rp2416
(dp2417
g25
I00
sg31
I01
sg32
I00
sg42
I2
sbsg2155
g0
(g46
g47
(lp2418
F0.0
aF0.0
aF0.0
aF0.0
atp2419
Rp2420
(dp2421
g25
I00
sg31
I01
sg32
I00
sbsg2156
g0
(g46
g47
(lp2422
F0.05376
aF0.05376
aF0.05376
aF0.05376
atp2423
Rp2424
(dp2425
g25
I00
sg31
I01
sg32
I00
sbsg2157
g0
(g52
g2
Ntp2426
Rp2427
(dp2428
g25
I00
sg31
I01
sg32
I00
sg42
I206
sbsg2158
g0
(g52
g2
Ntp2429
Rp2430
(dp2431
g25
I00
sg31
I01
sg32
I00
sg42
I208
sbsg2159
g0
(g38
g2
Ntp2432
Rp2433
(dp2434
g25
I00
sg31
I01
sg32
I00
sg42
F40.0
sbsg2160
g0
(g46
g47
(lp2435
F0.01
aF0.015
atp2436
Rp2437
(dp2438
g25
I00
sg31
I01
sg32
I00
sbsg2161
g0
(g46
g47
(lp2439
F0.26
aF0.254
atp2440
Rp2441
(dp2442
g25
I00
sg31
I01
sg32
I00
sbsg2162
g0
(g38
g2
Ntp2443
Rp2444
(dp2445
g25
I00
sg31
I01
sg32
I00
sg42
F0.0
sbsg2163
g0
(g38
g2
Ntp2446
Rp2447
(dp2448
g25
I00
sg31
I01
sg32
I00
sg42
F0.1
sbsg2164
g0
(g73
g2
Ntp2449
Rp2450
(dp2451
g25
I00
sg31
I01
sg32
I00
sg42
I01
sbsg2397
g0
(g693
g2
Ntp2452
Rp2453
(dp2454
g25
I00
sg31
I01
sg32
I00
sg17
(lp2455
VtemperatureBase
p2456
aVtemperatureNew
p2457
aVintlumiOffset
p2458
aVdepVsTemp
p2459
aVintlumiToNeutrons
p2460
aVdepVsNeutrons
p2461
asg26
Nsg2456
g0
(g38
g2
Ntp2462
Rp2463
(dp2464
g25
I00
sg31
I01
sg32
I00
sg42
I20
sbsg2457
g0
(g38
g2
Ntp2465
Rp2466
(dp2467
g25
I00
sg31
I01
sg32
I00
sg42
I-5
sbsg2458
g0
(g38
g2
Ntp2468
Rp2469
(dp2470
g25
I00
sg31
I01
sg32
I00
sg42
I150
sbsg2459
g0
(g38
g2
Ntp2471
Rp2472
(dp2473
g25
I00
sg31
I01
sg32
I00
sg42
F0.0631
sbsg2460
g0
(g38
g2
Ntp2474
Rp2475
(dp2476
g25
I00
sg31
I01
sg32
I00
sg42
F367000000.0
sbsg2461
g0
(g46
g47
(lp2477
F5.543e-10
aF8.012e-10
atp2478
Rp2479
(dp2480
g25
I00
sg31
I01
sg32
I00
sbsbsbsg2057
g0
(g693
g2
Ntp2481
Rp2482
(dp2483
g25
I00
sg31
I01
sg32
I00
sg17
(lp2484
g2149
ag2150
ag2151
ag2152
ag2153
ag2154
ag2155
ag2156
ag2157
ag2158
ag2159
ag2160
ag2161
ag2162
ag2163
ag2164
ag2397
asg26
Nsg2149
g0
(g38
g2
Ntp2485
Rp2486
(dp2487
g25
I00
sg31
I01
sg32
I00
sg42
F17.3
sbsg2150
g0
(g38
g2
Ntp2488
Rp2489
(dp2490
g25
I00
sg31
I01
sg32
I00
sg42
F1.5
sbsg2151
g0
(g46
g47
(lp2491
F0.0006252
atp2492
Rp2493
(dp2494
g25
I00
sg31
I01
sg32
I00
sbsg2152
g0
(g46
g47
(lp2495
I0
atp2496
Rp2497
(dp2498
g25
I00
sg31
I01
sg32
I00
sbsg2153
g0
(g52
g2
Ntp2499
Rp2500
(dp2501
g25
I00
sg31
I01
sg32
I00
sg42
I16
sbsg2154
g0
(g52
g2
Ntp2502
Rp2503
(dp2504
g25
I00
sg31
I01
sg32
I00
sg42
I2
sbsg2155
g0
(g46
g47
(lp2505
F0.0
aF0.0
aF0.0
aF0.0
atp2506
Rp2507
(dp2508
g25
I00
sg31
I01
sg32
I00
sbsg2156
g0
(g46
g47
(lp2509
F0.05376
aF0.05376
aF0.05376
aF0.05376
atp2510
Rp2511
(dp2512
g25
I00
sg31
I01
sg32
I00
sbsg2157
g0
(g52
g2
Ntp2513
Rp2514
(dp2515
g25
I00
sg31
I01
sg32
I00
sg42
I206
sbsg2158
g0
(g52
g2
Ntp2516
Rp2517
(dp2518
g25
I00
sg31
I01
sg32
I00
sg42
I208
sbsg2159
g0
(g38
g2
Ntp2519
Rp2520
(dp2521
g25
I00
sg31
I01
sg32
I00
sg42
F40.0
sbsg2160
g0
(g46
g47
(lp2522
F0.01
aF0.015
atp2523
Rp2524
(dp2525
g25
I00
sg31
I01
sg32
I00
sbsg2161
g0
(g46
g47
(lp2526
F0.26
aF0.254
atp2527
Rp2528
(dp2529
g25
I00
sg31
I01
sg32
I00
sbsg2162
g0
(g38
g2
Ntp2530
Rp2531
(dp2532
g25
I00
sg31
I01
sg32
I00
sg42
F0.0
sbsg2163
g0
(g38
g2
Ntp2533
Rp2534
(dp2535
g25
I00
sg31
I01
sg32
I00
sg42
F0.1
sbsg2164
g0
(g73
g2
Ntp2536
Rp2537
(dp2538
g25
I00
sg31
I01
sg32
I00
sg42
I01
sbsg2397
g0
(g693
g2
Ntp2539
Rp2540
(dp2541
g25
I00
sg31
I01
sg32
I00
sg17
(lp2542
g2456
ag2457
ag2458
ag2459
ag2460
ag2461
asg26
Nsg2456
g0
(g38
g2
Ntp2543
Rp2544
(dp2545
g25
I00
sg31
I01
sg32
I00
sg42
I20
sbsg2457
g0
(g38
g2
Ntp2546
Rp2547
(dp2548
g25
I00
sg31
I01
sg32
I00
sg42
I5
sbsg2458
g0
(g38
g2
Ntp2549
Rp2550
(dp2551
g25
I00
sg31
I01
sg32
I00
sg42
I75
sbsg2459
g0
(g38
g2
Ntp2552
Rp2553
(dp2554
g25
I00
sg31
I01
sg32
I00
sg42
F0.0631
sbsg2460
g0
(g38
g2
Ntp2555
Rp2556
(dp2557
g25
I00
sg31
I01
sg32
I00
sg42
F29200000.0
sbsg2461
g0
(g46
g47
(lp2558
F5.543e-10
aF8.012e-10
atp2559
Rp2560
(dp2561
g25
I00
sg31
I01
sg32
I00
sbsbsbsg2058
g0
(g693
g2
Ntp2562
Rp2563
(dp2564
g25
I00
sg31
I01
sg32
I00
sg17
(lp2565
g2149
ag2150
ag2151
ag2152
ag2153
ag2154
ag2155
ag2156
ag2157
ag2158
ag2159
ag2160
ag2161
ag2162
ag2163
ag2164
asg26
Nsg2149
g0
(g38
g2
Ntp2566
Rp2567
(dp2568
g25
I00
sg31
I01
sg32
I00
sg42
F13.33
sbsg2150
g0
(g38
g2
Ntp2569
Rp2570
(dp2571
g25
I00
sg31
I01
sg32
I00
sg42
F3.33
sbsg2151
g0
(g46
g47
(lp2572
F0.14
aF0.135
atp2573
Rp2574
(dp2575
g25
I00
sg31
I01
sg32
I00
sbsg2152
g0
(g46
g47
(lp2576
F0.0
aF0.0
atp2577
Rp2578
(dp2579
g25
I00
sg31
I01
sg32
I00
sbsg2153
g0
(g52
g2
Ntp2580
Rp2581
(dp2582
g25
I00
sg31
I01
sg32
I00
sg42
I-9999
sbsg2154
g0
(g52
g2
Ntp2583
Rp2584
(dp2585
g25
I00
sg31
I01
sg32
I00
sg42
I1
sbsg2155
g0
(g46
g47
(lp2586
F0.0697
aF-0.7405
aF12.38
aF-671.9
atp2587
Rp2588
(dp2589
g25
I00
sg31
I01
sg32
I00
sbsg2156
g0
(g46
g47
(lp2590
F0.297
aF0.298
aF0.298
aF0.313
atp2591
Rp2592
(dp2593
g25
I00
sg31
I01
sg32
I00
sbsg2157
g0
(g52
g2
Ntp2594
Rp2595
(dp2596
g25
I00
sg31
I01
sg32
I00
sg42
I301
sbsg2158
g0
(g52
g2
Ntp2597
Rp2598
(dp2599
g25
I00
sg31
I01
sg32
I00
sg42
I301
sbsg2159
g0
(g38
g2
Ntp2600
Rp2601
(dp2602
g25
I00
sg31
I01
sg32
I00
sg42
F0.0
sbsg2160
g0
(g46
g47
(lp2603
F0.0
atp2604
Rp2605
(dp2606
g25
I00
sg31
I01
sg32
I00
sbsg2161
g0
(g46
g47
(lp2607
F0.0
atp2608
Rp2609
(dp2610
g25
I00
sg31
I01
sg32
I00
sbsg2162
g0
(g38
g2
Ntp2611
Rp2612
(dp2613
g25
I00
sg31
I01
sg32
I00
sg42
F0.0
sbsg2163
g0
(g38
g2
Ntp2614
Rp2615
(dp2616
g25
I00
sg31
I01
sg32
I00
sg42
F0.1
sbsg2164
g0
(g73
g2
Ntp2617
Rp2618
(dp2619
g25
I00
sg31
I01
sg32
I00
sg42
I00
sbsbsg2059
g0
(g691
g47
(lp2620
g0
(g693
g2
Ntp2621
Rp2622
(dp2623
g25
I00
sg31
I01
sg32
I00
sg17
(lp2624
Vpixels
p2625
aVcrosstalk
p2626
aVnonlin1
p2627
aVnonlin2
p2628
aVnonlin3
p2629
asg26
Nsg2625
g0
(g52
g2
Ntp2630
Rp2631
(dp2632
g25
I00
sg31
I01
sg32
I00
sg42
I36000
sbsg2626
g0
(g38
g2
Ntp2633
Rp2634
(dp2635
g25
I00
sg31
I01
sg32
I00
sg42
F0.0
sbsg2627
g0
(g38
g2
Ntp2636
Rp2637
(dp2638
g25
I00
sg31
I01
sg32
I00
sg42
F1.0
sbsg2628
g0
(g38
g2
Ntp2639
Rp2640
(dp2641
g25
I00
sg31
I01
sg32
I00
sg42
F0.0
sbsg2629
g0
(g38
g2
Ntp2642
Rp2643
(dp2644
g25
I00
sg31
I01
sg32
I00
sg42
F0.0
sbsbag0
(g693
g2
Ntp2645
Rp2646
(dp2647
g25
I00
sg31
I01
sg32
I00
sg17
(lp2648
g2625
ag2626
ag2627
ag2628
ag2629
asg26
Nsg2625
g0
(g52
g2
Ntp2649
Rp2650
(dp2651
g25
I00
sg31
I01
sg32
I00
sg42
I2500
sbsg2626
g0
(g38
g2
Ntp2652
Rp2653
(dp2654
g25
I00
sg31
I01
sg32
I00
sg42
F0.0
sbsg2627
g0
(g38
g2
Ntp2655
Rp2656
(dp2657
g25
I00
sg31
I01
sg32
I00
sg42
F1.0
sbsg2628
g0
(g38
g2
Ntp2658
Rp2659
(dp2660
g25
I00
sg31
I01
sg32
I00
sg42
F0.0
sbsg2629
g0
(g38
g2
Ntp2661
Rp2662
(dp2663
g25
I00
sg31
I01
sg32
I00
sg42
F0.0
sbsbag0
(g693
g2
Ntp2664
Rp2665
(dp2666
g25
I00
sg31
I01
sg32
I00
sg17
(lp2667
g2625
ag2626
ag2627
ag2628
ag2629
asg26
Nsg2625
g0
(g52
g2
Ntp2668
Rp2669
(dp2670
g25
I00
sg31
I01
sg32
I00
sg42
I27370
sbsg2626
g0
(g38
g2
Ntp2671
Rp2672
(dp2673
g25
I00
sg31
I01
sg32
I00
sg42
F0.17
sbsg2627
g0
(g38
g2
Ntp2674
Rp2675
(dp2676
g25
I00
sg31
I01
sg32
I00
sg42
F1.00985
sbsg2628
g0
(g38
g2
Ntp2677
Rp2678
(dp2679
g25
I00
sg31
I01
sg32
I00
sg42
F7.84089e-06
sbsg2629
g0
(g38
g2
Ntp2680
Rp2681
(dp2682
g25
I00
sg31
I01
sg32
I00
sg42
F2.86282e-10
sbsbag0
(g693
g2
Ntp2683
Rp2684
(dp2685
g25
I00
sg31
I01
sg32
I00
sg17
(lp2686
g2625
ag2626
ag2627
ag2628
ag2629
asg26
Nsg2625
g0
(g52
g2
Ntp2687
Rp2688
(dp2689
g25
I00
sg31
I01
sg32
I00
sg42
I38018
sbsg2626
g0
(g38
g2
Ntp2690
Rp2691
(dp2692
g25
I00
sg31
I01
sg32
I00
sg42
F0.196
sbsg2627
g0
(g38
g2
Ntp2693
Rp2694
(dp2695
g25
I00
sg31
I01
sg32
I00
sg42
F1.00546
sbsg2628
g0
(g38
g2
Ntp2696
Rp2697
(dp2698
g25
I00
sg31
I01
sg32
I00
sg42
F6.40239e-06
sbsg2629
g0
(g38
g2
Ntp2699
Rp2700
(dp2701
g25
I00
sg31
I01
sg32
I00
sg42
F1.27011e-10
sbsbag0
(g693
g2
Ntp2702
Rp2703
(dp2704
g25
I00
sg31
I01
sg32
I00
sg17
(lp2705
g2625
ag2626
ag2627
ag2628
ag2629
asg26
Nsg2625
g0
(g52
g2
Ntp2706
Rp2707
(dp2708
g25
I00
sg31
I01
sg32
I00
sg42
I27370
sbsg2626
g0
(g38
g2
Ntp2709
Rp2710
(dp2711
g25
I00
sg31
I01
sg32
I00
sg42
F0.17
sbsg2627
g0
(g38
g2
Ntp2712
Rp2713
(dp2714
g25
I00
sg31
I01
sg32
I00
sg42
F1.00985
sbsg2628
g0
(g38
g2
Ntp2715
Rp2716
(dp2717
g25
I00
sg31
I01
sg32
I00
sg42
F7.84089e-06
sbsg2629
g0
(g38
g2
Ntp2718
Rp2719
(dp2720
g25
I00
sg31
I01
sg32
I00
sg42
F2.86282e-10
sbsbag0
(g693
g2
Ntp2721
Rp2722
(dp2723
g25
I00
sg31
I01
sg32
I00
sg17
(lp2724
g2625
ag2626
ag2627
ag2628
ag2629
asg26
Nsg2625
g0
(g52
g2
Ntp2725
Rp2726
(dp2727
g25
I00
sg31
I01
sg32
I00
sg42
I38018
sbsg2626
g0
(g38
g2
Ntp2728
Rp2729
(dp2730
g25
I00
sg31
I01
sg32
I00
sg42
F0.196
sbsg2627
g0
(g38
g2
Ntp2731
Rp2732
(dp2733
g25
I00
sg31
I01
sg32
I00
sg42
F1.00546
sbsg2628
g0
(g38
g2
Ntp2734
Rp2735
(dp2736
g25
I00
sg31
I01
sg32
I00
sg42
F6.40239e-06
sbsg2629
g0
(g38
g2
Ntp2737
Rp2738
(dp2739
g25
I00
sg31
I01
sg32
I00
sg42
F1.27011e-10
sbsbag0
(g693
g2
Ntp2740
Rp2741
(dp2742
g25
I00
sg31
I01
sg32
I00
sg17
(lp2743
g2625
ag2626
ag2627
ag2628
ag2629
asg26
Nsg2625
g0
(g52
g2
Ntp2744
Rp2745
(dp2746
g25
I00
sg31
I01
sg32
I00
sg42
I0
sbsg2626
g0
(g38
g2
Ntp2747
Rp2748
(dp2749
g25
I00
sg31
I01
sg32
I00
sg42
F0.0
sbsg2627
g0
(g38
g2
Ntp2750
Rp2751
(dp2752
g25
I00
sg31
I01
sg32
I00
sg42
F1.0
sbsg2628
g0
(g38
g2
Ntp2753
Rp2754
(dp2755
g25
I00
sg31
I01
sg32
I00
sg42
F0.0
sbsg2629
g0
(g38
g2
Ntp2756
Rp2757
(dp2758
g25
I00
sg31
I01
sg32
I00
sg42
F0.0
sbsbatp2759
Rp2760
(dp2761
g25
I00
sg31
I01
sg32
I00
sg451
I1
sbsg59
V/cvmfs/cms.cern.ch/el8_amd64_gcc11/cms/cmssw-patch/CMSSW_13_2_5_patch1/src/CalibCalorimetry/HcalPlugins/python/Hcal_Conditions_forGlobalTag_cff.py
p2762
sg61
I16
sg62
g2027
sbssV_Process__esproducers
p2763
(dp2764
VCSCGeometryESModule
p2765
g0
(cFWCore.ParameterSet.Modules
ESProducer
p2766
g2
Ntp2767
Rp2768
(dp2769
g15
g2765
sg17
(lp2770
VfromDDD
p2771
aVfromDD4hep
p2772
aValignmentsLabel
p2773
ag1862
aVuseRealWireGeometry
p2774
aVuseOnlyWiresInME1a
p2775
aVuseGangedStripsInME1a
p2776
aVuseCentreTIOffsets
p2777
aVapplyAlignment
p2778
aVdebugV
p2779
asg25
I00
sg26
Nsg2771
g0
(g73
g2
Ntp2780
Rp2781
(dp2782
g25
I00
sg31
I01
sg32
I00
sg42
I00
sbsg32
I00
sg2772
g0
(g73
g2
Ntp2783
Rp2784
(dp2785
g25
I00
sg31
I01
sg32
I00
sg42
I00
sbsg2773
g0
(g121
g2
Ntp2786
Rp2787
(dp2788
g25
I00
sg31
I01
sg32
I00
sg42
g36
sbsg1862
g0
(g121
g2
Ntp2789
Rp2790
(dp2791
g25
I00
sg31
I01
sg32
I00
sg42
g36
sbsg2774
g0
(g73
g2
Ntp2792
Rp2793
(dp2794
g25
I00
sg31
I01
sg32
I00
sg42
I01
sbsg2775
g0
(g73
g2
Ntp2795
Rp2796
(dp2797
g25
I00
sg31
I01
sg32
I00
sg42
I00
sbsg2776
g0
(g73
g2
Ntp2798
Rp2799
(dp2800
g25
I00
sg31
I01
sg32
I00
sg42
I01
sbsg2777
g0
(g73
g2
Ntp2801
Rp2802
(dp2803
g25
I00
sg31
I01
sg32
I00
sg42
I00
sbsg2778
g0
(g73
g2
Ntp2804
Rp2805
(dp2806
g25
I00
sg31
I01
sg32
I00
sg42
I01
sbsg2779
g0
(g73
g2
Ntp2807
Rp2808
(dp2809
g25
I00
sg31
I00
sg32
I00
sg42
I00
sbsg59
g660
sg61
I55
sg62
g2765
sbsVCaloGeometryBuilder
p2810
g0
(g2766
g2
Ntp2811
Rp2812
(dp2813
g15
g2810
sg17
(lp2814
VSelectedCalos
p2815
asg25
I00
sg26
Nsg2815
g0
(g105
g47
(lp2816
VHCAL
p2817
aVZDC
p2818
aVCASTOR
p2819
aVEcalBarrel
p2820
aVEcalEndcap
p2821
aVEcalPreshower
p2822
aVTOWER
p2823
atp2824
Rp2825
(dp2826
g25
I00
sg31
I01
sg32
I00
sg451
I1
sbsg32
I00
sg59
g660
sg61
I55
sg62
g2810
sbsVCaloTopologyBuilder
p2827
g0
(g2766
g2
Ntp2828
Rp2829
(dp2830
g15
g2827
sg17
(lp2831
sg25
I00
sg26
Nsg32
I00
sg59
g660
sg61
I55
sg62
g2827
sbsVCaloTowerGeometryFromDBEP
p2832
g0
(g2766
g2
Ntp2833
Rp2834
(dp2835
g15
g2832
sg17
(lp2836
g2778
asg25
I00
sg26
Nsg2778
g0
(g73
g2
Ntp2837
Rp2838
(dp2839
g25
I00
sg31
I01
sg32
I00
sg42
I00
sbsg32
I00
sg59
g660
sg61
I55
sg62
g2832
sbsVCaloTowerTopologyEP
p2840
g0
(g2766
g2
Ntp2841
Rp2842
(dp2843
g15
g2840
sg17
(lp2844
sg25
I00
sg26
Nsg32
I00
sg59
g660
sg61
I55
sg62
g2840
sbsVCastorGeometryFromDBEP
p2845
g0
(g2766
g2
Ntp2846
Rp2847
(dp2848
g15
g2845
sg17
(lp2849
g2778
asg25
I00
sg26
Nsg2778
g0
(g73
g2
Ntp2850
Rp2851
(dp2852
g25
I00
sg31
I01
sg32
I00
sg42
I00
sbsg32
I00
sg59
g660
sg61
I55
sg62
g2845
sbsVDTGeometryESModule
p2853
g0
(g2766
g2
Ntp2854
Rp2855
(dp2856
g15
g2853
sg17
(lp2857
g2771
ag2772
aVDDDetector
p2858
ag2773
ag1862
aVattribute
p2859
aVvalue
p2860
ag2778
asg25
I00
sg26
Nsg2771
g0
(g73
g2
Ntp2861
Rp2862
(dp2863
g25
I00
sg31
I01
sg32
I01
sg42
I00
sbsg32
I01
sg2772
g0
(g73
g2
Ntp2864
Rp2865
(dp2866
g25
I00
sg31
I01
sg32
I00
sg42
I00
sbsg2858
g0
(cFWCore.ParameterSet.Types
ESInputTag
p2867
g2
Ntp2868
Rp2869
(dp2870
g25
I00
sg31
I01
sg32
I00
sV_ESInputTag__moduleLabel
p2871
g36
sV_ESInputTag__data
p2872
g36
sbsg2773
g0
(g121
g2
Ntp2873
Rp2874
(dp2875
g25
I00
sg31
I01
sg32
I00
sg42
g36
sbsg1862
g0
(g121
g2
Ntp2876
Rp2877
(dp2878
g25
I00
sg31
I01
sg32
I00
sg42
g36
sbsg2859
g0
(g121
g2
Ntp2879
Rp2880
(dp2881
g25
I00
sg31
I01
sg32
I00
sg42
VMuStructure
p2882
sbsg2860
g0
(g121
g2
Ntp2883
Rp2884
(dp2885
g25
I00
sg31
I01
sg32
I00
sg42
VMuonBarrelDT
p2886
sbsg2778
g0
(g73
g2
Ntp2887
Rp2888
(dp2889
g25
I00
sg31
I01
sg32
I00
sg42
I01
sbsg59
g660
sg61
I55
sg62
g2853
sbsVEcalBarrelGeometryFromDBEP
p2890
g0
(g2766
g2
Ntp2891
Rp2892
(dp2893
g15
g2890
sg17
(lp2894
g2778
asg25
I00
sg26
Nsg2778
g0
(g73
g2
Ntp2895
Rp2896
(dp2897
g25
I00
sg31
I01
sg32
I01
sg42
I01
sbsg32
I01
sg59
g660
sg61
I55
sg62
g2890
sbsVEcalElectronicsMappingBuilder
p2898
g0
(g2766
g2
Ntp2899
Rp2900
(dp2901
g15
g2898
sg17
(lp2902
sg25
I00
sg26
Nsg32
I00
sg59
g660
sg61
I55
sg62
g2898
sbsVEcalEndcapGeometryFromDBEP
p2903
g0
(g2766
g2
Ntp2904
Rp2905
(dp2906
g15
g2903
sg17
(lp2907
g2778
asg25
I00
sg26
Nsg2778
g0
(g73
g2
Ntp2908
Rp2909
(dp2910
g25
I00
sg31
I01
sg32
I01
sg42
I01
sbsg32
I01
sg59
g660
sg61
I55
sg62
g2903
sbsVEcalPreshowerGeometryFromDBEP
p2911
g0
(g2766
g2
Ntp2912
Rp2913
(dp2914
g15
g2911
sg17
(lp2915
g2778
asg25
I00
sg26
Nsg2778
g0
(g73
g2
Ntp2916
Rp2917
(dp2918
g25
I00
sg31
I01
sg32
I01
sg42
I01
sbsg32
I01
sg59
g660
sg61
I55
sg62
g2911
sbsVEcalTrigTowerConstituentsMapBuilder
p2919
g0
(g2766
g2
Ntp2920
Rp2921
(dp2922
g15
g2919
sg17
(lp2923
VMapFile
p2924
asg25
I00
sg26
Nsg2924
g0
(g121
g2
Ntp2925
Rp2926
(dp2927
g25
I00
sg31
I00
sg32
I00
sg42
VGeometry/EcalMapping/data/EndCap_TTMap.txt
p2928
sbsg32
I00
sg59
g660
sg61
I55
sg62
g2919
sbsVGlobalTrackingGeometryESProducer
p2929
g0
(g2766
g2
Ntp2930
Rp2931
(dp2932
g15
g2929
sg17
(lp2933
sg25
I00
sg26
Nsg32
I00
sg59
g660
sg61
I55
sg62
g2929
sbsVHcalAlignmentEP
p2934
g0
(g2766
g2
Ntp2935
Rp2936
(dp2937
g15
g2934
sg17
(lp2938
sg25
I00
sg26
Nsg32
I00
sg59
g660
sg61
I55
sg62
g2934
sbsVHcalGeometryFromDBEP
p2939
g0
(g2766
g2
Ntp2940
Rp2941
(dp2942
g15
g2939
sg17
(lp2943
g2778
asg25
I00
sg26
Nsg2778
g0
(g73
g2
Ntp2944
Rp2945
(dp2946
g25
I00
sg31
I01
sg32
I01
sg42
I01
sbsg32
I01
sg59
g660
sg61
I55
sg62
g2939
sbsVMuonDetLayerGeometryESProducer
p2947
g0
(g2766
g2
Ntp2948
Rp2949
(dp2950
g15
g2947
sg17
(lp2951
sg25
I00
sg26
Nsg32
I00
sg59
g660
sg61
I55
sg62
g2947
sbsVRPCGeometryESModule
p2952
g0
(g2766
g2
Ntp2953
Rp2954
(dp2955
g15
g2952
sg17
(lp2956
g2771
ag2772
asg25
I00
sg26
Nsg2771
g0
(g73
g2
Ntp2957
Rp2958
(dp2959
g25
I00
sg31
I00
sg32
I00
sg42
I00
sbsg32
I00
sg2772
g0
(g73
g2
Ntp2960
Rp2961
(dp2962
g25
I00
sg31
I00
sg32
I00
sg42
I00
sbsg59
g660
sg61
I55
sg62
g2952
sbsVTrackerRecoGeometryESProducer
p2963
g0
(g2766
g2
Ntp2964
Rp2965
(dp2966
g15
g2963
sg17
(lp2967
VusePhase2Stacks
p2968
asg25
I00
sg26
Nsg2968
g0
(g73
g2
Ntp2969
Rp2970
(dp2971
g25
I00
sg31
I01
sg32
I00
sg42
I00
sbsg32
I00
sg59
g660
sg61
I55
sg62
g2963
sbsVZdcGeometryFromDBEP
p2972
g0
(g2766
g2
Ntp2973
Rp2974
(dp2975
g15
g2972
sg17
(lp2976
g2778
asg25
I00
sg26
Nsg2778
g0
(g73
g2
Ntp2977
Rp2978
(dp2979
g25
I00
sg31
I01
sg32
I00
sg42
I00
sbsg32
I00
sg59
g660
sg61
I55
sg62
g2972
sbsVfakeForIdealAlignment
p2980
g0
(g2766
g2
Ntp2981
Rp2982
(dp2983
g15
VFakeAlignmentProducer
p2984
sg17
(lp2985
g1862
asg25
I00
sg26
Nsg1862
g0
(g121
g2
Ntp2986
Rp2987
(dp2988
g25
I00
sg31
I01
sg32
I01
sg42
VfakeForIdeal
p2989
sbsg32
I01
sg59
V/cvmfs/cms.cern.ch/el8_amd64_gcc11/cms/cmssw-patch/CMSSW_13_2_5_patch1/src/Alignment/CommonAlignmentProducer/python/fakeForIdealAlignmentProducer_cfi.py
p2990
sg61
I5
sg62
g2980
sbsVhcalDDDRecConstants
p2991
g0
(g2766
g2
Ntp2992
Rp2993
(dp2994
g15
VHcalDDDRecConstantsESModule
p2995
sg17
(lp2996
g1862
asg25
I00
sg26
Nsg1862
g0
(g121
g2
Ntp2997
Rp2998
(dp2999
g25
I00
sg31
I01
sg32
I00
sg42
g36
sbsg32
I00
sg59
g660
sg61
I55
sg62
g2991
sbsVhcalDDDSimConstants
p3000
g0
(g2766
g2
Ntp3001
Rp3002
(dp3003
g15
VHcalDDDSimConstantsESModule
p3004
sg17
(lp3005
g1862
asg25
I00
sg26
Nsg1862
g0
(g121
g2
Ntp3006
Rp3007
(dp3008
g25
I00
sg31
I01
sg32
I00
sg42
g36
sbsg32
I00
sg59
g660
sg61
I55
sg62
g3000
sbsVhcalTopologyIdeal
p3009
g0
(g2766
g2
Ntp3010
Rp3011
(dp3012
g15
VHcalTopologyIdealEP
p3013
sg17
(lp3014
VExclude
p3015
aVMergePosition
p3016
ag1862
asg25
I00
sg26
Nsg3015
g0
(g121
g2
Ntp3017
Rp3018
(dp3019
g25
I00
sg31
I00
sg32
I00
sg42
g36
sbsg32
I00
sg3016
g0
(g73
g2
Ntp3020
Rp3021
(dp3022
g25
I00
sg31
I00
sg32
I00
sg42
I00
sbsg1862
g0
(g121
g2
Ntp3023
Rp3024
(dp3025
g25
I00
sg31
I01
sg32
I00
sg42
g36
sbsg59
g660
sg61
I55
sg62
g3009
sbsVidealForDigiCSCGeometry
p3026
g0
(g2766
g2
Ntp3027
Rp3028
(dp3029
g15
g2765
sg17
(lp3030
g2771
ag2772
ag2773
ag1862
ag2774
ag2775
ag2776
ag2777
ag2778
ag2779
asg25
I00
sg26
Nsg2771
g0
(g73
g2
Ntp3031
Rp3032
(dp3033
g25
I00
sg31
I01
sg32
I00
sg42
I00
sbsg32
I01
sg2772
g0
(g73
g2
Ntp3034
Rp3035
(dp3036
g25
I00
sg31
I01
sg32
I00
sg42
I00
sbsg2773
g0
(g121
g2
Ntp3037
Rp3038
(dp3039
g25
I00
sg31
I01
sg32
I01
sg42
g2989
sbsg1862
g0
(g121
g2
Ntp3040
Rp3041
(dp3042
g25
I00
sg31
I01
sg32
I01
sg42
VidealForDigi
p3043
sbsg2774
g0
(g73
g2
Ntp3044
Rp3045
(dp3046
g25
I00
sg31
I01
sg32
I00
sg42
I01
sbsg2775
g0
(g73
g2
Ntp3047
Rp3048
(dp3049
g25
I00
sg31
I01
sg32
I00
sg42
I00
sbsg2776
g0
(g73
g2
Ntp3050
Rp3051
(dp3052
g25
I00
sg31
I01
sg32
I00
sg42
I01
sbsg2777
g0
(g73
g2
Ntp3053
Rp3054
(dp3055
g25
I00
sg31
I01
sg32
I00
sg42
I00
sbsg2778
g0
(g73
g2
Ntp3056
Rp3057
(dp3058
g25
I00
sg31
I01
sg32
I01
sg42
I00
sbsg2779
g0
(g73
g2
Ntp3059
Rp3060
(dp3061
g25
I00
sg31
I00
sg32
I00
sg42
I00
sbsg59
V/cvmfs/cms.cern.ch/el8_amd64_gcc11/cms/cmssw-patch/CMSSW_13_2_5_patch1/src/Geometry/CSCGeometryBuilder/python/idealForDigiCscGeometryDB_cff.py
p3062
sg61
I8
sg62
g3026
sbsVidealForDigiDTGeometry
p3063
g0
(g2766
g2
Ntp3064
Rp3065
(dp3066
g15
g2853
sg17
(lp3067
g2771
ag2772
ag2858
ag2773
ag1862
ag2859
ag2860
ag2778
asg25
I00
sg26
Nsg2771
g0
(g73
g2
Ntp3068
Rp3069
(dp3070
g25
I00
sg31
I01
sg32
I01
sg42
I00
sbsg32
I01
sg2772
g0
(g73
g2
Ntp3071
Rp3072
(dp3073
g25
I00
sg31
I01
sg32
I00
sg42
I00
sbsg2858
g0
(g2867
g2
Ntp3074
Rp3075
(dp3076
g25
I00
sg31
I01
sg32
I00
sg2871
g36
sg2872
g36
sbsg2773
g0
(g121
g2
Ntp3077
Rp3078
(dp3079
g25
I00
sg31
I01
sg32
I01
sg42
g2989
sbsg1862
g0
(g121
g2
Ntp3080
Rp3081
(dp3082
g25
I00
sg31
I01
sg32
I01
sg42
g3043
sbsg2859
g0
(g121
g2
Ntp3083
Rp3084
(dp3085
g25
I00
sg31
I01
sg32
I00
sg42
g2882
sbsg2860
g0
(g121
g2
Ntp3086
Rp3087
(dp3088
g25
I00
sg31
I01
sg32
I00
sg42
g2886
sbsg2778
g0
(g73
g2
Ntp3089
Rp3090
(dp3091
g25
I00
sg31
I01
sg32
I01
sg42
I00
sbsg59
V/cvmfs/cms.cern.ch/el8_amd64_gcc11/cms/cmssw-patch/CMSSW_13_2_5_patch1/src/Geometry/DTGeometryBuilder/python/idealForDigiDtGeometryDB_cff.py
p3092
sg61
I8
sg62
g3063
sbsVidealForDigiTrackerGeometry
p3093
g0
(g2766
g2
Ntp3094
Rp3095
(dp3096
g15
VTrackerDigiGeometryESModule
p3097
sg17
(lp3098
g1862
ag2771
ag2778
ag2773
asg25
I00
sg26
Nsg1862
g0
(g121
g2
Ntp3099
Rp3100
(dp3101
g25
I00
sg31
I01
sg32
I01
sg42
g3043
sbsg32
I01
sg2771
g0
(g73
g2
Ntp3102
Rp3103
(dp3104
g25
I00
sg31
I01
sg32
I00
sg42
I00
sbsg2778
g0
(g73
g2
Ntp3105
Rp3106
(dp3107
g25
I00
sg31
I01
sg32
I01
sg42
I00
sbsg2773
g0
(g121
g2
Ntp3108
Rp3109
(dp3110
g25
I00
sg31
I01
sg32
I01
sg42
g2989
sbsg59
V/cvmfs/cms.cern.ch/el8_amd64_gcc11/cms/cmssw-patch/CMSSW_13_2_5_patch1/src/Geometry/TrackerGeometryBuilder/python/idealForDigiTrackerGeometryDB_cff.py
p3111
sg61
I8
sg62
g3093
sbsVmuonGeometryConstants
p3112
g0
(g2766
g2
Ntp3113
Rp3114
(dp3115
g15
VMuonGeometryConstantsESModule
p3116
sg17
(lp3117
g2772
ag1862
asg25
I00
sg26
Nsg2772
g0
(g73
g2
Ntp3118
Rp3119
(dp3120
g25
I00
sg31
I01
sg32
I00
sg42
I00
sbsg32
I00
sg1862
g0
(g121
g2
Ntp3121
Rp3122
(dp3123
g25
I00
sg31
I01
sg32
I00
sg42
g36
sbsg59
g660
sg61
I55
sg62
g3112
sbsVtrackerGeometryDB
p3124
g0
(g2766
g2
Ntp3125
Rp3126
(dp3127
g15
g3097
sg17
(lp3128
g1862
ag2771
ag2778
ag2773
asg25
I00
sg26
Nsg1862
g0
(g121
g2
Ntp3129
Rp3130
(dp3131
g25
I00
sg31
I01
sg32
I00
sg42
g36
sbsg32
I00
sg2771
g0
(g73
g2
Ntp3132
Rp3133
(dp3134
g25
I00
sg31
I01
sg32
I00
sg42
I00
sbsg2778
g0
(g73
g2
Ntp3135
Rp3136
(dp3137
g25
I00
sg31
I01
sg32
I00
sg42
I01
sbsg2773
g0
(g121
g2
Ntp3138
Rp3139
(dp3140
g25
I00
sg31
I01
sg32
I00
sg42
g36
sbsg59
g660
sg61
I55
sg62
g3124
sbsVtrackerNumberingGeometryDB
p3141
g0
(g2766
g2
Ntp3142
Rp3143
(dp3144
g15
VTrackerGeometricDetESModule
p3145
sg17
(lp3146
g2771
ag2772
ag1862
asg25
I00
sg26
Nsg2771
g0
(g73
g2
Ntp3147
Rp3148
(dp3149
g25
I00
sg31
I01
sg32
I00
sg42
I00
sbsg32
I00
sg2772
g0
(g73
g2
Ntp3150
Rp3151
(dp3152
g25
I00
sg31
I01
sg32
I00
sg42
I00
sbsg1862
g0
(g121
g2
Ntp3153
Rp3154
(dp3155
g25
I00
sg31
I01
sg32
I00
sg42
g36
sbsg59
g660
sg61
I55
sg62
g3141
sbsVtrackerTopology
p3156
g0
(g2766
g2
Ntp3157
Rp3158
(dp3159
g15
VTrackerTopologyEP
p3160
sg17
(lp3161
g1862
asg25
I00
sg26
Nsg1862
g0
(g121
g2
Ntp3162
Rp3163
(dp3164
g25
I00
sg31
I01
sg32
I00
sg42
g36
sbsg32
I00
sg59
g660
sg61
I55
sg62
g3156
sbsVMuonNumberingInitialization
p3165
g0
(g2766
g2
Ntp3166
Rp3167
(dp3168
g15
g3165
sg17
(lp3169
sg25
I00
sg26
Nsg32
I00
sg59
g660
sg61
I55
sg62
g3165
sbsVXMLFromDBSource
p3170
g0
(g2766
g2
Ntp3171
Rp3172
(dp3173
g15
VXMLIdealGeometryESProducer
p3174
sg17
(lp3175
VrootDDName
p3176
ag1816
asg25
I00
sg26
Nsg3176
g0
(g121
g2
Ntp3177
Rp3178
(dp3179
g25
I00
sg31
I01
sg32
I00
sg42
Vcms:OCMS
p3180
sbsg32
I00
sg1816
g0
(g121
g2
Ntp3181
Rp3182
(dp3183
g25
I00
sg31
I01
sg32
I00
sg42
VExtended
p3184
sbsg59
g660
sg61
I55
sg62
g3170
sbsVcaloSimulationParameters
p3185
g0
(g2766
g2
Ntp3186
Rp3187
(dp3188
g15
VCaloSimParametersESModule
p3189
sg17
(lp3190
g2772
ag1862
asg25
I00
sg26
Nsg2772
g0
(g73
g2
Ntp3191
Rp3192
(dp3193
g25
I00
sg31
I01
sg32
I00
sg42
I00
sbsg32
I00
sg1862
g0
(g121
g2
Ntp3194
Rp3195
(dp3196
g25
I00
sg31
I01
sg32
I00
sg42
g36
sbsg59
g660
sg61
I55
sg62
g3185
sbsVecalSimulationParametersEB
p3197
g0
(g2766
g2
Ntp3198
Rp3199
(dp3200
g15
VEcalSimParametersESModule
p3201
sg17
(lp3202
g2772
aVname
p3203
ag1862
asg25
I00
sg26
Nsg2772
g0
(g73
g2
Ntp3204
Rp3205
(dp3206
g25
I00
sg31
I01
sg32
I00
sg42
I00
sbsg32
I00
sg3203
g0
(g121
g2
Ntp3207
Rp3208
(dp3209
g25
I00
sg31
I01
sg32
I00
sg42
VEcalHitsEB
p3210
sbsg1862
g0
(g121
g2
Ntp3211
Rp3212
(dp3213
g25
I00
sg31
I01
sg32
I00
sg42
g36
sbsg59
g660
sg61
I55
sg62
g3197
sbsVecalSimulationParametersEE
p3214
g0
(g2766
g2
Ntp3215
Rp3216
(dp3217
g15
g3201
sg17
(lp3218
g2772
ag3203
ag1862
asg25
I00
sg26
Nsg2772
g0
(g73
g2
Ntp3219
Rp3220
(dp3221
g25
I00
sg31
I01
sg32
I00
sg42
I00
sbsg32
I00
sg3203
g0
(g121
g2
Ntp3222
Rp3223
(dp3224
g25
I00
sg31
I01
sg32
I01
sg42
VEcalHitsEE
p3225
sbsg1862
g0
(g121
g2
Ntp3226
Rp3227
(dp3228
g25
I00
sg31
I01
sg32
I00
sg42
g36
sbsg59
V/cvmfs/cms.cern.ch/el8_amd64_gcc11/cms/cmssw-patch/CMSSW_13_2_5_patch1/src/Geometry/EcalCommonData/python/ecalSimulationParameters_cff.py
p3229
sg61
I11
sg62
g3214
sbsVecalSimulationParametersES
p3230
g0
(g2766
g2
Ntp3231
Rp3232
(dp3233
g15
g3201
sg17
(lp3234
g2772
ag3203
ag1862
asg25
I00
sg26
Nsg2772
g0
(g73
g2
Ntp3235
Rp3236
(dp3237
g25
I00
sg31
I01
sg32
I00
sg42
I00
sbsg32
I00
sg3203
g0
(g121
g2
Ntp3238
Rp3239
(dp3240
g25
I00
sg31
I01
sg32
I01
sg42
VEcalHitsES
p3241
sbsg1862
g0
(g121
g2
Ntp3242
Rp3243
(dp3244
g25
I00
sg31
I01
sg32
I00
sg42
g36
sbsg59
g3229
sg61
I14
sg62
g3230
sbsVhcalSimulationConstants
p3245
g0
(g2766
g2
Ntp3246
Rp3247
(dp3248
g15
VHcalSimulationConstantsESModule
p3249
sg17
(lp3250
g1862
asg25
I00
sg26
Nsg1862
g0
(g121
g2
Ntp3251
Rp3252
(dp3253
g25
I00
sg31
I01
sg32
I00
sg42
g36
sbsg32
I00
sg59
g660
sg61
I55
sg62
g3245
sbsVhcalSimulationParameters
p3254
g0
(g2766
g2
Ntp3255
Rp3256
(dp3257
g15
VHcalSimParametersESModule
p3258
sg17
(lp3259
g2772
ag1862
asg25
I00
sg26
Nsg2772
g0
(g73
g2
Ntp3260
Rp3261
(dp3262
g25
I00
sg31
I01
sg32
I00
sg42
I00
sbsg32
I00
sg1862
g0
(g121
g2
Ntp3263
Rp3264
(dp3265
g25
I00
sg31
I01
sg32
I00
sg42
g36
sbsg59
g660
sg61
I55
sg62
g3254
sbsVmuonOffsetESProducer
p3266
g0
(g2766
g2
Ntp3267
Rp3268
(dp3269
g15
VMuonOffsetESProducer
p3270
sg17
(lp3271
g2772
aVnames
p3272
ag1862
asg25
I00
sg26
Nsg2772
g0
(g73
g2
Ntp3273
Rp3274
(dp3275
g25
I00
sg31
I01
sg32
I00
sg42
I00
sbsg32
I00
sg3272
g0
(g105
g47
(lp3276
VMuonCommonNumbering
p3277
aVMuonBarrel
p3278
aVMuonEndcap
p3279
aVMuonBarrelWheels
p3280
aVMuonBarrelStation1
p3281
aVMuonBarrelStation2
p3282
aVMuonBarrelStation3
p3283
aVMuonBarrelStation4
p3284
aVMuonBarrelSuperLayer
p3285
aVMuonBarrelLayer
p3286
aVMuonBarrelWire
p3287
aVMuonRpcPlane1I
p3288
aVMuonRpcPlane1O
p3289
aVMuonRpcPlane2I
p3290
aVMuonRpcPlane2O
p3291
aVMuonRpcPlane3S
p3292
aVMuonRpcPlane4
p3293
aVMuonRpcChamberLeft
p3294
aVMuonRpcChamberMiddle
p3295
aVMuonRpcChamberRight
p3296
aVMuonRpcEndcap1
p3297
aVMuonRpcEndcap2
p3298
aVMuonRpcEndcap3
p3299
aVMuonRpcEndcap4
p3300
aVMuonRpcEndcapSector
p3301
aVMuonRpcEndcapChamberB1
p3302
aVMuonRpcEndcapChamberB2
p3303
aVMuonRpcEndcapChamberB3
p3304
aVMuonRpcEndcapChamberC1
p3305
aVMuonRpcEndcapChamberC2
p3306
aVMuonRpcEndcapChamberC3
p3307
aVMuonRpcEndcapChamberE1
p3308
aVMuonRpcEndcapChamberE2
p3309
aVMuonRpcEndcapChamberE3
p3310
aVMuonRpcEndcapChamberF1
p3311
aVMuonRpcEndcapChamberF2
p3312
aVMuonRpcEndcapChamberF3
p3313
aVMuonEndcapStation1
p3314
aVMuonEndcapStation2
p3315
aVMuonEndcapStation3
p3316
aVMuonEndcapStation4
p3317
aVMuonEndcapSubrings
p3318
aVMuonEndcapSectors
p3319
aVMuonEndcapLayers
p3320
aVMuonEndcapRing1
p3321
aVMuonEndcapRing2
p3322
aVMuonEndcapRing3
p3323
aVMuonEndcapRingA
p3324
aVMuonGEMEndcap
p3325
aVMuonGEMSector
p3326
aVMuonGEMChamber
p3327
atp3328
Rp3329
(dp3330
g25
I00
sg31
I01
sg32
I00
sg451
I1
sbsg1862
g0
(g121
g2
Ntp3331
Rp3332
(dp3333
g25
I00
sg31
I01
sg32
I00
sg42
g36
sbsg59
g660
sg61
I55
sg62
g3266
sbsVParabolicParametrizedMagneticFieldProducer
p3334
g0
(g2766
g2
Ntp3335
Rp3336
(dp3337
g15
VAutoParametrizedMagneticFieldProducer
p3338
sg17
(lp3339
Vversion
p3340
ag1816
aVvalueOverride
p3341
asg25
I00
sg26
Nsg3340
g0
(g121
g2
Ntp3342
Rp3343
(dp3344
g25
I00
sg31
I01
sg32
I00
sg42
VParabolic
p3345
sbsg32
I01
sg1816
g0
(g121
g2
Ntp3346
Rp3347
(dp3348
g25
I00
sg31
I00
sg32
I01
sg42
VParabolicMf
p3349
sbsg3341
g0
(g52
g2
Ntp3350
Rp3351
(dp3352
g25
I00
sg31
I01
sg32
I01
sg42
I18268
sbsg59
g660
sg61
I55
sg62
g3334
sbsVVolumeBasedMagneticFieldESProducer
p3353
g0
(g2766
g2
Ntp3354
Rp3355
(dp3356
g15
VVolumeBasedMagneticFieldESProducerFromDB
p3357
sg17
(lp3358
g1816
aVdebugBuilder
p3359
ag3341
asg25
I00
sg26
Nsg1816
g0
(g121
g2
Ntp3360
Rp3361
(dp3362
g25
I00
sg31
I00
sg32
I00
sg42
g36
sbsg32
I01
sg3359
g0
(g73
g2
Ntp3363
Rp3364
(dp3365
g25
I00
sg31
I00
sg32
I00
sg42
I00
sbsg3341
g0
(g52
g2
Ntp3366
Rp3367
(dp3368
g25
I00
sg31
I01
sg32
I01
sg42
I18268
sbsg59
g660
sg61
I55
sg62
g3353
sbsVCastorDbProducer
p3369
g0
(g2766
g2
Ntp3370
Rp3371
(dp3372
g15
g3369
sg17
(lp3373
g1862
asg25
I00
sg26
Nsg1862
g0
(g121
g2
Ntp3374
Rp3375
(dp3376
g25
I00
sg31
I01
sg32
I00
sg42
g36
sbsg32
I00
sg59
g660
sg61
I55
sg62
g3369
sbsVEcalLaserCorrectionService
p3377
g0
(g2766
g2
Ntp3378
Rp3379
(dp3380
g15
g3377
sg17
(lp3381
VmaxExtrapolationTimeInSec
p3382
asg25
I00
sg26
Nsg3382
g0
(g581
g2
Ntp3383
Rp3384
(dp3385
g25
I00
sg31
I01
sg32
I00
sg42
I0
sbsg32
I00
sg59
g660
sg61
I55
sg62
g3377
sbsVEcalLaserCorrectionServiceMC
p3386
g0
(g2766
g2
Ntp3387
Rp3388
(dp3389
g15
g3386
sg17
(lp3390
g1862
asg25
I00
sg26
Nsg1862
g0
(g121
g2
Ntp3391
Rp3392
(dp3393
g25
I00
sg31
I01
sg32
I00
sg42
g36
sbsg32
I00
sg59
g660
sg61
I55
sg62
g3386
sbsVSiStripRecHitMatcherESProducer
p3394
g0
(g2766
g2
Ntp3395
Rp3396
(dp3397
g15
g3394
sg17
(lp3398
VComponentName
p3399
aVNSigmaInside
p3400
aVPreFilter
p3401
asg25
I00
sg26
Nsg3399
g0
(g121
g2
Ntp3402
Rp3403
(dp3404
g25
I00
sg31
I01
sg32
I00
sg42
VStandardMatcher
p3405
sbsg32
I00
sg3400
g0
(g38
g2
Ntp3406
Rp3407
(dp3408
g25
I00
sg31
I01
sg32
I00
sg42
F3.0
sbsg3401
g0
(g73
g2
Ntp3409
Rp3410
(dp3411
g25
I00
sg31
I01
sg32
I00
sg42
I00
sbsg59
g660
sg61
I55
sg62
g3394
sbsVStripCPEfromTrackAngleESProducer
p3412
g0
(g2766
g2
Ntp3413
Rp3414
(dp3415
g15
VStripCPEESProducer
p3416
sg17
(lp3417
g3399
aVComponentType
p3418
aVparameters
p3419
asg25
I00
sg26
Nsg3399
g0
(g121
g2
Ntp3420
Rp3421
(dp3422
g25
I00
sg31
I01
sg32
I01
sg42
VStripCPEfromTrackAngle
p3423
sbsg32
I00
sg3418
g0
(g121
g2
Ntp3424
Rp3425
(dp3426
g25
I00
sg31
I01
sg32
I01
sg42
g3423
sbsg3419
g0
(g693
g2
Ntp3427
Rp3428
(dp3429
g25
I00
sg31
I01
sg32
I00
sg17
(lp3430
VmLC_P0
p3431
aVmLC_P1
p3432
aVmLC_P2
p3433
aVmTIB_P0
p3434
aVmTIB_P1
p3435
aVmTOB_P0
p3436
aVmTOB_P1
p3437
aVmTID_P0
p3438
aVmTID_P1
p3439
aVmTEC_P0
p3440
aVmTEC_P1
p3441
aVuseLegacyError
p3442
aVmaxChgOneMIP
p3443
asg26
Nsg3431
g0
(g38
g2
Ntp3444
Rp3445
(dp3446
g25
I00
sg31
I01
sg32
I00
sg42
F-0.326
sbsg3432
g0
(g38
g2
Ntp3447
Rp3448
(dp3449
g25
I00
sg31
I01
sg32
I00
sg42
F0.618
sbsg3433
g0
(g38
g2
Ntp3450
Rp3451
(dp3452
g25
I00
sg31
I01
sg32
I00
sg42
F0.3
sbsg3434
g0
(g38
g2
Ntp3453
Rp3454
(dp3455
g25
I00
sg31
I01
sg32
I00
sg42
F-0.742
sbsg3435
g0
(g38
g2
Ntp3456
Rp3457
(dp3458
g25
I00
sg31
I01
sg32
I00
sg42
F0.202
sbsg3436
g0
(g38
g2
Ntp3459
Rp3460
(dp3461
g25
I00
sg31
I01
sg32
I00
sg42
F-1.026
sbsg3437
g0
(g38
g2
Ntp3462
Rp3463
(dp3464
g25
I00
sg31
I01
sg32
I00
sg42
F0.253
sbsg3438
g0
(g38
g2
Ntp3465
Rp3466
(dp3467
g25
I00
sg31
I01
sg32
I00
sg42
F-1.427
sbsg3439
g0
(g38
g2
Ntp3468
Rp3469
(dp3470
g25
I00
sg31
I01
sg32
I00
sg42
F0.433
sbsg3440
g0
(g38
g2
Ntp3471
Rp3472
(dp3473
g25
I00
sg31
I01
sg32
I00
sg42
F-1.885
sbsg3441
g0
(g38
g2
Ntp3474
Rp3475
(dp3476
g25
I00
sg31
I01
sg32
I00
sg42
F0.471
sbsg3442
g0
(g73
g2
Ntp3477
Rp3478
(dp3479
g25
I00
sg31
I01
sg32
I00
sg42
I00
sbsg3443
g0
(g38
g2
Ntp3480
Rp3481
(dp3482
g25
I00
sg31
I01
sg32
I00
sg42
F6000.0
sbsbsg59
V/cvmfs/cms.cern.ch/el8_amd64_gcc11/cms/cmssw-patch/CMSSW_13_2_5_patch1/src/RecoLocalTracker/SiStripRecHitConverter/python/StripCPEfromTrackAngle_cfi.py
p3483
sg61
I4
sg62
g3412
sbsVctppsBeamParametersFromLHCInfoESSource
p3484
g0
(g2766
g2
Ntp3485
Rp3486
(dp3487
g15
VCTPPSBeamParametersFromLHCInfoESSource
p3488
sg17
(lp3489
VlhcInfoLabel
p3490
aVbeamDivX45
p3491
aVbeamDivY45
p3492
aVbeamDivX56
p3493
aVbeamDivY56
p3494
aVvtxOffsetX45
p3495
aVvtxOffsetY45
p3496
aVvtxOffsetZ45
p3497
aVvtxOffsetX56
p3498
aVvtxOffsetY56
p3499
aVvtxOffsetZ56
p3500
aVvtxStddevX
p3501
aVvtxStddevY
p3502
aVvtxStddevZ
p3503
ag1862
asg25
I00
sg26
Nsg3490
g0
(g121
g2
Ntp3504
Rp3505
(dp3506
g25
I00
sg31
I01
sg32
I00
sg42
g36
sbsg32
I00
sg3491
g0
(g38
g2
Ntp3507
Rp3508
(dp3509
g25
I00
sg31
I01
sg32
I00
sg42
F0.1
sbsg3492
g0
(g38
g2
Ntp3510
Rp3511
(dp3512
g25
I00
sg31
I01
sg32
I00
sg42
F0.1
sbsg3493
g0
(g38
g2
Ntp3513
Rp3514
(dp3515
g25
I00
sg31
I01
sg32
I00
sg42
F0.1
sbsg3494
g0
(g38
g2
Ntp3516
Rp3517
(dp3518
g25
I00
sg31
I01
sg32
I00
sg42
F0.1
sbsg3495
g0
(g38
g2
Ntp3519
Rp3520
(dp3521
g25
I00
sg31
I01
sg32
I00
sg42
F0.01
sbsg3496
g0
(g38
g2
Ntp3522
Rp3523
(dp3524
g25
I00
sg31
I01
sg32
I00
sg42
F0.01
sbsg3497
g0
(g38
g2
Ntp3525
Rp3526
(dp3527
g25
I00
sg31
I01
sg32
I00
sg42
F0.01
sbsg3498
g0
(g38
g2
Ntp3528
Rp3529
(dp3530
g25
I00
sg31
I01
sg32
I00
sg42
F0.01
sbsg3499
g0
(g38
g2
Ntp3531
Rp3532
(dp3533
g25
I00
sg31
I01
sg32
I00
sg42
F0.01
sbsg3500
g0
(g38
g2
Ntp3534
Rp3535
(dp3536
g25
I00
sg31
I01
sg32
I00
sg42
F0.01
sbsg3501
g0
(g38
g2
Ntp3537
Rp3538
(dp3539
g25
I00
sg31
I01
sg32
I00
sg42
F0.02
sbsg3502
g0
(g38
g2
Ntp3540
Rp3541
(dp3542
g25
I00
sg31
I01
sg32
I00
sg42
F0.02
sbsg3503
g0
(g38
g2
Ntp3543
Rp3544
(dp3545
g25
I00
sg31
I01
sg32
I00
sg42
F0.02
sbsg1862
g0
(g121
g2
Ntp3546
Rp3547
(dp3548
g25
I00
sg31
I01
sg32
I00
sg42
g36
sbsg59
g660
sg61
I55
sg62
g3484
sbsVctppsInterpolatedOpticalFunctionsESSource
p3549
g0
(g2766
g2
Ntp3550
Rp3551
(dp3552
g15
VCTPPSInterpolatedOpticalFunctionsESSource
p3553
sg17
(lp3554
g3490
aVopticsLabel
p3555
ag1862
asg25
I00
sg26
Nsg3490
g0
(g121
g2
Ntp3556
Rp3557
(dp3558
g25
I00
sg31
I01
sg32
I00
sg42
g36
sbsg32
I01
sg3555
g0
(g121
g2
Ntp3559
Rp3560
(dp3561
g25
I00
sg31
I01
sg32
I00
sg42
g36
sbsg1862
g0
(g121
g2
Ntp3562
Rp3563
(dp3564
g25
I00
sg31
I01
sg32
I00
sg42
g36
sbsg59
g660
sg61
I55
sg62
g3549
sbsVhcal_db_producer
p3565
g0
(g2766
g2
Ntp3566
Rp3567
(dp3568
g15
VHcalDbProducer
p3569
sg17
(lp3570
Vdump
p3571
aVfile
p3572
asg25
I00
sg26
Nsg3571
g0
(g105
g47
(lp3573
g36
atp3574
Rp3575
(dp3576
g25
I00
sg31
I00
sg32
I00
sg451
I1
sbsg32
I00
sg3572
g0
(g121
g2
Ntp3577
Rp3578
(dp3579
g25
I00
sg31
I00
sg32
I00
sg42
g36
sbsg59
g660
sg61
I55
sg62
g3565
sbsVmultipleScatteringParametrisationMakerESProducer
p3580
g0
(g2766
g2
Ntp3581
Rp3582
(dp3583
g15
VMultipleScatteringParametrisationMakerESProducer
p3584
sg17
(lp3585
g1862
asg25
I00
sg26
Nsg1862
g0
(g121
g2
Ntp3586
Rp3587
(dp3588
g25
I00
sg31
I01
sg32
I00
sg42
g36
sbsg32
I00
sg59
g660
sg61
I55
sg62
g3580
sbsVsiPixelQualityESProducer
p3589
g0
(g2766
g2
Ntp3590
Rp3591
(dp3592
g15
VSiPixelQualityESProducer
p3593
sg17
(lp3594
VsiPixelQualityLabel
p3595
aVsiPixelQualityLabel_RawToDigi
p3596
aVListOfRecordToMerge
p3597
ag1862
asg25
I00
sg26
Nsg3595
g0
(g121
g2
Ntp3598
Rp3599
(dp3600
g25
I00
sg31
I01
sg32
I00
sg42
g36
sbsg32
I01
sg3596
g0
(g121
g2
Ntp3601
Rp3602
(dp3603
g25
I00
sg31
I01
sg32
I00
sg42
g36
sbsg3597
g0
(g691
g47
(lp3604
g0
(g693
g2
Ntp3605
Rp3606
(dp3607
g25
I00
sg31
I01
sg32
I00
sg17
(lp3608
g1814
ag1815
asg26
Nsg1814
g0
(g121
g2
Ntp3609
Rp3610
(dp3611
g25
I00
sg31
I01
sg32
I00
sg42
VSiPixelQualityFromDbRcd
p3612
sbsg1815
g0
(g121
g2
Ntp3613
Rp3614
(dp3615
g25
I00
sg31
I01
sg32
I00
sg42
g36
sbsbag0
(g693
g2
Ntp3616
Rp3617
(dp3618
g25
I00
sg31
I01
sg32
I00
sg17
(lp3619
g1814
ag1815
asg26
Nsg1814
g0
(g121
g2
Ntp3620
Rp3621
(dp3622
g25
I00
sg31
I01
sg32
I00
sg42
VSiPixelDetVOffRcd
p3623
sbsg1815
g0
(g121
g2
Ntp3624
Rp3625
(dp3626
g25
I00
sg31
I01
sg32
I00
sg42
g36
sbsbatp3627
Rp3628
(dp3629
g25
I00
sg31
I01
sg32
I00
sg451
I1
sbsg1862
g0
(g121
g2
Ntp3630
Rp3631
(dp3632
g25
I00
sg31
I01
sg32
I00
sg42
g36
sbsg59
g660
sg61
I55
sg62
g3589
sbsVsiStripBackPlaneCorrectionDepESProducer
p3633
g0
(g2766
g2
Ntp3634
Rp3635
(dp3636
g15
VSiStripBackPlaneCorrectionDepESProducer
p3637
sg17
(lp3638
VLatencyRecord
p3639
aVBackPlaneCorrectionPeakMode
p3640
aVBackPlaneCorrectionDeconvMode
p3641
asg25
I00
sg26
Nsg3639
g0
(g693
g2
Ntp3642
Rp3643
(dp3644
g25
I00
sg31
I01
sg32
I00
sg17
(lp3645
g1814
ag1816
asg26
Nsg1814
g0
(g121
g2
Ntp3646
Rp3647
(dp3648
g25
I00
sg31
I01
sg32
I00
sg42
VSiStripLatencyRcd
p3649
sbsg1816
g0
(g121
g2
Ntp3650
Rp3651
(dp3652
g25
I00
sg31
I00
sg32
I00
sg42
g36
sbsbsg32
I00
sg3640
g0
(g693
g2
Ntp3653
Rp3654
(dp3655
g25
I00
sg31
I01
sg32
I00
sg17
(lp3656
g1814
ag1816
asg26
Nsg1814
g0
(g121
g2
Ntp3657
Rp3658
(dp3659
g25
I00
sg31
I01
sg32
I00
sg42
VSiStripBackPlaneCorrectionRcd
p3660
sbsg1816
g0
(g121
g2
Ntp3661
Rp3662
(dp3663
g25
I00
sg31
I00
sg32
I00
sg42
Vpeak
p3664
sbsbsg3641
g0
(g693
g2
Ntp3665
Rp3666
(dp3667
g25
I00
sg31
I01
sg32
I00
sg17
(lp3668
g1814
ag1816
asg26
Nsg1814
g0
(g121
g2
Ntp3669
Rp3670
(dp3671
g25
I00
sg31
I01
sg32
I00
sg42
g3660
sbsg1816
g0
(g121
g2
Ntp3672
Rp3673
(dp3674
g25
I00
sg31
I00
sg32
I00
sg42
Vdeconvolution
p3675
sbsbsg59
g660
sg61
I55
sg62
g3633
sbsVsiStripGainESProducer
p3676
g0
(g2766
g2
Ntp3677
Rp3678
(dp3679
g15
VSiStripGainESProducer
p3680
sg17
(lp3681
g1862
aVprintDebug
p3682
aVAutomaticNormalization
p3683
aVAPVGain
p3684
asg25
I00
sg26
Nsg1862
g0
(g121
g2
Ntp3685
Rp3686
(dp3687
g25
I00
sg31
I01
sg32
I00
sg42
g36
sbsg32
I00
sg3682
g0
(g73
g2
Ntp3688
Rp3689
(dp3690
g25
I00
sg31
I00
sg32
I00
sg42
I00
sbsg3683
g0
(g73
g2
Ntp3691
Rp3692
(dp3693
g25
I00
sg31
I01
sg32
I00
sg42
I00
sbsg3684
g0
(g691
g47
(lp3694
g0
(g693
g2
Ntp3695
Rp3696
(dp3697
g25
I00
sg31
I01
sg32
I00
sg17
(lp3698
VRecord
p3699
aVLabel
p3700
aVNormalizationFactor
p3701
asg26
Nsg3699
g0
(g121
g2
Ntp3702
Rp3703
(dp3704
g25
I00
sg31
I01
sg32
I00
sg42
VSiStripApvGainRcd
p3705
sbsg3700
g0
(g121
g2
Ntp3706
Rp3707
(dp3708
g25
I00
sg31
I00
sg32
I00
sg42
g36
sbsg3701
g0
(g38
g2
Ntp3709
Rp3710
(dp3711
g25
I00
sg31
I00
sg32
I00
sg42
F1.0
sbsbag0
(g693
g2
Ntp3712
Rp3713
(dp3714
g25
I00
sg31
I01
sg32
I00
sg17
(lp3715
g3699
ag3700
ag3701
asg26
Nsg3699
g0
(g121
g2
Ntp3716
Rp3717
(dp3718
g25
I00
sg31
I01
sg32
I00
sg42
VSiStripApvGain2Rcd
p3719
sbsg3700
g0
(g121
g2
Ntp3720
Rp3721
(dp3722
g25
I00
sg31
I00
sg32
I00
sg42
g36
sbsg3701
g0
(g38
g2
Ntp3723
Rp3724
(dp3725
g25
I00
sg31
I00
sg32
I00
sg42
F1.0
sbsbatp3726
Rp3727
(dp3728
g25
I00
sg31
I01
sg32
I00
sg451
I1
sbsg59
g660
sg61
I55
sg62
g3676
sbsVsiStripLorentzAngleDepESProducer
p3729
g0
(g2766
g2
Ntp3730
Rp3731
(dp3732
g15
VSiStripLorentzAngleDepESProducer
p3733
sg17
(lp3734
g3639
aVLorentzAnglePeakMode
p3735
aVLorentzAngleDeconvMode
p3736
asg25
I00
sg26
Nsg3639
g0
(g693
g2
Ntp3737
Rp3738
(dp3739
g25
I00
sg31
I01
sg32
I00
sg17
(lp3740
g1814
ag1816
asg26
Nsg1814
g0
(g121
g2
Ntp3741
Rp3742
(dp3743
g25
I00
sg31
I01
sg32
I00
sg42
g3649
sbsg1816
g0
(g121
g2
Ntp3744
Rp3745
(dp3746
g25
I00
sg31
I00
sg32
I00
sg42
g36
sbsbsg32
I00
sg3735
g0
(g693
g2
Ntp3747
Rp3748
(dp3749
g25
I00
sg31
I01
sg32
I00
sg17
(lp3750
g1814
ag1816
asg26
Nsg1814
g0
(g121
g2
Ntp3751
Rp3752
(dp3753
g25
I00
sg31
I01
sg32
I00
sg42
VSiStripLorentzAngleRcd
p3754
sbsg1816
g0
(g121
g2
Ntp3755
Rp3756
(dp3757
g25
I00
sg31
I00
sg32
I00
sg42
g3664
sbsbsg3736
g0
(g693
g2
Ntp3758
Rp3759
(dp3760
g25
I00
sg31
I01
sg32
I00
sg17
(lp3761
g1814
ag1816
asg26
Nsg1814
g0
(g121
g2
Ntp3762
Rp3763
(dp3764
g25
I00
sg31
I01
sg32
I00
sg42
g3754
sbsg1816
g0
(g121
g2
Ntp3765
Rp3766
(dp3767
g25
I00
sg31
I00
sg32
I00
sg42
g3675
sbsbsg59
g660
sg61
I55
sg62
g3729
sbsVsiStripQualityESProducer
p3768
g0
(g2766
g2
Ntp3769
Rp3770
(dp3771
g15
VSiStripQualityESProducer
p3772
sg17
(lp3773
g1862
ag3597
aVReduceGranularity
p3774
aVThresholdForReducedGranularity
p3775
aVPrintDebugOutput
p3776
aVUseEmptyRunInfo
p3777
asg25
I00
sg26
Nsg1862
g0
(g121
g2
Ntp3778
Rp3779
(dp3780
g25
I00
sg31
I01
sg32
I00
sg42
g36
sbsg32
I01
sg3597
g0
(g691
g47
(lp3781
g0
(g693
g2
Ntp3782
Rp3783
(dp3784
g25
I00
sg31
I01
sg32
I00
sg17
(lp3785
g1814
ag1815
asg26
Nsg1814
g0
(g121
g2
Ntp3786
Rp3787
(dp3788
g25
I00
sg31
I01
sg32
I00
sg42
VSiStripDetVOffRcd
p3789
sbsg1815
g0
(g121
g2
Ntp3790
Rp3791
(dp3792
g25
I00
sg31
I01
sg32
I00
sg42
g36
sbsbag0
(g693
g2
Ntp3793
Rp3794
(dp3795
g25
I00
sg31
I01
sg32
I00
sg17
(lp3796
g1814
ag1815
asg26
Nsg1814
g0
(g121
g2
Ntp3797
Rp3798
(dp3799
g25
I00
sg31
I01
sg32
I00
sg42
VSiStripDetCablingRcd
p3800
sbsg1815
g0
(g121
g2
Ntp3801
Rp3802
(dp3803
g25
I00
sg31
I01
sg32
I00
sg42
g36
sbsbag0
(g693
g2
Ntp3804
Rp3805
(dp3806
g25
I00
sg31
I01
sg32
I00
sg17
(lp3807
g1814
ag1815
asg26
Nsg1814
g0
(g121
g2
Ntp3808
Rp3809
(dp3810
g25
I00
sg31
I01
sg32
I00
sg42
VRunInfoRcd
p3811
sbsg1815
g0
(g121
g2
Ntp3812
Rp3813
(dp3814
g25
I00
sg31
I01
sg32
I00
sg42
g36
sbsbag0
(g693
g2
Ntp3815
Rp3816
(dp3817
g25
I00
sg31
I01
sg32
I00
sg17
(lp3818
g1814
ag1815
asg26
Nsg1814
g0
(g121
g2
Ntp3819
Rp3820
(dp3821
g25
I00
sg31
I01
sg32
I00
sg42
VSiStripBadChannelRcd
p3822
sbsg1815
g0
(g121
g2
Ntp3823
Rp3824
(dp3825
g25
I00
sg31
I01
sg32
I00
sg42
g36
sbsbag0
(g693
g2
Ntp3826
Rp3827
(dp3828
g25
I00
sg31
I01
sg32
I00
sg17
(lp3829
g1814
ag1815
asg26
Nsg1814
g0
(g121
g2
Ntp3830
Rp3831
(dp3832
g25
I00
sg31
I01
sg32
I00
sg42
VSiStripBadFiberRcd
p3833
sbsg1815
g0
(g121
g2
Ntp3834
Rp3835
(dp3836
g25
I00
sg31
I01
sg32
I00
sg42
g36
sbsbag0
(g693
g2
Ntp3837
Rp3838
(dp3839
g25
I00
sg31
I01
sg32
I00
sg17
(lp3840
g1814
ag1815
asg26
Nsg1814
g0
(g121
g2
Ntp3841
Rp3842
(dp3843
g25
I00
sg31
I01
sg32
I00
sg42
VSiStripBadModuleRcd
p3844
sbsg1815
g0
(g121
g2
Ntp3845
Rp3846
(dp3847
g25
I00
sg31
I01
sg32
I00
sg42
g36
sbsbag0
(g693
g2
Ntp3848
Rp3849
(dp3850
g25
I00
sg31
I01
sg32
I00
sg17
(lp3851
g1814
ag1815
asg26
Nsg1814
g0
(g121
g2
Ntp3852
Rp3853
(dp3854
g25
I00
sg31
I01
sg32
I00
sg42
VSiStripBadStripRcd
p3855
sbsg1815
g0
(g121
g2
Ntp3856
Rp3857
(dp3858
g25
I00
sg31
I01
sg32
I00
sg42
g36
sbsbatp3859
Rp3860
(dp3861
g25
I00
sg31
I01
sg32
I00
sg451
I1
sbsg3774
g0
(g73
g2
Ntp3862
Rp3863
(dp3864
g25
I00
sg31
I01
sg32
I00
sg42
I00
sbsg3775
g0
(g38
g2
Ntp3865
Rp3866
(dp3867
g25
I00
sg31
I01
sg32
I00
sg42
F0.3
sbsg3776
g0
(g73
g2
Ntp3868
Rp3869
(dp3870
g25
I00
sg31
I01
sg32
I00
sg42
I00
sbsg3777
g0
(g73
g2
Ntp3871
Rp3872
(dp3873
g25
I00
sg31
I01
sg32
I00
sg42
I00
sbsg59
g660
sg61
I55
sg62
g3768
sbsVsistripconn
p3874
g0
(g2766
g2
Ntp3875
Rp3876
(dp3877
g15
VSiStripConnectivity
p3878
sg17
(lp3879
sg25
I00
sg26
Nsg32
I00
sg59
g660
sg61
I55
sg62
g3874
sbsVstripCPEESProducer
p3880
g0
(g2766
g2
Ntp3881
Rp3882
(dp3883
g15
g3416
sg17
(lp3884
g3399
ag3418
ag3419
asg25
I00
sg26
Nsg3399
g0
(g121
g2
Ntp3885
Rp3886
(dp3887
g25
I00
sg31
I01
sg32
I00
sg42
VstripCPE
p3888
sbsg32
I00
sg3418
g0
(g121
g2
Ntp3889
Rp3890
(dp3891
g25
I00
sg31
I01
sg32
I00
sg42
VSimpleStripCPE
p3892
sbsg3419
g0
(g693
g2
Ntp3893
Rp3894
(dp3895
g25
I00
sg31
I01
sg32
I00
sg17
(lp3896
sg26
Nsbsg59
g660
sg61
I55
sg62
g3880
sbssV_Process__esprefers
p3897
(dp3898
Ves_prefer_hcalHardcode
p3899
g0
(cFWCore.ParameterSet.Modules
ESPrefer
p3900
g2
Ntp3901
Rp3902
(dp3903
g15
g2031
sg17
(lp3904
sg25
I00
sg26
Nsg32
I00
sg59
g660
sg61
I91
sV_targetLabel
p3905
g2027
sg62
g3899
sbssV_Process__aliases
p3906
(dp3907
sV_Process__psets
p3908
(dp3909
VmaxLuminosityBlocks
p3910
g0
(g693
g2
Ntp3911
Rp3912
(dp3913
g25
I00
sg31
I00
sg32
I00
sg17
(lp3914
Vinput
p3915
asg26
Nsg3915
g0
(g52
g2
Ntp3916
Rp3917
(dp3918
g25
I00
sg31
I00
sg32
I00
sg42
I-1
sbsg62
g3910
sbsVnanoDQMIO_perLSoutput
p3919
g0
(g693
g2
Ntp3920
Rp3921
(dp3922
g25
I00
sg31
I01
sg32
I00
sg17
(lp3923
g1208
asg26
Nsg1208
g0
(g105
g47
(lp3924
g1220
ag1221
ag1222
ag1223
ag1224
ag1225
ag1226
ag1227
ag1228
ag1229
ag1230
ag1231
ag1232
ag1233
ag1234
ag1235
ag1236
ag1237
ag1238
ag1239
ag1240
ag1241
ag1242
ag1243
ag1244
ag1245
ag1246
ag1247
ag1248
ag1249
ag1250
ag1251
ag1252
ag1253
ag1254
ag1255
ag1256
ag1257
ag1258
ag1259
ag1260
ag1261
ag1262
ag1263
ag1264
ag1265
ag1266
ag1267
ag1268
ag1269
ag1270
ag1271
ag1272
ag1273
ag1274
ag1275
ag1276
ag1277
ag1278
ag1279
ag1280
ag1281
ag1282
ag1283
ag1284
ag1285
ag1286
ag1287
ag1288
ag1289
ag1290
ag1291
ag1292
ag1293
ag1294
ag1295
ag1296
ag1297
ag1298
ag1299
ag1300
ag1301
ag1302
ag1303
ag1304
ag1305
ag1306
ag1307
ag1308
ag1309
ag1310
ag1311
ag1312
ag1313
ag1314
ag1315
ag1316
ag1317
ag1318
ag1319
ag1320
ag1321
ag1322
ag1323
ag1324
ag1325
ag1326
ag1327
ag1328
ag1329
ag1330
ag1331
ag1332
ag1333
ag1334
ag1335
ag1336
ag1337
ag1338
ag1339
ag1340
ag1341
ag1342
ag1343
ag1344
ag1345
ag1346
ag1347
ag1348
ag1349
ag1350
ag1351
ag1352
ag1353
ag1354
ag1355
ag1356
ag1357
ag1358
ag1359
ag1360
ag1361
ag1362
ag1363
ag1364
ag1365
ag1366
ag1367
ag1368
ag1369
ag1370
ag1371
ag1372
ag1373
ag1374
ag1375
ag1376
ag1377
ag1378
ag1379
ag1380
ag1381
ag1382
ag1383
ag1384
ag1385
ag1386
ag1387
ag1388
ag1389
ag1390
ag1391
ag1392
ag1393
ag1394
ag1395
ag1396
ag1397
ag1398
ag1399
ag1400
ag1401
ag1402
ag1403
ag1404
ag1405
ag1406
ag1407
ag1408
ag1409
ag1410
ag1411
ag1412
ag1413
ag1414
atp3925
Rp3926
(dp3927
g25
I00
sg31
I00
sg32
I00
sg451
I1
sbsg62
g3919
sbsVCondDB
p3928
g0
(g693
g2
Ntp3929
Rp3930
(dp3931
g25
I00
sg31
I01
sg32
I00
sg17
(lp3932
g1761
ag1762
asg26
Nsg1761
g0
(g693
g2
Ntp3933
Rp3934
(dp3935
g25
I00
sg31
I01
sg32
I00
sg17
(lp3936
g1777
ag1778
ag1779
ag1780
ag1781
asg26
Nsg1777
g0
(g121
g2
Ntp3937
Rp3938
(dp3939
g25
I00
sg31
I00
sg32
I00
sg42
g36
sbsg1778
g0
(g52
g2
Ntp3940
Rp3941
(dp3942
g25
I00
sg31
I00
sg32
I00
sg42
I0
sbsg1779
g0
(g121
g2
Ntp3943
Rp3944
(dp3945
g25
I00
sg31
I00
sg32
I00
sg42
g36
sbsg1780
g0
(g52
g2
Ntp3946
Rp3947
(dp3948
g25
I00
sg31
I00
sg32
I00
sg42
I0
sbsg1781
g0
(g52
g2
Ntp3949
Rp3950
(dp3951
g25
I00
sg31
I00
sg32
I00
sg42
I0
sbsbsg1762
g0
(g121
g2
Ntp3952
Rp3953
(dp3954
g25
I00
sg31
I01
sg32
I00
sg42
g36
sbsg62
g3928
sbsg2041
g2092
sVoptions
p3955
g0
(g693
g2
Ntp3956
Rp3957
(dp3958
g25
I00
sg31
I00
sg32
I01
sg17
(lp3959
VnumberOfThreads
p3960
aVnumberOfStreams
p3961
aVnumberOfConcurrentRuns
p3962
aVnumberOfConcurrentLuminosityBlocks
p3963
aVeventSetup
p3964
aVaccelerators
p3965
aVwantSummary
p3966
aVfileMode
p3967
aVforceEventSetupCacheClearOnNewRun
p3968
aVthrowIfIllegalParameter
p3969
aVprintDependencies
p3970
aVdeleteNonConsumedUnscheduledModules
p3971
aVsizeOfStackForThreadsInKB
p3972
aVRethrow
p3973
aVSkipEvent
p3974
aVFailPath
p3975
aVIgnoreCompletely
p3976
aVcanDeleteEarly
p3977
aVholdsReferencesToDeleteEarly
p3978
aVmodulesToIgnoreForDeleteEarly
p3979
aVdumpOptions
p3980
aVallowUnscheduled
p3981
aVemptyRunLumiMode
p3982
aVmakeTriggerResults
p3983
asg26
Nsg3960
g0
(g581
g2
Ntp3984
Rp3985
(dp3986
g25
I00
sg31
I00
sg32
I00
sg42
I1
sbsg3961
g0
(g581
g2
Ntp3987
Rp3988
(dp3989
g25
I00
sg31
I00
sg32
I00
sg42
I0
sbsg3962
g0
(g581
g2
Ntp3990
Rp3991
(dp3992
g25
I00
sg31
I00
sg32
I00
sg42
I1
sbsg3963
g0
(g581
g2
Ntp3993
Rp3994
(dp3995
g25
I00
sg31
I00
sg32
I00
sg42
I0
sbsg3964
g0
(g693
g2
Ntp3996
Rp3997
(dp3998
g25
I00
sg31
I00
sg32
I00
sg17
(lp3999
VnumberOfConcurrentIOVs
p4000
aVforceNumberOfConcurrentIOVs
p4001
asg26
Nsg4000
g0
(g581
g2
Ntp4002
Rp4003
(dp4004
g25
I00
sg31
I00
sg32
I00
sg42
I0
sbsg4001
g0
(g693
g2
Ntp4005
Rp4006
(dp4007
g25
I00
sg31
I00
sg32
I00
sg17
(lp4008
sg26
g0
(cFWCore.ParameterSet.Types
_RequiredParameter
p4009
g2
Ntp4010
Rp4011
(dp4012
g25
I00
sg31
I00
sg32
I00
sg104
g581
sg106
Nsbsbsbsg3965
g0
(g105
g47
(lp4013
V*
p4014
atp4015
Rp4016
(dp4017
g25
I00
sg31
I00
sg32
I00
sg451
I1
sbsg3966
g0
(g73
g2
Ntp4018
Rp4019
(dp4020
g25
I00
sg31
I00
sg32
I00
sg42
I01
sbsg3967
g0
(g121
g2
Ntp4021
Rp4022
(dp4023
g25
I00
sg31
I00
sg32
I00
sg42
VFULLMERGE
p4024
sbsg3968
g0
(g73
g2
Ntp4025
Rp4026
(dp4027
g25
I00
sg31
I00
sg32
I00
sg42
I00
sbsg3969
g0
(g73
g2
Ntp4028
Rp4029
(dp4030
g25
I00
sg31
I00
sg32
I00
sg42
I01
sbsg3970
g0
(g73
g2
Ntp4031
Rp4032
(dp4033
g25
I00
sg31
I00
sg32
I00
sg42
I00
sbsg3971
g0
(g73
g2
Ntp4034
Rp4035
(dp4036
g25
I00
sg31
I00
sg32
I00
sg42
I01
sbsg3972
g0
(g100
g2
Ntp4037
Rp4038
(dp4039
g25
I00
sg31
I00
sg32
I00
sg104
g581
sg106
Nsbsg3973
g0
(g105
g47
(lp4040
tp4041
Rp4042
(dp4043
g25
I00
sg31
I00
sg32
I00
sg451
I1
sbsg3974
g0
(g105
g47
(lp4044
tp4045
Rp4046
(dp4047
g25
I00
sg31
I00
sg32
I00
sg451
I1
sbsg3975
g0
(g105
g47
(lp4048
tp4049
Rp4050
(dp4051
g25
I00
sg31
I00
sg32
I00
sg451
I1
sbsg3976
g0
(g105
g47
(lp4052
tp4053
Rp4054
(dp4055
g25
I00
sg31
I00
sg32
I00
sg451
I1
sbsg3977
g0
(g105
g47
(lp4056
tp4057
Rp4058
(dp4059
g25
I00
sg31
I00
sg32
I00
sg451
I1
sbsg3978
g0
(g691
g47
(lp4060
tp4061
Rp4062
(dp4063
g25
I00
sg31
I00
sg32
I00
sg451
I1
sbsg3979
g0
(g105
g47
(lp4064
tp4065
Rp4066
(dp4067
g25
I00
sg31
I00
sg32
I00
sg451
I1
sbsg3980
g0
(g73
g2
Ntp4068
Rp4069
(dp4070
g25
I00
sg31
I00
sg32
I00
sg42
I00
sbsg3981
g0
(cFWCore.ParameterSet.Types
_ObsoleteParameter
p4071
g2
Ntp4072
Rp4073
(dp4074
g25
I00
sg31
I00
sg32
I00
sg104
g73
sg106
Nsbsg3982
g0
(g4071
g2
Ntp4075
Rp4076
(dp4077
g25
I00
sg31
I00
sg32
I00
sg104
g121
sg106
Nsbsg3983
g0
(g4071
g2
Ntp4078
Rp4079
(dp4080
g25
I00
sg31
I00
sg32
I00
sg104
g73
sg106
Nsbsg62
g3955
sbsVmaxEvents
p4081
g0
(g693
g2
Ntp4082
Rp4083
(dp4084
g25
I00
sg31
I00
sg32
I01
sg17
(lp4085
g3915
ag1169
asg26
Nsg3915
g0
(g100
g2
Ntp4086
Rp4087
(dp4088
g25
I00
sg31
I00
sg32
I00
sg104
g52
sg106
g0
(g52
g2
Ntp4089
Rp4090
(dp4091
g25
I00
sg31
I00
sg32
I00
sg42
I100
sbsbsg1169
g0
(g100
g2
Ntp4092
Rp4093
(dp4094
g25
I00
sg31
I00
sg32
I00
sg104
g0
(cFWCore.ParameterSet.Types
_AllowedParameterTypes
p4095
g2
Ntp4096
Rp4097
(dp4098
V_AllowedParameterTypes__types
p4099
(g52
g693
tp4100
sV_default
p4101
NsV__name__
p4102
Vallowed(cms.int32,cms.PSet)
p4103
sbsg106
Nsbsg62
g4081
sbssV_Process__vpsets
p4104
(dp4105
sV_cloneToObjectDict
p4106
(dp4107
L139749998818592L
g0
(g693
g2
Ntp4108
Rp4109
(dp4110
g25
I00
sg31
I00
sg32
I00
sg17
(lp4111
g3960
ag3961
ag3962
ag3963
ag3964
ag3965
ag3966
ag3967
ag3968
ag3969
ag3970
ag3971
ag3972
ag3973
ag3974
ag3975
ag3976
ag3977
ag3978
ag3979
ag3980
ag3981
ag3982
ag3983
asg26
Nsg3960
g0
(g581
g2
Ntp4112
Rp4113
(dp4114
g25
I00
sg31
I00
sg32
I00
sg42
I1
sbsg3961
g0
(g581
g2
Ntp4115
Rp4116
(dp4117
g25
I00
sg31
I00
sg32
I00
sg42
I0
sbsg3962
g0
(g581
g2
Ntp4118
Rp4119
(dp4120
g25
I00
sg31
I00
sg32
I00
sg42
I1
sbsg3963
g0
(g581
g2
Ntp4121
Rp4122
(dp4123
g25
I00
sg31
I00
sg32
I00
sg42
I0
sbsg3964
g0
(g693
g2
Ntp4124
Rp4125
(dp4126
g25
I00
sg31
I00
sg32
I00
sg17
(lp4127
g4000
ag4001
asg26
Nsg4000
g0
(g581
g2
Ntp4128
Rp4129
(dp4130
g25
I00
sg31
I00
sg32
I00
sg42
I0
sbsg4001
g0
(g693
g2
Ntp4131
Rp4132
(dp4133
g25
I00
sg31
I00
sg32
I00
sg17
(lp4134
sg26
g0
(g4009
g2
Ntp4135
Rp4136
(dp4137
g25
I00
sg31
I00
sg32
I00
sg104
g581
sg106
Nsbsbsbsg3965
g0
(g105
g47
(lp4138
g4014
atp4139
Rp4140
(dp4141
g25
I00
sg31
I00
sg32
I00
sg451
I1
sbsg3966
g0
(g73
g2
Ntp4142
Rp4143
(dp4144
g25
I00
sg31
I00
sg32
I00
sg42
I00
sbsg3967
g0
(g121
g2
Ntp4145
Rp4146
(dp4147
g25
I00
sg31
I00
sg32
I00
sg42
g4024
sbsg3968
g0
(g73
g2
Ntp4148
Rp4149
(dp4150
g25
I00
sg31
I00
sg32
I00
sg42
I00
sbsg3969
g0
(g73
g2
Ntp4151
Rp4152
(dp4153
g25
I00
sg31
I00
sg32
I00
sg42
I01
sbsg3970
g0
(g73
g2
Ntp4154
Rp4155
(dp4156
g25
I00
sg31
I00
sg32
I00
sg42
I00
sbsg3971
g0
(g73
g2
Ntp4157
Rp4158
(dp4159
g25
I00
sg31
I00
sg32
I00
sg42
I01
sbsg3972
g0
(g100
g2
Ntp4160
Rp4161
(dp4162
g25
I00
sg31
I00
sg32
I00
sg104
g581
sg106
Nsbsg3973
g0
(g105
g47
(lp4163
tp4164
Rp4165
(dp4166
g25
I00
sg31
I00
sg32
I00
sg451
I1
sbsg3974
g0
(g105
g47
(lp4167
tp4168
Rp4169
(dp4170
g25
I00
sg31
I00
sg32
I00
sg451
I1
sbsg3975
g0
(g105
g47
(lp4171
tp4172
Rp4173
(dp4174
g25
I00
sg31
I00
sg32
I00
sg451
I1
sbsg3976
g0
(g105
g47
(lp4175
tp4176
Rp4177
(dp4178
g25
I00
sg31
I00
sg32
I00
sg451
I1
sbsg3977
g0
(g105
g47
(lp4179
tp4180
Rp4181
(dp4182
g25
I00
sg31
I00
sg32
I00
sg451
I1
sbsg3978
g0
(g691
g47
(lp4183
tp4184
Rp4185
(dp4186
g25
I00
sg31
I00
sg32
I00
sg451
I1
sbsg3979
g0
(g105
g47
(lp4187
tp4188
Rp4189
(dp4190
g25
I00
sg31
I00
sg32
I00
sg451
I1
sbsg3980
g0
(g73
g2
Ntp4191
Rp4192
(dp4193
g25
I00
sg31
I00
sg32
I00
sg42
I00
sbsg3981
g0
(g4071
g2
Ntp4194
Rp4195
(dp4196
g25
I00
sg31
I00
sg32
I00
sg104
g73
sg106
Nsbsg3982
g0
(g4071
g2
Ntp4197
Rp4198
(dp4199
g25
I00
sg31
I00
sg32
I00
sg104
g121
sg106
Nsbsg3983
g0
(g4071
g2
Ntp4200
Rp4201
(dp4202
g25
I00
sg31
I00
sg32
I00
sg104
g73
sg106
Nsbsg62
NsbsL139749993556048L
g0
(g693
g2
Ntp4203
Rp4204
(dp4205
g25
I00
sg31
I00
sg32
I00
sg17
(lp4206
g3915
ag1169
asg26
Nsg3915
g0
(g100
g2
Ntp4207
Rp4208
(dp4209
g25
I00
sg31
I00
sg32
I00
sg104
g52
sg106
Nsbsg1169
g0
(g100
g2
Ntp4210
Rp4211
(dp4212
g25
I00
sg31
I00
sg32
I00
sg104
g0
(g4095
g2
Ntp4213
Rp4214
(dp4215
g4099
(g52
g693
tp4216
sg4101
Nsg4102
Vallowed(cms.int32,cms.PSet)
p4217
sbsg106
Nsbsg62
NsbsL139749993555952L
g3912
sL139749993898192L
g2768
sL139749997156864L
g2812
sL139749994460400L
g2829
sL139749994393024L
g2834
sL139749994392352L
g2842
sL139749996600240L
g2847
sL139750009621376L
g2855
sL139749994393552L
g2892
sL139749994460448L
g2900
sL139749994390288L
g2905
sL139749994393216L
g2913
sL139749994461600L
g2921
sL139749994461984L
g2931
sL139749994391344L
g2936
sL139749997155280L
g2941
sL139749994460640L
g2949
sL139749993898720L
g2954
sL139749996258256L
g2965
sL139749994390720L
g2974
sL139749996599328L
g1723
sL139749996518656L
g2982
sL139749996601296L
g2993
sL139749996599904L
g3002
sL139749994390144L
g3011
sL139749996598944L
g3028
sL139749996599856L
g3065
sL139749996598896L
g3095
sL139749997155040L
g3114
sL139749994459200L
g3126
sL139749996792272L
g3143
sL139749994461120L
g3158
sL139750007522784L
g3167
sL139750007524464L
g3172
sL139749998542032L
g3187
sL139750007523456L
g3199
sL139750031645760L
g3216
sL139750007524896L
g3232
sL139749998542656L
g3247
sL139749998541504L
g3256
sL139749998540112L
g3268
sL139750031746864L
g1745
sL139749994007664L
g3921
sL139749995131760L
g470
sL139749995543280L
g3336
sL139750008083744L
g3355
sL139749994116960L
g3371
sL139749996754784L
g3930
sL139749996899056L
g3379
sL139749996897328L
g3388
sL139749996756848L
g1757
sL139750010249568L
g2092
sL139750010252592L
g1859
sL139749991604768L
g3396
sL139749992103552L
g3414
sL139749991632848L
g3486
sL139749991674400L
g3551
sL139749994119120L
g2029
sL139749994117008L
g3902
sL139749996896512L
g3567
sL139749991630016L
g3582
sL139749991629488L
g3591
sL139749992101008L
g3635
sL139749992062400L
g3678
sL139749992100096L
g3731
sL139749991607168L
g3770
sL139749994117104L
g3876
sL139749992102496L
g3882
sL139749991676944L
g477
sL139749993554128L
g3957
sL139749991707168L
g4083
sL139749991708752L
g563
sL139749991782144L
g746
sL139749991530800L
g13
sL139749991501296L
g65
sL139749991782576L
g110
sL139749991783392L
g587
sL139749991784016L
g656
sL139749991783488L
g607
sL139749991338576L
g633
sL139749991459808L
g682
sL139749991341552L
g944
sL139749991533008L
g132
sL139749991530944L
g152
sL139749991534256L
g166
sL139749991545584L
g180
sL139749991533440L
g194
sL139749991530992L
g208
sL139749991533824L
g222
sL139749991500048L
g236
sL139749991533872L
g250
sL139749991531712L
g264
sL139749991544288L
g278
sL139749991499568L
g292
sL139749991546688L
g306
sL139749991534304L
g320
sL139749991532144L
g334
sL139749991544720L
g348
sL139749991459088L
g362
sL139749991534160L
g376
sL139749991532576L
g390
sL139749991545152L
g404
sL139749991459856L
g418
sL139749991709760L
g928
sL139749991551856L
g432
sL139749991554544L
g823
sL139749991552960L
g888
ssV_Process__InExtendCall
p4218
I00
sV_Process__partialschedules
p4219
(dp4220
sV_Process__isStrict
p4221
I00
sV_Process__modifiers
p4222
(tsV_Process__accelerators
p4223
(dp4224
sg3910
g3912
sg956
g959
sg2765
g2768
sg2810
g2812
sg2827
g2829
sg2832
g2834
sg2840
g2842
sg2845
g2847
sg2853
g2855
sg2890
g2892
sg2898
g2900
sg2903
g2905
sg2911
g2913
sg2919
g2921
sg2929
g2931
sg2934
g2936
sg2939
g2941
sg2947
g2949
sg2952
g2954
sg2963
g2965
sg2972
g2974
sg1720
g1723
sg2980
g2982
sg2991
g2993
sg3000
g3002
sg3009
g3011
sg3026
g3028
sg3063
g3065
sg3093
g3095
sg3112
g3114
sg3124
g3126
sg3141
g3143
sg3156
g3158
sg3165
g3167
sg3170
g3172
sg3185
g3187
sg3197
g3199
sg3214
g3216
sg3230
g3232
sg3245
g3247
sg3254
g3256
sg3266
g3268
sg1201
g1203
sg1743
g1745
sg1430
g1432
sg3919
g3921
sg467
g470
sg3334
g3336
sg3353
g3355
sg3369
g3371
sg3928
g3930
sg3377
g3379
sg3386
g3388
sg1755
g1757
sg2041
g2092
sg1857
g1859
sg3394
g3396
sg3412
g3414
sg3484
g3486
sg3549
g3551
sg2027
g2029
sg3899
g3902
sg3565
g3567
sg3580
g3582
sg3589
g3591
sg3633
g3635
sg3676
g3678
sg3729
g3731
sg3768
g3770
sg3874
g3876
sg3880
g3882
sg475
g477
sg3955
g3957
sg4081
g4083
sVsource
p4225
g718
sg720
g718
sg521
g563
sg743
g746
sg10
g13
sg63
g65
sg108
g110
sg80
g587
sg653
g656
sg605
g607
sg631
g633
sg680
g682
sg941
g944
sg130
g132
sg150
g152
sg164
g166
sg178
g180
sg192
g194
sg206
g208
sg220
g222
sg234
g236
sg248
g250
sg262
g264
sg276
g278
sg290
g292
sg304
g306
sg318
g320
sg332
g334
sg346
g348
sg360
g362
sg374
g376
sg388
g390
sg402
g404
sg416
g418
sg925
g928
sg1708
g1710
sg430
g432
sg821
g823
sg885
g888
sb.