ccopy_reg
_reconstructor
p0
(cFWCore.ParameterSet.Config
Process
p1
c__builtin__
object
p2
Ntp3
Rp4
(dp5
V_Process__name
p6
VRaghuEffTest
p7
sV_Process__filters
p8
(dp9
VclusterCompatibilityFilter
p10
g0
(cFWCore.ParameterSet.Modules
EDFilter
p11
g2
Ntp12
Rp13
(dp14
V_TypedParameterizable__type
p15
VHIClusterCompatibilityFilter
p16
sV_Parameterizable__parameterNames
p17
(lp18
VcluscomSrc
p19
aVminZ
p20
aVmaxZ
p21
aVclusterPars
p22
aVnhitsTrunc
p23
aVclusterTrunc
p24
asV_isFrozen
p25
I00
sV_Parameterizable__validator
p26
Nsg19
g0
(cFWCore.ParameterSet.Types
InputTag
p27
g2
Ntp28
Rp29
(dp30
g25
I00
sV_ParameterTypeBase__isTracked
p31
I01
sV_isModified
p32
I00
sV_InputTag__moduleLabel
p33
VhiClusterCompatibility
p34
sV_InputTag__productInstance
p35
V
p36
sV_InputTag__processName
p37
g36
sbsg32
I00
sg20
g0
(cFWCore.ParameterSet.Types
double
p38
g2
Ntp39
Rp40
(dp41
g25
I00
sg31
I01
sg32
I00
sV_value
p42
F-20.0
sbsg21
g0
(g38
g2
Ntp43
Rp44
(dp45
g25
I00
sg31
I01
sg32
I00
sg42
F20.05
sbsg22
g0
(cFWCore.ParameterSet.Types
vdouble
p46
c__builtin__
list
p47
(lp48
F0.0
aF0.0045
atp49
Rp50
(dp51
g25
I00
sg31
I01
sg32
I00
sbsg23
g0
(cFWCore.ParameterSet.Types
int32
p52
g2
Ntp53
Rp54
(dp55
g25
I00
sg31
I01
sg32
I00
sg42
I150
sbsg24
g0
(g38
g2
Ntp56
Rp57
(dp58
g25
I00
sg31
I01
sg32
I00
sg42
F2.0
sbsV_filename
p59
V/afs/cern.ch/work/r/rpradhan/Tracking_Studies/newCode_AfterRun3/ForEffTest/CMSSW_13_2_5_patch1/src/HeavyIonsAnalysis/EventAnalysis/python/clusterCompatibilityFilter_cfi.py
p60
sV_lineNumber
p61
I3
sV_Labelable__label
p62
g10
sbsVhltPixelClusterShapeFilter
p63
g0
(g11
g2
Ntp64
Rp65
(dp66
g15
VHLTPixelClusterShapeFilter
p67
sg17
(lp68
VsaveTags
p69
aVinputTag
p70
ag20
ag21
aVzStep
p71
ag22
ag23
ag24
aVmightGet
p72
asg25
I00
sg26
Nsg69
g0
(cFWCore.ParameterSet.Types
bool
p73
g2
Ntp74
Rp75
(dp76
g25
I00
sg31
I01
sg32
I00
sg42
I01
sbsg32
I01
sg70
g0
(g27
g2
Ntp77
Rp78
(dp79
g25
I00
sg31
I01
sg32
I01
sg33
VsiPixelRecHits
p80
sg35
g36
sg37
g36
sbsg20
g0
(g38
g2
Ntp81
Rp82
(dp83
g25
I00
sg31
I01
sg32
I00
sg42
I-20
sbsg21
g0
(g38
g2
Ntp84
Rp85
(dp86
g25
I00
sg31
I01
sg32
I00
sg42
F20.05
sbsg71
g0
(g38
g2
Ntp87
Rp88
(dp89
g25
I00
sg31
I01
sg32
I00
sg42
F0.2
sbsg22
g0
(g46
g47
(lp90
I0
aF0.0045
atp91
Rp92
(dp93
g25
I00
sg31
I01
sg32
I00
sbsg23
g0
(g52
g2
Ntp94
Rp95
(dp96
g25
I00
sg31
I01
sg32
I00
sg42
I150
sbsg24
g0
(g38
g2
Ntp97
Rp98
(dp99
g25
I00
sg31
I01
sg32
I00
sg42
I2
sbsg72
g0
(cFWCore.ParameterSet.Types
_OptionalParameter
p100
g2
Ntp101
Rp102
(dp103
g25
I00
sg31
I00
sg32
I00
sV_ProxyParameter__type
p104
cFWCore.ParameterSet.Types
vstring
p105
sV_ProxyParameter__value
p106
Nsbsg59
V/cvmfs/cms.cern.ch/el8_amd64_gcc11/cms/cmssw-patch/CMSSW_13_2_5_patch1/cfipython/el8_amd64_gcc11/HLTrigger/special/hltPixelClusterShapeFilter_cfi.py
p107
sg61
I3
sg62
g63
sbsVprimaryVertexFilter
p108
g0
(g11
g2
Ntp109
Rp110
(dp111
g15
VVertexSelector
p112
sg17
(lp113
Vsrc
p114
aVcut
p115
aVfilter
p116
asg25
I00
sg26
Nsg114
g0
(g27
g2
Ntp117
Rp118
(dp119
g25
I00
sg31
I01
sg32
I00
sg33
VofflineSlimmedPrimaryVertices
p120
sg35
g36
sg37
g36
sbsg32
I00
sg115
g0
(cFWCore.ParameterSet.Types
string
p121
g2
Ntp122
Rp123
(dp124
g25
I00
sg31
I01
sg32
I00
sg42
V!isFake && abs(z) <= 25 && position.Rho <= 2
p125
sbsg116
g0
(g73
g2
Ntp126
Rp127
(dp128
g25
I00
sg31
I01
sg32
I00
sg42
I01
sbsg59
V/afs/cern.ch/work/r/rpradhan/Tracking_Studies/newCode_AfterRun3/ForEffTest/CMSSW_13_2_5_patch1/src/HeavyIonsAnalysis/EventAnalysis/python/collisionEventSelection_cff.py
p129
sg61
I5
sg62
g108
sbsVphfCoincFilter1Th3
p130
g0
(g11
g2
Ntp131
Rp132
(dp133
g15
VHiHFFilter
p134
sg17
(lp135
VHFfilters
p136
aVthreshold
p137
aVminnumtowers
p138
asg25
I00
sg26
Nsg136
g0
(g27
g2
Ntp139
Rp140
(dp141
g25
I00
sg31
I01
sg32
I00
sg33
VhiHFfilters
p142
sg35
g142
sg37
g36
sbsg32
I00
sg137
g0
(g52
g2
Ntp143
Rp144
(dp145
g25
I00
sg31
I01
sg32
I01
sg42
I3
sbsg138
g0
(g52
g2
Ntp146
Rp147
(dp148
g25
I00
sg31
I01
sg32
I01
sg42
I1
sbsg59
V/afs/cern.ch/work/r/rpradhan/Tracking_Studies/newCode_AfterRun3/ForEffTest/CMSSW_13_2_5_patch1/src/HeavyIonsAnalysis/EventAnalysis/python/hffilter_cfi.py
p149
sg61
I14
sg62
g130
sbsVphfCoincFilter1Th4
p150
g0
(g11
g2
Ntp151
Rp152
(dp153
g15
g134
sg17
(lp154
g136
ag137
ag138
asg25
I00
sg26
Nsg136
g0
(g27
g2
Ntp155
Rp156
(dp157
g25
I00
sg31
I01
sg32
I00
sg33
g142
sg35
g142
sg37
g36
sbsg32
I00
sg137
g0
(g52
g2
Ntp158
Rp159
(dp160
g25
I00
sg31
I01
sg32
I00
sg42
I4
sbsg138
g0
(g52
g2
Ntp161
Rp162
(dp163
g25
I00
sg31
I01
sg32
I01
sg42
I1
sbsg59
g149
sg61
I9
sg62
g150
sbsVphfCoincFilter1Th5
p164
g0
(g11
g2
Ntp165
Rp166
(dp167
g15
g134
sg17
(lp168
g136
ag137
ag138
asg25
I00
sg26
Nsg136
g0
(g27
g2
Ntp169
Rp170
(dp171
g25
I00
sg31
I01
sg32
I00
sg33
g142
sg35
g142
sg37
g36
sbsg32
I00
sg137
g0
(g52
g2
Ntp172
Rp173
(dp174
g25
I00
sg31
I01
sg32
I01
sg42
I5
sbsg138
g0
(g52
g2
Ntp175
Rp176
(dp177
g25
I00
sg31
I01
sg32
I01
sg42
I1
sbsg59
g149
sg61
I20
sg62
g164
sbsVphfCoincFilter1Th6
p178
g0
(g11
g2
Ntp179
Rp180
(dp181
g15
g134
sg17
(lp182
g136
ag137
ag138
asg25
I00
sg26
Nsg136
g0
(g27
g2
Ntp183
Rp184
(dp185
g25
I00
sg31
I01
sg32
I00
sg33
g142
sg35
g142
sg37
g36
sbsg32
I00
sg137
g0
(g52
g2
Ntp186
Rp187
(dp188
g25
I00
sg31
I01
sg32
I01
sg42
I6
sbsg138
g0
(g52
g2
Ntp189
Rp190
(dp191
g25
I00
sg31
I01
sg32
I01
sg42
I1
sbsg59
g149
sg61
I26
sg62
g178
sbsVphfCoincFilter2Th3
p192
g0
(g11
g2
Ntp193
Rp194
(dp195
g15
g134
sg17
(lp196
g136
ag137
ag138
asg25
I00
sg26
Nsg136
g0
(g27
g2
Ntp197
Rp198
(dp199
g25
I00
sg31
I01
sg32
I00
sg33
g142
sg35
g142
sg37
g36
sbsg32
I00
sg137
g0
(g52
g2
Ntp200
Rp201
(dp202
g25
I00
sg31
I01
sg32
I01
sg42
I3
sbsg138
g0
(g52
g2
Ntp203
Rp204
(dp205
g25
I00
sg31
I01
sg32
I00
sg42
I2
sbsg59
g149
sg61
I15
sg62
g192
sbsVphfCoincFilter2Th4
p206
g0
(g11
g2
Ntp207
Rp208
(dp209
g15
g134
sg17
(lp210
g136
ag137
ag138
asg25
I00
sg26
Nsg136
g0
(g27
g2
Ntp211
Rp212
(dp213
g25
I00
sg31
I01
sg32
I00
sg33
g142
sg35
g142
sg37
g36
sbsg32
I00
sg137
g0
(g52
g2
Ntp214
Rp215
(dp216
g25
I00
sg31
I01
sg32
I00
sg42
I4
sbsg138
g0
(g52
g2
Ntp217
Rp218
(dp219
g25
I00
sg31
I01
sg32
I00
sg42
I2
sbsg59
g149
sg61
I3
sg62
g206
sbsVphfCoincFilter2Th5
p220
g0
(g11
g2
Ntp221
Rp222
(dp223
g15
g134
sg17
(lp224
g136
ag137
ag138
asg25
I00
sg26
Nsg136
g0
(g27
g2
Ntp225
Rp226
(dp227
g25
I00
sg31
I01
sg32
I00
sg33
g142
sg35
g142
sg37
g36
sbsg32
I00
sg137
g0
(g52
g2
Ntp228
Rp229
(dp230
g25
I00
sg31
I01
sg32
I01
sg42
I5
sbsg138
g0
(g52
g2
Ntp231
Rp232
(dp233
g25
I00
sg31
I01
sg32
I00
sg42
I2
sbsg59
g149
sg61
I21
sg62
g220
sbsVphfCoincFilter2Th6
p234
g0
(g11
g2
Ntp235
Rp236
(dp237
g15
g134
sg17
(lp238
g136
ag137
ag138
asg25
I00
sg26
Nsg136
g0
(g27
g2
Ntp239
Rp240
(dp241
g25
I00
sg31
I01
sg32
I00
sg33
g142
sg35
g142
sg37
g36
sbsg32
I00
sg137
g0
(g52
g2
Ntp242
Rp243
(dp244
g25
I00
sg31
I01
sg32
I01
sg42
I6
sbsg138
g0
(g52
g2
Ntp245
Rp246
(dp247
g25
I00
sg31
I01
sg32
I00
sg42
I2
sbsg59
g149
sg61
I27
sg62
g234
sbsVphfCoincFilter3Th3
p248
g0
(g11
g2
Ntp249
Rp250
(dp251
g15
g134
sg17
(lp252
g136
ag137
ag138
asg25
I00
sg26
Nsg136
g0
(g27
g2
Ntp253
Rp254
(dp255
g25
I00
sg31
I01
sg32
I00
sg33
g142
sg35
g142
sg37
g36
sbsg32
I00
sg137
g0
(g52
g2
Ntp256
Rp257
(dp258
g25
I00
sg31
I01
sg32
I01
sg42
I3
sbsg138
g0
(g52
g2
Ntp259
Rp260
(dp261
g25
I00
sg31
I01
sg32
I01
sg42
I3
sbsg59
g149
sg61
I16
sg62
g248
sbsVphfCoincFilter3Th4
p262
g0
(g11
g2
Ntp263
Rp264
(dp265
g15
g134
sg17
(lp266
g136
ag137
ag138
asg25
I00
sg26
Nsg136
g0
(g27
g2
Ntp267
Rp268
(dp269
g25
I00
sg31
I01
sg32
I00
sg33
g142
sg35
g142
sg37
g36
sbsg32
I00
sg137
g0
(g52
g2
Ntp270
Rp271
(dp272
g25
I00
sg31
I01
sg32
I00
sg42
I4
sbsg138
g0
(g52
g2
Ntp273
Rp274
(dp275
g25
I00
sg31
I01
sg32
I01
sg42
I3
sbsg59
g149
sg61
I10
sg62
g262
sbsVphfCoincFilter3Th5
p276
g0
(g11
g2
Ntp277
Rp278
(dp279
g15
g134
sg17
(lp280
g136
ag137
ag138
asg25
I00
sg26
Nsg136
g0
(g27
g2
Ntp281
Rp282
(dp283
g25
I00
sg31
I01
sg32
I00
sg33
g142
sg35
g142
sg37
g36
sbsg32
I00
sg137
g0
(g52
g2
Ntp284
Rp285
(dp286
g25
I00
sg31
I01
sg32
I01
sg42
I5
sbsg138
g0
(g52
g2
Ntp287
Rp288
(dp289
g25
I00
sg31
I01
sg32
I01
sg42
I3
sbsg59
g149
sg61
I22
sg62
g276
sbsVphfCoincFilter3Th6
p290
g0
(g11
g2
Ntp291
Rp292
(dp293
g15
g134
sg17
(lp294
g136
ag137
ag138
asg25
I00
sg26
Nsg136
g0
(g27
g2
Ntp295
Rp296
(dp297
g25
I00
sg31
I01
sg32
I00
sg33
g142
sg35
g142
sg37
g36
sbsg32
I00
sg137
g0
(g52
g2
Ntp298
Rp299
(dp300
g25
I00
sg31
I01
sg32
I01
sg42
I6
sbsg138
g0
(g52
g2
Ntp301
Rp302
(dp303
g25
I00
sg31
I01
sg32
I01
sg42
I3
sbsg59
g149
sg61
I28
sg62
g290
sbsVphfCoincFilter4Th2
p304
g0
(g11
g2
Ntp305
Rp306
(dp307
g15
g134
sg17
(lp308
g136
ag137
ag138
asg25
I00
sg26
Nsg136
g0
(g27
g2
Ntp309
Rp310
(dp311
g25
I00
sg31
I01
sg32
I00
sg33
g142
sg35
g142
sg37
g36
sbsg32
I00
sg137
g0
(g52
g2
Ntp312
Rp313
(dp314
g25
I00
sg31
I01
sg32
I01
sg42
I2
sbsg138
g0
(g52
g2
Ntp315
Rp316
(dp317
g25
I00
sg31
I01
sg32
I01
sg42
I4
sbsg59
g149
sg61
I32
sg62
g304
sbsVphfCoincFilter4Th3
p318
g0
(g11
g2
Ntp319
Rp320
(dp321
g15
g134
sg17
(lp322
g136
ag137
ag138
asg25
I00
sg26
Nsg136
g0
(g27
g2
Ntp323
Rp324
(dp325
g25
I00
sg31
I01
sg32
I00
sg33
g142
sg35
g142
sg37
g36
sbsg32
I00
sg137
g0
(g52
g2
Ntp326
Rp327
(dp328
g25
I00
sg31
I01
sg32
I01
sg42
I3
sbsg138
g0
(g52
g2
Ntp329
Rp330
(dp331
g25
I00
sg31
I01
sg32
I01
sg42
I4
sbsg59
g149
sg61
I17
sg62
g318
sbsVphfCoincFilter4Th4
p332
g0
(g11
g2
Ntp333
Rp334
(dp335
g15
g134
sg17
(lp336
g136
ag137
ag138
asg25
I00
sg26
Nsg136
g0
(g27
g2
Ntp337
Rp338
(dp339
g25
I00
sg31
I01
sg32
I00
sg33
g142
sg35
g142
sg37
g36
sbsg32
I00
sg137
g0
(g52
g2
Ntp340
Rp341
(dp342
g25
I00
sg31
I01
sg32
I00
sg42
I4
sbsg138
g0
(g52
g2
Ntp343
Rp344
(dp345
g25
I00
sg31
I01
sg32
I01
sg42
I4
sbsg59
g149
sg61
I11
sg62
g332
sbsVphfCoincFilter4Th5
p346
g0
(g11
g2
Ntp347
Rp348
(dp349
g15
g134
sg17
(lp350
g136
ag137
ag138
asg25
I00
sg26
Nsg136
g0
(g27
g2
Ntp351
Rp352
(dp353
g25
I00
sg31
I01
sg32
I00
sg33
g142
sg35
g142
sg37
g36
sbsg32
I00
sg137
g0
(g52
g2
Ntp354
Rp355
(dp356
g25
I00
sg31
I01
sg32
I01
sg42
I5
sbsg138
g0
(g52
g2
Ntp357
Rp358
(dp359
g25
I00
sg31
I01
sg32
I01
sg42
I4
sbsg59
g149
sg61
I23
sg62
g346
sbsVphfCoincFilter4Th6
p360
g0
(g11
g2
Ntp361
Rp362
(dp363
g15
g134
sg17
(lp364
g136
ag137
ag138
asg25
I00
sg26
Nsg136
g0
(g27
g2
Ntp365
Rp366
(dp367
g25
I00
sg31
I01
sg32
I00
sg33
g142
sg35
g142
sg37
g36
sbsg32
I00
sg137
g0
(g52
g2
Ntp368
Rp369
(dp370
g25
I00
sg31
I01
sg32
I01
sg42
I6
sbsg138
g0
(g52
g2
Ntp371
Rp372
(dp373
g25
I00
sg31
I01
sg32
I01
sg42
I4
sbsg59
g149
sg61
I29
sg62
g360
sbsVphfCoincFilter5Th3
p374
g0
(g11
g2
Ntp375
Rp376
(dp377
g15
g134
sg17
(lp378
g136
ag137
ag138
asg25
I00
sg26
Nsg136
g0
(g27
g2
Ntp379
Rp380
(dp381
g25
I00
sg31
I01
sg32
I00
sg33
g142
sg35
g142
sg37
g36
sbsg32
I00
sg137
g0
(g52
g2
Ntp382
Rp383
(dp384
g25
I00
sg31
I01
sg32
I01
sg42
I3
sbsg138
g0
(g52
g2
Ntp385
Rp386
(dp387
g25
I00
sg31
I01
sg32
I01
sg42
I5
sbsg59
g149
sg61
I18
sg62
g374
sbsVphfCoincFilter5Th4
p388
g0
(g11
g2
Ntp389
Rp390
(dp391
g15
g134
sg17
(lp392
g136
ag137
ag138
asg25
I00
sg26
Nsg136
g0
(g27
g2
Ntp393
Rp394
(dp395
g25
I00
sg31
I01
sg32
I00
sg33
g142
sg35
g142
sg37
g36
sbsg32
I00
sg137
g0
(g52
g2
Ntp396
Rp397
(dp398
g25
I00
sg31
I01
sg32
I00
sg42
I4
sbsg138
g0
(g52
g2
Ntp399
Rp400
(dp401
g25
I00
sg31
I01
sg32
I01
sg42
I5
sbsg59
g149
sg61
I12
sg62
g388
sbsVphfCoincFilter5Th5
p402
g0
(g11
g2
Ntp403
Rp404
(dp405
g15
g134
sg17
(lp406
g136
ag137
ag138
asg25
I00
sg26
Nsg136
g0
(g27
g2
Ntp407
Rp408
(dp409
g25
I00
sg31
I01
sg32
I00
sg33
g142
sg35
g142
sg37
g36
sbsg32
I00
sg137
g0
(g52
g2
Ntp410
Rp411
(dp412
g25
I00
sg31
I01
sg32
I01
sg42
I5
sbsg138
g0
(g52
g2
Ntp413
Rp414
(dp415
g25
I00
sg31
I01
sg32
I01
sg42
I5
sbsg59
g149
sg61
I24
sg62
g402
sbsVphfCoincFilter5Th6
p416
g0
(g11
g2
Ntp417
Rp418
(dp419
g15
g134
sg17
(lp420
g136
ag137
ag138
asg25
I00
sg26
Nsg136
g0
(g27
g2
Ntp421
Rp422
(dp423
g25
I00
sg31
I01
sg32
I00
sg33
g142
sg35
g142
sg37
g36
sbsg32
I00
sg137
g0
(g52
g2
Ntp424
Rp425
(dp426
g25
I00
sg31
I01
sg32
I01
sg42
I6
sbsg138
g0
(g52
g2
Ntp427
Rp428
(dp429
g25
I00
sg31
I01
sg32
I01
sg42
I5
sbsg59
g149
sg61
I30
sg62
g416
sbsVhltMB
p430
g0
(g11
g2
Ntp431
Rp432
(dp433
g15
VHLTHighLevel
p434
sg17
(lp435
VTriggerResultsTag
p436
aVHLTPaths
p437
aVeventSetupPathsKey
p438
aVandOr
p439
aVthrow
p440
ag72
asg25
I00
sg26
Nsg436
g0
(g27
g2
Ntp441
Rp442
(dp443
g25
I00
sg31
I01
sg32
I00
sg33
VTriggerResults
p444
sg35
g36
sg37
VHLT
p445
sbsg32
I01
sg437
g0
(g105
g47
(lp446
VHLT_HIMinimumBiasHF1AND*
p447
atp448
Rp449
(dp450
g25
I00
sg31
I01
sg32
I01
sV_nPerLine
p451
I1
sbsg438
g0
(g121
g2
Ntp452
Rp453
(dp454
g25
I00
sg31
I01
sg32
I00
sg42
g36
sbsg439
g0
(g73
g2
Ntp455
Rp456
(dp457
g25
I00
sg31
I01
sg32
I00
sg42
I01
sbsg440
g0
(g73
g2
Ntp458
Rp459
(dp460
g25
I00
sg31
I01
sg32
I00
sg42
I00
sbsg72
g0
(g100
g2
Ntp461
Rp462
(dp463
g25
I00
sg31
I00
sg32
I00
sg104
g105
sg106
Nsbsg59
V/afs/cern.ch/work/r/rpradhan/Tracking_Studies/newCode_AfterRun3/ForEffTest/CMSSW_13_2_5_patch1/src/Analyzers/RaghuEffTest/cfg/EfficiecnyTest_genTrk_cfg.py
p464
sg61
I123
sg62
g430
sbssV_Process__producers
p465
(dp466
VrandomEngineStateProducer
p467
g0
(cFWCore.ParameterSet.Modules
EDProducer
p468
g2
Ntp469
Rp470
(dp471
g15
VRandomEngineStateProducer
p472
sg17
(lp473
sg25
I00
sg26
Nsg32
I00
sg59
V/cvmfs/cms.cern.ch/el8_amd64_gcc11/cms/cmssw-patch/CMSSW_13_2_5_patch1/src/IOMC/RandomEngine/python/IOMC_cff.py
p474
sg61
I172
sg62
g467
sbsVgeneralAndHiPixelTracks
p475
g0
(g468
g2
Ntp476
Rp477
(dp478
g15
g475
sg17
(lp479
VsrcPFcand
p480
aVchi2Map
p481
aVgenTrackSrc
p482
aVpixTrackSrc
p483
aVvertexSrc
p484
aVcentralitySrc
p485
aVmvaSrc
p486
aVcutWidth
p487
aVtrkRes
p488
aVqualityString
p489
aVdxyErrMax
p490
aVdzErrMax
p491
aVptErrMax
p492
aVnhitsMin
p493
aVchi2nMax
p494
aVchi2nMaxPixel
p495
aVdzErrMaxPixel
p496
aVdxyErrMaxPixel
p497
asg25
I00
sg26
Nsg480
g0
(g27
g2
Ntp498
Rp499
(dp500
g25
I00
sg31
I01
sg32
I00
sg33
VpackedPFCandidates
p501
sg35
g36
sg37
g36
sbsg32
I00
sg481
g0
(g27
g2
Ntp502
Rp503
(dp504
g25
I00
sg31
I01
sg32
I00
sg33
VpackedPFCandidateTrackChi2
p505
sg35
g36
sg37
g36
sbsg482
g0
(g27
g2
Ntp506
Rp507
(dp508
g25
I00
sg31
I01
sg32
I00
sg33
VgeneralTracks
p509
sg35
g36
sg37
g36
sbsg483
g0
(g27
g2
Ntp510
Rp511
(dp512
g25
I00
sg31
I01
sg32
I00
sg33
VhiPixelTracks
p513
sg35
g36
sg37
g36
sbsg484
g0
(g27
g2
Ntp514
Rp515
(dp516
g25
I00
sg31
I01
sg32
I00
sg33
VofflineSlimmedPrimaryVerticesRecovery
p517
sg35
g36
sg37
g36
sbsg485
g0
(g27
g2
Ntp518
Rp519
(dp520
g25
I00
sg31
I01
sg32
I00
sg33
VcentralityBin
p521
sg35
VHFtowers
p522
sg37
g36
sbsg486
g0
(g27
g2
Ntp523
Rp524
(dp525
g25
I00
sg31
I01
sg32
I00
sg33
g509
sg35
VMVAValues
p526
sg37
g36
sbsg487
g0
(g38
g2
Ntp527
Rp528
(dp529
g25
I00
sg31
I01
sg32
I00
sg42
F0.2
sbsg488
g0
(g38
g2
Ntp530
Rp531
(dp532
g25
I00
sg31
I01
sg32
I00
sg42
F0.02
sbsg489
g0
(g121
g2
Ntp533
Rp534
(dp535
g25
I00
sg31
I01
sg32
I00
sg42
VhighPurity
p536
sbsg490
g0
(g38
g2
Ntp537
Rp538
(dp539
g25
I00
sg31
I01
sg32
I00
sg42
F3.0
sbsg491
g0
(g38
g2
Ntp540
Rp541
(dp542
g25
I00
sg31
I01
sg32
I00
sg42
F3.0
sbsg492
g0
(g38
g2
Ntp543
Rp544
(dp545
g25
I00
sg31
I01
sg32
I00
sg42
F0.1
sbsg493
g0
(g52
g2
Ntp546
Rp547
(dp548
g25
I00
sg31
I01
sg32
I00
sg42
I11
sbsg494
g0
(g38
g2
Ntp549
Rp550
(dp551
g25
I00
sg31
I01
sg32
I00
sg42
F0.18
sbsg495
g0
(g38
g2
Ntp552
Rp553
(dp554
g25
I00
sg31
I01
sg32
I00
sg42
F9999.0
sbsg496
g0
(g38
g2
Ntp555
Rp556
(dp557
g25
I00
sg31
I01
sg32
I00
sg42
F20.0
sbsg497
g0
(g38
g2
Ntp558
Rp559
(dp560
g25
I00
sg31
I01
sg32
I00
sg42
F7.0
sbsg59
V/afs/cern.ch/work/r/rpradhan/Tracking_Studies/newCode_AfterRun3/ForEffTest/CMSSW_13_2_5_patch1/src/MergingProducer/generalAndHiPixelTracks/python/MergingPixAndGenProducer_cfi.py
p561
sg61
I3
sg62
g475
sbsg521
g0
(g468
g2
Ntp562
Rp563
(dp564
g15
VCentralityBinProducer
p565
sg17
(lp566
VCentrality
p567
aVcentralityVariable
p568
aVnonDefaultGlauberModel
p569
aVpPbRunFlip
p570
asg25
I00
sg26
Nsg567
g0
(g27
g2
Ntp571
Rp572
(dp573
g25
I00
sg31
I01
sg32
I00
sg33
VhiCentrality
p574
sg35
g36
sg37
g36
sbsg32
I01
sg568
g0
(g121
g2
Ntp575
Rp576
(dp577
g25
I00
sg31
I01
sg32
I00
sg42
g522
sbsg569
g0
(g121
g2
Ntp578
Rp579
(dp580
g25
I00
sg31
I01
sg32
I00
sg42
g36
sbsg570
g0
(cFWCore.ParameterSet.Types
uint32
p581
g2
Ntp582
Rp583
(dp584
g25
I00
sg31
I01
sg32
I00
sg42
I99999999
sbsg59
V/cvmfs/cms.cern.ch/el8_amd64_gcc11/cms/cmssw-patch/CMSSW_13_2_5_patch1/src/RecoHI/HiCentralityAlgos/python/CentralityBin_cfi.py
p585
sg61
I3
sg62
g521
sbsg80
g0
(g468
g2
Ntp586
Rp587
(dp588
g15
VSiPixelRecHitConverter
p589
sg17
(lp590
g114
aVCPE
p591
aVVerboseLevel
p592
asg25
I00
sg26
Nsg114
g0
(g27
g2
Ntp593
Rp594
(dp595
g25
I00
sg31
I01
sg32
I00
sg33
VsiPixelClusters
p596
sg35
g36
sg37
g36
sbsg32
I00
sg591
g0
(g121
g2
Ntp597
Rp598
(dp599
g25
I00
sg31
I01
sg32
I00
sg42
VPixelCPEGeneric
p600
sbsg592
g0
(g52
g2
Ntp601
Rp602
(dp603
g25
I00
sg31
I00
sg32
I00
sg42
I0
sbsg59
V/cvmfs/cms.cern.ch/el8_amd64_gcc11/cms/cmssw-patch/CMSSW_13_2_5_patch1/src/RecoLocalTracker/SiPixelRecHits/python/SiPixelRecHits_cfi.py
p604
sg61
I6
sg62
g80
sbsVsiPixelRecHitsPreSplittingCPU
p605
g0
(g468
g2
Ntp606
Rp607
(dp608
g15
VSiPixelRecHitSoAFromLegacyPhase1
p609
sg17
(lp610
VbeamSpot
p611
ag114
ag591
aVconvertToLegacy
p612
ag72
asg25
I00
sg26
Nsg611
g0
(g27
g2
Ntp613
Rp614
(dp615
g25
I00
sg31
I01
sg32
I00
sg33
VofflineBeamSpot
p616
sg35
g36
sg37
g36
sbsg32
I00
sg114
g0
(g27
g2
Ntp617
Rp618
(dp619
g25
I00
sg31
I01
sg32
I00
sg33
VsiPixelClustersPreSplitting
p620
sg35
g36
sg37
g36
sbsg591
g0
(g121
g2
Ntp621
Rp622
(dp623
g25
I00
sg31
I01
sg32
I00
sg42
VPixelCPEFast
p624
sbsg612
g0
(g73
g2
Ntp625
Rp626
(dp627
g25
I00
sg31
I01
sg32
I01
sg42
I01
sbsg72
g0
(g100
g2
Ntp628
Rp629
(dp630
g25
I00
sg31
I00
sg32
I00
sg104
g105
sg106
Nsbsg59
g604
sg61
I29
sg62
g605
sbsVsiPixelRecHitsPreSplittingCUDA
p631
g0
(g468
g2
Ntp632
Rp633
(dp634
g15
VSiPixelRecHitCUDAPhase1
p635
sg17
(lp636
g611
ag114
ag591
ag72
asg25
I00
sg26
Nsg611
g0
(g27
g2
Ntp637
Rp638
(dp639
g25
I00
sg31
I01
sg32
I01
sg33
VofflineBeamSpotToCUDA
p640
sg35
g36
sg37
g36
sbsg32
I00
sg114
g0
(g27
g2
Ntp641
Rp642
(dp643
g25
I00
sg31
I01
sg32
I00
sg33
VsiPixelClustersPreSplittingCUDA
p644
sg35
g36
sg37
g36
sbsg591
g0
(g121
g2
Ntp645
Rp646
(dp647
g25
I00
sg31
I01
sg32
I00
sg42
g624
sbsg72
g0
(g100
g2
Ntp648
Rp649
(dp650
g25
I00
sg31
I00
sg32
I00
sg104
g105
sg106
Nsbsg59
g604
sg61
I54
sg62
g631
sbssV_Process__switchproducers
p651
(dp652
VsiPixelRecHitsPreSplitting
p653
g0
(cHeterogeneousCore.CUDACore.SwitchProducerCUDA
SwitchProducerCUDA
p654
g2
Ntp655
Rp656
(dp657
g15
Nsg17
(lp658
Vcpu
p659
asg25
I00
sg26
Nsg32
I00
sg59
V/cvmfs/cms.cern.ch/el8_amd64_gcc11/cms/cmssw-patch/CMSSW_13_2_5_patch1/src/FWCore/ParameterSet/python/Modules.py
p660
sg61
I250
sV_caseFunctionDict
p661
(dp662
g659
cFWCore.ParameterSet.Modules
_switch_cpu
p663
sVcuda
p664
cHeterogeneousCore.CUDACore.SwitchProducerCUDA
_switch_cuda
p665
ssg659
g0
(g468
g2
Ntp666
Rp667
(dp668
g15
g589
sg17
(lp669
g114
ag591
ag592
asg25
I00
sg26
Nsg114
g0
(g27
g2
Ntp670
Rp671
(dp672
g25
I00
sg31
I01
sg32
I01
sg33
g620
sg35
g36
sg37
g36
sbsg32
I00
sg591
g0
(g121
g2
Ntp673
Rp674
(dp675
g25
I00
sg31
I01
sg32
I00
sg42
g600
sbsg592
g0
(g52
g2
Ntp676
Rp677
(dp678
g25
I00
sg31
I00
sg32
I00
sg42
I0
sbsg59
g604
sg61
I14
sg62
VsiPixelRecHitsPreSplitting@cpu
p679
sbsg62
g653
sbsVsiPixelRecHitsPreSplittingSoA
p680
g0
(g654
g2
Ntp681
Rp682
(dp683
g15
Nsg17
(lp684
g659
asg25
I00
sg26
Nsg32
I00
sg59
g660
sg61
I250
sg661
(dp685
g659
g663
sg664
g665
ssg659
g0
(cFWCore.ParameterSet.Types
EDAlias
p686
g2
Ntp687
Rp688
(dp689
g17
(lp690
g605
asg25
I00
sg26
Nsg605
g0
(cFWCore.ParameterSet.Types
VPSet
p691
g47
(lp692
g0
(cFWCore.ParameterSet.Types
PSet
p693
g2
Ntp694
Rp695
(dp696
g25
I00
sg31
I01
sg32
I00
sg17
(lp697
Vtype
p698
asg26
Nsg698
g0
(g121
g2
Ntp699
Rp700
(dp701
g25
I00
sg31
I01
sg32
I00
sg42
VpixelTopologyPhase1TrackingRecHitSoAHost
p702
sbsbag0
(g693
g2
Ntp703
Rp704
(dp705
g25
I00
sg31
I01
sg32
I00
sg17
(lp706
g698
asg26
Nsg698
g0
(g121
g2
Ntp707
Rp708
(dp709
g25
I00
sg31
I01
sg32
I00
sg42
VuintAsHostProduct
p710
sbsbatp711
Rp712
(dp713
g25
I00
sg31
I01
sg32
I00
sg451
I1
sbsg32
I00
sg62
VsiPixelRecHitsPreSplittingSoA@cpu
p714
sbsg62
g680
sbssV_Process__source
p715
g0
(cFWCore.ParameterSet.Modules
Source
p716
g2
Ntp717
Rp718
(dp719
g15
VPoolSource
p720
sg17
(lp721
VfileNames
p722
aVduplicateCheckMode
p723
aVskipBadFiles
p724
asg25
I00
sg26
Nsg722
g0
(g105
g47
(lp725
V/store/user/sarteaga/MinBias_PbPb_5p36TeV_Hydjet_v1/MinBias_PbPb_5p36TeV_Hydjet_RECODEBUG_v5/231023_223729/0000/stepRECO_1.root
p726
aV/store/user/sarteaga/MinBias_PbPb_5p36TeV_Hydjet_v1/MinBias_PbPb_5p36TeV_Hydjet_RECODEBUG_v5/231023_223729/0000/stepRECO_10.root
p727
atp728
Rp729
(dp730
g25
I00
sg31
I00
sg32
I00
sg451
I1
sbsg32
I00
sg723
g0
(g121
g2
Ntp731
Rp732
(dp733
g25
I00
sg31
I00
sg32
I00
sg42
VnoDuplicateCheck
p734
sbsg724
g0
(g73
g2
Ntp735
Rp736
(dp737
g25
I00
sg31
I00
sg32
I00
sg42
I01
sbsg59
g660
sg61
I195
sbsV_Process__looper
p738
NsV_Process__subProcesses
p739
(lp740
sV_Process__schedule
p741
NsV_Process__analyzers
p742
(dp743
VhiEvtAnalyzer
p744
g0
(cFWCore.ParameterSet.Modules
EDAnalyzer
p745
g2
Ntp746
Rp747
(dp748
g15
VHiEvtAnalyzer
p749
sg17
(lp750
VCentralitySrc
p751
aVCentralityBinSrc
p752
aVpfCandidateSrc
p753
aVEvtPlane
p754
aVEvtPlaneFlat
p755
aVHiMC
p756
aVVertex
p757
ag136
aVdoCentrality
p758
aVdoEvtPlane
p759
aVdoEvtPlaneFlat
p760
aVdoVertex
p761
aVdoMC
p762
aVdoHiMC
p763
aVuseHepMC
p764
aVdoHFfilters
p765
aVevtPlaneLevel
p766
asg25
I00
sg26
Nsg751
g0
(g27
g2
Ntp767
Rp768
(dp769
g25
I00
sg31
I01
sg32
I00
sg33
g574
sg35
g36
sg37
g36
sbsg32
I00
sg752
g0
(g27
g2
Ntp770
Rp771
(dp772
g25
I00
sg31
I01
sg32
I00
sg33
g521
sg35
g522
sg37
g36
sbsg753
g0
(g27
g2
Ntp773
Rp774
(dp775
g25
I00
sg31
I01
sg32
I00
sg33
g501
sg35
g36
sg37
g36
sbsg754
g0
(g27
g2
Ntp776
Rp777
(dp778
g25
I00
sg31
I01
sg32
I00
sg33
VhiEvtPlane
p779
sg35
g36
sg37
g36
sbsg755
g0
(g27
g2
Ntp780
Rp781
(dp782
g25
I00
sg31
I01
sg32
I00
sg33
VhiEvtPlaneFlat
p783
sg35
g36
sg37
g36
sbsg756
g0
(g27
g2
Ntp784
Rp785
(dp786
g25
I00
sg31
I01
sg32
I00
sg33
VheavyIon
p787
sg35
g36
sg37
g36
sbsg757
g0
(g27
g2
Ntp788
Rp789
(dp790
g25
I00
sg31
I01
sg32
I00
sg33
g120
sg35
g36
sg37
g36
sbsg136
g0
(g27
g2
Ntp791
Rp792
(dp793
g25
I00
sg31
I01
sg32
I00
sg33
g142
sg35
g142
sg37
g36
sbsg758
g0
(g73
g2
Ntp794
Rp795
(dp796
g25
I00
sg31
I01
sg32
I00
sg42
I01
sbsg759
g0
(g73
g2
Ntp797
Rp798
(dp799
g25
I00
sg31
I01
sg32
I00
sg42
I01
sbsg760
g0
(g73
g2
Ntp800
Rp801
(dp802
g25
I00
sg31
I01
sg32
I00
sg42
I01
sbsg761
g0
(g73
g2
Ntp803
Rp804
(dp805
g25
I00
sg31
I01
sg32
I00
sg42
I01
sbsg762
g0
(g73
g2
Ntp806
Rp807
(dp808
g25
I00
sg31
I01
sg32
I00
sg42
I00
sbsg763
g0
(g73
g2
Ntp809
Rp810
(dp811
g25
I00
sg31
I01
sg32
I00
sg42
I00
sbsg764
g0
(g73
g2
Ntp812
Rp813
(dp814
g25
I00
sg31
I01
sg32
I00
sg42
I00
sbsg765
g0
(g73
g2
Ntp815
Rp816
(dp817
g25
I00
sg31
I01
sg32
I00
sg42
I01
sbsg766
g0
(g52
g2
Ntp818
Rp819
(dp820
g25
I00
sg31
I01
sg32
I00
sg42
I0
sbsg59
V/afs/cern.ch/work/r/rpradhan/Tracking_Studies/newCode_AfterRun3/ForEffTest/CMSSW_13_2_5_patch1/src/HeavyIonsAnalysis/EventAnalysis/python/hievtanalyzer_data_cfi.py
p821
sg61
I3
sg62
g744
sbsVdefaultCPDC
p822
g0
(g745
g2
Ntp823
Rp824
(dp825
g15
g7
sg17
(lp826
Vtracks
p827
aVtracksgen
p828
aVvertex
p829
aVcentralitybin
p830
aVzminVtx
p831
aVzmaxVtx
p832
aVfGeneral
p833
aVpTBins
p834
aVetaBins
p835
aVcentbins
p836
aValgoParameters
p837
asg25
I00
sg26
Nsg827
g0
(g27
g2
Ntp838
Rp839
(dp840
g25
I00
sg31
I01
sg32
I00
sg33
g509
sg35
g36
sg37
g36
sbsg32
I00
sg828
g0
(g27
g2
Ntp841
Rp842
(dp843
g25
I00
sg31
I01
sg32
I00
sg33
VgenParticles
p844
sg35
g36
sg37
g36
sbsg829
g0
(g27
g2
Ntp845
Rp846
(dp847
g25
I00
sg31
I01
sg32
I00
sg33
VofflinePrimaryVertices
p848
sg35
g36
sg37
g36
sbsg830
g0
(g27
g2
Ntp849
Rp850
(dp851
g25
I00
sg31
I01
sg32
I00
sg33
g521
sg35
g522
sg37
g36
sbsg831
g0
(g38
g2
Ntp852
Rp853
(dp854
g25
I00
sg31
I00
sg32
I00
sg42
F-15.0
sbsg832
g0
(g38
g2
Ntp855
Rp856
(dp857
g25
I00
sg31
I00
sg32
I00
sg42
F15.0
sbsg833
g0
(g27
g2
Ntp858
Rp859
(dp860
g25
I00
sg31
I00
sg32
I00
sg33
VGeneral_TrackEff_3D_nhits0_V2.root
p861
sg35
g36
sg37
g36
sbsg834
g0
(g46
g47
(lp862
F0.0
aF0.05
aF0.1
aF0.15
aF0.2
aF0.25
aF0.3
aF0.35
aF0.4
aF0.45
aF0.5
aF0.55
aF0.6
aF0.65
aF0.7
aF0.75
aF0.8
aF0.85
aF0.9
aF0.95
aF1.0
aF1.05
aF1.1
aF1.15
aF1.2
aF1.3
aF1.4
aF1.5
aF1.6
aF1.7
aF1.8
aF1.9
aF2.0
aF2.5
aF3.0
atp863
Rp864
(dp865
g25
I00
sg31
I00
sg32
I00
sbsg835
g0
(g46
g47
(lp866
F-3.0
aF-2.4
aF-2.0
aF-1.6
aF-1.2
aF-0.8
aF-0.4
aF0.0
aF0.4
aF0.8
aF1.2
aF1.6
aF2.0
aF2.4
aF3.0
atp867
Rp868
(dp869
g25
I00
sg31
I00
sg32
I00
sbsg836
g0
(g46
g47
(lp870
F0.0
aF10.0
aF20.0
aF40.0
aF60.0
aF80.0
aF100.0
aF120.0
aF140.0
aF160.0
aF180.0
aF200.0
atp871
Rp872
(dp873
g25
I00
sg31
I00
sg32
I00
sbsg837
g0
(cFWCore.ParameterSet.Types
vint32
p874
g47
(lp875
I0
aI1
aI2
aI3
aI4
aI5
aI6
aI7
aI8
aI9
aI10
aI11
aI12
aI13
aI14
aI15
aI16
aI17
aI18
aI19
aI20
aI21
aI22
aI23
aI24
aI25
aI26
aI27
aI28
aI29
aI30
aI31
aI32
aI33
aI34
aI35
aI36
aI37
aI38
aI39
aI40
aI41
aI42
aI43
aI44
aI45
aI46
atp876
Rp877
(dp878
g25
I00
sg31
I01
sg32
I00
sbsg59
V/afs/cern.ch/work/r/rpradhan/Tracking_Studies/newCode_AfterRun3/ForEffTest/CMSSW_13_2_5_patch1/src/Analyzers/RaghuEffTest/python/RaghuEffTest_cfi.py
p879
sg61
I3
sg62
g822
sbssV_Process__outputmodules
p880
(dp881
sV_Process__paths
p882
g0
(cFWCore.ParameterSet.DictTypes
SortedKeysDict
p883
c__builtin__
dict
p884
(dp885
Vp
p886
g0
(cFWCore.ParameterSet.SequenceTypes
Path
p887
g2
Ntp888
Rp889
(dp890
g25
I00
sV_seq
p891
g0
(cFWCore.ParameterSet.SequenceTypes
_SequenceCollection
p892
g2
Ntp893
Rp894
(dp895
V_collection
p896
(lp897
g563
ag824
asbsg32
I00
sV_tasks
p898
g0
(cFWCore.ParameterSet.OrderedSet
OrderedSet
p899
g2
Ntp900
Rp901
(dp902
Vend
p903
(lp904
Nag904
ag904
asVmap
p905
(dp906
sbsg62
g886
sbstp907
Rp908
(dp909
Vlist
p910
(lp911
g886
asbsV_Process__endpaths
p912
g0
(g883
g884
(dp913
tp914
Rp915
(dp916
g910
(lp917
sbsV_Process__finalpaths
p918
g0
(g883
g884
(dp919
tp920
Rp921
(dp922
g910
(lp923
sbsV_Process__sequences
p924
(dp925
sV_Process__tasks
p926
(dp927
VsiPixelRecHitsPreSplittingTask
p928
g0
(cFWCore.ParameterSet.SequenceTypes
Task
p929
g2
Ntp930
Rp931
(dp932
g896
g0
(g899
g2
Ntp933
Rp934
(dp935
g903
(lp936
Na(lp937
g656
ag936
ag936
aag937
asg905
(dp938
g656
g937
ssbsg62
g928
sbssV_Process__conditionaltasks
p939
(dp940
sV_Process__services
p941
(dp942
VMessageLogger
p943
g0
(cFWCore.ParameterSet.Modules
Service
p944
g2
Ntp945
Rp946
(dp947
g15
g943
sg17
(lp948
VsuppressWarning
p949
aVsuppressFwkInfo
p950
aVsuppressInfo
p951
aVsuppressDebug
p952
aVdebugModules
p953
aVcout
p954
aVdefault
p955
aVcerr
p956
aVfiles
p957
asg25
I00
sg26
g0
(g100
g2
Ntp958
Rp959
(dp960
g25
I00
sg31
I00
sg32
I00
sg104
g0
(cFWCore.ParameterSet.Types
_PSetTemplate
p961
g2
Ntp962
Rp963
(dp964
V_pset
p965
g0
(g693
g2
Ntp966
Rp967
(dp968
g25
I00
sg31
I01
sg32
I00
sg17
(lp969
VreportEvery
p970
aVlimit
p971
aVtimespan
p972
asg26
Nsg970
g0
(g52
g2
Ntp973
Rp974
(dp975
g25
I00
sg31
I00
sg32
I00
sg42
I1
sbsg971
g0
(g100
g2
Ntp976
Rp977
(dp978
g25
I00
sg31
I00
sg32
I00
sg104
g52
sg106
Nsbsg972
g0
(g100
g2
Ntp979
Rp980
(dp981
g25
I00
sg31
I00
sg32
I00
sg104
g52
sg106
NsbsbsV_PSetTemplate__value
p982
Nsbsg106
Nsbsg949
g0
(g105
g47
(lp983
tp984
Rp985
(dp986
g25
I00
sg31
I00
sg32
I00
sg451
I1
sbsg32
I00
sg950
g0
(g105
g47
(lp987
tp988
Rp989
(dp990
g25
I00
sg31
I00
sg32
I00
sg451
I1
sbsg951
g0
(g105
g47
(lp991
tp992
Rp993
(dp994
g25
I00
sg31
I00
sg32
I00
sg451
I1
sbsg952
g0
(g105
g47
(lp995
tp996
Rp997
(dp998
g25
I00
sg31
I00
sg32
I00
sg451
I1
sbsg953
g0
(g105
g47
(lp999
tp1000
Rp1001
(dp1002
g25
I00
sg31
I00
sg32
I00
sg451
I1
sbsg954
g0
(g693
g2
Ntp1003
Rp1004
(dp1005
g25
I00
sg31
I00
sg32
I00
sg17
(lp1006
VnoLineBreaks
p1007
aVnoTimeStamps
p1008
aVlineLength
p1009
ag137
aVstatisticsThreshold
p1010
aVenableStatistics
p1011
aVresetStatistics
p1012
aVenable
p1013
asg26
g959
sg1007
g0
(g100
g2
Ntp1014
Rp1015
(dp1016
g25
I00
sg31
I00
sg32
I00
sg104
g73
sg106
Nsbsg1008
g0
(g100
g2
Ntp1017
Rp1018
(dp1019
g25
I00
sg31
I00
sg32
I00
sg104
g73
sg106
Nsbsg1009
g0
(g100
g2
Ntp1020
Rp1021
(dp1022
g25
I00
sg31
I00
sg32
I00
sg104
g52
sg106
Nsbsg137
g0
(g100
g2
Ntp1023
Rp1024
(dp1025
g25
I00
sg31
I00
sg32
I00
sg104
g121
sg106
Nsbsg1010
g0
(g100
g2
Ntp1026
Rp1027
(dp1028
g25
I00
sg31
I00
sg32
I00
sg104
g121
sg106
Nsbsg1011
g0
(g73
g2
Ntp1029
Rp1030
(dp1031
g25
I00
sg31
I00
sg32
I00
sg42
I00
sbsg1012
g0
(g73
g2
Ntp1032
Rp1033
(dp1034
g25
I00
sg31
I00
sg32
I00
sg42
I00
sbsg1013
g0
(g73
g2
Ntp1035
Rp1036
(dp1037
g25
I00
sg31
I00
sg32
I00
sg42
I00
sbsbsg955
g0
(g693
g2
Ntp1038
Rp1039
(dp1040
g25
I00
sg31
I00
sg32
I00
sg17
(lp1041
g970
ag971
ag972
ag1007
ag1008
ag1009
ag137
ag1010
asg26
g959
sg970
g0
(g52
g2
Ntp1042
Rp1043
(dp1044
g25
I00
sg31
I00
sg32
I00
sg42
I1
sbsg971
g0
(g100
g2
Ntp1045
Rp1046
(dp1047
g25
I00
sg31
I00
sg32
I00
sg104
g52
sg106
Nsbsg972
g0
(g100
g2
Ntp1048
Rp1049
(dp1050
g25
I00
sg31
I00
sg32
I00
sg104
g52
sg106
Nsbsg1007
g0
(g73
g2
Ntp1051
Rp1052
(dp1053
g25
I00
sg31
I00
sg32
I00
sg42
I00
sbsg1008
g0
(g73
g2
Ntp1054
Rp1055
(dp1056
g25
I00
sg31
I00
sg32
I00
sg42
I00
sbsg1009
g0
(g52
g2
Ntp1057
Rp1058
(dp1059
g25
I00
sg31
I00
sg32
I00
sg42
I80
sbsg137
g0
(g121
g2
Ntp1060
Rp1061
(dp1062
g25
I00
sg31
I00
sg32
I00
sg42
VINFO
p1063
sbsg1010
g0
(g121
g2
Ntp1064
Rp1065
(dp1066
g25
I00
sg31
I00
sg32
I00
sg42
g1063
sbsbsg956
g0
(g693
g2
Ntp1067
Rp1068
(dp1069
g25
I00
sg31
I00
sg32
I00
sg17
(lp1070
g1007
ag1008
ag1009
ag137
ag1010
ag1013
ag1011
ag1012
ag1063
aVFwkReport
p1071
ag955
aVRoot_NoDictionary
p1072
aVFwkSummary
p1073
asg26
g959
sg1007
g0
(g100
g2
Ntp1074
Rp1075
(dp1076
g25
I00
sg31
I00
sg32
I00
sg104
g73
sg106
Nsbsg1008
g0
(g73
g2
Ntp1077
Rp1078
(dp1079
g25
I00
sg31
I00
sg32
I00
sg42
I00
sbsg1009
g0
(g100
g2
Ntp1080
Rp1081
(dp1082
g25
I00
sg31
I00
sg32
I00
sg104
g52
sg106
Nsbsg137
g0
(g121
g2
Ntp1083
Rp1084
(dp1085
g25
I00
sg31
I00
sg32
I00
sg42
g1063
sbsg1010
g0
(g121
g2
Ntp1086
Rp1087
(dp1088
g25
I00
sg31
I00
sg32
I00
sg42
VWARNING
p1089
sbsg1013
g0
(g73
g2
Ntp1090
Rp1091
(dp1092
g25
I00
sg31
I00
sg32
I00
sg42
I01
sbsg1011
g0
(g73
g2
Ntp1093
Rp1094
(dp1095
g25
I00
sg31
I00
sg32
I00
sg42
I00
sbsg1012
g0
(g73
g2
Ntp1096
Rp1097
(dp1098
g25
I00
sg31
I00
sg32
I00
sg42
I00
sbsg1063
g0
(g693
g2
Ntp1099
Rp1100
(dp1101
g25
I00
sg31
I00
sg32
I00
sg17
(lp1102
g971
asg26
Nsg971
g0
(g52
g2
Ntp1103
Rp1104
(dp1105
g25
I00
sg31
I00
sg32
I00
sg42
I0
sbsbsg1071
g0
(g693
g2
Ntp1106
Rp1107
(dp1108
g25
I00
sg31
I00
sg32
I01
sg17
(lp1109
g970
ag971
asg26
Nsg970
g0
(g52
g2
Ntp1110
Rp1111
(dp1112
g25
I00
sg31
I00
sg32
I01
sg42
I100
sbsg971
g0
(g52
g2
Ntp1113
Rp1114
(dp1115
g25
I00
sg31
I00
sg32
I00
sg42
I10000000
sbsbsg955
g0
(g693
g2
Ntp1116
Rp1117
(dp1118
g25
I00
sg31
I00
sg32
I00
sg17
(lp1119
g971
asg26
Nsg971
g0
(g52
g2
Ntp1120
Rp1121
(dp1122
g25
I00
sg31
I00
sg32
I00
sg42
I10000000
sbsbsg1072
g0
(g693
g2
Ntp1123
Rp1124
(dp1125
g25
I00
sg31
I00
sg32
I00
sg17
(lp1126
g971
asg26
Nsg971
g0
(g52
g2
Ntp1127
Rp1128
(dp1129
g25
I00
sg31
I00
sg32
I00
sg42
I0
sbsbsg1073
g0
(g693
g2
Ntp1130
Rp1131
(dp1132
g25
I00
sg31
I00
sg32
I00
sg17
(lp1133
g970
ag971
asg26
Nsg970
g0
(g52
g2
Ntp1134
Rp1135
(dp1136
g25
I00
sg31
I00
sg32
I00
sg42
I1
sbsg971
g0
(g52
g2
Ntp1137
Rp1138
(dp1139
g25
I00
sg31
I00
sg32
I00
sg42
I10000000
sbsbsbsg957
g0
(g693
g2
Ntp1140
Rp1141
(dp1142
g25
I00
sg31
I00
sg32
I00
sg17
(lp1143
sg26
g0
(g100
g2
Ntp1144
Rp1145
(dp1146
g25
I00
sg31
I00
sg32
I00
sg104
g0
(g961
g2
Ntp1147
Rp1148
(dp1149
g965
g0
(g693
g2
Ntp1150
Rp1151
(dp1152
g25
I00
sg31
I01
sg32
I00
sg17
(lp1153
g1007
ag1008
ag1009
ag137
ag1010
ag1011
ag1012
aVfilename
p1154
aVextension
p1155
aVoutput
p1156
asg26
g959
sg1007
g0
(g100
g2
Ntp1157
Rp1158
(dp1159
g25
I00
sg31
I00
sg32
I00
sg104
g73
sg106
Nsbsg1008
g0
(g100
g2
Ntp1160
Rp1161
(dp1162
g25
I00
sg31
I00
sg32
I00
sg104
g73
sg106
Nsbsg1009
g0
(g100
g2
Ntp1163
Rp1164
(dp1165
g25
I00
sg31
I00
sg32
I00
sg104
g52
sg106
Nsbsg137
g0
(g100
g2
Ntp1166
Rp1167
(dp1168
g25
I00
sg31
I00
sg32
I00
sg104
g121
sg106
Nsbsg1010
g0
(g100
g2
Ntp1169
Rp1170
(dp1171
g25
I00
sg31
I00
sg32
I00
sg104
g121
sg106
Nsbsg1011
g0
(g73
g2
Ntp1172
Rp1173
(dp1174
g25
I00
sg31
I00
sg32
I00
sg42
I00
sbsg1012
g0
(g73
g2
Ntp1175
Rp1176
(dp1177
g25
I00
sg31
I00
sg32
I00
sg42
I00
sbsg1154
g0
(g100
g2
Ntp1178
Rp1179
(dp1180
g25
I00
sg31
I00
sg32
I00
sg104
g121
sg106
Nsbsg1155
g0
(g100
g2
Ntp1181
Rp1182
(dp1183
g25
I00
sg31
I00
sg32
I00
sg104
g121
sg106
Nsbsg1156
g0
(g100
g2
Ntp1184
Rp1185
(dp1186
g25
I00
sg31
I00
sg32
I00
sg104
g121
sg106
Nsbsbsg982
Nsbsg106
Nsbsbsg59
g660
sg61
I13
sV_inProcess
p1187
I00
sbsVDQMStore
p1188
g0
(g944
g2
Ntp1189
Rp1190
(dp1191
g15
g1188
sg17
(lp1192
Vverbose
p1193
aVsaveByLumi
p1194
aVMEsToSave
p1195
aVtrackME
p1196
aVassertLegacySafe
p1197
aVenableMultiThread
p1198
aVonlineMode
p1199
asg25
I00
sg26
Nsg1193
g0
(g52
g2
Ntp1200
Rp1201
(dp1202
g25
I00
sg31
I00
sg32
I00
sg42
I0
sbsg32
I00
sg1194
g0
(g73
g2
Ntp1203
Rp1204
(dp1205
g25
I00
sg31
I00
sg32
I00
sg42
I00
sbsg1195
g0
(g105
g47
(lp1206
VHcal/DigiTask/Occupancy/depth/depth1
p1207
aVHcal/DigiTask/Occupancy/depth/depth2
p1208
aVHcal/DigiTask/Occupancy/depth/depth3
p1209
aVHcal/DigiTask/Occupancy/depth/depth4
p1210
aVHcal/DigiTask/Occupancy/depth/depth5
p1211
aVHcal/DigiTask/Occupancy/depth/depth6
p1212
aVHcal/DigiTask/Occupancy/depth/depth7
p1213
aVHcal/DigiTask/Occupancy/depth/depthHO
p1214
aVHcal/DigiTask/OccupancyCut/depth/depth1
p1215
aVHcal/DigiTask/OccupancyCut/depth/depth2
p1216
aVHcal/DigiTask/OccupancyCut/depth/depth3
p1217
aVHcal/DigiTask/OccupancyCut/depth/depth4
p1218
aVHcal/DigiTask/OccupancyCut/depth/depth5
p1219
aVHcal/DigiTask/OccupancyCut/depth/depth6
p1220
aVHcal/DigiTask/OccupancyCut/depth/depth7
p1221
aVHcal/DigiTask/OccupancyCut/depth/depthHO
p1222
aVEcalBarrel/EBOccupancyTask/EBOT digi occupancy
p1223
aVEcalEndcap/EEOccupancyTask/EEOT digi occupancy EE -
p1224
aVEcalEndcap/EEOccupancyTask/EEOT digi occupancy EE +
p1225
aVEcalBarrel/EBOccupancyTask/EBOT DCC entries
p1226
aVEcalEndcap/EEOccupancyTask/EEOT DCC entries
p1227
aVEcal/EventInfo/processedEvents
p1228
aVPixelPhase1/Tracks/charge_PXBarrel
p1229
aVPixelPhase1/Tracks/charge_PXForward
p1230
aVPixelPhase1/Tracks/PXBarrel/charge_PXLayer_1
p1231
aVPixelPhase1/Tracks/PXBarrel/charge_PXLayer_2
p1232
aVPixelPhase1/Tracks/PXBarrel/charge_PXLayer_3
p1233
aVPixelPhase1/Tracks/PXBarrel/charge_PXLayer_4
p1234
aVPixelPhase1/Tracks/PXForward/charge_PXDisk_+1
p1235
aVPixelPhase1/Tracks/PXForward/charge_PXDisk_+2
p1236
aVPixelPhase1/Tracks/PXForward/charge_PXDisk_+3
p1237
aVPixelPhase1/Tracks/PXForward/charge_PXDisk_-1
p1238
aVPixelPhase1/Tracks/PXForward/charge_PXDisk_-2
p1239
aVPixelPhase1/Tracks/PXForward/charge_PXDisk_-3
p1240
aVPixelPhase1/Tracks/PXBarrel/size_PXLayer_1
p1241
aVPixelPhase1/Tracks/PXBarrel/size_PXLayer_2
p1242
aVPixelPhase1/Tracks/PXBarrel/size_PXLayer_3
p1243
aVPixelPhase1/Tracks/PXBarrel/size_PXLayer_4
p1244
aVPixelPhase1/Tracks/PXForward/size_PXDisk_+1
p1245
aVPixelPhase1/Tracks/PXForward/size_PXDisk_+2
p1246
aVPixelPhase1/Tracks/PXForward/size_PXDisk_+3
p1247
aVPixelPhase1/Tracks/PXForward/size_PXDisk_-1
p1248
aVPixelPhase1/Tracks/PXForward/size_PXDisk_-2
p1249
aVPixelPhase1/Tracks/PXForward/size_PXDisk_-3
p1250
aVHLT/Vertexing/hltPixelVertices/hltPixelVertices/goodvtxNbr
p1251
aVHLT/Tracking/ValidationWRTOffline/hltMergedWrtHighPurityPV/mon_eta
p1252
aVHLT/Tracking/ValidationWRTOffline/hltMergedWrtHighPurityPV/mon_hits
p1253
aVHLT/Tracking/ValidationWRTOffline/hltMergedWrtHighPurityPV/mon_phi
p1254
aVHLT/Tracking/ValidationWRTOffline/hltMergedWrtHighPurityPV/mon_pt
p1255
aVHLT/Tracking/ValidationWRTOffline/hltMergedWrtHighPurityPV/mon_unMatched_eta
p1256
aVHLT/Tracking/ValidationWRTOffline/hltMergedWrtHighPurityPV/mon_unMatched_hits
p1257
aVHLT/Tracking/ValidationWRTOffline/hltMergedWrtHighPurityPV/mon_unMatched_phi
p1258
aVHLT/Tracking/ValidationWRTOffline/hltMergedWrtHighPurityPV/mon_unMatched_pt
p1259
aVHLT/Tracking/ValidationWRTOffline/hltMergedWrtHighPurityPV/ref_eta
p1260
aVHLT/Tracking/ValidationWRTOffline/hltMergedWrtHighPurityPV/ref_hits
p1261
aVHLT/Tracking/ValidationWRTOffline/hltMergedWrtHighPurityPV/ref_matched_eta
p1262
aVHLT/Tracking/ValidationWRTOffline/hltMergedWrtHighPurityPV/ref_matched_hits
p1263
aVHLT/Tracking/ValidationWRTOffline/hltMergedWrtHighPurityPV/ref_matched_phi
p1264
aVHLT/Tracking/ValidationWRTOffline/hltMergedWrtHighPurityPV/ref_matched_pt
p1265
aVHLT/Tracking/ValidationWRTOffline/hltMergedWrtHighPurityPV/ref_phi
p1266
aVHLT/Tracking/ValidationWRTOffline/hltMergedWrtHighPurityPV/ref_pt
p1267
aVHLT/Tracking/pixelTracks/GeneralProperties/Chi2Prob_GenTk
p1268
aVHLT/Tracking/pixelTracks/GeneralProperties/Chi2oNDFVsEta_ImpactPoint_GenTk
p1269
aVHLT/Tracking/pixelTracks/GeneralProperties/DeltaZToPVZoom_GenTk
p1270
aVHLT/Tracking/pixelTracks/GeneralProperties/DistanceOfClosestApproachToPVVsPhi_GenTk
p1271
aVHLT/Tracking/pixelTracks/GeneralProperties/DistanceOfClosestApproachToPVZoom_GenTk
p1272
aVHLT/Tracking/pixelTracks/GeneralProperties/NumberOfTracks_GenTk
p1273
aVHLT/Tracking/tracks/GeneralProperties/Chi2Prob_GenTk
p1274
aVHLT/Tracking/tracks/GeneralProperties/Chi2oNDFVsEta_ImpactPoint_GenTk
p1275
aVHLT/Tracking/tracks/GeneralProperties/DeltaZToPVZoom_GenTk
p1276
aVHLT/Tracking/tracks/GeneralProperties/DistanceOfClosestApproachToPVVsPhi_GenTk
p1277
aVHLT/Tracking/tracks/GeneralProperties/DistanceOfClosestApproachToPVZoom_GenTk
p1278
aVHLT/Tracking/tracks/GeneralProperties/NumberOfTracks_GenTk
p1279
aVHLT/Tracking/tracks/LUMIanalysis/NumberEventsVsLUMI
p1280
aVHLT/Tracking/tracks/PUmonitoring/NumberEventsVsGoodPVtx
p1281
aVPixelPhase1/Tracks/num_clusters_ontrack_PXBarrel
p1282
aVPixelPhase1/Tracks/num_clusters_ontrack_PXForward
p1283
aVPixelPhase1/Tracks/clusterposition_zphi_ontrack
p1284
aVPixelPhase1/Tracks/PXBarrel/clusterposition_zphi_ontrack_PXLayer_1
p1285
aVPixelPhase1/Tracks/PXBarrel/clusterposition_zphi_ontrack_PXLayer_2
p1286
aVPixelPhase1/Tracks/PXBarrel/clusterposition_zphi_ontrack_PXLayer_3
p1287
aVPixelPhase1/Tracks/PXBarrel/clusterposition_zphi_ontrack_PXLayer_4
p1288
aVPixelPhase1/Tracks/PXForward/clusterposition_xy_ontrack_PXDisk_+1
p1289
aVPixelPhase1/Tracks/PXForward/clusterposition_xy_ontrack_PXDisk_+2
p1290
aVPixelPhase1/Tracks/PXForward/clusterposition_xy_ontrack_PXDisk_+3
p1291
aVPixelPhase1/Tracks/PXForward/clusterposition_xy_ontrack_PXDisk_-1
p1292
aVPixelPhase1/Tracks/PXForward/clusterposition_xy_ontrack_PXDisk_-2
p1293
aVPixelPhase1/Tracks/PXForward/clusterposition_xy_ontrack_PXDisk_-3
p1294
aVSiStrip/MechanicalView/TEC/PLUS/wheel_1/NormalizedHitResiduals_TEC__wheel__1
p1295
aVSiStrip/MechanicalView/TEC/PLUS/wheel_2/NormalizedHitResiduals_TEC__wheel__2
p1296
aVSiStrip/MechanicalView/TEC/PLUS/wheel_3/NormalizedHitResiduals_TEC__wheel__3
p1297
aVSiStrip/MechanicalView/TEC/PLUS/wheel_4/NormalizedHitResiduals_TEC__wheel__4
p1298
aVSiStrip/MechanicalView/TEC/PLUS/wheel_5/NormalizedHitResiduals_TEC__wheel__5
p1299
aVSiStrip/MechanicalView/TEC/PLUS/wheel_6/NormalizedHitResiduals_TEC__wheel__6
p1300
aVSiStrip/MechanicalView/TEC/PLUS/wheel_7/NormalizedHitResiduals_TEC__wheel__7
p1301
aVSiStrip/MechanicalView/TEC/PLUS/wheel_8/NormalizedHitResiduals_TEC__wheel__8
p1302
aVSiStrip/MechanicalView/TEC/PLUS/wheel_9/NormalizedHitResiduals_TEC__wheel__9
p1303
aVSiStrip/MechanicalView/TEC/MINUS/wheel_1/NormalizedHitResiduals_TEC__wheel__1
p1304
aVSiStrip/MechanicalView/TEC/MINUS/wheel_2/NormalizedHitResiduals_TEC__wheel__2
p1305
aVSiStrip/MechanicalView/TEC/MINUS/wheel_3/NormalizedHitResiduals_TEC__wheel__3
p1306
aVSiStrip/MechanicalView/TEC/MINUS/wheel_4/NormalizedHitResiduals_TEC__wheel__4
p1307
aVSiStrip/MechanicalView/TEC/MINUS/wheel_5/NormalizedHitResiduals_TEC__wheel__5
p1308
aVSiStrip/MechanicalView/TEC/MINUS/wheel_6/NormalizedHitResiduals_TEC__wheel__6
p1309
aVSiStrip/MechanicalView/TEC/MINUS/wheel_7/NormalizedHitResiduals_TEC__wheel__7
p1310
aVSiStrip/MechanicalView/TEC/MINUS/wheel_8/NormalizedHitResiduals_TEC__wheel__8
p1311
aVSiStrip/MechanicalView/TEC/MINUS/wheel_9/NormalizedHitResiduals_TEC__wheel__9
p1312
aVSiStrip/MechanicalView/TEC/PLUS/wheel_1/Summary_ClusterStoNCorr__OnTrack__TEC__PLUS__wheel__1
p1313
aVSiStrip/MechanicalView/TEC/PLUS/wheel_2/Summary_ClusterStoNCorr__OnTrack__TEC__PLUS__wheel__2
p1314
aVSiStrip/MechanicalView/TEC/PLUS/wheel_3/Summary_ClusterStoNCorr__OnTrack__TEC__PLUS__wheel__3
p1315
aVSiStrip/MechanicalView/TEC/PLUS/wheel_4/Summary_ClusterStoNCorr__OnTrack__TEC__PLUS__wheel__4
p1316
aVSiStrip/MechanicalView/TEC/PLUS/wheel_5/Summary_ClusterStoNCorr__OnTrack__TEC__PLUS__wheel__5
p1317
aVSiStrip/MechanicalView/TEC/PLUS/wheel_6/Summary_ClusterStoNCorr__OnTrack__TEC__PLUS__wheel__6
p1318
aVSiStrip/MechanicalView/TEC/PLUS/wheel_7/Summary_ClusterStoNCorr__OnTrack__TEC__PLUS__wheel__7
p1319
aVSiStrip/MechanicalView/TEC/PLUS/wheel_8/Summary_ClusterStoNCorr__OnTrack__TEC__PLUS__wheel__8
p1320
aVSiStrip/MechanicalView/TEC/PLUS/wheel_9/Summary_ClusterStoNCorr__OnTrack__TEC__PLUS__wheel__9
p1321
aVSiStrip/MechanicalView/TEC/MINUS/wheel_1/Summary_ClusterStoNCorr__OnTrack__TEC__MINUS__wheel__1
p1322
aVSiStrip/MechanicalView/TEC/MINUS/wheel_2/Summary_ClusterStoNCorr__OnTrack__TEC__MINUS__wheel__2
p1323
aVSiStrip/MechanicalView/TEC/MINUS/wheel_3/Summary_ClusterStoNCorr__OnTrack__TEC__MINUS__wheel__3
p1324
aVSiStrip/MechanicalView/TEC/MINUS/wheel_4/Summary_ClusterStoNCorr__OnTrack__TEC__MINUS__wheel__4
p1325
aVSiStrip/MechanicalView/TEC/MINUS/wheel_5/Summary_ClusterStoNCorr__OnTrack__TEC__MINUS__wheel__5
p1326
aVSiStrip/MechanicalView/TEC/MINUS/wheel_6/Summary_ClusterStoNCorr__OnTrack__TEC__MINUS__wheel__6
p1327
aVSiStrip/MechanicalView/TEC/MINUS/wheel_7/Summary_ClusterStoNCorr__OnTrack__TEC__MINUS__wheel__7
p1328
aVSiStrip/MechanicalView/TEC/MINUS/wheel_8/Summary_ClusterStoNCorr__OnTrack__TEC__MINUS__wheel__8
p1329
aVSiStrip/MechanicalView/TEC/MINUS/wheel_9/Summary_ClusterStoNCorr__OnTrack__TEC__MINUS__wheel__9
p1330
aVSiStrip/MechanicalView/TIB/layer_1/NormalizedHitResiduals_TIB__Layer__1
p1331
aVSiStrip/MechanicalView/TIB/layer_2/NormalizedHitResiduals_TIB__Layer__2
p1332
aVSiStrip/MechanicalView/TIB/layer_3/NormalizedHitResiduals_TIB__Layer__3
p1333
aVSiStrip/MechanicalView/TIB/layer_4/NormalizedHitResiduals_TIB__Layer__4
p1334
aVSiStrip/MechanicalView/TIB/layer_1/Summary_ClusterStoNCorr__OnTrack__TIB__layer__1
p1335
aVSiStrip/MechanicalView/TIB/layer_2/Summary_ClusterStoNCorr__OnTrack__TIB__layer__2
p1336
aVSiStrip/MechanicalView/TIB/layer_3/Summary_ClusterStoNCorr__OnTrack__TIB__layer__3
p1337
aVSiStrip/MechanicalView/TIB/layer_4/Summary_ClusterStoNCorr__OnTrack__TIB__layer__4
p1338
aVSiStrip/MechanicalView/TID/PLUS/wheel_1/NormalizedHitResiduals_TID__wheel__1
p1339
aVSiStrip/MechanicalView/TID/PLUS/wheel_2/NormalizedHitResiduals_TID__wheel__2
p1340
aVSiStrip/MechanicalView/TID/PLUS/wheel_3/NormalizedHitResiduals_TID__wheel__3
p1341
aVSiStrip/MechanicalView/TID/MINUS/wheel_1/NormalizedHitResiduals_TID__wheel__1
p1342
aVSiStrip/MechanicalView/TID/MINUS/wheel_2/NormalizedHitResiduals_TID__wheel__2
p1343
aVSiStrip/MechanicalView/TID/MINUS/wheel_3/NormalizedHitResiduals_TID__wheel__3
p1344
aVSiStrip/MechanicalView/TID/PLUS/wheel_1/Summary_ClusterStoNCorr__OnTrack__TID__PLUS__wheel__1
p1345
aVSiStrip/MechanicalView/TID/PLUS/wheel_2/Summary_ClusterStoNCorr__OnTrack__TID__PLUS__wheel__2
p1346
aVSiStrip/MechanicalView/TID/PLUS/wheel_3/Summary_ClusterStoNCorr__OnTrack__TID__PLUS__wheel__3
p1347
aVSiStrip/MechanicalView/TID/MINUS/wheel_1/Summary_ClusterStoNCorr__OnTrack__TID__MINUS__wheel__1
p1348
aVSiStrip/MechanicalView/TID/MINUS/wheel_2/Summary_ClusterStoNCorr__OnTrack__TID__MINUS__wheel__2
p1349
aVSiStrip/MechanicalView/TID/MINUS/wheel_3/Summary_ClusterStoNCorr__OnTrack__TID__MINUS__wheel__3
p1350
aVSiStrip/MechanicalView/TOB/layer_1/NormalizedHitResiduals_TOB__Layer__1
p1351
aVSiStrip/MechanicalView/TOB/layer_2/NormalizedHitResiduals_TOB__Layer__2
p1352
aVSiStrip/MechanicalView/TOB/layer_3/NormalizedHitResiduals_TOB__Layer__3
p1353
aVSiStrip/MechanicalView/TOB/layer_4/NormalizedHitResiduals_TOB__Layer__4
p1354
aVSiStrip/MechanicalView/TOB/layer_5/NormalizedHitResiduals_TOB__Layer__5
p1355
aVSiStrip/MechanicalView/TOB/layer_6/NormalizedHitResiduals_TOB__Layer__6
p1356
aVSiStrip/MechanicalView/TOB/layer_1/Summary_ClusterStoNCorr__OnTrack__TOB__layer__1
p1357
aVSiStrip/MechanicalView/TOB/layer_2/Summary_ClusterStoNCorr__OnTrack__TOB__layer__2
p1358
aVSiStrip/MechanicalView/TOB/layer_3/Summary_ClusterStoNCorr__OnTrack__TOB__layer__3
p1359
aVSiStrip/MechanicalView/TOB/layer_4/Summary_ClusterStoNCorr__OnTrack__TOB__layer__4
p1360
aVSiStrip/MechanicalView/TOB/layer_5/Summary_ClusterStoNCorr__OnTrack__TOB__layer__5
p1361
aVSiStrip/MechanicalView/TOB/layer_6/Summary_ClusterStoNCorr__OnTrack__TOB__layer__6
p1362
aVSiStrip/MechanicalView/MainDiagonal Position
p1363
aVSiStrip/MechanicalView/NumberOfClustersInPixel
p1364
aVSiStrip/MechanicalView/NumberOfClustersInStrip
p1365
aVTracking/TrackParameters/generalTracks/LSanalysis/Chi2oNDF_lumiFlag_GenTk
p1366
aVTracking/TrackParameters/generalTracks/LSanalysis/NumberOfRecHitsPerTrack_lumiFlag_GenTk
p1367
aVTracking/TrackParameters/generalTracks/LSanalysis/NumberOfTracks_lumiFlag_GenTk
p1368
aVTracking/TrackParameters/highPurityTracks/pt_1/GeneralProperties/SIPDxyToPV_GenTk
p1369
aVTracking/TrackParameters/highPurityTracks/pt_1/GeneralProperties/SIPDzToPV_GenTk
p1370
aVTracking/TrackParameters/highPurityTracks/pt_1/GeneralProperties/SIP3DToPV_GenTk
p1371
aVTracking/TrackParameters/generalTracks/HitProperties/NumberOfMissingOuterRecHitsPerTrack_GenTk
p1372
aVTracking/TrackParameters/generalTracks/HitProperties/NumberMORecHitsPerTrackVsPt_GenTk
p1373
aVOfflinePV/offlinePrimaryVertices/tagVtxProb
p1374
aVOfflinePV/offlinePrimaryVertices/tagType
p1375
aVOfflinePV/Resolution/PV/pull_x
p1376
aVOfflinePV/Resolution/PV/pull_y
p1377
aVOfflinePV/Resolution/PV/pull_z
p1378
aVJetMET/Jet/Cleanedak4PFJetsCHS/CHFrac_highPt_Barrel
p1379
aVJetMET/Jet/Cleanedak4PFJetsCHS/CHFrac_highPt_EndCap
p1380
aVJetMET/Jet/Cleanedak4PFJetsCHS/CHFrac_mediumPt_Barrel
p1381
aVJetMET/Jet/Cleanedak4PFJetsCHS/CHFrac_mediumPt_EndCap
p1382
aVJetMET/Jet/Cleanedak4PFJetsCHS/CHFrac_lowPt_Barrel
p1383
aVJetMET/Jet/Cleanedak4PFJetsCHS/CHFrac_lowPt_EndCap
p1384
aVJetMET/Jet/Cleanedak4PFJetsCHS/ChMultiplicity_highPt_Barrel
p1385
aVJetMET/Jet/Cleanedak4PFJetsCHS/ChMultiplicity_highPt_EndCap
p1386
aVJetMET/Jet/Cleanedak4PFJetsCHS/ChMultiplicity_mediumPt_Barrel
p1387
aVJetMET/Jet/Cleanedak4PFJetsCHS/ChMultiplicity_mediumPt_EndCap
p1388
aVJetMET/Jet/Cleanedak4PFJetsCHS/ChMultiplicity_lowPt_Barrel
p1389
aVJetMET/Jet/Cleanedak4PFJetsCHS/ChMultiplicity_lowPt_EndCap
p1390
aVJetMET/Jet/Cleanedak4PFJetsCHS/Constituents
p1391
aVJetMET/Jet/Cleanedak4PFJetsCHS/Eta
p1392
aVJetMET/Jet/Cleanedak4PFJetsCHS/Eta_uncor
p1393
aVJetMET/Jet/Cleanedak4PFJetsCHS/JetEnergyCorr
p1394
aVJetMET/Jet/Cleanedak4PFJetsCHS/NJets
p1395
aVJetMET/Jet/Cleanedak4PFJetsCHS/Phi
p1396
aVJetMET/Jet/Cleanedak4PFJetsCHS/Phi_Barrel
p1397
aVJetMET/Jet/Cleanedak4PFJetsCHS/Phi_EndCap
p1398
aVJetMET/Jet/Cleanedak4PFJetsCHS/Pt
p1399
aVJetMET/MET/pfMETT1/Cleaned/METSig
p1400
aVJetMET/vertices
p1401
atp1402
Rp1403
(dp1404
g25
I00
sg31
I00
sg32
I00
sg451
I1
sbsg1196
g0
(g121
g2
Ntp1405
Rp1406
(dp1407
g25
I00
sg31
I00
sg32
I00
sg42
g36
sbsg1197
g0
(g73
g2
Ntp1408
Rp1409
(dp1410
g25
I00
sg31
I00
sg32
I00
sg42
I00
sbsg1198
g0
(g73
g2
Ntp1411
Rp1412
(dp1413
g25
I00
sg31
I00
sg32
I00
sg42
I01
sbsg1199
g0
(g73
g2
Ntp1414
Rp1415
(dp1416
g25
I00
sg31
I00
sg32
I00
sg42
I00
sbsg59
g660
sg61
I13
sg1187
I01
sbsVRandomNumberGeneratorService
p1417
g0
(g944
g2
Ntp1418
Rp1419
(dp1420
g15
g1417
sg17
(lp1421
VexternalLHEProducer
p1422
aVgenerator
p1423
aVVtxSmeared
p1424
aVLHCTransport
p1425
aVhiSignalLHCTransport
p1426
aVg4SimHits
p1427
aVmix
p1428
aVmixData
p1429
aVsimSiStripDigiSimLink
p1430
aVsimMuonDTDigis
p1431
aVsimMuonCSCDigis
p1432
aVsimMuonRPCDigis
p1433
aVhiSignal
p1434
aVhiSignalG4SimHits
p1435
aVfamosPileUp
p1436
aVmixGenPU
p1437
aVmixSimCaloHits
p1438
aVmixRecoTracks
p1439
aVfastSimProducer
p1440
aVfastTrackerRecHits
p1441
aVecalRecHit
p1442
aVecalPreshowerRecHit
p1443
aVhbhereco
p1444
aVhoreco
p1445
aVhfreco
p1446
aVparamMuons
p1447
aVl1ParamMuons
p1448
aVMuonSimHits
p1449
aVCTPPSFastRecHits
p1450
aVsimBeamSpotFilter
p1451
aVRPixDetDigitizer
p1452
aVRPSiDetDigitizer
p1453
aVsaveFileName
p1454
asg25
I00
sg26
Nsg1422
g0
(g693
g2
Ntp1455
Rp1456
(dp1457
g25
I00
sg31
I01
sg32
I00
sg17
(lp1458
VinitialSeed
p1459
aVengineName
p1460
asg26
Nsg1459
g0
(g581
g2
Ntp1461
Rp1462
(dp1463
g25
I00
sg31
I00
sg32
I00
sg42
I234567
sbsg1460
g0
(g121
g2
Ntp1464
Rp1465
(dp1466
g25
I00
sg31
I00
sg32
I00
sg42
VMixMaxRng
p1467
sbsbsg32
I00
sg1423
g0
(g693
g2
Ntp1468
Rp1469
(dp1470
g25
I00
sg31
I01
sg32
I00
sg17
(lp1471
g1459
ag1460
asg26
Nsg1459
g0
(g581
g2
Ntp1472
Rp1473
(dp1474
g25
I00
sg31
I00
sg32
I00
sg42
I123456789
sbsg1460
g1465
sbsg1424
g0
(g693
g2
Ntp1475
Rp1476
(dp1477
g25
I00
sg31
I01
sg32
I00
sg17
(lp1478
g1459
ag1460
asg26
Nsg1459
g0
(g581
g2
Ntp1479
Rp1480
(dp1481
g25
I00
sg31
I00
sg32
I00
sg42
I98765432
sbsg1460
g1465
sbsg1425
g0
(g693
g2
Ntp1482
Rp1483
(dp1484
g25
I00
sg31
I01
sg32
I00
sg17
(lp1485
g1459
ag1460
asg26
Nsg1459
g0
(g581
g2
Ntp1486
Rp1487
(dp1488
g25
I00
sg31
I00
sg32
I00
sg42
I87654321
sbsg1460
g0
(g121
g2
Ntp1489
Rp1490
(dp1491
g25
I00
sg31
I00
sg32
I00
sg42
VTRandom3
p1492
sbsbsg1426
g0
(g693
g2
Ntp1493
Rp1494
(dp1495
g25
I00
sg31
I01
sg32
I00
sg17
(lp1496
g1459
ag1460
asg26
Nsg1459
g0
(g581
g2
Ntp1497
Rp1498
(dp1499
g25
I00
sg31
I00
sg32
I00
sg42
I88776655
sbsg1460
g0
(g121
g2
Ntp1500
Rp1501
(dp1502
g25
I00
sg31
I00
sg32
I00
sg42
g1467
sbsbsg1427
g0
(g693
g2
Ntp1503
Rp1504
(dp1505
g25
I00
sg31
I01
sg32
I00
sg17
(lp1506
g1459
ag1460
asg26
Nsg1459
g0
(g581
g2
Ntp1507
Rp1508
(dp1509
g25
I00
sg31
I00
sg32
I00
sg42
I11
sbsg1460
g1465
sbsg1428
g0
(g693
g2
Ntp1510
Rp1511
(dp1512
g25
I00
sg31
I01
sg32
I00
sg17
(lp1513
g1459
ag1460
asg26
Nsg1459
g0
(g581
g2
Ntp1514
Rp1515
(dp1516
g25
I00
sg31
I00
sg32
I00
sg42
I12345
sbsg1460
g1465
sbsg1429
g0
(g693
g2
Ntp1517
Rp1518
(dp1519
g25
I00
sg31
I01
sg32
I00
sg17
(lp1520
g1459
ag1460
asg26
Nsg1459
g0
(g581
g2
Ntp1521
Rp1522
(dp1523
g25
I00
sg31
I00
sg32
I00
sg42
I12345
sbsg1460
g1465
sbsg1430
g0
(g693
g2
Ntp1524
Rp1525
(dp1526
g25
I00
sg31
I01
sg32
I00
sg17
(lp1527
g1459
ag1460
asg26
Nsg1459
g0
(g581
g2
Ntp1528
Rp1529
(dp1530
g25
I00
sg31
I00
sg32
I00
sg42
I1234567
sbsg1460
g1465
sbsg1431
g0
(g693
g2
Ntp1531
Rp1532
(dp1533
g25
I00
sg31
I01
sg32
I00
sg17
(lp1534
g1459
ag1460
asg26
Nsg1459
g0
(g581
g2
Ntp1535
Rp1536
(dp1537
g25
I00
sg31
I00
sg32
I00
sg42
I1234567
sbsg1460
g1465
sbsg1432
g0
(g693
g2
Ntp1538
Rp1539
(dp1540
g25
I00
sg31
I01
sg32
I00
sg17
(lp1541
g1459
ag1460
asg26
Nsg1459
g0
(g581
g2
Ntp1542
Rp1543
(dp1544
g25
I00
sg31
I00
sg32
I00
sg42
I11223344
sbsg1460
g1465
sbsg1433
g0
(g693
g2
Ntp1545
Rp1546
(dp1547
g25
I00
sg31
I01
sg32
I00
sg17
(lp1548
g1459
ag1460
asg26
Nsg1459
g0
(g581
g2
Ntp1549
Rp1550
(dp1551
g25
I00
sg31
I00
sg32
I00
sg42
I1234567
sbsg1460
g1465
sbsg1434
g0
(g693
g2
Ntp1552
Rp1553
(dp1554
g25
I00
sg31
I01
sg32
I00
sg17
(lp1555
g1459
ag1460
asg26
Nsg1459
g0
(g581
g2
Ntp1556
Rp1557
(dp1558
g25
I00
sg31
I00
sg32
I00
sg42
I123456789
sbsg1460
g1465
sbsg1435
g0
(g693
g2
Ntp1559
Rp1560
(dp1561
g25
I00
sg31
I01
sg32
I00
sg17
(lp1562
g1459
ag1460
asg26
Nsg1459
g0
(g581
g2
Ntp1563
Rp1564
(dp1565
g25
I00
sg31
I00
sg32
I00
sg42
I11
sbsg1460
g1465
sbsg1436
g0
(g693
g2
Ntp1566
Rp1567
(dp1568
g25
I00
sg31
I01
sg32
I00
sg17
(lp1569
g1459
ag1460
asg26
Nsg1459
g0
(g581
g2
Ntp1570
Rp1571
(dp1572
g25
I00
sg31
I00
sg32
I00
sg42
I918273
sbsg1460
g1501
sbsg1437
g0
(g693
g2
Ntp1573
Rp1574
(dp1575
g25
I00
sg31
I01
sg32
I00
sg17
(lp1576
g1459
ag1460
asg26
Nsg1459
g0
(g581
g2
Ntp1577
Rp1578
(dp1579
g25
I00
sg31
I00
sg32
I00
sg42
I918273
sbsg1460
g1501
sbsg1438
g0
(g693
g2
Ntp1580
Rp1581
(dp1582
g25
I00
sg31
I01
sg32
I00
sg17
(lp1583
g1459
ag1460
asg26
Nsg1459
g0
(g581
g2
Ntp1584
Rp1585
(dp1586
g25
I00
sg31
I00
sg32
I00
sg42
I918273
sbsg1460
g1501
sbsg1439
g0
(g693
g2
Ntp1587
Rp1588
(dp1589
g25
I00
sg31
I01
sg32
I00
sg17
(lp1590
g1459
ag1460
asg26
Nsg1459
g0
(g581
g2
Ntp1591
Rp1592
(dp1593
g25
I00
sg31
I00
sg32
I00
sg42
I918273
sbsg1460
g1501
sbsg1440
g0
(g693
g2
Ntp1594
Rp1595
(dp1596
g25
I00
sg31
I01
sg32
I00
sg17
(lp1597
g1459
ag1460
asg26
Nsg1459
g0
(g581
g2
Ntp1598
Rp1599
(dp1600
g25
I00
sg31
I00
sg32
I00
sg42
I13579
sbsg1460
g1501
sbsg1441
g0
(g693
g2
Ntp1601
Rp1602
(dp1603
g25
I00
sg31
I01
sg32
I00
sg17
(lp1604
g1459
ag1460
asg26
Nsg1459
g0
(g581
g2
Ntp1605
Rp1606
(dp1607
g25
I00
sg31
I00
sg32
I00
sg42
I24680
sbsg1460
g1501
sbsg1442
g0
(g693
g2
Ntp1608
Rp1609
(dp1610
g25
I00
sg31
I01
sg32
I00
sg17
(lp1611
g1459
ag1460
asg26
Nsg1459
g0
(g581
g2
Ntp1612
Rp1613
(dp1614
g25
I00
sg31
I00
sg32
I00
sg42
I654321
sbsg1460
g1501
sbsg1443
g0
(g693
g2
Ntp1615
Rp1616
(dp1617
g25
I00
sg31
I01
sg32
I00
sg17
(lp1618
g1459
ag1460
asg26
Nsg1459
g0
(g581
g2
Ntp1619
Rp1620
(dp1621
g25
I00
sg31
I00
sg32
I00
sg42
I6541321
sbsg1460
g1501
sbsg1444
g0
(g693
g2
Ntp1622
Rp1623
(dp1624
g25
I00
sg31
I01
sg32
I00
sg17
(lp1625
g1459
ag1460
asg26
Nsg1459
g0
(g581
g2
Ntp1626
Rp1627
(dp1628
g25
I00
sg31
I00
sg32
I00
sg42
I541321
sbsg1460
g1501
sbsg1445
g0
(g693
g2
Ntp1629
Rp1630
(dp1631
g25
I00
sg31
I01
sg32
I00
sg17
(lp1632
g1459
ag1460
asg26
Nsg1459
g0
(g581
g2
Ntp1633
Rp1634
(dp1635
g25
I00
sg31
I00
sg32
I00
sg42
I541321
sbsg1460
g1501
sbsg1446
g0
(g693
g2
Ntp1636
Rp1637
(dp1638
g25
I00
sg31
I01
sg32
I00
sg17
(lp1639
g1459
ag1460
asg26
Nsg1459
g0
(g581
g2
Ntp1640
Rp1641
(dp1642
g25
I00
sg31
I00
sg32
I00
sg42
I541321
sbsg1460
g1501
sbsg1447
g0
(g693
g2
Ntp1643
Rp1644
(dp1645
g25
I00
sg31
I01
sg32
I00
sg17
(lp1646
g1459
ag1460
asg26
Nsg1459
g0
(g581
g2
Ntp1647
Rp1648
(dp1649
g25
I00
sg31
I00
sg32
I00
sg42
I54525
sbsg1460
g1501
sbsg1448
g0
(g693
g2
Ntp1650
Rp1651
(dp1652
g25
I00
sg31
I01
sg32
I00
sg17
(lp1653
g1459
ag1460
asg26
Nsg1459
g0
(g581
g2
Ntp1654
Rp1655
(dp1656
g25
I00
sg31
I00
sg32
I00
sg42
I6453209
sbsg1460
g1501
sbsg1449
g0
(g693
g2
Ntp1657
Rp1658
(dp1659
g25
I00
sg31
I01
sg32
I00
sg17
(lp1660
g1459
ag1460
asg26
Nsg1459
g0
(g581
g2
Ntp1661
Rp1662
(dp1663
g25
I00
sg31
I00
sg32
I00
sg42
I987346
sbsg1460
g1501
sbsg1450
g0
(g693
g2
Ntp1664
Rp1665
(dp1666
g25
I00
sg31
I01
sg32
I00
sg17
(lp1667
g1459
ag1460
asg26
Nsg1459
g0
(g581
g2
Ntp1668
Rp1669
(dp1670
g25
I00
sg31
I00
sg32
I00
sg42
I1357987
sbsg1460
g1501
sbsg1451
g0
(g693
g2
Ntp1671
Rp1672
(dp1673
g25
I00
sg31
I01
sg32
I00
sg17
(lp1674
g1459
ag1460
asg26
Nsg1459
g0
(g581
g2
Ntp1675
Rp1676
(dp1677
g25
I00
sg31
I00
sg32
I00
sg42
I87654321
sbsg1460
g1465
sbsg1452
g0
(g693
g2
Ntp1678
Rp1679
(dp1680
g25
I00
sg31
I01
sg32
I00
sg17
(lp1681
g1459
ag1460
asg26
Nsg1459
g0
(g581
g2
Ntp1682
Rp1683
(dp1684
g25
I00
sg31
I00
sg32
I00
sg42
I137137
sbsg1460
g1465
sbsg1453
g0
(g693
g2
Ntp1685
Rp1686
(dp1687
g25
I00
sg31
I01
sg32
I00
sg17
(lp1688
g1459
ag1460
asg26
Nsg1459
g0
(g581
g2
Ntp1689
Rp1690
(dp1691
g25
I00
sg31
I00
sg32
I00
sg42
I137137
sbsg1460
g1465
sbsg1454
g0
(g121
g2
Ntp1692
Rp1693
(dp1694
g25
I00
sg31
I00
sg32
I00
sg42
g36
sbsg59
g660
sg61
I13
sg1187
I01
sbsVTFileService
p1695
g0
(g944
g2
Ntp1696
Rp1697
(dp1698
g15
g1695
sg17
(lp1699
VfileName
p1700
asg25
I00
sg26
Nsg1700
g0
(g121
g2
Ntp1701
Rp1702
(dp1703
g25
I00
sg31
I01
sg32
I00
sg42
VEff_test_nhits0_RecoDebug.root
p1704
sbsg32
I00
sg59
g660
sg61
I13
sg1187
I01
sbssV_Process__essources
p1705
(dp1706
Veegeom
p1707
g0
(cFWCore.ParameterSet.Modules
ESSource
p1708
g2
Ntp1709
Rp1710
(dp1711
g15
VEmptyESSource
p1712
sg17
(lp1713
VrecordName
p1714
aViovIsRunNotTime
p1715
aVfirstValid
p1716
asg25
I00
sg26
Nsg1714
g0
(g121
g2
Ntp1717
Rp1718
(dp1719
g25
I00
sg31
I01
sg32
I00
sg42
VEcalMappingRcd
p1720
sbsg32
I00
sg1715
g0
(g73
g2
Ntp1721
Rp1722
(dp1723
g25
I00
sg31
I01
sg32
I00
sg42
I01
sbsg1716
g0
(cFWCore.ParameterSet.Types
vuint32
p1724
g47
(lp1725
I1
atp1726
Rp1727
(dp1728
g25
I00
sg31
I01
sg32
I00
sbsg59
V/cvmfs/cms.cern.ch/el8_amd64_gcc11/cms/cmssw-patch/CMSSW_13_2_5_patch1/src/Geometry/EcalMapping/python/EcalMappingRecord_cfi.py
p1729
sg61
I3
sg62
g1707
sbsVHepPDTESSource
p1730
g0
(g1708
g2
Ntp1731
Rp1732
(dp1733
g15
g1730
sg17
(lp1734
VpdtFileName
p1735
asg25
I00
sg26
Nsg1735
g0
(cFWCore.ParameterSet.Types
FileInPath
p1736
g2
Ntp1737
Rp1738
(dp1739
g25
I00
sg31
I01
sg32
I00
sg42
VSimGeneral/HepPDTESSource/data/pythiaparticle.tbl
p1740
sbsg32
I00
sg59
V/cvmfs/cms.cern.ch/el8_amd64_gcc11/cms/cmssw-patch/CMSSW_13_2_5_patch1/src/SimGeneral/HepPDTESSource/python/pythiapdt_cfi.py
p1741
sg61
I3
sg62
g1730
sbsVGlobalTag
p1742
g0
(g1708
g2
Ntp1743
Rp1744
(dp1745
g15
VPoolDBESSource
p1746
sg17
(lp1747
VDBParameters
p1748
aVconnect
p1749
aVglobaltag
p1750
aVsnapshotTime
p1751
aVtoGet
p1752
aVDumpStat
p1753
aVReconnectEachRun
p1754
aVRefreshAlways
p1755
aVRefreshEachRun
p1756
aVRefreshOpenIOVs
p1757
aVpfnPostfix
p1758
aVpfnPrefix
p1759
asg25
I00
sg26
Nsg1748
g0
(g693
g2
Ntp1760
Rp1761
(dp1762
g25
I00
sg31
I01
sg32
I00
sg17
(lp1763
VauthenticationPath
p1764
aVauthenticationSystem
p1765
aVsecurity
p1766
aVmessageLevel
p1767
aVconnectionTimeout
p1768
asg26
Nsg1764
g0
(g121
g2
Ntp1769
Rp1770
(dp1771
g25
I00
sg31
I00
sg32
I00
sg42
g36
sbsg1765
g0
(g52
g2
Ntp1772
Rp1773
(dp1774
g25
I00
sg31
I00
sg32
I00
sg42
I0
sbsg1766
g0
(g121
g2
Ntp1775
Rp1776
(dp1777
g25
I00
sg31
I00
sg32
I00
sg42
g36
sbsg1767
g0
(g52
g2
Ntp1778
Rp1779
(dp1780
g25
I00
sg31
I00
sg32
I00
sg42
I0
sbsg1768
g0
(g52
g2
Ntp1781
Rp1782
(dp1783
g25
I00
sg31
I00
sg32
I00
sg42
I0
sbsbsg32
I01
sg1749
g0
(g121
g2
Ntp1784
Rp1785
(dp1786
g25
I00
sg31
I01
sg32
I00
sg42
Vfrontier://FrontierProd/CMS_CONDITIONS
p1787
sbsg1750
g0
(g121
g2
Ntp1788
Rp1789
(dp1790
g25
I00
sg31
I01
sg32
I00
sg42
V132X_mcRun3_2023_realistic_HI_v5
p1791
sbsg1751
g0
(g121
g2
Ntp1792
Rp1793
(dp1794
g25
I00
sg31
I01
sg32
I00
sg42
V9999-12-31 23:59:59.000
p1795
sbsg1752
g0
(g691
g47
(lp1796
g0
(g693
g2
Ntp1797
Rp1798
(dp1799
g25
I00
sg31
I01
sg32
I00
sg17
(lp1800
Vrecord
p1801
aVtag
p1802
ag1749
aVlabel
p1803
asg26
Nsg1801
g0
(g121
g2
Ntp1804
Rp1805
(dp1806
g25
I00
sg31
I01
sg32
I00
sg42
VHeavyIonRcd
p1807
sbsg1802
g0
(g121
g2
Ntp1808
Rp1809
(dp1810
g25
I00
sg31
I01
sg32
I00
sg42
VCentralityTable_HFtowers200_DataPbPb_periHYDJETshape_run3v1302x04_offline_Nominal
p1811
sbsg1749
g0
(g121
g2
Ntp1812
Rp1813
(dp1814
g25
I00
sg31
I01
sg32
I00
sg42
Vsqlite_file:CentralityTable_HFtowers200_DataPbPb_periHYDJETshape_run3v1302x04_offline_Nominal.db
p1815
sbsg1803
g0
(g121
g2
Ntp1816
Rp1817
(dp1818
g25
I00
sg31
I00
sg32
I00
sg42
g522
sbsbatp1819
Rp1820
(dp1821
g25
I00
sg31
I01
sg32
I00
sg451
I1
sbsg1753
g0
(g73
g2
Ntp1822
Rp1823
(dp1824
g25
I00
sg31
I00
sg32
I00
sg42
I00
sbsg1754
g0
(g73
g2
Ntp1825
Rp1826
(dp1827
g25
I00
sg31
I00
sg32
I00
sg42
I00
sbsg1755
g0
(g73
g2
Ntp1828
Rp1829
(dp1830
g25
I00
sg31
I00
sg32
I00
sg42
I00
sbsg1756
g0
(g73
g2
Ntp1831
Rp1832
(dp1833
g25
I00
sg31
I00
sg32
I00
sg42
I00
sbsg1757
g0
(g73
g2
Ntp1834
Rp1835
(dp1836
g25
I00
sg31
I00
sg32
I00
sg42
I00
sbsg1758
g0
(g121
g2
Ntp1837
Rp1838
(dp1839
g25
I00
sg31
I00
sg32
I00
sg42
g36
sbsg1759
g0
(g121
g2
Ntp1840
Rp1841
(dp1842
g25
I00
sg31
I00
sg32
I00
sg42
g36
sbsg59
V/cvmfs/cms.cern.ch/el8_amd64_gcc11/cms/cmssw-patch/CMSSW_13_2_5_patch1/src/CondCore/ESSources/python/CondDBESSource_cfi.py
p1843
sg61
I8
sg62
g1742
sbsVHcalTimeSlewEP
p1844
g0
(g1708
g2
Ntp1845
Rp1846
(dp1847
g15
g1844
sg17
(lp1848
VappendToDataLabel
p1849
aVtimeSlewParametersM2
p1850
aVtimeSlewParametersM3
p1851
asg25
I00
sg26
Nsg1849
g0
(g121
g2
Ntp1852
Rp1853
(dp1854
g25
I00
sg31
I01
sg32
I00
sg42
VHBHE
p1855
sbsg32
I00
sg1850
g0
(g691
g47
(lp1856
g0
(g693
g2
Ntp1857
Rp1858
(dp1859
g25
I00
sg31
I01
sg32
I00
sg17
(lp1860
Vtzero
p1861
aVslope
p1862
aVtmax
p1863
asg26
Nsg1861
g0
(g38
g2
Ntp1864
Rp1865
(dp1866
g25
I00
sg31
I01
sg32
I00
sg42
F23.960177
sbsg1862
g0
(g38
g2
Ntp1867
Rp1868
(dp1869
g25
I00
sg31
I01
sg32
I00
sg42
F-3.178648
sbsg1863
g0
(g38
g2
Ntp1870
Rp1871
(dp1872
g25
I00
sg31
I01
sg32
I00
sg42
F16.0
sbsbag0
(g693
g2
Ntp1873
Rp1874
(dp1875
g25
I00
sg31
I01
sg32
I00
sg17
(lp1876
g1861
ag1862
ag1863
asg26
Nsg1861
g0
(g38
g2
Ntp1877
Rp1878
(dp1879
g25
I00
sg31
I01
sg32
I00
sg42
F11.977461
sbsg1862
g0
(g38
g2
Ntp1880
Rp1881
(dp1882
g25
I00
sg31
I01
sg32
I00
sg42
F-1.5610227
sbsg1863
g0
(g38
g2
Ntp1883
Rp1884
(dp1885
g25
I00
sg31
I01
sg32
I00
sg42
F10.0
sbsbag0
(g693
g2
Ntp1886
Rp1887
(dp1888
g25
I00
sg31
I01
sg32
I00
sg17
(lp1889
g1861
ag1862
ag1863
asg26
Nsg1861
g0
(g38
g2
Ntp1890
Rp1891
(dp1892
g25
I00
sg31
I01
sg32
I00
sg42
F9.109694
sbsg1862
g0
(g38
g2
Ntp1893
Rp1894
(dp1895
g25
I00
sg31
I01
sg32
I00
sg42
F-1.075824
sbsg1863
g0
(g38
g2
Ntp1896
Rp1897
(dp1898
g25
I00
sg31
I01
sg32
I00
sg42
F6.25
sbsbatp1899
Rp1900
(dp1901
g25
I00
sg31
I01
sg32
I00
sg451
I1
sbsg1851
g0
(g691
g47
(lp1902
g0
(g693
g2
Ntp1903
Rp1904
(dp1905
g25
I00
sg31
I01
sg32
I00
sg17
(lp1906
Vcap
p1907
aVtspar0
p1908
aVtspar1
p1909
aVtspar2
p1910
aVtspar0_siPM
p1911
aVtspar1_siPM
p1912
aVtspar2_siPM
p1913
asg26
Nsg1907
g0
(g38
g2
Ntp1914
Rp1915
(dp1916
g25
I00
sg31
I01
sg32
I00
sg42
F6.0
sbsg1908
g0
(g38
g2
Ntp1917
Rp1918
(dp1919
g25
I00
sg31
I01
sg32
I00
sg42
F12.2999
sbsg1909
g0
(g38
g2
Ntp1920
Rp1921
(dp1922
g25
I00
sg31
I01
sg32
I00
sg42
F-2.19142
sbsg1910
g0
(g38
g2
Ntp1923
Rp1924
(dp1925
g25
I00
sg31
I01
sg32
I00
sg42
F0.0
sbsg1911
g0
(g38
g2
Ntp1926
Rp1927
(dp1928
g25
I00
sg31
I01
sg32
I00
sg42
F0.0
sbsg1912
g0
(g38
g2
Ntp1929
Rp1930
(dp1931
g25
I00
sg31
I01
sg32
I00
sg42
F0.0
sbsg1913
g0
(g38
g2
Ntp1932
Rp1933
(dp1934
g25
I00
sg31
I01
sg32
I00
sg42
F0.0
sbsbag0
(g693
g2
Ntp1935
Rp1936
(dp1937
g25
I00
sg31
I01
sg32
I00
sg17
(lp1938
g1907
ag1908
ag1909
ag1910
ag1911
ag1912
ag1913
asg26
Nsg1907
g0
(g38
g2
Ntp1939
Rp1940
(dp1941
g25
I00
sg31
I01
sg32
I00
sg42
F6.0
sbsg1908
g0
(g38
g2
Ntp1942
Rp1943
(dp1944
g25
I00
sg31
I01
sg32
I00
sg42
F15.5
sbsg1909
g0
(g38
g2
Ntp1945
Rp1946
(dp1947
g25
I00
sg31
I01
sg32
I00
sg42
F-3.2
sbsg1910
g0
(g38
g2
Ntp1948
Rp1949
(dp1950
g25
I00
sg31
I01
sg32
I00
sg42
F32.0
sbsg1911
g0
(g38
g2
Ntp1951
Rp1952
(dp1953
g25
I00
sg31
I01
sg32
I00
sg42
F0.0
sbsg1912
g0
(g38
g2
Ntp1954
Rp1955
(dp1956
g25
I00
sg31
I01
sg32
I00
sg42
F0.0
sbsg1913
g0
(g38
g2
Ntp1957
Rp1958
(dp1959
g25
I00
sg31
I01
sg32
I00
sg42
F0.0
sbsbag0
(g693
g2
Ntp1960
Rp1961
(dp1962
g25
I00
sg31
I01
sg32
I00
sg17
(lp1963
g1907
ag1908
ag1909
ag1910
ag1911
ag1912
ag1913
asg26
Nsg1907
g0
(g38
g2
Ntp1964
Rp1965
(dp1966
g25
I00
sg31
I01
sg32
I00
sg42
F6.0
sbsg1908
g0
(g38
g2
Ntp1967
Rp1968
(dp1969
g25
I00
sg31
I01
sg32
I00
sg42
F12.2999
sbsg1909
g0
(g38
g2
Ntp1970
Rp1971
(dp1972
g25
I00
sg31
I01
sg32
I00
sg42
F-2.19142
sbsg1910
g0
(g38
g2
Ntp1973
Rp1974
(dp1975
g25
I00
sg31
I01
sg32
I00
sg42
F0.0
sbsg1911
g0
(g38
g2
Ntp1976
Rp1977
(dp1978
g25
I00
sg31
I01
sg32
I00
sg42
F0.0
sbsg1912
g0
(g38
g2
Ntp1979
Rp1980
(dp1981
g25
I00
sg31
I01
sg32
I00
sg42
F0.0
sbsg1913
g0
(g38
g2
Ntp1982
Rp1983
(dp1984
g25
I00
sg31
I01
sg32
I00
sg42
F0.0
sbsbag0
(g693
g2
Ntp1985
Rp1986
(dp1987
g25
I00
sg31
I01
sg32
I00
sg17
(lp1988
g1907
ag1908
ag1909
ag1910
ag1911
ag1912
ag1913
asg26
Nsg1907
g0
(g38
g2
Ntp1989
Rp1990
(dp1991
g25
I00
sg31
I01
sg32
I00
sg42
F6.0
sbsg1908
g0
(g38
g2
Ntp1992
Rp1993
(dp1994
g25
I00
sg31
I01
sg32
I00
sg42
F12.2999
sbsg1909
g0
(g38
g2
Ntp1995
Rp1996
(dp1997
g25
I00
sg31
I01
sg32
I00
sg42
F-2.19142
sbsg1910
g0
(g38
g2
Ntp1998
Rp1999
(dp2000
g25
I00
sg31
I01
sg32
I00
sg42
F0.0
sbsg1911
g0
(g38
g2
Ntp2001
Rp2002
(dp2003
g25
I00
sg31
I01
sg32
I00
sg42
F0.0
sbsg1912
g0
(g38
g2
Ntp2004
Rp2005
(dp2006
g25
I00
sg31
I01
sg32
I00
sg42
F0.0
sbsg1913
g0
(g38
g2
Ntp2007
Rp2008
(dp2009
g25
I00
sg31
I01
sg32
I00
sg42
F0.0
sbsbatp2010
Rp2011
(dp2012
g25
I00
sg31
I01
sg32
I00
sg451
I1
sbsg59
V/cvmfs/cms.cern.ch/el8_amd64_gcc11/cms/cmssw-patch/CMSSW_13_2_5_patch1/src/CalibCalorimetry/HcalPlugins/python/HcalTimeSlew_cff.py
p2013
sg61
I3
sg62
g1844
sbsVes_hardcode
p2014
g0
(g1708
g2
Ntp2015
Rp2016
(dp2017
g15
VHcalHardcodeCalibrations
p2018
sg17
(lp2019
g1752
aViLumi
p2020
aVHBRecalibration
p2021
aVHBreCalibCutoff
p2022
aVHBmeanenergies
p2023
aVHERecalibration
p2024
aVHEreCalibCutoff
p2025
aVHEmeanenergies
p2026
aVHFRecalibration
p2027
aVHFRecalParameterBlock
p2028
aVGainWidthsForTrigPrims
p2029
aVuseHBUpgrade
p2030
aVuseHEUpgrade
p2031
aVuseHFUpgrade
p2032
aVuseHOUpgrade
p2033
aVtestHFQIE10
p2034
aVtestHEPlan1
p2035
aVkillHE
p2036
aVuseLayer0Weight
p2037
aVuseIeta18depth1
p2038
aVhb
p2039
aVhe
p2040
aVhf
p2041
aVho
p2042
aVhbUpgrade
p2043
aVheUpgrade
p2044
aVhfUpgrade
p2045
aVSiPMCharacteristics
p2046
asg25
I00
sg26
Nsg1752
g0
(g105
g47
(lp2047
VGainWidths
p2048
atp2049
Rp2050
(dp2051
g25
I00
sg31
I00
sg32
I00
sg451
I1
sbsg32
I00
sg2020
g0
(g38
g2
Ntp2052
Rp2053
(dp2054
g25
I00
sg31
I01
sg32
I00
sg42
F-1.0
sbsg2021
g0
(g73
g2
Ntp2055
Rp2056
(dp2057
g25
I00
sg31
I01
sg32
I00
sg42
I00
sbsg2022
g0
(g38
g2
Ntp2058
Rp2059
(dp2060
g25
I00
sg31
I01
sg32
I00
sg42
F20.0
sbsg2023
g0
(g1736
g2
Ntp2061
Rp2062
(dp2063
g25
I00
sg31
I01
sg32
I00
sg42
VCalibCalorimetry/HcalPlugins/data/meanenergiesHB.txt
p2064
sbsg2024
g0
(g73
g2
Ntp2065
Rp2066
(dp2067
g25
I00
sg31
I01
sg32
I00
sg42
I00
sbsg2025
g0
(g38
g2
Ntp2068
Rp2069
(dp2070
g25
I00
sg31
I01
sg32
I00
sg42
F20.0
sbsg2026
g0
(g1736
g2
Ntp2071
Rp2072
(dp2073
g25
I00
sg31
I01
sg32
I00
sg42
VCalibCalorimetry/HcalPlugins/data/meanenergiesHE.txt
p2074
sbsg2027
g0
(g73
g2
Ntp2075
Rp2076
(dp2077
g25
I00
sg31
I01
sg32
I00
sg42
I00
sbsg2028
g0
(g693
g2
Ntp2078
Rp2079
(dp2080
g25
I00
sg31
I01
sg32
I00
sg17
(lp2081
VHFdepthOneParameterA
p2082
aVHFdepthOneParameterB
p2083
aVHFdepthTwoParameterA
p2084
aVHFdepthTwoParameterB
p2085
asg26
Nsg2082
g0
(g46
g47
(lp2086
F0.004123
aF0.00602
aF0.008201
aF0.010489
aF0.013379
aF0.016997
aF0.021464
aF0.027371
aF0.034195
aF0.044807
aF0.058939
aF0.125497
atp2087
Rp2088
(dp2089
g25
I00
sg31
I01
sg32
I00
sbsg2083
g0
(g46
g47
(lp2090
F-4e-06
aF-2e-06
aF0.0
aF4e-06
aF1.5e-05
aF2.6e-05
aF6.3e-05
aF8.4e-05
aF0.00016
aF0.000107
aF0.000425
aF0.000209
atp2091
Rp2092
(dp2093
g25
I00
sg31
I01
sg32
I00
sbsg2084
g0
(g46
g47
(lp2094
F0.002861
aF0.004168
aF0.0064
aF0.008388
aF0.011601
aF0.014425
aF0.018633
aF0.023232
aF0.028274
aF0.035447
aF0.051579
aF0.086593
atp2095
Rp2096
(dp2097
g25
I00
sg31
I01
sg32
I00
sbsg2085
g0
(g46
g47
(lp2098
F-2e-06
aF-0.0
aF-7e-06
aF-6e-06
aF-2e-06
aF1e-06
aF1.9e-05
aF3.1e-05
aF6.7e-05
aF1.2e-05
aF0.000157
aF-3e-06
atp2099
Rp2100
(dp2101
g25
I00
sg31
I01
sg32
I00
sbsg62
g2028
sbsg2029
g0
(g73
g2
Ntp2102
Rp2103
(dp2104
g25
I00
sg31
I01
sg32
I00
sg42
I00
sbsg2030
g0
(g73
g2
Ntp2105
Rp2106
(dp2107
g25
I00
sg31
I01
sg32
I00
sg42
I00
sbsg2031
g0
(g73
g2
Ntp2108
Rp2109
(dp2110
g25
I00
sg31
I01
sg32
I00
sg42
I00
sbsg2032
g0
(g73
g2
Ntp2111
Rp2112
(dp2113
g25
I00
sg31
I01
sg32
I00
sg42
I00
sbsg2033
g0
(g73
g2
Ntp2114
Rp2115
(dp2116
g25
I00
sg31
I01
sg32
I00
sg42
I01
sbsg2034
g0
(g73
g2
Ntp2117
Rp2118
(dp2119
g25
I00
sg31
I01
sg32
I00
sg42
I00
sbsg2035
g0
(g73
g2
Ntp2120
Rp2121
(dp2122
g25
I00
sg31
I01
sg32
I00
sg42
I00
sbsg2036
g0
(g73
g2
Ntp2123
Rp2124
(dp2125
g25
I00
sg31
I01
sg32
I00
sg42
I00
sbsg2037
g0
(g73
g2
Ntp2126
Rp2127
(dp2128
g25
I00
sg31
I01
sg32
I00
sg42
I00
sbsg2038
g0
(g73
g2
Ntp2129
Rp2130
(dp2131
g25
I00
sg31
I01
sg32
I00
sg42
I01
sbsg2039
g0
(g693
g2
Ntp2132
Rp2133
(dp2134
g25
I00
sg31
I01
sg32
I00
sg17
(lp2135
Vpedestal
p2136
aVpedestalWidth
p2137
aVgain
p2138
aVgainWidth
p2139
aVzsThreshold
p2140
aVqieType
p2141
aVqieOffset
p2142
aVqieSlope
p2143
aVmcShape
p2144
aVrecoShape
p2145
aVphotoelectronsToAnalog
p2146
aVdarkCurrent
p2147
aVnoiseCorrelation
p2148
aVnoiseThreshold
p2149
aVseedThreshold
p2150
aVdoRadiationDamage
p2151
asg26
Nsg2136
g0
(g38
g2
Ntp2152
Rp2153
(dp2154
g25
I00
sg31
I01
sg32
I00
sg42
F3.285
sbsg2137
g0
(g38
g2
Ntp2155
Rp2156
(dp2157
g25
I00
sg31
I01
sg32
I00
sg42
F0.809
sbsg2138
g0
(g46
g47
(lp2158
F0.19
atp2159
Rp2160
(dp2161
g25
I00
sg31
I01
sg32
I00
sbsg2139
g0
(g46
g47
(lp2162
F0.0
atp2163
Rp2164
(dp2165
g25
I00
sg31
I01
sg32
I00
sbsg2140
g0
(g52
g2
Ntp2166
Rp2167
(dp2168
g25
I00
sg31
I01
sg32
I00
sg42
I8
sbsg2141
g0
(g52
g2
Ntp2169
Rp2170
(dp2171
g25
I00
sg31
I01
sg32
I00
sg42
I0
sbsg2142
g0
(g46
g47
(lp2172
F-0.49
aF1.8
aF7.2
aF37.9
atp2173
Rp2174
(dp2175
g25
I00
sg31
I01
sg32
I00
sbsg2143
g0
(g46
g47
(lp2176
F0.912
aF0.917
aF0.922
aF0.923
atp2177
Rp2178
(dp2179
g25
I00
sg31
I01
sg32
I00
sbsg2144
g0
(g52
g2
Ntp2180
Rp2181
(dp2182
g25
I00
sg31
I01
sg32
I00
sg42
I125
sbsg2145
g0
(g52
g2
Ntp2183
Rp2184
(dp2185
g25
I00
sg31
I01
sg32
I00
sg42
I105
sbsg2146
g0
(g38
g2
Ntp2186
Rp2187
(dp2188
g25
I00
sg31
I01
sg32
I00
sg42
F0.3305
sbsg2147
g0
(g46
g47
(lp2189
F0.0
atp2190
Rp2191
(dp2192
g25
I00
sg31
I01
sg32
I00
sbsg2148
g0
(g46
g47
(lp2193
F0.0
atp2194
Rp2195
(dp2196
g25
I00
sg31
I01
sg32
I00
sbsg2149
g0
(g38
g2
Ntp2197
Rp2198
(dp2199
g25
I00
sg31
I01
sg32
I00
sg42
F0.0
sbsg2150
g0
(g38
g2
Ntp2200
Rp2201
(dp2202
g25
I00
sg31
I01
sg32
I00
sg42
F0.1
sbsg2151
g0
(g73
g2
Ntp2203
Rp2204
(dp2205
g25
I00
sg31
I01
sg32
I00
sg42
I00
sbsbsg2040
g0
(g693
g2
Ntp2206
Rp2207
(dp2208
g25
I00
sg31
I01
sg32
I00
sg17
(lp2209
g2136
ag2137
ag2138
ag2139
ag2140
ag2141
ag2142
ag2143
ag2144
ag2145
ag2146
ag2147
ag2148
ag2149
ag2150
ag2151
asg26
Nsg2136
g0
(g38
g2
Ntp2210
Rp2211
(dp2212
g25
I00
sg31
I01
sg32
I00
sg42
F3.163
sbsg2137
g0
(g38
g2
Ntp2213
Rp2214
(dp2215
g25
I00
sg31
I01
sg32
I00
sg42
F0.9698
sbsg2138
g0
(g46
g47
(lp2216
F0.23
atp2217
Rp2218
(dp2219
g25
I00
sg31
I01
sg32
I00
sbsg2139
g0
(g46
g47
(lp2220
I0
atp2221
Rp2222
(dp2223
g25
I00
sg31
I01
sg32
I00
sbsg2140
g0
(g52
g2
Ntp2224
Rp2225
(dp2226
g25
I00
sg31
I01
sg32
I00
sg42
I9
sbsg2141
g0
(g52
g2
Ntp2227
Rp2228
(dp2229
g25
I00
sg31
I01
sg32
I00
sg42
I0
sbsg2142
g0
(g46
g47
(lp2230
F-0.38
aF2.0
aF7.6
aF39.6
atp2231
Rp2232
(dp2233
g25
I00
sg31
I01
sg32
I00
sbsg2143
g0
(g46
g47
(lp2234
F0.912
aF0.916
aF0.92
aF0.922
atp2235
Rp2236
(dp2237
g25
I00
sg31
I01
sg32
I00
sbsg2144
g0
(g52
g2
Ntp2238
Rp2239
(dp2240
g25
I00
sg31
I01
sg32
I00
sg42
I125
sbsg2145
g0
(g52
g2
Ntp2241
Rp2242
(dp2243
g25
I00
sg31
I01
sg32
I00
sg42
I105
sbsg2146
g0
(g38
g2
Ntp2244
Rp2245
(dp2246
g25
I00
sg31
I01
sg32
I00
sg42
F0.3305
sbsg2147
g0
(g46
g47
(lp2247
F0.0
atp2248
Rp2249
(dp2250
g25
I00
sg31
I01
sg32
I00
sbsg2148
g0
(g46
g47
(lp2251
F0.0
atp2252
Rp2253
(dp2254
g25
I00
sg31
I01
sg32
I00
sbsg2149
g0
(g38
g2
Ntp2255
Rp2256
(dp2257
g25
I00
sg31
I01
sg32
I00
sg42
F0.0
sbsg2150
g0
(g38
g2
Ntp2258
Rp2259
(dp2260
g25
I00
sg31
I01
sg32
I00
sg42
F0.1
sbsg2151
g0
(g73
g2
Ntp2261
Rp2262
(dp2263
g25
I00
sg31
I01
sg32
I00
sg42
I00
sbsbsg2041
g0
(g693
g2
Ntp2264
Rp2265
(dp2266
g25
I00
sg31
I01
sg32
I00
sg17
(lp2267
g2136
ag2137
ag2138
ag2139
ag2140
ag2141
ag2142
ag2143
ag2144
ag2145
ag2146
ag2147
ag2148
ag2149
ag2150
ag2151
asg26
Nsg2136
g0
(g38
g2
Ntp2268
Rp2269
(dp2270
g25
I00
sg31
I01
sg32
I00
sg42
F9.354
sbsg2137
g0
(g38
g2
Ntp2271
Rp2272
(dp2273
g25
I00
sg31
I01
sg32
I00
sg42
F2.516
sbsg2138
g0
(g46
g47
(lp2274
F0.14
aF0.135
atp2275
Rp2276
(dp2277
g25
I00
sg31
I01
sg32
I00
sbsg2139
g0
(g46
g47
(lp2278
F0.0
aF0.0
atp2279
Rp2280
(dp2281
g25
I00
sg31
I01
sg32
I00
sbsg2140
g0
(g52
g2
Ntp2282
Rp2283
(dp2284
g25
I00
sg31
I01
sg32
I00
sg42
I-9999
sbsg2141
g0
(g52
g2
Ntp2285
Rp2286
(dp2287
g25
I00
sg31
I01
sg32
I00
sg42
I0
sbsg2142
g0
(g46
g47
(lp2288
F-0.87
aF1.4
aF7.8
aF-29.6
atp2289
Rp2290
(dp2291
g25
I00
sg31
I01
sg32
I00
sbsg2143
g0
(g46
g47
(lp2292
F0.359
aF0.358
aF0.36
aF0.367
atp2293
Rp2294
(dp2295
g25
I00
sg31
I01
sg32
I00
sbsg2144
g0
(g52
g2
Ntp2296
Rp2297
(dp2298
g25
I00
sg31
I01
sg32
I00
sg42
I301
sbsg2145
g0
(g52
g2
Ntp2299
Rp2300
(dp2301
g25
I00
sg31
I01
sg32
I00
sg42
I301
sbsg2146
g0
(g38
g2
Ntp2302
Rp2303
(dp2304
g25
I00
sg31
I01
sg32
I00
sg42
F0.0
sbsg2147
g0
(g46
g47
(lp2305
F0.0
atp2306
Rp2307
(dp2308
g25
I00
sg31
I01
sg32
I00
sbsg2148
g0
(g46
g47
(lp2309
F0.0
atp2310
Rp2311
(dp2312
g25
I00
sg31
I01
sg32
I00
sbsg2149
g0
(g38
g2
Ntp2313
Rp2314
(dp2315
g25
I00
sg31
I01
sg32
I00
sg42
F0.0
sbsg2150
g0
(g38
g2
Ntp2316
Rp2317
(dp2318
g25
I00
sg31
I01
sg32
I00
sg42
F0.1
sbsg2151
g0
(g73
g2
Ntp2319
Rp2320
(dp2321
g25
I00
sg31
I01
sg32
I00
sg42
I00
sbsbsg2042
g0
(g693
g2
Ntp2322
Rp2323
(dp2324
g25
I00
sg31
I01
sg32
I00
sg17
(lp2325
g2136
ag2137
ag2138
ag2139
ag2140
ag2141
ag2142
ag2143
ag2144
ag2145
ag2146
ag2147
ag2148
ag2149
ag2150
ag2151
asg26
Nsg2136
g0
(g38
g2
Ntp2326
Rp2327
(dp2328
g25
I00
sg31
I01
sg32
I00
sg42
F12.06
sbsg2137
g0
(g38
g2
Ntp2329
Rp2330
(dp2331
g25
I00
sg31
I01
sg32
I00
sg42
F0.6285
sbsg2138
g0
(g46
g47
(lp2332
F0.006
aF0.0087
atp2333
Rp2334
(dp2335
g25
I00
sg31
I01
sg32
I00
sbsg2139
g0
(g46
g47
(lp2336
F0.0
aF0.0
atp2337
Rp2338
(dp2339
g25
I00
sg31
I01
sg32
I00
sbsg2140
g0
(g52
g2
Ntp2340
Rp2341
(dp2342
g25
I00
sg31
I01
sg32
I00
sg42
I24
sbsg2141
g0
(g52
g2
Ntp2343
Rp2344
(dp2345
g25
I00
sg31
I01
sg32
I00
sg42
I0
sbsg2142
g0
(g46
g47
(lp2346
F-0.44
aF1.4
aF7.1
aF38.5
atp2347
Rp2348
(dp2349
g25
I00
sg31
I01
sg32
I00
sbsg2143
g0
(g46
g47
(lp2350
F0.907
aF0.915
aF0.92
aF0.921
atp2351
Rp2352
(dp2353
g25
I00
sg31
I01
sg32
I00
sbsg2144
g0
(g52
g2
Ntp2354
Rp2355
(dp2356
g25
I00
sg31
I01
sg32
I00
sg42
I201
sbsg2145
g0
(g52
g2
Ntp2357
Rp2358
(dp2359
g25
I00
sg31
I01
sg32
I00
sg42
I201
sbsg2146
g0
(g38
g2
Ntp2360
Rp2361
(dp2362
g25
I00
sg31
I01
sg32
I00
sg42
F4.0
sbsg2147
g0
(g46
g47
(lp2363
F0.0
atp2364
Rp2365
(dp2366
g25
I00
sg31
I01
sg32
I00
sbsg2148
g0
(g46
g47
(lp2367
F0.0
atp2368
Rp2369
(dp2370
g25
I00
sg31
I01
sg32
I00
sbsg2149
g0
(g38
g2
Ntp2371
Rp2372
(dp2373
g25
I00
sg31
I01
sg32
I00
sg42
F0.0
sbsg2150
g0
(g38
g2
Ntp2374
Rp2375
(dp2376
g25
I00
sg31
I01
sg32
I00
sg42
F0.1
sbsg2151
g0
(g73
g2
Ntp2377
Rp2378
(dp2379
g25
I00
sg31
I01
sg32
I00
sg42
I00
sbsbsg2043
g0
(g693
g2
Ntp2380
Rp2381
(dp2382
g25
I00
sg31
I01
sg32
I00
sg17
(lp2383
g2136
ag2137
ag2138
ag2139
ag2140
ag2141
ag2142
ag2143
ag2144
ag2145
ag2146
ag2147
ag2148
ag2149
ag2150
ag2151
aVradiationDamage
p2384
asg26
Nsg2136
g0
(g38
g2
Ntp2385
Rp2386
(dp2387
g25
I00
sg31
I01
sg32
I00
sg42
F17.3
sbsg2137
g0
(g38
g2
Ntp2388
Rp2389
(dp2390
g25
I00
sg31
I01
sg32
I00
sg42
F1.5
sbsg2138
g0
(g46
g47
(lp2391
F0.0006252
atp2392
Rp2393
(dp2394
g25
I00
sg31
I01
sg32
I00
sbsg2139
g0
(g46
g47
(lp2395
I0
atp2396
Rp2397
(dp2398
g25
I00
sg31
I01
sg32
I00
sbsg2140
g0
(g52
g2
Ntp2399
Rp2400
(dp2401
g25
I00
sg31
I01
sg32
I00
sg42
I16
sbsg2141
g0
(g52
g2
Ntp2402
Rp2403
(dp2404
g25
I00
sg31
I01
sg32
I00
sg42
I2
sbsg2142
g0
(g46
g47
(lp2405
F0.0
aF0.0
aF0.0
aF0.0
atp2406
Rp2407
(dp2408
g25
I00
sg31
I01
sg32
I00
sbsg2143
g0
(g46
g47
(lp2409
F0.05376
aF0.05376
aF0.05376
aF0.05376
atp2410
Rp2411
(dp2412
g25
I00
sg31
I01
sg32
I00
sbsg2144
g0
(g52
g2
Ntp2413
Rp2414
(dp2415
g25
I00
sg31
I01
sg32
I00
sg42
I206
sbsg2145
g0
(g52
g2
Ntp2416
Rp2417
(dp2418
g25
I00
sg31
I01
sg32
I00
sg42
I208
sbsg2146
g0
(g38
g2
Ntp2419
Rp2420
(dp2421
g25
I00
sg31
I01
sg32
I00
sg42
F40.0
sbsg2147
g0
(g46
g47
(lp2422
F0.01
aF0.015
atp2423
Rp2424
(dp2425
g25
I00
sg31
I01
sg32
I00
sbsg2148
g0
(g46
g47
(lp2426
F0.26
aF0.254
atp2427
Rp2428
(dp2429
g25
I00
sg31
I01
sg32
I00
sbsg2149
g0
(g38
g2
Ntp2430
Rp2431
(dp2432
g25
I00
sg31
I01
sg32
I00
sg42
F0.0
sbsg2150
g0
(g38
g2
Ntp2433
Rp2434
(dp2435
g25
I00
sg31
I01
sg32
I00
sg42
F0.1
sbsg2151
g0
(g73
g2
Ntp2436
Rp2437
(dp2438
g25
I00
sg31
I01
sg32
I00
sg42
I01
sbsg2384
g0
(g693
g2
Ntp2439
Rp2440
(dp2441
g25
I00
sg31
I01
sg32
I00
sg17
(lp2442
VtemperatureBase
p2443
aVtemperatureNew
p2444
aVintlumiOffset
p2445
aVdepVsTemp
p2446
aVintlumiToNeutrons
p2447
aVdepVsNeutrons
p2448
asg26
Nsg2443
g0
(g38
g2
Ntp2449
Rp2450
(dp2451
g25
I00
sg31
I01
sg32
I00
sg42
I20
sbsg2444
g0
(g38
g2
Ntp2452
Rp2453
(dp2454
g25
I00
sg31
I01
sg32
I00
sg42
I-5
sbsg2445
g0
(g38
g2
Ntp2455
Rp2456
(dp2457
g25
I00
sg31
I01
sg32
I00
sg42
I150
sbsg2446
g0
(g38
g2
Ntp2458
Rp2459
(dp2460
g25
I00
sg31
I01
sg32
I00
sg42
F0.0631
sbsg2447
g0
(g38
g2
Ntp2461
Rp2462
(dp2463
g25
I00
sg31
I01
sg32
I00
sg42
F367000000.0
sbsg2448
g0
(g46
g47
(lp2464
F5.543e-10
aF8.012e-10
atp2465
Rp2466
(dp2467
g25
I00
sg31
I01
sg32
I00
sbsbsbsg2044
g0
(g693
g2
Ntp2468
Rp2469
(dp2470
g25
I00
sg31
I01
sg32
I00
sg17
(lp2471
g2136
ag2137
ag2138
ag2139
ag2140
ag2141
ag2142
ag2143
ag2144
ag2145
ag2146
ag2147
ag2148
ag2149
ag2150
ag2151
ag2384
asg26
Nsg2136
g0
(g38
g2
Ntp2472
Rp2473
(dp2474
g25
I00
sg31
I01
sg32
I00
sg42
F17.3
sbsg2137
g0
(g38
g2
Ntp2475
Rp2476
(dp2477
g25
I00
sg31
I01
sg32
I00
sg42
F1.5
sbsg2138
g0
(g46
g47
(lp2478
F0.0006252
atp2479
Rp2480
(dp2481
g25
I00
sg31
I01
sg32
I00
sbsg2139
g0
(g46
g47
(lp2482
I0
atp2483
Rp2484
(dp2485
g25
I00
sg31
I01
sg32
I00
sbsg2140
g0
(g52
g2
Ntp2486
Rp2487
(dp2488
g25
I00
sg31
I01
sg32
I00
sg42
I16
sbsg2141
g0
(g52
g2
Ntp2489
Rp2490
(dp2491
g25
I00
sg31
I01
sg32
I00
sg42
I2
sbsg2142
g0
(g46
g47
(lp2492
F0.0
aF0.0
aF0.0
aF0.0
atp2493
Rp2494
(dp2495
g25
I00
sg31
I01
sg32
I00
sbsg2143
g0
(g46
g47
(lp2496
F0.05376
aF0.05376
aF0.05376
aF0.05376
atp2497
Rp2498
(dp2499
g25
I00
sg31
I01
sg32
I00
sbsg2144
g0
(g52
g2
Ntp2500
Rp2501
(dp2502
g25
I00
sg31
I01
sg32
I00
sg42
I206
sbsg2145
g0
(g52
g2
Ntp2503
Rp2504
(dp2505
g25
I00
sg31
I01
sg32
I00
sg42
I208
sbsg2146
g0
(g38
g2
Ntp2506
Rp2507
(dp2508
g25
I00
sg31
I01
sg32
I00
sg42
F40.0
sbsg2147
g0
(g46
g47
(lp2509
F0.01
aF0.015
atp2510
Rp2511
(dp2512
g25
I00
sg31
I01
sg32
I00
sbsg2148
g0
(g46
g47
(lp2513
F0.26
aF0.254
atp2514
Rp2515
(dp2516
g25
I00
sg31
I01
sg32
I00
sbsg2149
g0
(g38
g2
Ntp2517
Rp2518
(dp2519
g25
I00
sg31
I01
sg32
I00
sg42
F0.0
sbsg2150
g0
(g38
g2
Ntp2520
Rp2521
(dp2522
g25
I00
sg31
I01
sg32
I00
sg42
F0.1
sbsg2151
g0
(g73
g2
Ntp2523
Rp2524
(dp2525
g25
I00
sg31
I01
sg32
I00
sg42
I01
sbsg2384
g0
(g693
g2
Ntp2526
Rp2527
(dp2528
g25
I00
sg31
I01
sg32
I00
sg17
(lp2529
g2443
ag2444
ag2445
ag2446
ag2447
ag2448
asg26
Nsg2443
g0
(g38
g2
Ntp2530
Rp2531
(dp2532
g25
I00
sg31
I01
sg32
I00
sg42
I20
sbsg2444
g0
(g38
g2
Ntp2533
Rp2534
(dp2535
g25
I00
sg31
I01
sg32
I00
sg42
I5
sbsg2445
g0
(g38
g2
Ntp2536
Rp2537
(dp2538
g25
I00
sg31
I01
sg32
I00
sg42
I75
sbsg2446
g0
(g38
g2
Ntp2539
Rp2540
(dp2541
g25
I00
sg31
I01
sg32
I00
sg42
F0.0631
sbsg2447
g0
(g38
g2
Ntp2542
Rp2543
(dp2544
g25
I00
sg31
I01
sg32
I00
sg42
F29200000.0
sbsg2448
g0
(g46
g47
(lp2545
F5.543e-10
aF8.012e-10
atp2546
Rp2547
(dp2548
g25
I00
sg31
I01
sg32
I00
sbsbsbsg2045
g0
(g693
g2
Ntp2549
Rp2550
(dp2551
g25
I00
sg31
I01
sg32
I00
sg17
(lp2552
g2136
ag2137
ag2138
ag2139
ag2140
ag2141
ag2142
ag2143
ag2144
ag2145
ag2146
ag2147
ag2148
ag2149
ag2150
ag2151
asg26
Nsg2136
g0
(g38
g2
Ntp2553
Rp2554
(dp2555
g25
I00
sg31
I01
sg32
I00
sg42
F13.33
sbsg2137
g0
(g38
g2
Ntp2556
Rp2557
(dp2558
g25
I00
sg31
I01
sg32
I00
sg42
F3.33
sbsg2138
g0
(g46
g47
(lp2559
F0.14
aF0.135
atp2560
Rp2561
(dp2562
g25
I00
sg31
I01
sg32
I00
sbsg2139
g0
(g46
g47
(lp2563
F0.0
aF0.0
atp2564
Rp2565
(dp2566
g25
I00
sg31
I01
sg32
I00
sbsg2140
g0
(g52
g2
Ntp2567
Rp2568
(dp2569
g25
I00
sg31
I01
sg32
I00
sg42
I-9999
sbsg2141
g0
(g52
g2
Ntp2570
Rp2571
(dp2572
g25
I00
sg31
I01
sg32
I00
sg42
I1
sbsg2142
g0
(g46
g47
(lp2573
F0.0697
aF-0.7405
aF12.38
aF-671.9
atp2574
Rp2575
(dp2576
g25
I00
sg31
I01
sg32
I00
sbsg2143
g0
(g46
g47
(lp2577
F0.297
aF0.298
aF0.298
aF0.313
atp2578
Rp2579
(dp2580
g25
I00
sg31
I01
sg32
I00
sbsg2144
g0
(g52
g2
Ntp2581
Rp2582
(dp2583
g25
I00
sg31
I01
sg32
I00
sg42
I301
sbsg2145
g0
(g52
g2
Ntp2584
Rp2585
(dp2586
g25
I00
sg31
I01
sg32
I00
sg42
I301
sbsg2146
g0
(g38
g2
Ntp2587
Rp2588
(dp2589
g25
I00
sg31
I01
sg32
I00
sg42
F0.0
sbsg2147
g0
(g46
g47
(lp2590
F0.0
atp2591
Rp2592
(dp2593
g25
I00
sg31
I01
sg32
I00
sbsg2148
g0
(g46
g47
(lp2594
F0.0
atp2595
Rp2596
(dp2597
g25
I00
sg31
I01
sg32
I00
sbsg2149
g0
(g38
g2
Ntp2598
Rp2599
(dp2600
g25
I00
sg31
I01
sg32
I00
sg42
F0.0
sbsg2150
g0
(g38
g2
Ntp2601
Rp2602
(dp2603
g25
I00
sg31
I01
sg32
I00
sg42
F0.1
sbsg2151
g0
(g73
g2
Ntp2604
Rp2605
(dp2606
g25
I00
sg31
I01
sg32
I00
sg42
I00
sbsbsg2046
g0
(g691
g47
(lp2607
g0
(g693
g2
Ntp2608
Rp2609
(dp2610
g25
I00
sg31
I01
sg32
I00
sg17
(lp2611
Vpixels
p2612
aVcrosstalk
p2613
aVnonlin1
p2614
aVnonlin2
p2615
aVnonlin3
p2616
asg26
Nsg2612
g0
(g52
g2
Ntp2617
Rp2618
(dp2619
g25
I00
sg31
I01
sg32
I00
sg42
I36000
sbsg2613
g0
(g38
g2
Ntp2620
Rp2621
(dp2622
g25
I00
sg31
I01
sg32
I00
sg42
F0.0
sbsg2614
g0
(g38
g2
Ntp2623
Rp2624
(dp2625
g25
I00
sg31
I01
sg32
I00
sg42
F1.0
sbsg2615
g0
(g38
g2
Ntp2626
Rp2627
(dp2628
g25
I00
sg31
I01
sg32
I00
sg42
F0.0
sbsg2616
g0
(g38
g2
Ntp2629
Rp2630
(dp2631
g25
I00
sg31
I01
sg32
I00
sg42
F0.0
sbsbag0
(g693
g2
Ntp2632
Rp2633
(dp2634
g25
I00
sg31
I01
sg32
I00
sg17
(lp2635
g2612
ag2613
ag2614
ag2615
ag2616
asg26
Nsg2612
g0
(g52
g2
Ntp2636
Rp2637
(dp2638
g25
I00
sg31
I01
sg32
I00
sg42
I2500
sbsg2613
g0
(g38
g2
Ntp2639
Rp2640
(dp2641
g25
I00
sg31
I01
sg32
I00
sg42
F0.0
sbsg2614
g0
(g38
g2
Ntp2642
Rp2643
(dp2644
g25
I00
sg31
I01
sg32
I00
sg42
F1.0
sbsg2615
g0
(g38
g2
Ntp2645
Rp2646
(dp2647
g25
I00
sg31
I01
sg32
I00
sg42
F0.0
sbsg2616
g0
(g38
g2
Ntp2648
Rp2649
(dp2650
g25
I00
sg31
I01
sg32
I00
sg42
F0.0
sbsbag0
(g693
g2
Ntp2651
Rp2652
(dp2653
g25
I00
sg31
I01
sg32
I00
sg17
(lp2654
g2612
ag2613
ag2614
ag2615
ag2616
asg26
Nsg2612
g0
(g52
g2
Ntp2655
Rp2656
(dp2657
g25
I00
sg31
I01
sg32
I00
sg42
I27370
sbsg2613
g0
(g38
g2
Ntp2658
Rp2659
(dp2660
g25
I00
sg31
I01
sg32
I00
sg42
F0.17
sbsg2614
g0
(g38
g2
Ntp2661
Rp2662
(dp2663
g25
I00
sg31
I01
sg32
I00
sg42
F1.00985
sbsg2615
g0
(g38
g2
Ntp2664
Rp2665
(dp2666
g25
I00
sg31
I01
sg32
I00
sg42
F7.84089e-06
sbsg2616
g0
(g38
g2
Ntp2667
Rp2668
(dp2669
g25
I00
sg31
I01
sg32
I00
sg42
F2.86282e-10
sbsbag0
(g693
g2
Ntp2670
Rp2671
(dp2672
g25
I00
sg31
I01
sg32
I00
sg17
(lp2673
g2612
ag2613
ag2614
ag2615
ag2616
asg26
Nsg2612
g0
(g52
g2
Ntp2674
Rp2675
(dp2676
g25
I00
sg31
I01
sg32
I00
sg42
I38018
sbsg2613
g0
(g38
g2
Ntp2677
Rp2678
(dp2679
g25
I00
sg31
I01
sg32
I00
sg42
F0.196
sbsg2614
g0
(g38
g2
Ntp2680
Rp2681
(dp2682
g25
I00
sg31
I01
sg32
I00
sg42
F1.00546
sbsg2615
g0
(g38
g2
Ntp2683
Rp2684
(dp2685
g25
I00
sg31
I01
sg32
I00
sg42
F6.40239e-06
sbsg2616
g0
(g38
g2
Ntp2686
Rp2687
(dp2688
g25
I00
sg31
I01
sg32
I00
sg42
F1.27011e-10
sbsbag0
(g693
g2
Ntp2689
Rp2690
(dp2691
g25
I00
sg31
I01
sg32
I00
sg17
(lp2692
g2612
ag2613
ag2614
ag2615
ag2616
asg26
Nsg2612
g0
(g52
g2
Ntp2693
Rp2694
(dp2695
g25
I00
sg31
I01
sg32
I00
sg42
I27370
sbsg2613
g0
(g38
g2
Ntp2696
Rp2697
(dp2698
g25
I00
sg31
I01
sg32
I00
sg42
F0.17
sbsg2614
g0
(g38
g2
Ntp2699
Rp2700
(dp2701
g25
I00
sg31
I01
sg32
I00
sg42
F1.00985
sbsg2615
g0
(g38
g2
Ntp2702
Rp2703
(dp2704
g25
I00
sg31
I01
sg32
I00
sg42
F7.84089e-06
sbsg2616
g0
(g38
g2
Ntp2705
Rp2706
(dp2707
g25
I00
sg31
I01
sg32
I00
sg42
F2.86282e-10
sbsbag0
(g693
g2
Ntp2708
Rp2709
(dp2710
g25
I00
sg31
I01
sg32
I00
sg17
(lp2711
g2612
ag2613
ag2614
ag2615
ag2616
asg26
Nsg2612
g0
(g52
g2
Ntp2712
Rp2713
(dp2714
g25
I00
sg31
I01
sg32
I00
sg42
I38018
sbsg2613
g0
(g38
g2
Ntp2715
Rp2716
(dp2717
g25
I00
sg31
I01
sg32
I00
sg42
F0.196
sbsg2614
g0
(g38
g2
Ntp2718
Rp2719
(dp2720
g25
I00
sg31
I01
sg32
I00
sg42
F1.00546
sbsg2615
g0
(g38
g2
Ntp2721
Rp2722
(dp2723
g25
I00
sg31
I01
sg32
I00
sg42
F6.40239e-06
sbsg2616
g0
(g38
g2
Ntp2724
Rp2725
(dp2726
g25
I00
sg31
I01
sg32
I00
sg42
F1.27011e-10
sbsbag0
(g693
g2
Ntp2727
Rp2728
(dp2729
g25
I00
sg31
I01
sg32
I00
sg17
(lp2730
g2612
ag2613
ag2614
ag2615
ag2616
asg26
Nsg2612
g0
(g52
g2
Ntp2731
Rp2732
(dp2733
g25
I00
sg31
I01
sg32
I00
sg42
I0
sbsg2613
g0
(g38
g2
Ntp2734
Rp2735
(dp2736
g25
I00
sg31
I01
sg32
I00
sg42
F0.0
sbsg2614
g0
(g38
g2
Ntp2737
Rp2738
(dp2739
g25
I00
sg31
I01
sg32
I00
sg42
F1.0
sbsg2615
g0
(g38
g2
Ntp2740
Rp2741
(dp2742
g25
I00
sg31
I01
sg32
I00
sg42
F0.0
sbsg2616
g0
(g38
g2
Ntp2743
Rp2744
(dp2745
g25
I00
sg31
I01
sg32
I00
sg42
F0.0
sbsbatp2746
Rp2747
(dp2748
g25
I00
sg31
I01
sg32
I00
sg451
I1
sbsg59
V/cvmfs/cms.cern.ch/el8_amd64_gcc11/cms/cmssw-patch/CMSSW_13_2_5_patch1/src/CalibCalorimetry/HcalPlugins/python/Hcal_Conditions_forGlobalTag_cff.py
p2749
sg61
I16
sg62
g2014
sbssV_Process__esproducers
p2750
(dp2751
VCSCGeometryESModule
p2752
g0
(cFWCore.ParameterSet.Modules
ESProducer
p2753
g2
Ntp2754
Rp2755
(dp2756
g15
g2752
sg17
(lp2757
VfromDDD
p2758
aVfromDD4hep
p2759
aValignmentsLabel
p2760
ag1849
aVuseRealWireGeometry
p2761
aVuseOnlyWiresInME1a
p2762
aVuseGangedStripsInME1a
p2763
aVuseCentreTIOffsets
p2764
aVapplyAlignment
p2765
aVdebugV
p2766
asg25
I00
sg26
Nsg2758
g0
(g73
g2
Ntp2767
Rp2768
(dp2769
g25
I00
sg31
I01
sg32
I00
sg42
I00
sbsg32
I00
sg2759
g0
(g73
g2
Ntp2770
Rp2771
(dp2772
g25
I00
sg31
I01
sg32
I00
sg42
I00
sbsg2760
g0
(g121
g2
Ntp2773
Rp2774
(dp2775
g25
I00
sg31
I01
sg32
I00
sg42
g36
sbsg1849
g0
(g121
g2
Ntp2776
Rp2777
(dp2778
g25
I00
sg31
I01
sg32
I00
sg42
g36
sbsg2761
g0
(g73
g2
Ntp2779
Rp2780
(dp2781
g25
I00
sg31
I01
sg32
I00
sg42
I01
sbsg2762
g0
(g73
g2
Ntp2782
Rp2783
(dp2784
g25
I00
sg31
I01
sg32
I00
sg42
I00
sbsg2763
g0
(g73
g2
Ntp2785
Rp2786
(dp2787
g25
I00
sg31
I01
sg32
I00
sg42
I01
sbsg2764
g0
(g73
g2
Ntp2788
Rp2789
(dp2790
g25
I00
sg31
I01
sg32
I00
sg42
I00
sbsg2765
g0
(g73
g2
Ntp2791
Rp2792
(dp2793
g25
I00
sg31
I01
sg32
I00
sg42
I01
sbsg2766
g0
(g73
g2
Ntp2794
Rp2795
(dp2796
g25
I00
sg31
I00
sg32
I00
sg42
I00
sbsg59
g660
sg61
I55
sg62
g2752
sbsVCaloGeometryBuilder
p2797
g0
(g2753
g2
Ntp2798
Rp2799
(dp2800
g15
g2797
sg17
(lp2801
VSelectedCalos
p2802
asg25
I00
sg26
Nsg2802
g0
(g105
g47
(lp2803
VHCAL
p2804
aVZDC
p2805
aVCASTOR
p2806
aVEcalBarrel
p2807
aVEcalEndcap
p2808
aVEcalPreshower
p2809
aVTOWER
p2810
atp2811
Rp2812
(dp2813
g25
I00
sg31
I01
sg32
I00
sg451
I1
sbsg32
I00
sg59
g660
sg61
I55
sg62
g2797
sbsVCaloTopologyBuilder
p2814
g0
(g2753
g2
Ntp2815
Rp2816
(dp2817
g15
g2814
sg17
(lp2818
sg25
I00
sg26
Nsg32
I00
sg59
g660
sg61
I55
sg62
g2814
sbsVCaloTowerGeometryFromDBEP
p2819
g0
(g2753
g2
Ntp2820
Rp2821
(dp2822
g15
g2819
sg17
(lp2823
g2765
asg25
I00
sg26
Nsg2765
g0
(g73
g2
Ntp2824
Rp2825
(dp2826
g25
I00
sg31
I01
sg32
I00
sg42
I00
sbsg32
I00
sg59
g660
sg61
I55
sg62
g2819
sbsVCaloTowerTopologyEP
p2827
g0
(g2753
g2
Ntp2828
Rp2829
(dp2830
g15
g2827
sg17
(lp2831
sg25
I00
sg26
Nsg32
I00
sg59
g660
sg61
I55
sg62
g2827
sbsVCastorGeometryFromDBEP
p2832
g0
(g2753
g2
Ntp2833
Rp2834
(dp2835
g15
g2832
sg17
(lp2836
g2765
asg25
I00
sg26
Nsg2765
g0
(g73
g2
Ntp2837
Rp2838
(dp2839
g25
I00
sg31
I01
sg32
I00
sg42
I00
sbsg32
I00
sg59
g660
sg61
I55
sg62
g2832
sbsVDTGeometryESModule
p2840
g0
(g2753
g2
Ntp2841
Rp2842
(dp2843
g15
g2840
sg17
(lp2844
g2758
ag2759
aVDDDetector
p2845
ag2760
ag1849
aVattribute
p2846
aVvalue
p2847
ag2765
asg25
I00
sg26
Nsg2758
g0
(g73
g2
Ntp2848
Rp2849
(dp2850
g25
I00
sg31
I01
sg32
I01
sg42
I00
sbsg32
I01
sg2759
g0
(g73
g2
Ntp2851
Rp2852
(dp2853
g25
I00
sg31
I01
sg32
I00
sg42
I00
sbsg2845
g0
(cFWCore.ParameterSet.Types
ESInputTag
p2854
g2
Ntp2855
Rp2856
(dp2857
g25
I00
sg31
I01
sg32
I00
sV_ESInputTag__moduleLabel
p2858
g36
sV_ESInputTag__data
p2859
g36
sbsg2760
g0
(g121
g2
Ntp2860
Rp2861
(dp2862
g25
I00
sg31
I01
sg32
I00
sg42
g36
sbsg1849
g0
(g121
g2
Ntp2863
Rp2864
(dp2865
g25
I00
sg31
I01
sg32
I00
sg42
g36
sbsg2846
g0
(g121
g2
Ntp2866
Rp2867
(dp2868
g25
I00
sg31
I01
sg32
I00
sg42
VMuStructure
p2869
sbsg2847
g0
(g121
g2
Ntp2870
Rp2871
(dp2872
g25
I00
sg31
I01
sg32
I00
sg42
VMuonBarrelDT
p2873
sbsg2765
g0
(g73
g2
Ntp2874
Rp2875
(dp2876
g25
I00
sg31
I01
sg32
I00
sg42
I01
sbsg59
g660
sg61
I55
sg62
g2840
sbsVEcalBarrelGeometryFromDBEP
p2877
g0
(g2753
g2
Ntp2878
Rp2879
(dp2880
g15
g2877
sg17
(lp2881
g2765
asg25
I00
sg26
Nsg2765
g0
(g73
g2
Ntp2882
Rp2883
(dp2884
g25
I00
sg31
I01
sg32
I01
sg42
I01
sbsg32
I01
sg59
g660
sg61
I55
sg62
g2877
sbsVEcalElectronicsMappingBuilder
p2885
g0
(g2753
g2
Ntp2886
Rp2887
(dp2888
g15
g2885
sg17
(lp2889
sg25
I00
sg26
Nsg32
I00
sg59
g660
sg61
I55
sg62
g2885
sbsVEcalEndcapGeometryFromDBEP
p2890
g0
(g2753
g2
Ntp2891
Rp2892
(dp2893
g15
g2890
sg17
(lp2894
g2765
asg25
I00
sg26
Nsg2765
g0
(g73
g2
Ntp2895
Rp2896
(dp2897
g25
I00
sg31
I01
sg32
I01
sg42
I01
sbsg32
I01
sg59
g660
sg61
I55
sg62
g2890
sbsVEcalPreshowerGeometryFromDBEP
p2898
g0
(g2753
g2
Ntp2899
Rp2900
(dp2901
g15
g2898
sg17
(lp2902
g2765
asg25
I00
sg26
Nsg2765
g0
(g73
g2
Ntp2903
Rp2904
(dp2905
g25
I00
sg31
I01
sg32
I01
sg42
I01
sbsg32
I01
sg59
g660
sg61
I55
sg62
g2898
sbsVEcalTrigTowerConstituentsMapBuilder
p2906
g0
(g2753
g2
Ntp2907
Rp2908
(dp2909
g15
g2906
sg17
(lp2910
VMapFile
p2911
asg25
I00
sg26
Nsg2911
g0
(g121
g2
Ntp2912
Rp2913
(dp2914
g25
I00
sg31
I00
sg32
I00
sg42
VGeometry/EcalMapping/data/EndCap_TTMap.txt
p2915
sbsg32
I00
sg59
g660
sg61
I55
sg62
g2906
sbsVGlobalTrackingGeometryESProducer
p2916
g0
(g2753
g2
Ntp2917
Rp2918
(dp2919
g15
g2916
sg17
(lp2920
sg25
I00
sg26
Nsg32
I00
sg59
g660
sg61
I55
sg62
g2916
sbsVHcalAlignmentEP
p2921
g0
(g2753
g2
Ntp2922
Rp2923
(dp2924
g15
g2921
sg17
(lp2925
sg25
I00
sg26
Nsg32
I00
sg59
g660
sg61
I55
sg62
g2921
sbsVHcalGeometryFromDBEP
p2926
g0
(g2753
g2
Ntp2927
Rp2928
(dp2929
g15
g2926
sg17
(lp2930
g2765
asg25
I00
sg26
Nsg2765
g0
(g73
g2
Ntp2931
Rp2932
(dp2933
g25
I00
sg31
I01
sg32
I01
sg42
I01
sbsg32
I01
sg59
g660
sg61
I55
sg62
g2926
sbsVMuonDetLayerGeometryESProducer
p2934
g0
(g2753
g2
Ntp2935
Rp2936
(dp2937
g15
g2934
sg17
(lp2938
sg25
I00
sg26
Nsg32
I00
sg59
g660
sg61
I55
sg62
g2934
sbsVRPCGeometryESModule
p2939
g0
(g2753
g2
Ntp2940
Rp2941
(dp2942
g15
g2939
sg17
(lp2943
g2758
ag2759
asg25
I00
sg26
Nsg2758
g0
(g73
g2
Ntp2944
Rp2945
(dp2946
g25
I00
sg31
I00
sg32
I00
sg42
I00
sbsg32
I00
sg2759
g0
(g73
g2
Ntp2947
Rp2948
(dp2949
g25
I00
sg31
I00
sg32
I00
sg42
I00
sbsg59
g660
sg61
I55
sg62
g2939
sbsVTrackerRecoGeometryESProducer
p2950
g0
(g2753
g2
Ntp2951
Rp2952
(dp2953
g15
g2950
sg17
(lp2954
VusePhase2Stacks
p2955
asg25
I00
sg26
Nsg2955
g0
(g73
g2
Ntp2956
Rp2957
(dp2958
g25
I00
sg31
I01
sg32
I00
sg42
I00
sbsg32
I00
sg59
g660
sg61
I55
sg62
g2950
sbsVZdcGeometryFromDBEP
p2959
g0
(g2753
g2
Ntp2960
Rp2961
(dp2962
g15
g2959
sg17
(lp2963
g2765
asg25
I00
sg26
Nsg2765
g0
(g73
g2
Ntp2964
Rp2965
(dp2966
g25
I00
sg31
I01
sg32
I00
sg42
I00
sbsg32
I00
sg59
g660
sg61
I55
sg62
g2959
sbsVfakeForIdealAlignment
p2967
g0
(g2753
g2
Ntp2968
Rp2969
(dp2970
g15
VFakeAlignmentProducer
p2971
sg17
(lp2972
g1849
asg25
I00
sg26
Nsg1849
g0
(g121
g2
Ntp2973
Rp2974
(dp2975
g25
I00
sg31
I01
sg32
I01
sg42
VfakeForIdeal
p2976
sbsg32
I01
sg59
V/cvmfs/cms.cern.ch/el8_amd64_gcc11/cms/cmssw-patch/CMSSW_13_2_5_patch1/src/Alignment/CommonAlignmentProducer/python/fakeForIdealAlignmentProducer_cfi.py
p2977
sg61
I5
sg62
g2967
sbsVhcalDDDRecConstants
p2978
g0
(g2753
g2
Ntp2979
Rp2980
(dp2981
g15
VHcalDDDRecConstantsESModule
p2982
sg17
(lp2983
g1849
asg25
I00
sg26
Nsg1849
g0
(g121
g2
Ntp2984
Rp2985
(dp2986
g25
I00
sg31
I01
sg32
I00
sg42
g36
sbsg32
I00
sg59
g660
sg61
I55
sg62
g2978
sbsVhcalDDDSimConstants
p2987
g0
(g2753
g2
Ntp2988
Rp2989
(dp2990
g15
VHcalDDDSimConstantsESModule
p2991
sg17
(lp2992
g1849
asg25
I00
sg26
Nsg1849
g0
(g121
g2
Ntp2993
Rp2994
(dp2995
g25
I00
sg31
I01
sg32
I00
sg42
g36
sbsg32
I00
sg59
g660
sg61
I55
sg62
g2987
sbsVhcalTopologyIdeal
p2996
g0
(g2753
g2
Ntp2997
Rp2998
(dp2999
g15
VHcalTopologyIdealEP
p3000
sg17
(lp3001
VExclude
p3002
aVMergePosition
p3003
ag1849
asg25
I00
sg26
Nsg3002
g0
(g121
g2
Ntp3004
Rp3005
(dp3006
g25
I00
sg31
I00
sg32
I00
sg42
g36
sbsg32
I00
sg3003
g0
(g73
g2
Ntp3007
Rp3008
(dp3009
g25
I00
sg31
I00
sg32
I00
sg42
I00
sbsg1849
g0
(g121
g2
Ntp3010
Rp3011
(dp3012
g25
I00
sg31
I01
sg32
I00
sg42
g36
sbsg59
g660
sg61
I55
sg62
g2996
sbsVidealForDigiCSCGeometry
p3013
g0
(g2753
g2
Ntp3014
Rp3015
(dp3016
g15
g2752
sg17
(lp3017
g2758
ag2759
ag2760
ag1849
ag2761
ag2762
ag2763
ag2764
ag2765
ag2766
asg25
I00
sg26
Nsg2758
g0
(g73
g2
Ntp3018
Rp3019
(dp3020
g25
I00
sg31
I01
sg32
I00
sg42
I00
sbsg32
I01
sg2759
g0
(g73
g2
Ntp3021
Rp3022
(dp3023
g25
I00
sg31
I01
sg32
I00
sg42
I00
sbsg2760
g0
(g121
g2
Ntp3024
Rp3025
(dp3026
g25
I00
sg31
I01
sg32
I01
sg42
g2976
sbsg1849
g0
(g121
g2
Ntp3027
Rp3028
(dp3029
g25
I00
sg31
I01
sg32
I01
sg42
VidealForDigi
p3030
sbsg2761
g0
(g73
g2
Ntp3031
Rp3032
(dp3033
g25
I00
sg31
I01
sg32
I00
sg42
I01
sbsg2762
g0
(g73
g2
Ntp3034
Rp3035
(dp3036
g25
I00
sg31
I01
sg32
I00
sg42
I00
sbsg2763
g0
(g73
g2
Ntp3037
Rp3038
(dp3039
g25
I00
sg31
I01
sg32
I00
sg42
I01
sbsg2764
g0
(g73
g2
Ntp3040
Rp3041
(dp3042
g25
I00
sg31
I01
sg32
I00
sg42
I00
sbsg2765
g0
(g73
g2
Ntp3043
Rp3044
(dp3045
g25
I00
sg31
I01
sg32
I01
sg42
I00
sbsg2766
g0
(g73
g2
Ntp3046
Rp3047
(dp3048
g25
I00
sg31
I00
sg32
I00
sg42
I00
sbsg59
V/cvmfs/cms.cern.ch/el8_amd64_gcc11/cms/cmssw-patch/CMSSW_13_2_5_patch1/src/Geometry/CSCGeometryBuilder/python/idealForDigiCscGeometryDB_cff.py
p3049
sg61
I8
sg62
g3013
sbsVidealForDigiDTGeometry
p3050
g0
(g2753
g2
Ntp3051
Rp3052
(dp3053
g15
g2840
sg17
(lp3054
g2758
ag2759
ag2845
ag2760
ag1849
ag2846
ag2847
ag2765
asg25
I00
sg26
Nsg2758
g0
(g73
g2
Ntp3055
Rp3056
(dp3057
g25
I00
sg31
I01
sg32
I01
sg42
I00
sbsg32
I01
sg2759
g0
(g73
g2
Ntp3058
Rp3059
(dp3060
g25
I00
sg31
I01
sg32
I00
sg42
I00
sbsg2845
g0
(g2854
g2
Ntp3061
Rp3062
(dp3063
g25
I00
sg31
I01
sg32
I00
sg2858
g36
sg2859
g36
sbsg2760
g0
(g121
g2
Ntp3064
Rp3065
(dp3066
g25
I00
sg31
I01
sg32
I01
sg42
g2976
sbsg1849
g0
(g121
g2
Ntp3067
Rp3068
(dp3069
g25
I00
sg31
I01
sg32
I01
sg42
g3030
sbsg2846
g0
(g121
g2
Ntp3070
Rp3071
(dp3072
g25
I00
sg31
I01
sg32
I00
sg42
g2869
sbsg2847
g0
(g121
g2
Ntp3073
Rp3074
(dp3075
g25
I00
sg31
I01
sg32
I00
sg42
g2873
sbsg2765
g0
(g73
g2
Ntp3076
Rp3077
(dp3078
g25
I00
sg31
I01
sg32
I01
sg42
I00
sbsg59
V/cvmfs/cms.cern.ch/el8_amd64_gcc11/cms/cmssw-patch/CMSSW_13_2_5_patch1/src/Geometry/DTGeometryBuilder/python/idealForDigiDtGeometryDB_cff.py
p3079
sg61
I8
sg62
g3050
sbsVidealForDigiTrackerGeometry
p3080
g0
(g2753
g2
Ntp3081
Rp3082
(dp3083
g15
VTrackerDigiGeometryESModule
p3084
sg17
(lp3085
g1849
ag2758
ag2765
ag2760
asg25
I00
sg26
Nsg1849
g0
(g121
g2
Ntp3086
Rp3087
(dp3088
g25
I00
sg31
I01
sg32
I01
sg42
g3030
sbsg32
I01
sg2758
g0
(g73
g2
Ntp3089
Rp3090
(dp3091
g25
I00
sg31
I01
sg32
I00
sg42
I00
sbsg2765
g0
(g73
g2
Ntp3092
Rp3093
(dp3094
g25
I00
sg31
I01
sg32
I01
sg42
I00
sbsg2760
g0
(g121
g2
Ntp3095
Rp3096
(dp3097
g25
I00
sg31
I01
sg32
I01
sg42
g2976
sbsg59
V/cvmfs/cms.cern.ch/el8_amd64_gcc11/cms/cmssw-patch/CMSSW_13_2_5_patch1/src/Geometry/TrackerGeometryBuilder/python/idealForDigiTrackerGeometryDB_cff.py
p3098
sg61
I8
sg62
g3080
sbsVmuonGeometryConstants
p3099
g0
(g2753
g2
Ntp3100
Rp3101
(dp3102
g15
VMuonGeometryConstantsESModule
p3103
sg17
(lp3104
g2759
ag1849
asg25
I00
sg26
Nsg2759
g0
(g73
g2
Ntp3105
Rp3106
(dp3107
g25
I00
sg31
I01
sg32
I00
sg42
I00
sbsg32
I00
sg1849
g0
(g121
g2
Ntp3108
Rp3109
(dp3110
g25
I00
sg31
I01
sg32
I00
sg42
g36
sbsg59
g660
sg61
I55
sg62
g3099
sbsVtrackerGeometryDB
p3111
g0
(g2753
g2
Ntp3112
Rp3113
(dp3114
g15
g3084
sg17
(lp3115
g1849
ag2758
ag2765
ag2760
asg25
I00
sg26
Nsg1849
g0
(g121
g2
Ntp3116
Rp3117
(dp3118
g25
I00
sg31
I01
sg32
I00
sg42
g36
sbsg32
I00
sg2758
g0
(g73
g2
Ntp3119
Rp3120
(dp3121
g25
I00
sg31
I01
sg32
I00
sg42
I00
sbsg2765
g0
(g73
g2
Ntp3122
Rp3123
(dp3124
g25
I00
sg31
I01
sg32
I00
sg42
I01
sbsg2760
g0
(g121
g2
Ntp3125
Rp3126
(dp3127
g25
I00
sg31
I01
sg32
I00
sg42
g36
sbsg59
g660
sg61
I55
sg62
g3111
sbsVtrackerNumberingGeometryDB
p3128
g0
(g2753
g2
Ntp3129
Rp3130
(dp3131
g15
VTrackerGeometricDetESModule
p3132
sg17
(lp3133
g2758
ag2759
ag1849
asg25
I00
sg26
Nsg2758
g0
(g73
g2
Ntp3134
Rp3135
(dp3136
g25
I00
sg31
I01
sg32
I00
sg42
I00
sbsg32
I00
sg2759
g0
(g73
g2
Ntp3137
Rp3138
(dp3139
g25
I00
sg31
I01
sg32
I00
sg42
I00
sbsg1849
g0
(g121
g2
Ntp3140
Rp3141
(dp3142
g25
I00
sg31
I01
sg32
I00
sg42
g36
sbsg59
g660
sg61
I55
sg62
g3128
sbsVtrackerTopology
p3143
g0
(g2753
g2
Ntp3144
Rp3145
(dp3146
g15
VTrackerTopologyEP
p3147
sg17
(lp3148
g1849
asg25
I00
sg26
Nsg1849
g0
(g121
g2
Ntp3149
Rp3150
(dp3151
g25
I00
sg31
I01
sg32
I00
sg42
g36
sbsg32
I00
sg59
g660
sg61
I55
sg62
g3143
sbsVMuonNumberingInitialization
p3152
g0
(g2753
g2
Ntp3153
Rp3154
(dp3155
g15
g3152
sg17
(lp3156
sg25
I00
sg26
Nsg32
I00
sg59
g660
sg61
I55
sg62
g3152
sbsVXMLFromDBSource
p3157
g0
(g2753
g2
Ntp3158
Rp3159
(dp3160
g15
VXMLIdealGeometryESProducer
p3161
sg17
(lp3162
VrootDDName
p3163
ag1803
asg25
I00
sg26
Nsg3163
g0
(g121
g2
Ntp3164
Rp3165
(dp3166
g25
I00
sg31
I01
sg32
I00
sg42
Vcms:OCMS
p3167
sbsg32
I00
sg1803
g0
(g121
g2
Ntp3168
Rp3169
(dp3170
g25
I00
sg31
I01
sg32
I00
sg42
VExtended
p3171
sbsg59
g660
sg61
I55
sg62
g3157
sbsVcaloSimulationParameters
p3172
g0
(g2753
g2
Ntp3173
Rp3174
(dp3175
g15
VCaloSimParametersESModule
p3176
sg17
(lp3177
g2759
ag1849
asg25
I00
sg26
Nsg2759
g0
(g73
g2
Ntp3178
Rp3179
(dp3180
g25
I00
sg31
I01
sg32
I00
sg42
I00
sbsg32
I00
sg1849
g0
(g121
g2
Ntp3181
Rp3182
(dp3183
g25
I00
sg31
I01
sg32
I00
sg42
g36
sbsg59
g660
sg61
I55
sg62
g3172
sbsVecalSimulationParametersEB
p3184
g0
(g2753
g2
Ntp3185
Rp3186
(dp3187
g15
VEcalSimParametersESModule
p3188
sg17
(lp3189
g2759
aVname
p3190
ag1849
asg25
I00
sg26
Nsg2759
g0
(g73
g2
Ntp3191
Rp3192
(dp3193
g25
I00
sg31
I01
sg32
I00
sg42
I00
sbsg32
I00
sg3190
g0
(g121
g2
Ntp3194
Rp3195
(dp3196
g25
I00
sg31
I01
sg32
I00
sg42
VEcalHitsEB
p3197
sbsg1849
g0
(g121
g2
Ntp3198
Rp3199
(dp3200
g25
I00
sg31
I01
sg32
I00
sg42
g36
sbsg59
g660
sg61
I55
sg62
g3184
sbsVecalSimulationParametersEE
p3201
g0
(g2753
g2
Ntp3202
Rp3203
(dp3204
g15
g3188
sg17
(lp3205
g2759
ag3190
ag1849
asg25
I00
sg26
Nsg2759
g0
(g73
g2
Ntp3206
Rp3207
(dp3208
g25
I00
sg31
I01
sg32
I00
sg42
I00
sbsg32
I00
sg3190
g0
(g121
g2
Ntp3209
Rp3210
(dp3211
g25
I00
sg31
I01
sg32
I01
sg42
VEcalHitsEE
p3212
sbsg1849
g0
(g121
g2
Ntp3213
Rp3214
(dp3215
g25
I00
sg31
I01
sg32
I00
sg42
g36
sbsg59
V/cvmfs/cms.cern.ch/el8_amd64_gcc11/cms/cmssw-patch/CMSSW_13_2_5_patch1/src/Geometry/EcalCommonData/python/ecalSimulationParameters_cff.py
p3216
sg61
I11
sg62
g3201
sbsVecalSimulationParametersES
p3217
g0
(g2753
g2
Ntp3218
Rp3219
(dp3220
g15
g3188
sg17
(lp3221
g2759
ag3190
ag1849
asg25
I00
sg26
Nsg2759
g0
(g73
g2
Ntp3222
Rp3223
(dp3224
g25
I00
sg31
I01
sg32
I00
sg42
I00
sbsg32
I00
sg3190
g0
(g121
g2
Ntp3225
Rp3226
(dp3227
g25
I00
sg31
I01
sg32
I01
sg42
VEcalHitsES
p3228
sbsg1849
g0
(g121
g2
Ntp3229
Rp3230
(dp3231
g25
I00
sg31
I01
sg32
I00
sg42
g36
sbsg59
g3216
sg61
I14
sg62
g3217
sbsVhcalSimulationConstants
p3232
g0
(g2753
g2
Ntp3233
Rp3234
(dp3235
g15
VHcalSimulationConstantsESModule
p3236
sg17
(lp3237
g1849
asg25
I00
sg26
Nsg1849
g0
(g121
g2
Ntp3238
Rp3239
(dp3240
g25
I00
sg31
I01
sg32
I00
sg42
g36
sbsg32
I00
sg59
g660
sg61
I55
sg62
g3232
sbsVhcalSimulationParameters
p3241
g0
(g2753
g2
Ntp3242
Rp3243
(dp3244
g15
VHcalSimParametersESModule
p3245
sg17
(lp3246
g2759
ag1849
asg25
I00
sg26
Nsg2759
g0
(g73
g2
Ntp3247
Rp3248
(dp3249
g25
I00
sg31
I01
sg32
I00
sg42
I00
sbsg32
I00
sg1849
g0
(g121
g2
Ntp3250
Rp3251
(dp3252
g25
I00
sg31
I01
sg32
I00
sg42
g36
sbsg59
g660
sg61
I55
sg62
g3241
sbsVmuonOffsetESProducer
p3253
g0
(g2753
g2
Ntp3254
Rp3255
(dp3256
g15
VMuonOffsetESProducer
p3257
sg17
(lp3258
g2759
aVnames
p3259
ag1849
asg25
I00
sg26
Nsg2759
g0
(g73
g2
Ntp3260
Rp3261
(dp3262
g25
I00
sg31
I01
sg32
I00
sg42
I00
sbsg32
I00
sg3259
g0
(g105
g47
(lp3263
VMuonCommonNumbering
p3264
aVMuonBarrel
p3265
aVMuonEndcap
p3266
aVMuonBarrelWheels
p3267
aVMuonBarrelStation1
p3268
aVMuonBarrelStation2
p3269
aVMuonBarrelStation3
p3270
aVMuonBarrelStation4
p3271
aVMuonBarrelSuperLayer
p3272
aVMuonBarrelLayer
p3273
aVMuonBarrelWire
p3274
aVMuonRpcPlane1I
p3275
aVMuonRpcPlane1O
p3276
aVMuonRpcPlane2I
p3277
aVMuonRpcPlane2O
p3278
aVMuonRpcPlane3S
p3279
aVMuonRpcPlane4
p3280
aVMuonRpcChamberLeft
p3281
aVMuonRpcChamberMiddle
p3282
aVMuonRpcChamberRight
p3283
aVMuonRpcEndcap1
p3284
aVMuonRpcEndcap2
p3285
aVMuonRpcEndcap3
p3286
aVMuonRpcEndcap4
p3287
aVMuonRpcEndcapSector
p3288
aVMuonRpcEndcapChamberB1
p3289
aVMuonRpcEndcapChamberB2
p3290
aVMuonRpcEndcapChamberB3
p3291
aVMuonRpcEndcapChamberC1
p3292
aVMuonRpcEndcapChamberC2
p3293
aVMuonRpcEndcapChamberC3
p3294
aVMuonRpcEndcapChamberE1
p3295
aVMuonRpcEndcapChamberE2
p3296
aVMuonRpcEndcapChamberE3
p3297
aVMuonRpcEndcapChamberF1
p3298
aVMuonRpcEndcapChamberF2
p3299
aVMuonRpcEndcapChamberF3
p3300
aVMuonEndcapStation1
p3301
aVMuonEndcapStation2
p3302
aVMuonEndcapStation3
p3303
aVMuonEndcapStation4
p3304
aVMuonEndcapSubrings
p3305
aVMuonEndcapSectors
p3306
aVMuonEndcapLayers
p3307
aVMuonEndcapRing1
p3308
aVMuonEndcapRing2
p3309
aVMuonEndcapRing3
p3310
aVMuonEndcapRingA
p3311
aVMuonGEMEndcap
p3312
aVMuonGEMSector
p3313
aVMuonGEMChamber
p3314
atp3315
Rp3316
(dp3317
g25
I00
sg31
I01
sg32
I00
sg451
I1
sbsg1849
g0
(g121
g2
Ntp3318
Rp3319
(dp3320
g25
I00
sg31
I01
sg32
I00
sg42
g36
sbsg59
g660
sg61
I55
sg62
g3253
sbsVParabolicParametrizedMagneticFieldProducer
p3321
g0
(g2753
g2
Ntp3322
Rp3323
(dp3324
g15
VAutoParametrizedMagneticFieldProducer
p3325
sg17
(lp3326
Vversion
p3327
ag1803
aVvalueOverride
p3328
asg25
I00
sg26
Nsg3327
g0
(g121
g2
Ntp3329
Rp3330
(dp3331
g25
I00
sg31
I01
sg32
I00
sg42
VParabolic
p3332
sbsg32
I01
sg1803
g0
(g121
g2
Ntp3333
Rp3334
(dp3335
g25
I00
sg31
I00
sg32
I01
sg42
VParabolicMf
p3336
sbsg3328
g0
(g52
g2
Ntp3337
Rp3338
(dp3339
g25
I00
sg31
I01
sg32
I01
sg42
I18268
sbsg59
g660
sg61
I55
sg62
g3321
sbsVVolumeBasedMagneticFieldESProducer
p3340
g0
(g2753
g2
Ntp3341
Rp3342
(dp3343
g15
VVolumeBasedMagneticFieldESProducerFromDB
p3344
sg17
(lp3345
g1803
aVdebugBuilder
p3346
ag3328
asg25
I00
sg26
Nsg1803
g0
(g121
g2
Ntp3347
Rp3348
(dp3349
g25
I00
sg31
I00
sg32
I00
sg42
g36
sbsg32
I01
sg3346
g0
(g73
g2
Ntp3350
Rp3351
(dp3352
g25
I00
sg31
I00
sg32
I00
sg42
I00
sbsg3328
g0
(g52
g2
Ntp3353
Rp3354
(dp3355
g25
I00
sg31
I01
sg32
I01
sg42
I18268
sbsg59
g660
sg61
I55
sg62
g3340
sbsVCastorDbProducer
p3356
g0
(g2753
g2
Ntp3357
Rp3358
(dp3359
g15
g3356
sg17
(lp3360
g1849
asg25
I00
sg26
Nsg1849
g0
(g121
g2
Ntp3361
Rp3362
(dp3363
g25
I00
sg31
I01
sg32
I00
sg42
g36
sbsg32
I00
sg59
g660
sg61
I55
sg62
g3356
sbsVEcalLaserCorrectionService
p3364
g0
(g2753
g2
Ntp3365
Rp3366
(dp3367
g15
g3364
sg17
(lp3368
VmaxExtrapolationTimeInSec
p3369
asg25
I00
sg26
Nsg3369
g0
(g581
g2
Ntp3370
Rp3371
(dp3372
g25
I00
sg31
I01
sg32
I00
sg42
I0
sbsg32
I00
sg59
g660
sg61
I55
sg62
g3364
sbsVEcalLaserCorrectionServiceMC
p3373
g0
(g2753
g2
Ntp3374
Rp3375
(dp3376
g15
g3373
sg17
(lp3377
g1849
asg25
I00
sg26
Nsg1849
g0
(g121
g2
Ntp3378
Rp3379
(dp3380
g25
I00
sg31
I01
sg32
I00
sg42
g36
sbsg32
I00
sg59
g660
sg61
I55
sg62
g3373
sbsVSiStripRecHitMatcherESProducer
p3381
g0
(g2753
g2
Ntp3382
Rp3383
(dp3384
g15
g3381
sg17
(lp3385
VComponentName
p3386
aVNSigmaInside
p3387
aVPreFilter
p3388
asg25
I00
sg26
Nsg3386
g0
(g121
g2
Ntp3389
Rp3390
(dp3391
g25
I00
sg31
I01
sg32
I00
sg42
VStandardMatcher
p3392
sbsg32
I00
sg3387
g0
(g38
g2
Ntp3393
Rp3394
(dp3395
g25
I00
sg31
I01
sg32
I00
sg42
F3.0
sbsg3388
g0
(g73
g2
Ntp3396
Rp3397
(dp3398
g25
I00
sg31
I01
sg32
I00
sg42
I00
sbsg59
g660
sg61
I55
sg62
g3381
sbsVStripCPEfromTrackAngleESProducer
p3399
g0
(g2753
g2
Ntp3400
Rp3401
(dp3402
g15
VStripCPEESProducer
p3403
sg17
(lp3404
g3386
aVComponentType
p3405
aVparameters
p3406
asg25
I00
sg26
Nsg3386
g0
(g121
g2
Ntp3407
Rp3408
(dp3409
g25
I00
sg31
I01
sg32
I01
sg42
VStripCPEfromTrackAngle
p3410
sbsg32
I00
sg3405
g0
(g121
g2
Ntp3411
Rp3412
(dp3413
g25
I00
sg31
I01
sg32
I01
sg42
g3410
sbsg3406
g0
(g693
g2
Ntp3414
Rp3415
(dp3416
g25
I00
sg31
I01
sg32
I00
sg17
(lp3417
VmLC_P0
p3418
aVmLC_P1
p3419
aVmLC_P2
p3420
aVmTIB_P0
p3421
aVmTIB_P1
p3422
aVmTOB_P0
p3423
aVmTOB_P1
p3424
aVmTID_P0
p3425
aVmTID_P1
p3426
aVmTEC_P0
p3427
aVmTEC_P1
p3428
aVuseLegacyError
p3429
aVmaxChgOneMIP
p3430
asg26
Nsg3418
g0
(g38
g2
Ntp3431
Rp3432
(dp3433
g25
I00
sg31
I01
sg32
I00
sg42
F-0.326
sbsg3419
g0
(g38
g2
Ntp3434
Rp3435
(dp3436
g25
I00
sg31
I01
sg32
I00
sg42
F0.618
sbsg3420
g0
(g38
g2
Ntp3437
Rp3438
(dp3439
g25
I00
sg31
I01
sg32
I00
sg42
F0.3
sbsg3421
g0
(g38
g2
Ntp3440
Rp3441
(dp3442
g25
I00
sg31
I01
sg32
I00
sg42
F-0.742
sbsg3422
g0
(g38
g2
Ntp3443
Rp3444
(dp3445
g25
I00
sg31
I01
sg32
I00
sg42
F0.202
sbsg3423
g0
(g38
g2
Ntp3446
Rp3447
(dp3448
g25
I00
sg31
I01
sg32
I00
sg42
F-1.026
sbsg3424
g0
(g38
g2
Ntp3449
Rp3450
(dp3451
g25
I00
sg31
I01
sg32
I00
sg42
F0.253
sbsg3425
g0
(g38
g2
Ntp3452
Rp3453
(dp3454
g25
I00
sg31
I01
sg32
I00
sg42
F-1.427
sbsg3426
g0
(g38
g2
Ntp3455
Rp3456
(dp3457
g25
I00
sg31
I01
sg32
I00
sg42
F0.433
sbsg3427
g0
(g38
g2
Ntp3458
Rp3459
(dp3460
g25
I00
sg31
I01
sg32
I00
sg42
F-1.885
sbsg3428
g0
(g38
g2
Ntp3461
Rp3462
(dp3463
g25
I00
sg31
I01
sg32
I00
sg42
F0.471
sbsg3429
g0
(g73
g2
Ntp3464
Rp3465
(dp3466
g25
I00
sg31
I01
sg32
I00
sg42
I00
sbsg3430
g0
(g38
g2
Ntp3467
Rp3468
(dp3469
g25
I00
sg31
I01
sg32
I00
sg42
F6000.0
sbsbsg59
V/cvmfs/cms.cern.ch/el8_amd64_gcc11/cms/cmssw-patch/CMSSW_13_2_5_patch1/src/RecoLocalTracker/SiStripRecHitConverter/python/StripCPEfromTrackAngle_cfi.py
p3470
sg61
I4
sg62
g3399
sbsVctppsBeamParametersFromLHCInfoESSource
p3471
g0
(g2753
g2
Ntp3472
Rp3473
(dp3474
g15
VCTPPSBeamParametersFromLHCInfoESSource
p3475
sg17
(lp3476
VlhcInfoLabel
p3477
aVbeamDivX45
p3478
aVbeamDivY45
p3479
aVbeamDivX56
p3480
aVbeamDivY56
p3481
aVvtxOffsetX45
p3482
aVvtxOffsetY45
p3483
aVvtxOffsetZ45
p3484
aVvtxOffsetX56
p3485
aVvtxOffsetY56
p3486
aVvtxOffsetZ56
p3487
aVvtxStddevX
p3488
aVvtxStddevY
p3489
aVvtxStddevZ
p3490
ag1849
asg25
I00
sg26
Nsg3477
g0
(g121
g2
Ntp3491
Rp3492
(dp3493
g25
I00
sg31
I01
sg32
I00
sg42
g36
sbsg32
I00
sg3478
g0
(g38
g2
Ntp3494
Rp3495
(dp3496
g25
I00
sg31
I01
sg32
I00
sg42
F0.1
sbsg3479
g0
(g38
g2
Ntp3497
Rp3498
(dp3499
g25
I00
sg31
I01
sg32
I00
sg42
F0.1
sbsg3480
g0
(g38
g2
Ntp3500
Rp3501
(dp3502
g25
I00
sg31
I01
sg32
I00
sg42
F0.1
sbsg3481
g0
(g38
g2
Ntp3503
Rp3504
(dp3505
g25
I00
sg31
I01
sg32
I00
sg42
F0.1
sbsg3482
g0
(g38
g2
Ntp3506
Rp3507
(dp3508
g25
I00
sg31
I01
sg32
I00
sg42
F0.01
sbsg3483
g0
(g38
g2
Ntp3509
Rp3510
(dp3511
g25
I00
sg31
I01
sg32
I00
sg42
F0.01
sbsg3484
g0
(g38
g2
Ntp3512
Rp3513
(dp3514
g25
I00
sg31
I01
sg32
I00
sg42
F0.01
sbsg3485
g0
(g38
g2
Ntp3515
Rp3516
(dp3517
g25
I00
sg31
I01
sg32
I00
sg42
F0.01
sbsg3486
g0
(g38
g2
Ntp3518
Rp3519
(dp3520
g25
I00
sg31
I01
sg32
I00
sg42
F0.01
sbsg3487
g0
(g38
g2
Ntp3521
Rp3522
(dp3523
g25
I00
sg31
I01
sg32
I00
sg42
F0.01
sbsg3488
g0
(g38
g2
Ntp3524
Rp3525
(dp3526
g25
I00
sg31
I01
sg32
I00
sg42
F0.02
sbsg3489
g0
(g38
g2
Ntp3527
Rp3528
(dp3529
g25
I00
sg31
I01
sg32
I00
sg42
F0.02
sbsg3490
g0
(g38
g2
Ntp3530
Rp3531
(dp3532
g25
I00
sg31
I01
sg32
I00
sg42
F0.02
sbsg1849
g0
(g121
g2
Ntp3533
Rp3534
(dp3535
g25
I00
sg31
I01
sg32
I00
sg42
g36
sbsg59
g660
sg61
I55
sg62
g3471
sbsVctppsInterpolatedOpticalFunctionsESSource
p3536
g0
(g2753
g2
Ntp3537
Rp3538
(dp3539
g15
VCTPPSInterpolatedOpticalFunctionsESSource
p3540
sg17
(lp3541
g3477
aVopticsLabel
p3542
ag1849
asg25
I00
sg26
Nsg3477
g0
(g121
g2
Ntp3543
Rp3544
(dp3545
g25
I00
sg31
I01
sg32
I00
sg42
g36
sbsg32
I01
sg3542
g0
(g121
g2
Ntp3546
Rp3547
(dp3548
g25
I00
sg31
I01
sg32
I00
sg42
g36
sbsg1849
g0
(g121
g2
Ntp3549
Rp3550
(dp3551
g25
I00
sg31
I01
sg32
I00
sg42
g36
sbsg59
g660
sg61
I55
sg62
g3536
sbsVhcal_db_producer
p3552
g0
(g2753
g2
Ntp3553
Rp3554
(dp3555
g15
VHcalDbProducer
p3556
sg17
(lp3557
Vdump
p3558
aVfile
p3559
asg25
I00
sg26
Nsg3558
g0
(g105
g47
(lp3560
g36
atp3561
Rp3562
(dp3563
g25
I00
sg31
I00
sg32
I00
sg451
I1
sbsg32
I00
sg3559
g0
(g121
g2
Ntp3564
Rp3565
(dp3566
g25
I00
sg31
I00
sg32
I00
sg42
g36
sbsg59
g660
sg61
I55
sg62
g3552
sbsVmultipleScatteringParametrisationMakerESProducer
p3567
g0
(g2753
g2
Ntp3568
Rp3569
(dp3570
g15
VMultipleScatteringParametrisationMakerESProducer
p3571
sg17
(lp3572
g1849
asg25
I00
sg26
Nsg1849
g0
(g121
g2
Ntp3573
Rp3574
(dp3575
g25
I00
sg31
I01
sg32
I00
sg42
g36
sbsg32
I00
sg59
g660
sg61
I55
sg62
g3567
sbsVsiPixelQualityESProducer
p3576
g0
(g2753
g2
Ntp3577
Rp3578
(dp3579
g15
VSiPixelQualityESProducer
p3580
sg17
(lp3581
VsiPixelQualityLabel
p3582
aVsiPixelQualityLabel_RawToDigi
p3583
aVListOfRecordToMerge
p3584
ag1849
asg25
I00
sg26
Nsg3582
g0
(g121
g2
Ntp3585
Rp3586
(dp3587
g25
I00
sg31
I01
sg32
I00
sg42
g36
sbsg32
I01
sg3583
g0
(g121
g2
Ntp3588
Rp3589
(dp3590
g25
I00
sg31
I01
sg32
I00
sg42
g36
sbsg3584
g0
(g691
g47
(lp3591
g0
(g693
g2
Ntp3592
Rp3593
(dp3594
g25
I00
sg31
I01
sg32
I00
sg17
(lp3595
g1801
ag1802
asg26
Nsg1801
g0
(g121
g2
Ntp3596
Rp3597
(dp3598
g25
I00
sg31
I01
sg32
I00
sg42
VSiPixelQualityFromDbRcd
p3599
sbsg1802
g0
(g121
g2
Ntp3600
Rp3601
(dp3602
g25
I00
sg31
I01
sg32
I00
sg42
g36
sbsbag0
(g693
g2
Ntp3603
Rp3604
(dp3605
g25
I00
sg31
I01
sg32
I00
sg17
(lp3606
g1801
ag1802
asg26
Nsg1801
g0
(g121
g2
Ntp3607
Rp3608
(dp3609
g25
I00
sg31
I01
sg32
I00
sg42
VSiPixelDetVOffRcd
p3610
sbsg1802
g0
(g121
g2
Ntp3611
Rp3612
(dp3613
g25
I00
sg31
I01
sg32
I00
sg42
g36
sbsbatp3614
Rp3615
(dp3616
g25
I00
sg31
I01
sg32
I00
sg451
I1
sbsg1849
g0
(g121
g2
Ntp3617
Rp3618
(dp3619
g25
I00
sg31
I01
sg32
I00
sg42
g36
sbsg59
g660
sg61
I55
sg62
g3576
sbsVsiStripBackPlaneCorrectionDepESProducer
p3620
g0
(g2753
g2
Ntp3621
Rp3622
(dp3623
g15
VSiStripBackPlaneCorrectionDepESProducer
p3624
sg17
(lp3625
VLatencyRecord
p3626
aVBackPlaneCorrectionPeakMode
p3627
aVBackPlaneCorrectionDeconvMode
p3628
asg25
I00
sg26
Nsg3626
g0
(g693
g2
Ntp3629
Rp3630
(dp3631
g25
I00
sg31
I01
sg32
I00
sg17
(lp3632
g1801
ag1803
asg26
Nsg1801
g0
(g121
g2
Ntp3633
Rp3634
(dp3635
g25
I00
sg31
I01
sg32
I00
sg42
VSiStripLatencyRcd
p3636
sbsg1803
g0
(g121
g2
Ntp3637
Rp3638
(dp3639
g25
I00
sg31
I00
sg32
I00
sg42
g36
sbsbsg32
I00
sg3627
g0
(g693
g2
Ntp3640
Rp3641
(dp3642
g25
I00
sg31
I01
sg32
I00
sg17
(lp3643
g1801
ag1803
asg26
Nsg1801
g0
(g121
g2
Ntp3644
Rp3645
(dp3646
g25
I00
sg31
I01
sg32
I00
sg42
VSiStripBackPlaneCorrectionRcd
p3647
sbsg1803
g0
(g121
g2
Ntp3648
Rp3649
(dp3650
g25
I00
sg31
I00
sg32
I00
sg42
Vpeak
p3651
sbsbsg3628
g0
(g693
g2
Ntp3652
Rp3653
(dp3654
g25
I00
sg31
I01
sg32
I00
sg17
(lp3655
g1801
ag1803
asg26
Nsg1801
g0
(g121
g2
Ntp3656
Rp3657
(dp3658
g25
I00
sg31
I01
sg32
I00
sg42
g3647
sbsg1803
g0
(g121
g2
Ntp3659
Rp3660
(dp3661
g25
I00
sg31
I00
sg32
I00
sg42
Vdeconvolution
p3662
sbsbsg59
g660
sg61
I55
sg62
g3620
sbsVsiStripGainESProducer
p3663
g0
(g2753
g2
Ntp3664
Rp3665
(dp3666
g15
VSiStripGainESProducer
p3667
sg17
(lp3668
g1849
aVprintDebug
p3669
aVAutomaticNormalization
p3670
aVAPVGain
p3671
asg25
I00
sg26
Nsg1849
g0
(g121
g2
Ntp3672
Rp3673
(dp3674
g25
I00
sg31
I01
sg32
I00
sg42
g36
sbsg32
I00
sg3669
g0
(g73
g2
Ntp3675
Rp3676
(dp3677
g25
I00
sg31
I00
sg32
I00
sg42
I00
sbsg3670
g0
(g73
g2
Ntp3678
Rp3679
(dp3680
g25
I00
sg31
I01
sg32
I00
sg42
I00
sbsg3671
g0
(g691
g47
(lp3681
g0
(g693
g2
Ntp3682
Rp3683
(dp3684
g25
I00
sg31
I01
sg32
I00
sg17
(lp3685
VRecord
p3686
aVLabel
p3687
aVNormalizationFactor
p3688
asg26
Nsg3686
g0
(g121
g2
Ntp3689
Rp3690
(dp3691
g25
I00
sg31
I01
sg32
I00
sg42
VSiStripApvGainRcd
p3692
sbsg3687
g0
(g121
g2
Ntp3693
Rp3694
(dp3695
g25
I00
sg31
I00
sg32
I00
sg42
g36
sbsg3688
g0
(g38
g2
Ntp3696
Rp3697
(dp3698
g25
I00
sg31
I00
sg32
I00
sg42
F1.0
sbsbag0
(g693
g2
Ntp3699
Rp3700
(dp3701
g25
I00
sg31
I01
sg32
I00
sg17
(lp3702
g3686
ag3687
ag3688
asg26
Nsg3686
g0
(g121
g2
Ntp3703
Rp3704
(dp3705
g25
I00
sg31
I01
sg32
I00
sg42
VSiStripApvGain2Rcd
p3706
sbsg3687
g0
(g121
g2
Ntp3707
Rp3708
(dp3709
g25
I00
sg31
I00
sg32
I00
sg42
g36
sbsg3688
g0
(g38
g2
Ntp3710
Rp3711
(dp3712
g25
I00
sg31
I00
sg32
I00
sg42
F1.0
sbsbatp3713
Rp3714
(dp3715
g25
I00
sg31
I01
sg32
I00
sg451
I1
sbsg59
g660
sg61
I55
sg62
g3663
sbsVsiStripLorentzAngleDepESProducer
p3716
g0
(g2753
g2
Ntp3717
Rp3718
(dp3719
g15
VSiStripLorentzAngleDepESProducer
p3720
sg17
(lp3721
g3626
aVLorentzAnglePeakMode
p3722
aVLorentzAngleDeconvMode
p3723
asg25
I00
sg26
Nsg3626
g0
(g693
g2
Ntp3724
Rp3725
(dp3726
g25
I00
sg31
I01
sg32
I00
sg17
(lp3727
g1801
ag1803
asg26
Nsg1801
g0
(g121
g2
Ntp3728
Rp3729
(dp3730
g25
I00
sg31
I01
sg32
I00
sg42
g3636
sbsg1803
g0
(g121
g2
Ntp3731
Rp3732
(dp3733
g25
I00
sg31
I00
sg32
I00
sg42
g36
sbsbsg32
I00
sg3722
g0
(g693
g2
Ntp3734
Rp3735
(dp3736
g25
I00
sg31
I01
sg32
I00
sg17
(lp3737
g1801
ag1803
asg26
Nsg1801
g0
(g121
g2
Ntp3738
Rp3739
(dp3740
g25
I00
sg31
I01
sg32
I00
sg42
VSiStripLorentzAngleRcd
p3741
sbsg1803
g0
(g121
g2
Ntp3742
Rp3743
(dp3744
g25
I00
sg31
I00
sg32
I00
sg42
g3651
sbsbsg3723
g0
(g693
g2
Ntp3745
Rp3746
(dp3747
g25
I00
sg31
I01
sg32
I00
sg17
(lp3748
g1801
ag1803
asg26
Nsg1801
g0
(g121
g2
Ntp3749
Rp3750
(dp3751
g25
I00
sg31
I01
sg32
I00
sg42
g3741
sbsg1803
g0
(g121
g2
Ntp3752
Rp3753
(dp3754
g25
I00
sg31
I00
sg32
I00
sg42
g3662
sbsbsg59
g660
sg61
I55
sg62
g3716
sbsVsiStripQualityESProducer
p3755
g0
(g2753
g2
Ntp3756
Rp3757
(dp3758
g15
VSiStripQualityESProducer
p3759
sg17
(lp3760
g1849
ag3584
aVReduceGranularity
p3761
aVThresholdForReducedGranularity
p3762
aVPrintDebugOutput
p3763
aVUseEmptyRunInfo
p3764
asg25
I00
sg26
Nsg1849
g0
(g121
g2
Ntp3765
Rp3766
(dp3767
g25
I00
sg31
I01
sg32
I00
sg42
g36
sbsg32
I01
sg3584
g0
(g691
g47
(lp3768
g0
(g693
g2
Ntp3769
Rp3770
(dp3771
g25
I00
sg31
I01
sg32
I00
sg17
(lp3772
g1801
ag1802
asg26
Nsg1801
g0
(g121
g2
Ntp3773
Rp3774
(dp3775
g25
I00
sg31
I01
sg32
I00
sg42
VSiStripDetVOffRcd
p3776
sbsg1802
g0
(g121
g2
Ntp3777
Rp3778
(dp3779
g25
I00
sg31
I01
sg32
I00
sg42
g36
sbsbag0
(g693
g2
Ntp3780
Rp3781
(dp3782
g25
I00
sg31
I01
sg32
I00
sg17
(lp3783
g1801
ag1802
asg26
Nsg1801
g0
(g121
g2
Ntp3784
Rp3785
(dp3786
g25
I00
sg31
I01
sg32
I00
sg42
VSiStripDetCablingRcd
p3787
sbsg1802
g0
(g121
g2
Ntp3788
Rp3789
(dp3790
g25
I00
sg31
I01
sg32
I00
sg42
g36
sbsbag0
(g693
g2
Ntp3791
Rp3792
(dp3793
g25
I00
sg31
I01
sg32
I00
sg17
(lp3794
g1801
ag1802
asg26
Nsg1801
g0
(g121
g2
Ntp3795
Rp3796
(dp3797
g25
I00
sg31
I01
sg32
I00
sg42
VRunInfoRcd
p3798
sbsg1802
g0
(g121
g2
Ntp3799
Rp3800
(dp3801
g25
I00
sg31
I01
sg32
I00
sg42
g36
sbsbag0
(g693
g2
Ntp3802
Rp3803
(dp3804
g25
I00
sg31
I01
sg32
I00
sg17
(lp3805
g1801
ag1802
asg26
Nsg1801
g0
(g121
g2
Ntp3806
Rp3807
(dp3808
g25
I00
sg31
I01
sg32
I00
sg42
VSiStripBadChannelRcd
p3809
sbsg1802
g0
(g121
g2
Ntp3810
Rp3811
(dp3812
g25
I00
sg31
I01
sg32
I00
sg42
g36
sbsbag0
(g693
g2
Ntp3813
Rp3814
(dp3815
g25
I00
sg31
I01
sg32
I00
sg17
(lp3816
g1801
ag1802
asg26
Nsg1801
g0
(g121
g2
Ntp3817
Rp3818
(dp3819
g25
I00
sg31
I01
sg32
I00
sg42
VSiStripBadFiberRcd
p3820
sbsg1802
g0
(g121
g2
Ntp3821
Rp3822
(dp3823
g25
I00
sg31
I01
sg32
I00
sg42
g36
sbsbag0
(g693
g2
Ntp3824
Rp3825
(dp3826
g25
I00
sg31
I01
sg32
I00
sg17
(lp3827
g1801
ag1802
asg26
Nsg1801
g0
(g121
g2
Ntp3828
Rp3829
(dp3830
g25
I00
sg31
I01
sg32
I00
sg42
VSiStripBadModuleRcd
p3831
sbsg1802
g0
(g121
g2
Ntp3832
Rp3833
(dp3834
g25
I00
sg31
I01
sg32
I00
sg42
g36
sbsbag0
(g693
g2
Ntp3835
Rp3836
(dp3837
g25
I00
sg31
I01
sg32
I00
sg17
(lp3838
g1801
ag1802
asg26
Nsg1801
g0
(g121
g2
Ntp3839
Rp3840
(dp3841
g25
I00
sg31
I01
sg32
I00
sg42
VSiStripBadStripRcd
p3842
sbsg1802
g0
(g121
g2
Ntp3843
Rp3844
(dp3845
g25
I00
sg31
I01
sg32
I00
sg42
g36
sbsbatp3846
Rp3847
(dp3848
g25
I00
sg31
I01
sg32
I00
sg451
I1
sbsg3761
g0
(g73
g2
Ntp3849
Rp3850
(dp3851
g25
I00
sg31
I01
sg32
I00
sg42
I00
sbsg3762
g0
(g38
g2
Ntp3852
Rp3853
(dp3854
g25
I00
sg31
I01
sg32
I00
sg42
F0.3
sbsg3763
g0
(g73
g2
Ntp3855
Rp3856
(dp3857
g25
I00
sg31
I01
sg32
I00
sg42
I00
sbsg3764
g0
(g73
g2
Ntp3858
Rp3859
(dp3860
g25
I00
sg31
I01
sg32
I00
sg42
I00
sbsg59
g660
sg61
I55
sg62
g3755
sbsVsistripconn
p3861
g0
(g2753
g2
Ntp3862
Rp3863
(dp3864
g15
VSiStripConnectivity
p3865
sg17
(lp3866
sg25
I00
sg26
Nsg32
I00
sg59
g660
sg61
I55
sg62
g3861
sbsVstripCPEESProducer
p3867
g0
(g2753
g2
Ntp3868
Rp3869
(dp3870
g15
g3403
sg17
(lp3871
g3386
ag3405
ag3406
asg25
I00
sg26
Nsg3386
g0
(g121
g2
Ntp3872
Rp3873
(dp3874
g25
I00
sg31
I01
sg32
I00
sg42
VstripCPE
p3875
sbsg32
I00
sg3405
g0
(g121
g2
Ntp3876
Rp3877
(dp3878
g25
I00
sg31
I01
sg32
I00
sg42
VSimpleStripCPE
p3879
sbsg3406
g0
(g693
g2
Ntp3880
Rp3881
(dp3882
g25
I00
sg31
I01
sg32
I00
sg17
(lp3883
sg26
Nsbsg59
g660
sg61
I55
sg62
g3867
sbssV_Process__esprefers
p3884
(dp3885
Ves_prefer_hcalHardcode
p3886
g0
(cFWCore.ParameterSet.Modules
ESPrefer
p3887
g2
Ntp3888
Rp3889
(dp3890
g15
g2018
sg17
(lp3891
sg25
I00
sg26
Nsg32
I00
sg59
g660
sg61
I91
sV_targetLabel
p3892
g2014
sg62
g3886
sbssV_Process__aliases
p3893
(dp3894
sV_Process__psets
p3895
(dp3896
VmaxLuminosityBlocks
p3897
g0
(g693
g2
Ntp3898
Rp3899
(dp3900
g25
I00
sg31
I00
sg32
I00
sg17
(lp3901
Vinput
p3902
asg26
Nsg3902
g0
(g52
g2
Ntp3903
Rp3904
(dp3905
g25
I00
sg31
I00
sg32
I00
sg42
I-1
sbsg62
g3897
sbsVnanoDQMIO_perLSoutput
p3906
g0
(g693
g2
Ntp3907
Rp3908
(dp3909
g25
I00
sg31
I01
sg32
I00
sg17
(lp3910
g1195
asg26
Nsg1195
g0
(g105
g47
(lp3911
g1207
ag1208
ag1209
ag1210
ag1211
ag1212
ag1213
ag1214
ag1215
ag1216
ag1217
ag1218
ag1219
ag1220
ag1221
ag1222
ag1223
ag1224
ag1225
ag1226
ag1227
ag1228
ag1229
ag1230
ag1231
ag1232
ag1233
ag1234
ag1235
ag1236
ag1237
ag1238
ag1239
ag1240
ag1241
ag1242
ag1243
ag1244
ag1245
ag1246
ag1247
ag1248
ag1249
ag1250
ag1251
ag1252
ag1253
ag1254
ag1255
ag1256
ag1257
ag1258
ag1259
ag1260
ag1261
ag1262
ag1263
ag1264
ag1265
ag1266
ag1267
ag1268
ag1269
ag1270
ag1271
ag1272
ag1273
ag1274
ag1275
ag1276
ag1277
ag1278
ag1279
ag1280
ag1281
ag1282
ag1283
ag1284
ag1285
ag1286
ag1287
ag1288
ag1289
ag1290
ag1291
ag1292
ag1293
ag1294
ag1295
ag1296
ag1297
ag1298
ag1299
ag1300
ag1301
ag1302
ag1303
ag1304
ag1305
ag1306
ag1307
ag1308
ag1309
ag1310
ag1311
ag1312
ag1313
ag1314
ag1315
ag1316
ag1317
ag1318
ag1319
ag1320
ag1321
ag1322
ag1323
ag1324
ag1325
ag1326
ag1327
ag1328
ag1329
ag1330
ag1331
ag1332
ag1333
ag1334
ag1335
ag1336
ag1337
ag1338
ag1339
ag1340
ag1341
ag1342
ag1343
ag1344
ag1345
ag1346
ag1347
ag1348
ag1349
ag1350
ag1351
ag1352
ag1353
ag1354
ag1355
ag1356
ag1357
ag1358
ag1359
ag1360
ag1361
ag1362
ag1363
ag1364
ag1365
ag1366
ag1367
ag1368
ag1369
ag1370
ag1371
ag1372
ag1373
ag1374
ag1375
ag1376
ag1377
ag1378
ag1379
ag1380
ag1381
ag1382
ag1383
ag1384
ag1385
ag1386
ag1387
ag1388
ag1389
ag1390
ag1391
ag1392
ag1393
ag1394
ag1395
ag1396
ag1397
ag1398
ag1399
ag1400
ag1401
atp3912
Rp3913
(dp3914
g25
I00
sg31
I00
sg32
I00
sg451
I1
sbsg62
g3906
sbsVCondDB
p3915
g0
(g693
g2
Ntp3916
Rp3917
(dp3918
g25
I00
sg31
I01
sg32
I00
sg17
(lp3919
g1748
ag1749
asg26
Nsg1748
g0
(g693
g2
Ntp3920
Rp3921
(dp3922
g25
I00
sg31
I01
sg32
I00
sg17
(lp3923
g1764
ag1765
ag1766
ag1767
ag1768
asg26
Nsg1764
g0
(g121
g2
Ntp3924
Rp3925
(dp3926
g25
I00
sg31
I00
sg32
I00
sg42
g36
sbsg1765
g0
(g52
g2
Ntp3927
Rp3928
(dp3929
g25
I00
sg31
I00
sg32
I00
sg42
I0
sbsg1766
g0
(g121
g2
Ntp3930
Rp3931
(dp3932
g25
I00
sg31
I00
sg32
I00
sg42
g36
sbsg1767
g0
(g52
g2
Ntp3933
Rp3934
(dp3935
g25
I00
sg31
I00
sg32
I00
sg42
I0
sbsg1768
g0
(g52
g2
Ntp3936
Rp3937
(dp3938
g25
I00
sg31
I00
sg32
I00
sg42
I0
sbsbsg1749
g0
(g121
g2
Ntp3939
Rp3940
(dp3941
g25
I00
sg31
I01
sg32
I00
sg42
g36
sbsg62
g3915
sbsg2028
g2079
sVoptions
p3942
g0
(g693
g2
Ntp3943
Rp3944
(dp3945
g25
I00
sg31
I00
sg32
I01
sg17
(lp3946
VnumberOfThreads
p3947
aVnumberOfStreams
p3948
aVnumberOfConcurrentRuns
p3949
aVnumberOfConcurrentLuminosityBlocks
p3950
aVeventSetup
p3951
aVaccelerators
p3952
aVwantSummary
p3953
aVfileMode
p3954
aVforceEventSetupCacheClearOnNewRun
p3955
aVthrowIfIllegalParameter
p3956
aVprintDependencies
p3957
aVdeleteNonConsumedUnscheduledModules
p3958
aVsizeOfStackForThreadsInKB
p3959
aVRethrow
p3960
aVSkipEvent
p3961
aVFailPath
p3962
aVIgnoreCompletely
p3963
aVcanDeleteEarly
p3964
aVholdsReferencesToDeleteEarly
p3965
aVmodulesToIgnoreForDeleteEarly
p3966
aVdumpOptions
p3967
aVallowUnscheduled
p3968
aVemptyRunLumiMode
p3969
aVmakeTriggerResults
p3970
asg26
Nsg3947
g0
(g581
g2
Ntp3971
Rp3972
(dp3973
g25
I00
sg31
I00
sg32
I00
sg42
I1
sbsg3948
g0
(g581
g2
Ntp3974
Rp3975
(dp3976
g25
I00
sg31
I00
sg32
I00
sg42
I0
sbsg3949
g0
(g581
g2
Ntp3977
Rp3978
(dp3979
g25
I00
sg31
I00
sg32
I00
sg42
I1
sbsg3950
g0
(g581
g2
Ntp3980
Rp3981
(dp3982
g25
I00
sg31
I00
sg32
I00
sg42
I0
sbsg3951
g0
(g693
g2
Ntp3983
Rp3984
(dp3985
g25
I00
sg31
I00
sg32
I00
sg17
(lp3986
VnumberOfConcurrentIOVs
p3987
aVforceNumberOfConcurrentIOVs
p3988
asg26
Nsg3987
g0
(g581
g2
Ntp3989
Rp3990
(dp3991
g25
I00
sg31
I00
sg32
I00
sg42
I0
sbsg3988
g0
(g693
g2
Ntp3992
Rp3993
(dp3994
g25
I00
sg31
I00
sg32
I00
sg17
(lp3995
sg26
g0
(cFWCore.ParameterSet.Types
_RequiredParameter
p3996
g2
Ntp3997
Rp3998
(dp3999
g25
I00
sg31
I00
sg32
I00
sg104
g581
sg106
Nsbsbsbsg3952
g0
(g105
g47
(lp4000
V*
p4001
atp4002
Rp4003
(dp4004
g25
I00
sg31
I00
sg32
I00
sg451
I1
sbsg3953
g0
(g73
g2
Ntp4005
Rp4006
(dp4007
g25
I00
sg31
I00
sg32
I00
sg42
I01
sbsg3954
g0
(g121
g2
Ntp4008
Rp4009
(dp4010
g25
I00
sg31
I00
sg32
I00
sg42
VFULLMERGE
p4011
sbsg3955
g0
(g73
g2
Ntp4012
Rp4013
(dp4014
g25
I00
sg31
I00
sg32
I00
sg42
I00
sbsg3956
g0
(g73
g2
Ntp4015
Rp4016
(dp4017
g25
I00
sg31
I00
sg32
I00
sg42
I01
sbsg3957
g0
(g73
g2
Ntp4018
Rp4019
(dp4020
g25
I00
sg31
I00
sg32
I00
sg42
I00
sbsg3958
g0
(g73
g2
Ntp4021
Rp4022
(dp4023
g25
I00
sg31
I00
sg32
I00
sg42
I01
sbsg3959
g0
(g100
g2
Ntp4024
Rp4025
(dp4026
g25
I00
sg31
I00
sg32
I00
sg104
g581
sg106
Nsbsg3960
g0
(g105
g47
(lp4027
tp4028
Rp4029
(dp4030
g25
I00
sg31
I00
sg32
I00
sg451
I1
sbsg3961
g0
(g105
g47
(lp4031
tp4032
Rp4033
(dp4034
g25
I00
sg31
I00
sg32
I00
sg451
I1
sbsg3962
g0
(g105
g47
(lp4035
tp4036
Rp4037
(dp4038
g25
I00
sg31
I00
sg32
I00
sg451
I1
sbsg3963
g0
(g105
g47
(lp4039
tp4040
Rp4041
(dp4042
g25
I00
sg31
I00
sg32
I00
sg451
I1
sbsg3964
g0
(g105
g47
(lp4043
tp4044
Rp4045
(dp4046
g25
I00
sg31
I00
sg32
I00
sg451
I1
sbsg3965
g0
(g691
g47
(lp4047
tp4048
Rp4049
(dp4050
g25
I00
sg31
I00
sg32
I00
sg451
I1
sbsg3966
g0
(g105
g47
(lp4051
tp4052
Rp4053
(dp4054
g25
I00
sg31
I00
sg32
I00
sg451
I1
sbsg3967
g0
(g73
g2
Ntp4055
Rp4056
(dp4057
g25
I00
sg31
I00
sg32
I00
sg42
I00
sbsg3968
g0
(cFWCore.ParameterSet.Types
_ObsoleteParameter
p4058
g2
Ntp4059
Rp4060
(dp4061
g25
I00
sg31
I00
sg32
I00
sg104
g73
sg106
Nsbsg3969
g0
(g4058
g2
Ntp4062
Rp4063
(dp4064
g25
I00
sg31
I00
sg32
I00
sg104
g121
sg106
Nsbsg3970
g0
(g4058
g2
Ntp4065
Rp4066
(dp4067
g25
I00
sg31
I00
sg32
I00
sg104
g73
sg106
Nsbsg62
g3942
sbsVmaxEvents
p4068
g0
(g693
g2
Ntp4069
Rp4070
(dp4071
g25
I00
sg31
I00
sg32
I01
sg17
(lp4072
g3902
ag1156
asg26
Nsg3902
g0
(g100
g2
Ntp4073
Rp4074
(dp4075
g25
I00
sg31
I00
sg32
I00
sg104
g52
sg106
g0
(g52
g2
Ntp4076
Rp4077
(dp4078
g25
I00
sg31
I00
sg32
I00
sg42
I100
sbsbsg1156
g0
(g100
g2
Ntp4079
Rp4080
(dp4081
g25
I00
sg31
I00
sg32
I00
sg104
g0
(cFWCore.ParameterSet.Types
_AllowedParameterTypes
p4082
g2
Ntp4083
Rp4084
(dp4085
V_AllowedParameterTypes__types
p4086
(g52
g693
tp4087
sV_default
p4088
NsV__name__
p4089
Vallowed(cms.int32,cms.PSet)
p4090
sbsg106
Nsbsg62
g4068
sbssV_Process__vpsets
p4091
(dp4092
sV_cloneToObjectDict
p4093
(dp4094
L139907958685552L
g0
(g693
g2
Ntp4095
Rp4096
(dp4097
g25
I00
sg31
I00
sg32
I00
sg17
(lp4098
g3947
ag3948
ag3949
ag3950
ag3951
ag3952
ag3953
ag3954
ag3955
ag3956
ag3957
ag3958
ag3959
ag3960
ag3961
ag3962
ag3963
ag3964
ag3965
ag3966
ag3967
ag3968
ag3969
ag3970
asg26
Nsg3947
g0
(g581
g2
Ntp4099
Rp4100
(dp4101
g25
I00
sg31
I00
sg32
I00
sg42
I1
sbsg3948
g0
(g581
g2
Ntp4102
Rp4103
(dp4104
g25
I00
sg31
I00
sg32
I00
sg42
I0
sbsg3949
g0
(g581
g2
Ntp4105
Rp4106
(dp4107
g25
I00
sg31
I00
sg32
I00
sg42
I1
sbsg3950
g0
(g581
g2
Ntp4108
Rp4109
(dp4110
g25
I00
sg31
I00
sg32
I00
sg42
I0
sbsg3951
g0
(g693
g2
Ntp4111
Rp4112
(dp4113
g25
I00
sg31
I00
sg32
I00
sg17
(lp4114
g3987
ag3988
asg26
Nsg3987
g0
(g581
g2
Ntp4115
Rp4116
(dp4117
g25
I00
sg31
I00
sg32
I00
sg42
I0
sbsg3988
g0
(g693
g2
Ntp4118
Rp4119
(dp4120
g25
I00
sg31
I00
sg32
I00
sg17
(lp4121
sg26
g0
(g3996
g2
Ntp4122
Rp4123
(dp4124
g25
I00
sg31
I00
sg32
I00
sg104
g581
sg106
Nsbsbsbsg3952
g0
(g105
g47
(lp4125
g4001
atp4126
Rp4127
(dp4128
g25
I00
sg31
I00
sg32
I00
sg451
I1
sbsg3953
g0
(g73
g2
Ntp4129
Rp4130
(dp4131
g25
I00
sg31
I00
sg32
I00
sg42
I00
sbsg3954
g0
(g121
g2
Ntp4132
Rp4133
(dp4134
g25
I00
sg31
I00
sg32
I00
sg42
g4011
sbsg3955
g0
(g73
g2
Ntp4135
Rp4136
(dp4137
g25
I00
sg31
I00
sg32
I00
sg42
I00
sbsg3956
g0
(g73
g2
Ntp4138
Rp4139
(dp4140
g25
I00
sg31
I00
sg32
I00
sg42
I01
sbsg3957
g0
(g73
g2
Ntp4141
Rp4142
(dp4143
g25
I00
sg31
I00
sg32
I00
sg42
I00
sbsg3958
g0
(g73
g2
Ntp4144
Rp4145
(dp4146
g25
I00
sg31
I00
sg32
I00
sg42
I01
sbsg3959
g0
(g100
g2
Ntp4147
Rp4148
(dp4149
g25
I00
sg31
I00
sg32
I00
sg104
g581
sg106
Nsbsg3960
g0
(g105
g47
(lp4150
tp4151
Rp4152
(dp4153
g25
I00
sg31
I00
sg32
I00
sg451
I1
sbsg3961
g0
(g105
g47
(lp4154
tp4155
Rp4156
(dp4157
g25
I00
sg31
I00
sg32
I00
sg451
I1
sbsg3962
g0
(g105
g47
(lp4158
tp4159
Rp4160
(dp4161
g25
I00
sg31
I00
sg32
I00
sg451
I1
sbsg3963
g0
(g105
g47
(lp4162
tp4163
Rp4164
(dp4165
g25
I00
sg31
I00
sg32
I00
sg451
I1
sbsg3964
g0
(g105
g47
(lp4166
tp4167
Rp4168
(dp4169
g25
I00
sg31
I00
sg32
I00
sg451
I1
sbsg3965
g0
(g691
g47
(lp4170
tp4171
Rp4172
(dp4173
g25
I00
sg31
I00
sg32
I00
sg451
I1
sbsg3966
g0
(g105
g47
(lp4174
tp4175
Rp4176
(dp4177
g25
I00
sg31
I00
sg32
I00
sg451
I1
sbsg3967
g0
(g73
g2
Ntp4178
Rp4179
(dp4180
g25
I00
sg31
I00
sg32
I00
sg42
I00
sbsg3968
g0
(g4058
g2
Ntp4181
Rp4182
(dp4183
g25
I00
sg31
I00
sg32
I00
sg104
g73
sg106
Nsbsg3969
g0
(g4058
g2
Ntp4184
Rp4185
(dp4186
g25
I00
sg31
I00
sg32
I00
sg104
g121
sg106
Nsbsg3970
g0
(g4058
g2
Ntp4187
Rp4188
(dp4189
g25
I00
sg31
I00
sg32
I00
sg104
g73
sg106
Nsbsg62
NsbsL139907945894816L
g0
(g693
g2
Ntp4190
Rp4191
(dp4192
g25
I00
sg31
I00
sg32
I00
sg17
(lp4193
g3902
ag1156
asg26
Nsg3902
g0
(g100
g2
Ntp4194
Rp4195
(dp4196
g25
I00
sg31
I00
sg32
I00
sg104
g52
sg106
Nsbsg1156
g0
(g100
g2
Ntp4197
Rp4198
(dp4199
g25
I00
sg31
I00
sg32
I00
sg104
g0
(g4082
g2
Ntp4200
Rp4201
(dp4202
g4086
(g52
g693
tp4203
sg4088
Nsg4089
Vallowed(cms.int32,cms.PSet)
p4204
sbsg106
Nsbsg62
NsbsL139907945895872L
g3899
sL139907958786320L
g2755
sL139907959296304L
g2799
sL139907958663824L
g2816
sL139907981567024L
g2821
sL139907981566496L
g2829
sL139907943978272L
g2834
sL139907959408480L
g2842
sL139907981569088L
g2879
sL139907959299520L
g2887
sL139907959299424L
g2892
sL139907959298368L
g2900
sL139907958663776L
g2908
sL139907956994592L
g2918
sL139907981566640L
g2923
sL139907959298944L
g2928
sL139907958785360L
g2936
sL139907958787808L
g2941
sL139907943354816L
g2952
sL139907943977696L
g2961
sL139907943979952L
g1710
sL139907946608528L
g2969
sL139907943980336L
g2980
sL139907943980816L
g2989
sL139907981569904L
g2998
sL139907981568608L
g3015
sL139907946610304L
g3052
sL139907959082528L
g3082
sL139907959300048L
g3101
sL139907943862080L
g3113
sL139907948398672L
g3130
sL139907946974704L
g3145
sL139907946294288L
g3154
sL139907946293088L
g3159
sL139907944351728L
g3174
sL139907946293904L
g3186
sL139907945360208L
g3203
sL139907946294432L
g3219
sL139907944352640L
g3234
sL139907944353216L
g3243
sL139907944349904L
g3255
sL139907944350432L
g1732
sL139907944347776L
g3908
sL139907944349072L
g470
sL139907946982464L
g3323
sL139907946389616L
g3342
sL139907941878128L
g3358
sL139907946980688L
g3917
sL139907944126832L
g3366
sL139907944126400L
g3375
sL139907944125632L
g1744
sL139907957044848L
g2079
sL139907957046048L
g1846
sL139907941965728L
g3383
sL139907941964864L
g3401
sL139907941490064L
g3473
sL139907941490592L
g3538
sL139907941877840L
g2016
sL139907941878080L
g3889
sL139907944127936L
g3554
sL139907941474160L
g3569
sL139907941486704L
g3578
sL139907941962320L
g3622
sL139907941919616L
g3665
sL139907941920384L
g3718
sL139907941472576L
g3757
sL139907941877984L
g3863
sL139907941963808L
g3869
sL139907942177712L
g477
sL139907945894048L
g3944
sL139907942178720L
g4070
sL139907941541392L
g563
sL139907941655744L
g747
sL139907941355184L
g13
sL139907941354416L
g65
sL139907941656176L
g110
sL139907941656992L
g587
sL139907941658480L
g656
sL139907941657616L
g607
sL139907941199344L
g633
sL139907941325216L
g682
sL139907941658096L
g931
sL139907941394320L
g132
sL139907941355328L
g152
sL139907941395904L
g166
sL139907941406896L
g180
sL139907941394752L
g194
sL139907941355376L
g208
sL139907941396384L
g222
sL139907941407328L
g236
sL139907941395184L
g250
sL139907941355232L
g264
sL139907941396336L
g278
sL139907941407760L
g292
sL139907941408480L
g306
sL139907941395616L
g320
sL139907941355280L
g334
sL139907941396000L
g348
sL139907941408192L
g362
sL139907941396048L
g376
sL139907941393888L
g390
sL139907941406464L
g404
sL139907941408624L
g418
sL139907941408576L
g432
sL139907941352688L
g824
sL139907941326800L
g889
ssV_Process__InExtendCall
p4205
I00
sV_Process__partialschedules
p4206
(dp4207
sV_Process__isStrict
p4208
I00
sV_Process__modifiers
p4209
(tsV_Process__accelerators
p4210
(dp4211
sg3897
g3899
sg943
g946
sg2752
g2755
sg2797
g2799
sg2814
g2816
sg2819
g2821
sg2827
g2829
sg2832
g2834
sg2840
g2842
sg2877
g2879
sg2885
g2887
sg2890
g2892
sg2898
g2900
sg2906
g2908
sg2916
g2918
sg2921
g2923
sg2926
g2928
sg2934
g2936
sg2939
g2941
sg2950
g2952
sg2959
g2961
sg1707
g1710
sg2967
g2969
sg2978
g2980
sg2987
g2989
sg2996
g2998
sg3013
g3015
sg3050
g3052
sg3080
g3082
sg3099
g3101
sg3111
g3113
sg3128
g3130
sg3143
g3145
sg3152
g3154
sg3157
g3159
sg3172
g3174
sg3184
g3186
sg3201
g3203
sg3217
g3219
sg3232
g3234
sg3241
g3243
sg3253
g3255
sg1188
g1190
sg1730
g1732
sg1417
g1419
sg3906
g3908
sg467
g470
sg3321
g3323
sg3340
g3342
sg3356
g3358
sg3915
g3917
sg3364
g3366
sg3373
g3375
sg1742
g1744
sg2028
g2079
sg1844
g1846
sg3381
g3383
sg3399
g3401
sg3471
g3473
sg3536
g3538
sg2014
g2016
sg3886
g3889
sg3552
g3554
sg3567
g3569
sg3576
g3578
sg3620
g3622
sg3663
g3665
sg3716
g3718
sg3755
g3757
sg3861
g3863
sg3867
g3869
sg475
g477
sg3942
g3944
sg4068
g4070
sVsource
p4212
g718
sg720
g718
sg521
g563
sg744
g747
sg10
g13
sg63
g65
sg108
g110
sg80
g587
sg653
g656
sg605
g607
sg631
g633
sg680
g682
sg928
g931
sg130
g132
sg150
g152
sg164
g166
sg178
g180
sg192
g194
sg206
g208
sg220
g222
sg234
g236
sg248
g250
sg262
g264
sg276
g278
sg290
g292
sg304
g306
sg318
g320
sg332
g334
sg346
g348
sg360
g362
sg374
g376
sg388
g390
sg402
g404
sg416
g418
sg1695
g1697
sg430
g432
sg822
g824
sg886
g889
sb.