ccopy_reg
_reconstructor
p0
(cFWCore.ParameterSet.Config
Process
p1
c__builtin__
object
p2
Ntp3
Rp4
(dp5
V_Process__name
p6
VRaghuEffTest
p7
sV_Process__filters
p8
(dp9
VclusterCompatibilityFilter
p10
g0
(cFWCore.ParameterSet.Modules
EDFilter
p11
g2
Ntp12
Rp13
(dp14
V_TypedParameterizable__type
p15
VHIClusterCompatibilityFilter
p16
sV_Parameterizable__parameterNames
p17
(lp18
VcluscomSrc
p19
aVminZ
p20
aVmaxZ
p21
aVclusterPars
p22
aVnhitsTrunc
p23
aVclusterTrunc
p24
asV_isFrozen
p25
I00
sV_Parameterizable__validator
p26
Nsg19
g0
(cFWCore.ParameterSet.Types
InputTag
p27
g2
Ntp28
Rp29
(dp30
g25
I00
sV_ParameterTypeBase__isTracked
p31
I01
sV_isModified
p32
I00
sV_InputTag__moduleLabel
p33
VhiClusterCompatibility
p34
sV_InputTag__productInstance
p35
V
p36
sV_InputTag__processName
p37
g36
sbsg32
I00
sg20
g0
(cFWCore.ParameterSet.Types
double
p38
g2
Ntp39
Rp40
(dp41
g25
I00
sg31
I01
sg32
I00
sV_value
p42
F-20.0
sbsg21
g0
(g38
g2
Ntp43
Rp44
(dp45
g25
I00
sg31
I01
sg32
I00
sg42
F20.05
sbsg22
g0
(cFWCore.ParameterSet.Types
vdouble
p46
c__builtin__
list
p47
(lp48
F0.0
aF0.0045
atp49
Rp50
(dp51
g25
I00
sg31
I01
sg32
I00
sbsg23
g0
(cFWCore.ParameterSet.Types
int32
p52
g2
Ntp53
Rp54
(dp55
g25
I00
sg31
I01
sg32
I00
sg42
I150
sbsg24
g0
(g38
g2
Ntp56
Rp57
(dp58
g25
I00
sg31
I01
sg32
I00
sg42
F2.0
sbsV_filename
p59
V/afs/cern.ch/work/r/rpradhan/Tracking_Studies/newCode_AfterRun3/ForEffTest/CMSSW_13_2_5_patch1/src/HeavyIonsAnalysis/EventAnalysis/python/clusterCompatibilityFilter_cfi.py
p60
sV_lineNumber
p61
I3
sV_Labelable__label
p62
g10
sbsVhltPixelClusterShapeFilter
p63
g0
(g11
g2
Ntp64
Rp65
(dp66
g15
VHLTPixelClusterShapeFilter
p67
sg17
(lp68
VsaveTags
p69
aVinputTag
p70
ag20
ag21
aVzStep
p71
ag22
ag23
ag24
aVmightGet
p72
asg25
I00
sg26
Nsg69
g0
(cFWCore.ParameterSet.Types
bool
p73
g2
Ntp74
Rp75
(dp76
g25
I00
sg31
I01
sg32
I00
sg42
I01
sbsg32
I01
sg70
g0
(g27
g2
Ntp77
Rp78
(dp79
g25
I00
sg31
I01
sg32
I01
sg33
VsiPixelRecHits
p80
sg35
g36
sg37
g36
sbsg20
g0
(g38
g2
Ntp81
Rp82
(dp83
g25
I00
sg31
I01
sg32
I00
sg42
I-20
sbsg21
g0
(g38
g2
Ntp84
Rp85
(dp86
g25
I00
sg31
I01
sg32
I00
sg42
F20.05
sbsg71
g0
(g38
g2
Ntp87
Rp88
(dp89
g25
I00
sg31
I01
sg32
I00
sg42
F0.2
sbsg22
g0
(g46
g47
(lp90
I0
aF0.0045
atp91
Rp92
(dp93
g25
I00
sg31
I01
sg32
I00
sbsg23
g0
(g52
g2
Ntp94
Rp95
(dp96
g25
I00
sg31
I01
sg32
I00
sg42
I150
sbsg24
g0
(g38
g2
Ntp97
Rp98
(dp99
g25
I00
sg31
I01
sg32
I00
sg42
I2
sbsg72
g0
(cFWCore.ParameterSet.Types
_OptionalParameter
p100
g2
Ntp101
Rp102
(dp103
g25
I00
sg31
I00
sg32
I00
sV_ProxyParameter__type
p104
cFWCore.ParameterSet.Types
vstring
p105
sV_ProxyParameter__value
p106
Nsbsg59
V/cvmfs/cms.cern.ch/el8_amd64_gcc11/cms/cmssw-patch/CMSSW_13_2_5_patch1/cfipython/el8_amd64_gcc11/HLTrigger/special/hltPixelClusterShapeFilter_cfi.py
p107
sg61
I3
sg62
g63
sbsVprimaryVertexFilter
p108
g0
(g11
g2
Ntp109
Rp110
(dp111
g15
VVertexSelector
p112
sg17
(lp113
Vsrc
p114
aVcut
p115
aVfilter
p116
asg25
I00
sg26
Nsg114
g0
(g27
g2
Ntp117
Rp118
(dp119
g25
I00
sg31
I01
sg32
I00
sg33
VofflineSlimmedPrimaryVertices
p120
sg35
g36
sg37
g36
sbsg32
I00
sg115
g0
(cFWCore.ParameterSet.Types
string
p121
g2
Ntp122
Rp123
(dp124
g25
I00
sg31
I01
sg32
I00
sg42
V!isFake && abs(z) <= 25 && position.Rho <= 2
p125
sbsg116
g0
(g73
g2
Ntp126
Rp127
(dp128
g25
I00
sg31
I01
sg32
I00
sg42
I01
sbsg59
V/afs/cern.ch/work/r/rpradhan/Tracking_Studies/newCode_AfterRun3/ForEffTest/CMSSW_13_2_5_patch1/src/HeavyIonsAnalysis/EventAnalysis/python/collisionEventSelection_cff.py
p129
sg61
I5
sg62
g108
sbsVphfCoincFilter1Th3
p130
g0
(g11
g2
Ntp131
Rp132
(dp133
g15
VHiHFFilter
p134
sg17
(lp135
VHFfilters
p136
aVthreshold
p137
aVminnumtowers
p138
asg25
I00
sg26
Nsg136
g0
(g27
g2
Ntp139
Rp140
(dp141
g25
I00
sg31
I01
sg32
I00
sg33
VhiHFfilters
p142
sg35
g142
sg37
g36
sbsg32
I00
sg137
g0
(g52
g2
Ntp143
Rp144
(dp145
g25
I00
sg31
I01
sg32
I01
sg42
I3
sbsg138
g0
(g52
g2
Ntp146
Rp147
(dp148
g25
I00
sg31
I01
sg32
I01
sg42
I1
sbsg59
V/afs/cern.ch/work/r/rpradhan/Tracking_Studies/newCode_AfterRun3/ForEffTest/CMSSW_13_2_5_patch1/src/HeavyIonsAnalysis/EventAnalysis/python/hffilter_cfi.py
p149
sg61
I14
sg62
g130
sbsVphfCoincFilter1Th4
p150
g0
(g11
g2
Ntp151
Rp152
(dp153
g15
g134
sg17
(lp154
g136
ag137
ag138
asg25
I00
sg26
Nsg136
g0
(g27
g2
Ntp155
Rp156
(dp157
g25
I00
sg31
I01
sg32
I00
sg33
g142
sg35
g142
sg37
g36
sbsg32
I00
sg137
g0
(g52
g2
Ntp158
Rp159
(dp160
g25
I00
sg31
I01
sg32
I00
sg42
I4
sbsg138
g0
(g52
g2
Ntp161
Rp162
(dp163
g25
I00
sg31
I01
sg32
I01
sg42
I1
sbsg59
g149
sg61
I9
sg62
g150
sbsVphfCoincFilter1Th5
p164
g0
(g11
g2
Ntp165
Rp166
(dp167
g15
g134
sg17
(lp168
g136
ag137
ag138
asg25
I00
sg26
Nsg136
g0
(g27
g2
Ntp169
Rp170
(dp171
g25
I00
sg31
I01
sg32
I00
sg33
g142
sg35
g142
sg37
g36
sbsg32
I00
sg137
g0
(g52
g2
Ntp172
Rp173
(dp174
g25
I00
sg31
I01
sg32
I01
sg42
I5
sbsg138
g0
(g52
g2
Ntp175
Rp176
(dp177
g25
I00
sg31
I01
sg32
I01
sg42
I1
sbsg59
g149
sg61
I20
sg62
g164
sbsVphfCoincFilter1Th6
p178
g0
(g11
g2
Ntp179
Rp180
(dp181
g15
g134
sg17
(lp182
g136
ag137
ag138
asg25
I00
sg26
Nsg136
g0
(g27
g2
Ntp183
Rp184
(dp185
g25
I00
sg31
I01
sg32
I00
sg33
g142
sg35
g142
sg37
g36
sbsg32
I00
sg137
g0
(g52
g2
Ntp186
Rp187
(dp188
g25
I00
sg31
I01
sg32
I01
sg42
I6
sbsg138
g0
(g52
g2
Ntp189
Rp190
(dp191
g25
I00
sg31
I01
sg32
I01
sg42
I1
sbsg59
g149
sg61
I26
sg62
g178
sbsVphfCoincFilter2Th3
p192
g0
(g11
g2
Ntp193
Rp194
(dp195
g15
g134
sg17
(lp196
g136
ag137
ag138
asg25
I00
sg26
Nsg136
g0
(g27
g2
Ntp197
Rp198
(dp199
g25
I00
sg31
I01
sg32
I00
sg33
g142
sg35
g142
sg37
g36
sbsg32
I00
sg137
g0
(g52
g2
Ntp200
Rp201
(dp202
g25
I00
sg31
I01
sg32
I01
sg42
I3
sbsg138
g0
(g52
g2
Ntp203
Rp204
(dp205
g25
I00
sg31
I01
sg32
I00
sg42
I2
sbsg59
g149
sg61
I15
sg62
g192
sbsVphfCoincFilter2Th4
p206
g0
(g11
g2
Ntp207
Rp208
(dp209
g15
g134
sg17
(lp210
g136
ag137
ag138
asg25
I00
sg26
Nsg136
g0
(g27
g2
Ntp211
Rp212
(dp213
g25
I00
sg31
I01
sg32
I00
sg33
g142
sg35
g142
sg37
g36
sbsg32
I00
sg137
g0
(g52
g2
Ntp214
Rp215
(dp216
g25
I00
sg31
I01
sg32
I00
sg42
I4
sbsg138
g0
(g52
g2
Ntp217
Rp218
(dp219
g25
I00
sg31
I01
sg32
I00
sg42
I2
sbsg59
g149
sg61
I3
sg62
g206
sbsVphfCoincFilter2Th5
p220
g0
(g11
g2
Ntp221
Rp222
(dp223
g15
g134
sg17
(lp224
g136
ag137
ag138
asg25
I00
sg26
Nsg136
g0
(g27
g2
Ntp225
Rp226
(dp227
g25
I00
sg31
I01
sg32
I00
sg33
g142
sg35
g142
sg37
g36
sbsg32
I00
sg137
g0
(g52
g2
Ntp228
Rp229
(dp230
g25
I00
sg31
I01
sg32
I01
sg42
I5
sbsg138
g0
(g52
g2
Ntp231
Rp232
(dp233
g25
I00
sg31
I01
sg32
I00
sg42
I2
sbsg59
g149
sg61
I21
sg62
g220
sbsVphfCoincFilter2Th6
p234
g0
(g11
g2
Ntp235
Rp236
(dp237
g15
g134
sg17
(lp238
g136
ag137
ag138
asg25
I00
sg26
Nsg136
g0
(g27
g2
Ntp239
Rp240
(dp241
g25
I00
sg31
I01
sg32
I00
sg33
g142
sg35
g142
sg37
g36
sbsg32
I00
sg137
g0
(g52
g2
Ntp242
Rp243
(dp244
g25
I00
sg31
I01
sg32
I01
sg42
I6
sbsg138
g0
(g52
g2
Ntp245
Rp246
(dp247
g25
I00
sg31
I01
sg32
I00
sg42
I2
sbsg59
g149
sg61
I27
sg62
g234
sbsVphfCoincFilter3Th3
p248
g0
(g11
g2
Ntp249
Rp250
(dp251
g15
g134
sg17
(lp252
g136
ag137
ag138
asg25
I00
sg26
Nsg136
g0
(g27
g2
Ntp253
Rp254
(dp255
g25
I00
sg31
I01
sg32
I00
sg33
g142
sg35
g142
sg37
g36
sbsg32
I00
sg137
g0
(g52
g2
Ntp256
Rp257
(dp258
g25
I00
sg31
I01
sg32
I01
sg42
I3
sbsg138
g0
(g52
g2
Ntp259
Rp260
(dp261
g25
I00
sg31
I01
sg32
I01
sg42
I3
sbsg59
g149
sg61
I16
sg62
g248
sbsVphfCoincFilter3Th4
p262
g0
(g11
g2
Ntp263
Rp264
(dp265
g15
g134
sg17
(lp266
g136
ag137
ag138
asg25
I00
sg26
Nsg136
g0
(g27
g2
Ntp267
Rp268
(dp269
g25
I00
sg31
I01
sg32
I00
sg33
g142
sg35
g142
sg37
g36
sbsg32
I00
sg137
g0
(g52
g2
Ntp270
Rp271
(dp272
g25
I00
sg31
I01
sg32
I00
sg42
I4
sbsg138
g0
(g52
g2
Ntp273
Rp274
(dp275
g25
I00
sg31
I01
sg32
I01
sg42
I3
sbsg59
g149
sg61
I10
sg62
g262
sbsVphfCoincFilter3Th5
p276
g0
(g11
g2
Ntp277
Rp278
(dp279
g15
g134
sg17
(lp280
g136
ag137
ag138
asg25
I00
sg26
Nsg136
g0
(g27
g2
Ntp281
Rp282
(dp283
g25
I00
sg31
I01
sg32
I00
sg33
g142
sg35
g142
sg37
g36
sbsg32
I00
sg137
g0
(g52
g2
Ntp284
Rp285
(dp286
g25
I00
sg31
I01
sg32
I01
sg42
I5
sbsg138
g0
(g52
g2
Ntp287
Rp288
(dp289
g25
I00
sg31
I01
sg32
I01
sg42
I3
sbsg59
g149
sg61
I22
sg62
g276
sbsVphfCoincFilter3Th6
p290
g0
(g11
g2
Ntp291
Rp292
(dp293
g15
g134
sg17
(lp294
g136
ag137
ag138
asg25
I00
sg26
Nsg136
g0
(g27
g2
Ntp295
Rp296
(dp297
g25
I00
sg31
I01
sg32
I00
sg33
g142
sg35
g142
sg37
g36
sbsg32
I00
sg137
g0
(g52
g2
Ntp298
Rp299
(dp300
g25
I00
sg31
I01
sg32
I01
sg42
I6
sbsg138
g0
(g52
g2
Ntp301
Rp302
(dp303
g25
I00
sg31
I01
sg32
I01
sg42
I3
sbsg59
g149
sg61
I28
sg62
g290
sbsVphfCoincFilter4Th2
p304
g0
(g11
g2
Ntp305
Rp306
(dp307
g15
g134
sg17
(lp308
g136
ag137
ag138
asg25
I00
sg26
Nsg136
g0
(g27
g2
Ntp309
Rp310
(dp311
g25
I00
sg31
I01
sg32
I00
sg33
g142
sg35
g142
sg37
g36
sbsg32
I00
sg137
g0
(g52
g2
Ntp312
Rp313
(dp314
g25
I00
sg31
I01
sg32
I01
sg42
I2
sbsg138
g0
(g52
g2
Ntp315
Rp316
(dp317
g25
I00
sg31
I01
sg32
I01
sg42
I4
sbsg59
g149
sg61
I32
sg62
g304
sbsVphfCoincFilter4Th3
p318
g0
(g11
g2
Ntp319
Rp320
(dp321
g15
g134
sg17
(lp322
g136
ag137
ag138
asg25
I00
sg26
Nsg136
g0
(g27
g2
Ntp323
Rp324
(dp325
g25
I00
sg31
I01
sg32
I00
sg33
g142
sg35
g142
sg37
g36
sbsg32
I00
sg137
g0
(g52
g2
Ntp326
Rp327
(dp328
g25
I00
sg31
I01
sg32
I01
sg42
I3
sbsg138
g0
(g52
g2
Ntp329
Rp330
(dp331
g25
I00
sg31
I01
sg32
I01
sg42
I4
sbsg59
g149
sg61
I17
sg62
g318
sbsVphfCoincFilter4Th4
p332
g0
(g11
g2
Ntp333
Rp334
(dp335
g15
g134
sg17
(lp336
g136
ag137
ag138
asg25
I00
sg26
Nsg136
g0
(g27
g2
Ntp337
Rp338
(dp339
g25
I00
sg31
I01
sg32
I00
sg33
g142
sg35
g142
sg37
g36
sbsg32
I00
sg137
g0
(g52
g2
Ntp340
Rp341
(dp342
g25
I00
sg31
I01
sg32
I00
sg42
I4
sbsg138
g0
(g52
g2
Ntp343
Rp344
(dp345
g25
I00
sg31
I01
sg32
I01
sg42
I4
sbsg59
g149
sg61
I11
sg62
g332
sbsVphfCoincFilter4Th5
p346
g0
(g11
g2
Ntp347
Rp348
(dp349
g15
g134
sg17
(lp350
g136
ag137
ag138
asg25
I00
sg26
Nsg136
g0
(g27
g2
Ntp351
Rp352
(dp353
g25
I00
sg31
I01
sg32
I00
sg33
g142
sg35
g142
sg37
g36
sbsg32
I00
sg137
g0
(g52
g2
Ntp354
Rp355
(dp356
g25
I00
sg31
I01
sg32
I01
sg42
I5
sbsg138
g0
(g52
g2
Ntp357
Rp358
(dp359
g25
I00
sg31
I01
sg32
I01
sg42
I4
sbsg59
g149
sg61
I23
sg62
g346
sbsVphfCoincFilter4Th6
p360
g0
(g11
g2
Ntp361
Rp362
(dp363
g15
g134
sg17
(lp364
g136
ag137
ag138
asg25
I00
sg26
Nsg136
g0
(g27
g2
Ntp365
Rp366
(dp367
g25
I00
sg31
I01
sg32
I00
sg33
g142
sg35
g142
sg37
g36
sbsg32
I00
sg137
g0
(g52
g2
Ntp368
Rp369
(dp370
g25
I00
sg31
I01
sg32
I01
sg42
I6
sbsg138
g0
(g52
g2
Ntp371
Rp372
(dp373
g25
I00
sg31
I01
sg32
I01
sg42
I4
sbsg59
g149
sg61
I29
sg62
g360
sbsVphfCoincFilter5Th3
p374
g0
(g11
g2
Ntp375
Rp376
(dp377
g15
g134
sg17
(lp378
g136
ag137
ag138
asg25
I00
sg26
Nsg136
g0
(g27
g2
Ntp379
Rp380
(dp381
g25
I00
sg31
I01
sg32
I00
sg33
g142
sg35
g142
sg37
g36
sbsg32
I00
sg137
g0
(g52
g2
Ntp382
Rp383
(dp384
g25
I00
sg31
I01
sg32
I01
sg42
I3
sbsg138
g0
(g52
g2
Ntp385
Rp386
(dp387
g25
I00
sg31
I01
sg32
I01
sg42
I5
sbsg59
g149
sg61
I18
sg62
g374
sbsVphfCoincFilter5Th4
p388
g0
(g11
g2
Ntp389
Rp390
(dp391
g15
g134
sg17
(lp392
g136
ag137
ag138
asg25
I00
sg26
Nsg136
g0
(g27
g2
Ntp393
Rp394
(dp395
g25
I00
sg31
I01
sg32
I00
sg33
g142
sg35
g142
sg37
g36
sbsg32
I00
sg137
g0
(g52
g2
Ntp396
Rp397
(dp398
g25
I00
sg31
I01
sg32
I00
sg42
I4
sbsg138
g0
(g52
g2
Ntp399
Rp400
(dp401
g25
I00
sg31
I01
sg32
I01
sg42
I5
sbsg59
g149
sg61
I12
sg62
g388
sbsVphfCoincFilter5Th5
p402
g0
(g11
g2
Ntp403
Rp404
(dp405
g15
g134
sg17
(lp406
g136
ag137
ag138
asg25
I00
sg26
Nsg136
g0
(g27
g2
Ntp407
Rp408
(dp409
g25
I00
sg31
I01
sg32
I00
sg33
g142
sg35
g142
sg37
g36
sbsg32
I00
sg137
g0
(g52
g2
Ntp410
Rp411
(dp412
g25
I00
sg31
I01
sg32
I01
sg42
I5
sbsg138
g0
(g52
g2
Ntp413
Rp414
(dp415
g25
I00
sg31
I01
sg32
I01
sg42
I5
sbsg59
g149
sg61
I24
sg62
g402
sbsVphfCoincFilter5Th6
p416
g0
(g11
g2
Ntp417
Rp418
(dp419
g15
g134
sg17
(lp420
g136
ag137
ag138
asg25
I00
sg26
Nsg136
g0
(g27
g2
Ntp421
Rp422
(dp423
g25
I00
sg31
I01
sg32
I00
sg33
g142
sg35
g142
sg37
g36
sbsg32
I00
sg137
g0
(g52
g2
Ntp424
Rp425
(dp426
g25
I00
sg31
I01
sg32
I01
sg42
I6
sbsg138
g0
(g52
g2
Ntp427
Rp428
(dp429
g25
I00
sg31
I01
sg32
I01
sg42
I5
sbsg59
g149
sg61
I30
sg62
g416
sbsVhltMB
p430
g0
(g11
g2
Ntp431
Rp432
(dp433
g15
VHLTHighLevel
p434
sg17
(lp435
VTriggerResultsTag
p436
aVHLTPaths
p437
aVeventSetupPathsKey
p438
aVandOr
p439
aVthrow
p440
ag72
asg25
I00
sg26
Nsg436
g0
(g27
g2
Ntp441
Rp442
(dp443
g25
I00
sg31
I01
sg32
I00
sg33
VTriggerResults
p444
sg35
g36
sg37
VHLT
p445
sbsg32
I01
sg437
g0
(g105
g47
(lp446
VHLT_HIMinimumBiasHF1AND*
p447
atp448
Rp449
(dp450
g25
I00
sg31
I01
sg32
I01
sV_nPerLine
p451
I1
sbsg438
g0
(g121
g2
Ntp452
Rp453
(dp454
g25
I00
sg31
I01
sg32
I00
sg42
g36
sbsg439
g0
(g73
g2
Ntp455
Rp456
(dp457
g25
I00
sg31
I01
sg32
I00
sg42
I01
sbsg440
g0
(g73
g2
Ntp458
Rp459
(dp460
g25
I00
sg31
I01
sg32
I00
sg42
I00
sbsg72
g0
(g100
g2
Ntp461
Rp462
(dp463
g25
I00
sg31
I00
sg32
I00
sg104
g105
sg106
Nsbsg59
V/afs/cern.ch/work/r/rpradhan/Tracking_Studies/newCode_AfterRun3/ForEffTest/CMSSW_13_2_5_patch1/src/Analyzers/RaghuEffTest/cfg/EfficiecnyTest_genTrk_cfg.py
p464
sg61
I123
sg62
g430
sbssV_Process__producers
p465
(dp466
VrandomEngineStateProducer
p467
g0
(cFWCore.ParameterSet.Modules
EDProducer
p468
g2
Ntp469
Rp470
(dp471
g15
VRandomEngineStateProducer
p472
sg17
(lp473
sg25
I00
sg26
Nsg32
I00
sg59
V/cvmfs/cms.cern.ch/el8_amd64_gcc11/cms/cmssw-patch/CMSSW_13_2_5_patch1/src/IOMC/RandomEngine/python/IOMC_cff.py
p474
sg61
I172
sg62
g467
sbsVgeneralAndHiPixelTracks
p475
g0
(g468
g2
Ntp476
Rp477
(dp478
g15
g475
sg17
(lp479
VsrcPFcand
p480
aVchi2Map
p481
aVgenTrackSrc
p482
aVpixTrackSrc
p483
aVvertexSrc
p484
aVcentralitySrc
p485
aVmvaSrc
p486
aVcutWidth
p487
aVtrkRes
p488
aVqualityString
p489
aVdxyErrMax
p490
aVdzErrMax
p491
aVptErrMax
p492
aVnhitsMin
p493
aVchi2nMax
p494
aVchi2nMaxPixel
p495
aVdzErrMaxPixel
p496
aVdxyErrMaxPixel
p497
asg25
I00
sg26
Nsg480
g0
(g27
g2
Ntp498
Rp499
(dp500
g25
I00
sg31
I01
sg32
I00
sg33
VpackedPFCandidates
p501
sg35
g36
sg37
g36
sbsg32
I00
sg481
g0
(g27
g2
Ntp502
Rp503
(dp504
g25
I00
sg31
I01
sg32
I00
sg33
VpackedPFCandidateTrackChi2
p505
sg35
g36
sg37
g36
sbsg482
g0
(g27
g2
Ntp506
Rp507
(dp508
g25
I00
sg31
I01
sg32
I00
sg33
VgeneralTracks
p509
sg35
g36
sg37
g36
sbsg483
g0
(g27
g2
Ntp510
Rp511
(dp512
g25
I00
sg31
I01
sg32
I00
sg33
VhiPixelTracks
p513
sg35
g36
sg37
g36
sbsg484
g0
(g27
g2
Ntp514
Rp515
(dp516
g25
I00
sg31
I01
sg32
I00
sg33
VofflineSlimmedPrimaryVerticesRecovery
p517
sg35
g36
sg37
g36
sbsg485
g0
(g27
g2
Ntp518
Rp519
(dp520
g25
I00
sg31
I01
sg32
I00
sg33
VcentralityBin
p521
sg35
VHFtowers
p522
sg37
g36
sbsg486
g0
(g27
g2
Ntp523
Rp524
(dp525
g25
I00
sg31
I01
sg32
I00
sg33
g509
sg35
VMVAValues
p526
sg37
g36
sbsg487
g0
(g38
g2
Ntp527
Rp528
(dp529
g25
I00
sg31
I01
sg32
I00
sg42
F0.2
sbsg488
g0
(g38
g2
Ntp530
Rp531
(dp532
g25
I00
sg31
I01
sg32
I00
sg42
F0.02
sbsg489
g0
(g121
g2
Ntp533
Rp534
(dp535
g25
I00
sg31
I01
sg32
I00
sg42
VhighPurity
p536
sbsg490
g0
(g38
g2
Ntp537
Rp538
(dp539
g25
I00
sg31
I01
sg32
I00
sg42
F3.0
sbsg491
g0
(g38
g2
Ntp540
Rp541
(dp542
g25
I00
sg31
I01
sg32
I00
sg42
F3.0
sbsg492
g0
(g38
g2
Ntp543
Rp544
(dp545
g25
I00
sg31
I01
sg32
I00
sg42
F0.1
sbsg493
g0
(g52
g2
Ntp546
Rp547
(dp548
g25
I00
sg31
I01
sg32
I00
sg42
I11
sbsg494
g0
(g38
g2
Ntp549
Rp550
(dp551
g25
I00
sg31
I01
sg32
I00
sg42
F0.18
sbsg495
g0
(g38
g2
Ntp552
Rp553
(dp554
g25
I00
sg31
I01
sg32
I00
sg42
F9999.0
sbsg496
g0
(g38
g2
Ntp555
Rp556
(dp557
g25
I00
sg31
I01
sg32
I00
sg42
F20.0
sbsg497
g0
(g38
g2
Ntp558
Rp559
(dp560
g25
I00
sg31
I01
sg32
I00
sg42
F7.0
sbsg59
V/afs/cern.ch/work/r/rpradhan/Tracking_Studies/newCode_AfterRun3/ForEffTest/CMSSW_13_2_5_patch1/src/MergingProducer/generalAndHiPixelTracks/python/MergingPixAndGenProducer_cfi.py
p561
sg61
I3
sg62
g475
sbsg521
g0
(g468
g2
Ntp562
Rp563
(dp564
g15
VCentralityBinProducer
p565
sg17
(lp566
VCentrality
p567
aVcentralityVariable
p568
aVnonDefaultGlauberModel
p569
aVpPbRunFlip
p570
asg25
I00
sg26
Nsg567
g0
(g27
g2
Ntp571
Rp572
(dp573
g25
I00
sg31
I01
sg32
I00
sg33
VhiCentrality
p574
sg35
g36
sg37
g36
sbsg32
I01
sg568
g0
(g121
g2
Ntp575
Rp576
(dp577
g25
I00
sg31
I01
sg32
I00
sg42
g522
sbsg569
g0
(g121
g2
Ntp578
Rp579
(dp580
g25
I00
sg31
I01
sg32
I00
sg42
g36
sbsg570
g0
(cFWCore.ParameterSet.Types
uint32
p581
g2
Ntp582
Rp583
(dp584
g25
I00
sg31
I01
sg32
I00
sg42
I99999999
sbsg59
V/cvmfs/cms.cern.ch/el8_amd64_gcc11/cms/cmssw-patch/CMSSW_13_2_5_patch1/src/RecoHI/HiCentralityAlgos/python/CentralityBin_cfi.py
p585
sg61
I3
sg62
g521
sbsg80
g0
(g468
g2
Ntp586
Rp587
(dp588
g15
VSiPixelRecHitConverter
p589
sg17
(lp590
g114
aVCPE
p591
aVVerboseLevel
p592
asg25
I00
sg26
Nsg114
g0
(g27
g2
Ntp593
Rp594
(dp595
g25
I00
sg31
I01
sg32
I00
sg33
VsiPixelClusters
p596
sg35
g36
sg37
g36
sbsg32
I00
sg591
g0
(g121
g2
Ntp597
Rp598
(dp599
g25
I00
sg31
I01
sg32
I00
sg42
VPixelCPEGeneric
p600
sbsg592
g0
(g52
g2
Ntp601
Rp602
(dp603
g25
I00
sg31
I00
sg32
I00
sg42
I0
sbsg59
V/cvmfs/cms.cern.ch/el8_amd64_gcc11/cms/cmssw-patch/CMSSW_13_2_5_patch1/src/RecoLocalTracker/SiPixelRecHits/python/SiPixelRecHits_cfi.py
p604
sg61
I6
sg62
g80
sbsVsiPixelRecHitsPreSplittingCPU
p605
g0
(g468
g2
Ntp606
Rp607
(dp608
g15
VSiPixelRecHitSoAFromLegacyPhase1
p609
sg17
(lp610
VbeamSpot
p611
ag114
ag591
aVconvertToLegacy
p612
ag72
asg25
I00
sg26
Nsg611
g0
(g27
g2
Ntp613
Rp614
(dp615
g25
I00
sg31
I01
sg32
I00
sg33
VofflineBeamSpot
p616
sg35
g36
sg37
g36
sbsg32
I00
sg114
g0
(g27
g2
Ntp617
Rp618
(dp619
g25
I00
sg31
I01
sg32
I00
sg33
VsiPixelClustersPreSplitting
p620
sg35
g36
sg37
g36
sbsg591
g0
(g121
g2
Ntp621
Rp622
(dp623
g25
I00
sg31
I01
sg32
I00
sg42
VPixelCPEFast
p624
sbsg612
g0
(g73
g2
Ntp625
Rp626
(dp627
g25
I00
sg31
I01
sg32
I01
sg42
I01
sbsg72
g0
(g100
g2
Ntp628
Rp629
(dp630
g25
I00
sg31
I00
sg32
I00
sg104
g105
sg106
Nsbsg59
g604
sg61
I29
sg62
g605
sbsVsiPixelRecHitsPreSplittingCUDA
p631
g0
(g468
g2
Ntp632
Rp633
(dp634
g15
VSiPixelRecHitCUDAPhase1
p635
sg17
(lp636
g611
ag114
ag591
ag72
asg25
I00
sg26
Nsg611
g0
(g27
g2
Ntp637
Rp638
(dp639
g25
I00
sg31
I01
sg32
I01
sg33
VofflineBeamSpotToCUDA
p640
sg35
g36
sg37
g36
sbsg32
I00
sg114
g0
(g27
g2
Ntp641
Rp642
(dp643
g25
I00
sg31
I01
sg32
I00
sg33
VsiPixelClustersPreSplittingCUDA
p644
sg35
g36
sg37
g36
sbsg591
g0
(g121
g2
Ntp645
Rp646
(dp647
g25
I00
sg31
I01
sg32
I00
sg42
g624
sbsg72
g0
(g100
g2
Ntp648
Rp649
(dp650
g25
I00
sg31
I00
sg32
I00
sg104
g105
sg106
Nsbsg59
g604
sg61
I54
sg62
g631
sbssV_Process__switchproducers
p651
(dp652
VsiPixelRecHitsPreSplitting
p653
g0
(cHeterogeneousCore.CUDACore.SwitchProducerCUDA
SwitchProducerCUDA
p654
g2
Ntp655
Rp656
(dp657
g15
Nsg17
(lp658
Vcpu
p659
asg25
I00
sg26
Nsg32
I00
sg59
V/cvmfs/cms.cern.ch/el8_amd64_gcc11/cms/cmssw-patch/CMSSW_13_2_5_patch1/src/FWCore/ParameterSet/python/Modules.py
p660
sg61
I250
sV_caseFunctionDict
p661
(dp662
g659
cFWCore.ParameterSet.Modules
_switch_cpu
p663
sVcuda
p664
cHeterogeneousCore.CUDACore.SwitchProducerCUDA
_switch_cuda
p665
ssg659
g0
(g468
g2
Ntp666
Rp667
(dp668
g15
g589
sg17
(lp669
g114
ag591
ag592
asg25
I00
sg26
Nsg114
g0
(g27
g2
Ntp670
Rp671
(dp672
g25
I00
sg31
I01
sg32
I01
sg33
g620
sg35
g36
sg37
g36
sbsg32
I00
sg591
g0
(g121
g2
Ntp673
Rp674
(dp675
g25
I00
sg31
I01
sg32
I00
sg42
g600
sbsg592
g0
(g52
g2
Ntp676
Rp677
(dp678
g25
I00
sg31
I00
sg32
I00
sg42
I0
sbsg59
g604
sg61
I14
sg62
VsiPixelRecHitsPreSplitting@cpu
p679
sbsg62
g653
sbsVsiPixelRecHitsPreSplittingSoA
p680
g0
(g654
g2
Ntp681
Rp682
(dp683
g15
Nsg17
(lp684
g659
asg25
I00
sg26
Nsg32
I00
sg59
g660
sg61
I250
sg661
(dp685
g659
g663
sg664
g665
ssg659
g0
(cFWCore.ParameterSet.Types
EDAlias
p686
g2
Ntp687
Rp688
(dp689
g17
(lp690
g605
asg25
I00
sg26
Nsg605
g0
(cFWCore.ParameterSet.Types
VPSet
p691
g47
(lp692
g0
(cFWCore.ParameterSet.Types
PSet
p693
g2
Ntp694
Rp695
(dp696
g25
I00
sg31
I01
sg32
I00
sg17
(lp697
Vtype
p698
asg26
Nsg698
g0
(g121
g2
Ntp699
Rp700
(dp701
g25
I00
sg31
I01
sg32
I00
sg42
VpixelTopologyPhase1TrackingRecHitSoAHost
p702
sbsbag0
(g693
g2
Ntp703
Rp704
(dp705
g25
I00
sg31
I01
sg32
I00
sg17
(lp706
g698
asg26
Nsg698
g0
(g121
g2
Ntp707
Rp708
(dp709
g25
I00
sg31
I01
sg32
I00
sg42
VuintAsHostProduct
p710
sbsbatp711
Rp712
(dp713
g25
I00
sg31
I01
sg32
I00
sg451
I1
sbsg32
I00
sg62
VsiPixelRecHitsPreSplittingSoA@cpu
p714
sbsg62
g680
sbssV_Process__source
p715
g0
(cFWCore.ParameterSet.Modules
Source
p716
g2
Ntp717
Rp718
(dp719
g15
VPoolSource
p720
sg17
(lp721
VfileNames
p722
aVduplicateCheckMode
p723
aVskipBadFiles
p724
asg25
I00
sg26
Nsg722
g0
(g105
g47
(lp725
V/store/user/sarteaga/MinBias_PbPb_5p36TeV_Hydjet_v1/MinBias_PbPb_5p36TeV_Hydjet_MINIAOD_v5/231024_131749/0000/miniaod_1.root
p726
aV/store/user/sarteaga/MinBias_PbPb_5p36TeV_Hydjet_v1/MinBias_PbPb_5p36TeV_Hydjet_MINIAOD_v5/231024_131749/0000/miniaod_2.root
p727
atp728
Rp729
(dp730
g25
I00
sg31
I00
sg32
I00
sg451
I1
sbsg32
I00
sg723
g0
(g121
g2
Ntp731
Rp732
(dp733
g25
I00
sg31
I00
sg32
I00
sg42
VnoDuplicateCheck
p734
sbsg724
g0
(g73
g2
Ntp735
Rp736
(dp737
g25
I00
sg31
I00
sg32
I00
sg42
I01
sbsg59
g660
sg61
I195
sbsV_Process__looper
p738
NsV_Process__subProcesses
p739
(lp740
sV_Process__schedule
p741
NsV_Process__analyzers
p742
(dp743
VhiEvtAnalyzer
p744
g0
(cFWCore.ParameterSet.Modules
EDAnalyzer
p745
g2
Ntp746
Rp747
(dp748
g15
VHiEvtAnalyzer
p749
sg17
(lp750
VCentralitySrc
p751
aVCentralityBinSrc
p752
aVpfCandidateSrc
p753
aVEvtPlane
p754
aVEvtPlaneFlat
p755
aVHiMC
p756
aVVertex
p757
ag136
aVdoCentrality
p758
aVdoEvtPlane
p759
aVdoEvtPlaneFlat
p760
aVdoVertex
p761
aVdoMC
p762
aVdoHiMC
p763
aVuseHepMC
p764
aVdoHFfilters
p765
aVevtPlaneLevel
p766
asg25
I00
sg26
Nsg751
g0
(g27
g2
Ntp767
Rp768
(dp769
g25
I00
sg31
I01
sg32
I00
sg33
g574
sg35
g36
sg37
g36
sbsg32
I00
sg752
g0
(g27
g2
Ntp770
Rp771
(dp772
g25
I00
sg31
I01
sg32
I00
sg33
g521
sg35
g522
sg37
g36
sbsg753
g0
(g27
g2
Ntp773
Rp774
(dp775
g25
I00
sg31
I01
sg32
I00
sg33
g501
sg35
g36
sg37
g36
sbsg754
g0
(g27
g2
Ntp776
Rp777
(dp778
g25
I00
sg31
I01
sg32
I00
sg33
VhiEvtPlane
p779
sg35
g36
sg37
g36
sbsg755
g0
(g27
g2
Ntp780
Rp781
(dp782
g25
I00
sg31
I01
sg32
I00
sg33
VhiEvtPlaneFlat
p783
sg35
g36
sg37
g36
sbsg756
g0
(g27
g2
Ntp784
Rp785
(dp786
g25
I00
sg31
I01
sg32
I00
sg33
VheavyIon
p787
sg35
g36
sg37
g36
sbsg757
g0
(g27
g2
Ntp788
Rp789
(dp790
g25
I00
sg31
I01
sg32
I00
sg33
g120
sg35
g36
sg37
g36
sbsg136
g0
(g27
g2
Ntp791
Rp792
(dp793
g25
I00
sg31
I01
sg32
I00
sg33
g142
sg35
g142
sg37
g36
sbsg758
g0
(g73
g2
Ntp794
Rp795
(dp796
g25
I00
sg31
I01
sg32
I00
sg42
I01
sbsg759
g0
(g73
g2
Ntp797
Rp798
(dp799
g25
I00
sg31
I01
sg32
I00
sg42
I01
sbsg760
g0
(g73
g2
Ntp800
Rp801
(dp802
g25
I00
sg31
I01
sg32
I00
sg42
I01
sbsg761
g0
(g73
g2
Ntp803
Rp804
(dp805
g25
I00
sg31
I01
sg32
I00
sg42
I01
sbsg762
g0
(g73
g2
Ntp806
Rp807
(dp808
g25
I00
sg31
I01
sg32
I00
sg42
I00
sbsg763
g0
(g73
g2
Ntp809
Rp810
(dp811
g25
I00
sg31
I01
sg32
I00
sg42
I00
sbsg764
g0
(g73
g2
Ntp812
Rp813
(dp814
g25
I00
sg31
I01
sg32
I00
sg42
I00
sbsg765
g0
(g73
g2
Ntp815
Rp816
(dp817
g25
I00
sg31
I01
sg32
I00
sg42
I01
sbsg766
g0
(g52
g2
Ntp818
Rp819
(dp820
g25
I00
sg31
I01
sg32
I00
sg42
I0
sbsg59
V/afs/cern.ch/work/r/rpradhan/Tracking_Studies/newCode_AfterRun3/ForEffTest/CMSSW_13_2_5_patch1/src/HeavyIonsAnalysis/EventAnalysis/python/hievtanalyzer_data_cfi.py
p821
sg61
I3
sg62
g744
sbsVdefaultCPDC
p822
g0
(g745
g2
Ntp823
Rp824
(dp825
g15
g7
sg17
(lp826
Vtracks
p827
aVtracksgen
p828
aVtrackschi2
p829
aVvertex
p830
aVcentralitybin
p831
aVzminVtx
p832
aVzmaxVtx
p833
aVfGeneral
p834
aVpTBins
p835
aVetaBins
p836
aVcentbins
p837
aValgoParameters
p838
asg25
I00
sg26
Nsg827
g0
(g27
g2
Ntp839
Rp840
(dp841
g25
I00
sg31
I01
sg32
I00
sg33
g501
sg35
g36
sg37
g36
sbsg32
I00
sg828
g0
(g27
g2
Ntp842
Rp843
(dp844
g25
I00
sg31
I01
sg32
I00
sg33
VpackedGenParticles
p845
sg35
g36
sg37
g36
sbsg829
g0
(g27
g2
Ntp846
Rp847
(dp848
g25
I00
sg31
I01
sg32
I00
sg33
g505
sg35
g36
sg37
g36
sbsg830
g0
(g27
g2
Ntp849
Rp850
(dp851
g25
I00
sg31
I01
sg32
I00
sg33
g120
sg35
g36
sg37
g36
sbsg831
g0
(g27
g2
Ntp852
Rp853
(dp854
g25
I00
sg31
I01
sg32
I00
sg33
g521
sg35
g522
sg37
g36
sbsg832
g0
(g38
g2
Ntp855
Rp856
(dp857
g25
I00
sg31
I00
sg32
I00
sg42
F-15.0
sbsg833
g0
(g38
g2
Ntp858
Rp859
(dp860
g25
I00
sg31
I00
sg32
I00
sg42
F15.0
sbsg834
g0
(g27
g2
Ntp861
Rp862
(dp863
g25
I00
sg31
I00
sg32
I00
sg33
VGeneral_TrackEff_3D_nhits0_V0.root
p864
sg35
g36
sg37
g36
sbsg835
g0
(g46
g47
(lp865
F0.0
aF0.05
aF0.1
aF0.15
aF0.2
aF0.25
aF0.3
aF0.35
aF0.4
aF0.45
aF0.5
aF0.55
aF0.6
aF0.65
aF0.7
aF0.75
aF0.8
aF0.85
aF0.9
aF0.95
aF1.0
aF1.05
aF1.1
aF1.15
aF1.2
aF1.3
aF1.4
aF1.5
aF1.6
aF1.7
aF1.8
aF1.9
aF2.0
aF2.5
aF3.0
atp866
Rp867
(dp868
g25
I00
sg31
I00
sg32
I00
sbsg836
g0
(g46
g47
(lp869
F-3.0
aF-2.4
aF-2.0
aF-1.6
aF-1.2
aF-0.8
aF-0.4
aF0.0
aF0.4
aF0.8
aF1.2
aF1.6
aF2.0
aF2.4
aF3.0
atp870
Rp871
(dp872
g25
I00
sg31
I00
sg32
I00
sbsg837
g0
(g46
g47
(lp873
F0.0
aF20.0
aF40.0
aF60.0
aF80.0
aF100.0
aF120.0
aF140.0
aF160.0
aF180.0
aF200.0
atp874
Rp875
(dp876
g25
I00
sg31
I00
sg32
I00
sbsg838
g0
(cFWCore.ParameterSet.Types
vint32
p877
g47
(lp878
I0
aI1
aI2
aI3
aI4
aI5
aI6
aI7
aI8
aI9
aI10
aI11
aI12
aI13
aI14
aI15
aI16
aI17
aI18
aI19
aI20
aI21
aI22
aI23
aI24
aI25
aI26
aI27
aI28
aI29
aI30
aI31
aI32
aI33
aI34
aI35
aI36
aI37
aI38
aI39
aI40
aI41
aI42
aI43
aI44
aI45
aI46
atp879
Rp880
(dp881
g25
I00
sg31
I01
sg32
I00
sbsg59
V/afs/cern.ch/work/r/rpradhan/Tracking_Studies/newCode_AfterRun3/ForEffTest/CMSSW_13_2_5_patch1/src/Analyzers/RaghuEffTest/python/RaghuEffTest_cfi.py
p882
sg61
I3
sg62
g822
sbssV_Process__outputmodules
p883
(dp884
sV_Process__paths
p885
g0
(cFWCore.ParameterSet.DictTypes
SortedKeysDict
p886
c__builtin__
dict
p887
(dp888
Vp
p889
g0
(cFWCore.ParameterSet.SequenceTypes
Path
p890
g2
Ntp891
Rp892
(dp893
g25
I00
sV_seq
p894
g0
(cFWCore.ParameterSet.SequenceTypes
_SequenceCollection
p895
g2
Ntp896
Rp897
(dp898
V_collection
p899
(lp900
g563
ag824
asbsg32
I00
sV_tasks
p901
g0
(cFWCore.ParameterSet.OrderedSet
OrderedSet
p902
g2
Ntp903
Rp904
(dp905
Vend
p906
(lp907
Nag907
ag907
asVmap
p908
(dp909
sbsg62
g889
sbstp910
Rp911
(dp912
Vlist
p913
(lp914
g889
asbsV_Process__endpaths
p915
g0
(g886
g887
(dp916
tp917
Rp918
(dp919
g913
(lp920
sbsV_Process__finalpaths
p921
g0
(g886
g887
(dp922
tp923
Rp924
(dp925
g913
(lp926
sbsV_Process__sequences
p927
(dp928
sV_Process__tasks
p929
(dp930
VsiPixelRecHitsPreSplittingTask
p931
g0
(cFWCore.ParameterSet.SequenceTypes
Task
p932
g2
Ntp933
Rp934
(dp935
g899
g0
(g902
g2
Ntp936
Rp937
(dp938
g906
(lp939
Na(lp940
g656
ag939
ag939
aag940
asg908
(dp941
g656
g940
ssbsg62
g931
sbssV_Process__conditionaltasks
p942
(dp943
sV_Process__services
p944
(dp945
VMessageLogger
p946
g0
(cFWCore.ParameterSet.Modules
Service
p947
g2
Ntp948
Rp949
(dp950
g15
g946
sg17
(lp951
VsuppressWarning
p952
aVsuppressFwkInfo
p953
aVsuppressInfo
p954
aVsuppressDebug
p955
aVdebugModules
p956
aVcout
p957
aVdefault
p958
aVcerr
p959
aVfiles
p960
asg25
I00
sg26
g0
(g100
g2
Ntp961
Rp962
(dp963
g25
I00
sg31
I00
sg32
I00
sg104
g0
(cFWCore.ParameterSet.Types
_PSetTemplate
p964
g2
Ntp965
Rp966
(dp967
V_pset
p968
g0
(g693
g2
Ntp969
Rp970
(dp971
g25
I00
sg31
I01
sg32
I00
sg17
(lp972
VreportEvery
p973
aVlimit
p974
aVtimespan
p975
asg26
Nsg973
g0
(g52
g2
Ntp976
Rp977
(dp978
g25
I00
sg31
I00
sg32
I00
sg42
I1
sbsg974
g0
(g100
g2
Ntp979
Rp980
(dp981
g25
I00
sg31
I00
sg32
I00
sg104
g52
sg106
Nsbsg975
g0
(g100
g2
Ntp982
Rp983
(dp984
g25
I00
sg31
I00
sg32
I00
sg104
g52
sg106
NsbsbsV_PSetTemplate__value
p985
Nsbsg106
Nsbsg952
g0
(g105
g47
(lp986
tp987
Rp988
(dp989
g25
I00
sg31
I00
sg32
I00
sg451
I1
sbsg32
I00
sg953
g0
(g105
g47
(lp990
tp991
Rp992
(dp993
g25
I00
sg31
I00
sg32
I00
sg451
I1
sbsg954
g0
(g105
g47
(lp994
tp995
Rp996
(dp997
g25
I00
sg31
I00
sg32
I00
sg451
I1
sbsg955
g0
(g105
g47
(lp998
tp999
Rp1000
(dp1001
g25
I00
sg31
I00
sg32
I00
sg451
I1
sbsg956
g0
(g105
g47
(lp1002
tp1003
Rp1004
(dp1005
g25
I00
sg31
I00
sg32
I00
sg451
I1
sbsg957
g0
(g693
g2
Ntp1006
Rp1007
(dp1008
g25
I00
sg31
I00
sg32
I00
sg17
(lp1009
VnoLineBreaks
p1010
aVnoTimeStamps
p1011
aVlineLength
p1012
ag137
aVstatisticsThreshold
p1013
aVenableStatistics
p1014
aVresetStatistics
p1015
aVenable
p1016
asg26
g962
sg1010
g0
(g100
g2
Ntp1017
Rp1018
(dp1019
g25
I00
sg31
I00
sg32
I00
sg104
g73
sg106
Nsbsg1011
g0
(g100
g2
Ntp1020
Rp1021
(dp1022
g25
I00
sg31
I00
sg32
I00
sg104
g73
sg106
Nsbsg1012
g0
(g100
g2
Ntp1023
Rp1024
(dp1025
g25
I00
sg31
I00
sg32
I00
sg104
g52
sg106
Nsbsg137
g0
(g100
g2
Ntp1026
Rp1027
(dp1028
g25
I00
sg31
I00
sg32
I00
sg104
g121
sg106
Nsbsg1013
g0
(g100
g2
Ntp1029
Rp1030
(dp1031
g25
I00
sg31
I00
sg32
I00
sg104
g121
sg106
Nsbsg1014
g0
(g73
g2
Ntp1032
Rp1033
(dp1034
g25
I00
sg31
I00
sg32
I00
sg42
I00
sbsg1015
g0
(g73
g2
Ntp1035
Rp1036
(dp1037
g25
I00
sg31
I00
sg32
I00
sg42
I00
sbsg1016
g0
(g73
g2
Ntp1038
Rp1039
(dp1040
g25
I00
sg31
I00
sg32
I00
sg42
I00
sbsbsg958
g0
(g693
g2
Ntp1041
Rp1042
(dp1043
g25
I00
sg31
I00
sg32
I00
sg17
(lp1044
g973
ag974
ag975
ag1010
ag1011
ag1012
ag137
ag1013
asg26
g962
sg973
g0
(g52
g2
Ntp1045
Rp1046
(dp1047
g25
I00
sg31
I00
sg32
I00
sg42
I1
sbsg974
g0
(g100
g2
Ntp1048
Rp1049
(dp1050
g25
I00
sg31
I00
sg32
I00
sg104
g52
sg106
Nsbsg975
g0
(g100
g2
Ntp1051
Rp1052
(dp1053
g25
I00
sg31
I00
sg32
I00
sg104
g52
sg106
Nsbsg1010
g0
(g73
g2
Ntp1054
Rp1055
(dp1056
g25
I00
sg31
I00
sg32
I00
sg42
I00
sbsg1011
g0
(g73
g2
Ntp1057
Rp1058
(dp1059
g25
I00
sg31
I00
sg32
I00
sg42
I00
sbsg1012
g0
(g52
g2
Ntp1060
Rp1061
(dp1062
g25
I00
sg31
I00
sg32
I00
sg42
I80
sbsg137
g0
(g121
g2
Ntp1063
Rp1064
(dp1065
g25
I00
sg31
I00
sg32
I00
sg42
VINFO
p1066
sbsg1013
g0
(g121
g2
Ntp1067
Rp1068
(dp1069
g25
I00
sg31
I00
sg32
I00
sg42
g1066
sbsbsg959
g0
(g693
g2
Ntp1070
Rp1071
(dp1072
g25
I00
sg31
I00
sg32
I00
sg17
(lp1073
g1010
ag1011
ag1012
ag137
ag1013
ag1016
ag1014
ag1015
ag1066
aVFwkReport
p1074
ag958
aVRoot_NoDictionary
p1075
aVFwkSummary
p1076
asg26
g962
sg1010
g0
(g100
g2
Ntp1077
Rp1078
(dp1079
g25
I00
sg31
I00
sg32
I00
sg104
g73
sg106
Nsbsg1011
g0
(g73
g2
Ntp1080
Rp1081
(dp1082
g25
I00
sg31
I00
sg32
I00
sg42
I00
sbsg1012
g0
(g100
g2
Ntp1083
Rp1084
(dp1085
g25
I00
sg31
I00
sg32
I00
sg104
g52
sg106
Nsbsg137
g0
(g121
g2
Ntp1086
Rp1087
(dp1088
g25
I00
sg31
I00
sg32
I00
sg42
g1066
sbsg1013
g0
(g121
g2
Ntp1089
Rp1090
(dp1091
g25
I00
sg31
I00
sg32
I00
sg42
VWARNING
p1092
sbsg1016
g0
(g73
g2
Ntp1093
Rp1094
(dp1095
g25
I00
sg31
I00
sg32
I00
sg42
I01
sbsg1014
g0
(g73
g2
Ntp1096
Rp1097
(dp1098
g25
I00
sg31
I00
sg32
I00
sg42
I00
sbsg1015
g0
(g73
g2
Ntp1099
Rp1100
(dp1101
g25
I00
sg31
I00
sg32
I00
sg42
I00
sbsg1066
g0
(g693
g2
Ntp1102
Rp1103
(dp1104
g25
I00
sg31
I00
sg32
I00
sg17
(lp1105
g974
asg26
Nsg974
g0
(g52
g2
Ntp1106
Rp1107
(dp1108
g25
I00
sg31
I00
sg32
I00
sg42
I0
sbsbsg1074
g0
(g693
g2
Ntp1109
Rp1110
(dp1111
g25
I00
sg31
I00
sg32
I01
sg17
(lp1112
g973
ag974
asg26
Nsg973
g0
(g52
g2
Ntp1113
Rp1114
(dp1115
g25
I00
sg31
I00
sg32
I01
sg42
I100
sbsg974
g0
(g52
g2
Ntp1116
Rp1117
(dp1118
g25
I00
sg31
I00
sg32
I00
sg42
I10000000
sbsbsg958
g0
(g693
g2
Ntp1119
Rp1120
(dp1121
g25
I00
sg31
I00
sg32
I00
sg17
(lp1122
g974
asg26
Nsg974
g0
(g52
g2
Ntp1123
Rp1124
(dp1125
g25
I00
sg31
I00
sg32
I00
sg42
I10000000
sbsbsg1075
g0
(g693
g2
Ntp1126
Rp1127
(dp1128
g25
I00
sg31
I00
sg32
I00
sg17
(lp1129
g974
asg26
Nsg974
g0
(g52
g2
Ntp1130
Rp1131
(dp1132
g25
I00
sg31
I00
sg32
I00
sg42
I0
sbsbsg1076
g0
(g693
g2
Ntp1133
Rp1134
(dp1135
g25
I00
sg31
I00
sg32
I00
sg17
(lp1136
g973
ag974
asg26
Nsg973
g0
(g52
g2
Ntp1137
Rp1138
(dp1139
g25
I00
sg31
I00
sg32
I00
sg42
I1
sbsg974
g0
(g52
g2
Ntp1140
Rp1141
(dp1142
g25
I00
sg31
I00
sg32
I00
sg42
I10000000
sbsbsbsg960
g0
(g693
g2
Ntp1143
Rp1144
(dp1145
g25
I00
sg31
I00
sg32
I00
sg17
(lp1146
sg26
g0
(g100
g2
Ntp1147
Rp1148
(dp1149
g25
I00
sg31
I00
sg32
I00
sg104
g0
(g964
g2
Ntp1150
Rp1151
(dp1152
g968
g0
(g693
g2
Ntp1153
Rp1154
(dp1155
g25
I00
sg31
I01
sg32
I00
sg17
(lp1156
g1010
ag1011
ag1012
ag137
ag1013
ag1014
ag1015
aVfilename
p1157
aVextension
p1158
aVoutput
p1159
asg26
g962
sg1010
g0
(g100
g2
Ntp1160
Rp1161
(dp1162
g25
I00
sg31
I00
sg32
I00
sg104
g73
sg106
Nsbsg1011
g0
(g100
g2
Ntp1163
Rp1164
(dp1165
g25
I00
sg31
I00
sg32
I00
sg104
g73
sg106
Nsbsg1012
g0
(g100
g2
Ntp1166
Rp1167
(dp1168
g25
I00
sg31
I00
sg32
I00
sg104
g52
sg106
Nsbsg137
g0
(g100
g2
Ntp1169
Rp1170
(dp1171
g25
I00
sg31
I00
sg32
I00
sg104
g121
sg106
Nsbsg1013
g0
(g100
g2
Ntp1172
Rp1173
(dp1174
g25
I00
sg31
I00
sg32
I00
sg104
g121
sg106
Nsbsg1014
g0
(g73
g2
Ntp1175
Rp1176
(dp1177
g25
I00
sg31
I00
sg32
I00
sg42
I00
sbsg1015
g0
(g73
g2
Ntp1178
Rp1179
(dp1180
g25
I00
sg31
I00
sg32
I00
sg42
I00
sbsg1157
g0
(g100
g2
Ntp1181
Rp1182
(dp1183
g25
I00
sg31
I00
sg32
I00
sg104
g121
sg106
Nsbsg1158
g0
(g100
g2
Ntp1184
Rp1185
(dp1186
g25
I00
sg31
I00
sg32
I00
sg104
g121
sg106
Nsbsg1159
g0
(g100
g2
Ntp1187
Rp1188
(dp1189
g25
I00
sg31
I00
sg32
I00
sg104
g121
sg106
Nsbsbsg985
Nsbsg106
Nsbsbsg59
g660
sg61
I13
sV_inProcess
p1190
I00
sbsVDQMStore
p1191
g0
(g947
g2
Ntp1192
Rp1193
(dp1194
g15
g1191
sg17
(lp1195
Vverbose
p1196
aVsaveByLumi
p1197
aVMEsToSave
p1198
aVtrackME
p1199
aVassertLegacySafe
p1200
aVenableMultiThread
p1201
aVonlineMode
p1202
asg25
I00
sg26
Nsg1196
g0
(g52
g2
Ntp1203
Rp1204
(dp1205
g25
I00
sg31
I00
sg32
I00
sg42
I0
sbsg32
I00
sg1197
g0
(g73
g2
Ntp1206
Rp1207
(dp1208
g25
I00
sg31
I00
sg32
I00
sg42
I00
sbsg1198
g0
(g105
g47
(lp1209
VHcal/DigiTask/Occupancy/depth/depth1
p1210
aVHcal/DigiTask/Occupancy/depth/depth2
p1211
aVHcal/DigiTask/Occupancy/depth/depth3
p1212
aVHcal/DigiTask/Occupancy/depth/depth4
p1213
aVHcal/DigiTask/Occupancy/depth/depth5
p1214
aVHcal/DigiTask/Occupancy/depth/depth6
p1215
aVHcal/DigiTask/Occupancy/depth/depth7
p1216
aVHcal/DigiTask/Occupancy/depth/depthHO
p1217
aVHcal/DigiTask/OccupancyCut/depth/depth1
p1218
aVHcal/DigiTask/OccupancyCut/depth/depth2
p1219
aVHcal/DigiTask/OccupancyCut/depth/depth3
p1220
aVHcal/DigiTask/OccupancyCut/depth/depth4
p1221
aVHcal/DigiTask/OccupancyCut/depth/depth5
p1222
aVHcal/DigiTask/OccupancyCut/depth/depth6
p1223
aVHcal/DigiTask/OccupancyCut/depth/depth7
p1224
aVHcal/DigiTask/OccupancyCut/depth/depthHO
p1225
aVEcalBarrel/EBOccupancyTask/EBOT digi occupancy
p1226
aVEcalEndcap/EEOccupancyTask/EEOT digi occupancy EE -
p1227
aVEcalEndcap/EEOccupancyTask/EEOT digi occupancy EE +
p1228
aVEcalBarrel/EBOccupancyTask/EBOT DCC entries
p1229
aVEcalEndcap/EEOccupancyTask/EEOT DCC entries
p1230
aVEcal/EventInfo/processedEvents
p1231
aVPixelPhase1/Tracks/charge_PXBarrel
p1232
aVPixelPhase1/Tracks/charge_PXForward
p1233
aVPixelPhase1/Tracks/PXBarrel/charge_PXLayer_1
p1234
aVPixelPhase1/Tracks/PXBarrel/charge_PXLayer_2
p1235
aVPixelPhase1/Tracks/PXBarrel/charge_PXLayer_3
p1236
aVPixelPhase1/Tracks/PXBarrel/charge_PXLayer_4
p1237
aVPixelPhase1/Tracks/PXForward/charge_PXDisk_+1
p1238
aVPixelPhase1/Tracks/PXForward/charge_PXDisk_+2
p1239
aVPixelPhase1/Tracks/PXForward/charge_PXDisk_+3
p1240
aVPixelPhase1/Tracks/PXForward/charge_PXDisk_-1
p1241
aVPixelPhase1/Tracks/PXForward/charge_PXDisk_-2
p1242
aVPixelPhase1/Tracks/PXForward/charge_PXDisk_-3
p1243
aVPixelPhase1/Tracks/PXBarrel/size_PXLayer_1
p1244
aVPixelPhase1/Tracks/PXBarrel/size_PXLayer_2
p1245
aVPixelPhase1/Tracks/PXBarrel/size_PXLayer_3
p1246
aVPixelPhase1/Tracks/PXBarrel/size_PXLayer_4
p1247
aVPixelPhase1/Tracks/PXForward/size_PXDisk_+1
p1248
aVPixelPhase1/Tracks/PXForward/size_PXDisk_+2
p1249
aVPixelPhase1/Tracks/PXForward/size_PXDisk_+3
p1250
aVPixelPhase1/Tracks/PXForward/size_PXDisk_-1
p1251
aVPixelPhase1/Tracks/PXForward/size_PXDisk_-2
p1252
aVPixelPhase1/Tracks/PXForward/size_PXDisk_-3
p1253
aVHLT/Vertexing/hltPixelVertices/hltPixelVertices/goodvtxNbr
p1254
aVHLT/Tracking/ValidationWRTOffline/hltMergedWrtHighPurityPV/mon_eta
p1255
aVHLT/Tracking/ValidationWRTOffline/hltMergedWrtHighPurityPV/mon_hits
p1256
aVHLT/Tracking/ValidationWRTOffline/hltMergedWrtHighPurityPV/mon_phi
p1257
aVHLT/Tracking/ValidationWRTOffline/hltMergedWrtHighPurityPV/mon_pt
p1258
aVHLT/Tracking/ValidationWRTOffline/hltMergedWrtHighPurityPV/mon_unMatched_eta
p1259
aVHLT/Tracking/ValidationWRTOffline/hltMergedWrtHighPurityPV/mon_unMatched_hits
p1260
aVHLT/Tracking/ValidationWRTOffline/hltMergedWrtHighPurityPV/mon_unMatched_phi
p1261
aVHLT/Tracking/ValidationWRTOffline/hltMergedWrtHighPurityPV/mon_unMatched_pt
p1262
aVHLT/Tracking/ValidationWRTOffline/hltMergedWrtHighPurityPV/ref_eta
p1263
aVHLT/Tracking/ValidationWRTOffline/hltMergedWrtHighPurityPV/ref_hits
p1264
aVHLT/Tracking/ValidationWRTOffline/hltMergedWrtHighPurityPV/ref_matched_eta
p1265
aVHLT/Tracking/ValidationWRTOffline/hltMergedWrtHighPurityPV/ref_matched_hits
p1266
aVHLT/Tracking/ValidationWRTOffline/hltMergedWrtHighPurityPV/ref_matched_phi
p1267
aVHLT/Tracking/ValidationWRTOffline/hltMergedWrtHighPurityPV/ref_matched_pt
p1268
aVHLT/Tracking/ValidationWRTOffline/hltMergedWrtHighPurityPV/ref_phi
p1269
aVHLT/Tracking/ValidationWRTOffline/hltMergedWrtHighPurityPV/ref_pt
p1270
aVHLT/Tracking/pixelTracks/GeneralProperties/Chi2Prob_GenTk
p1271
aVHLT/Tracking/pixelTracks/GeneralProperties/Chi2oNDFVsEta_ImpactPoint_GenTk
p1272
aVHLT/Tracking/pixelTracks/GeneralProperties/DeltaZToPVZoom_GenTk
p1273
aVHLT/Tracking/pixelTracks/GeneralProperties/DistanceOfClosestApproachToPVVsPhi_GenTk
p1274
aVHLT/Tracking/pixelTracks/GeneralProperties/DistanceOfClosestApproachToPVZoom_GenTk
p1275
aVHLT/Tracking/pixelTracks/GeneralProperties/NumberOfTracks_GenTk
p1276
aVHLT/Tracking/tracks/GeneralProperties/Chi2Prob_GenTk
p1277
aVHLT/Tracking/tracks/GeneralProperties/Chi2oNDFVsEta_ImpactPoint_GenTk
p1278
aVHLT/Tracking/tracks/GeneralProperties/DeltaZToPVZoom_GenTk
p1279
aVHLT/Tracking/tracks/GeneralProperties/DistanceOfClosestApproachToPVVsPhi_GenTk
p1280
aVHLT/Tracking/tracks/GeneralProperties/DistanceOfClosestApproachToPVZoom_GenTk
p1281
aVHLT/Tracking/tracks/GeneralProperties/NumberOfTracks_GenTk
p1282
aVHLT/Tracking/tracks/LUMIanalysis/NumberEventsVsLUMI
p1283
aVHLT/Tracking/tracks/PUmonitoring/NumberEventsVsGoodPVtx
p1284
aVPixelPhase1/Tracks/num_clusters_ontrack_PXBarrel
p1285
aVPixelPhase1/Tracks/num_clusters_ontrack_PXForward
p1286
aVPixelPhase1/Tracks/clusterposition_zphi_ontrack
p1287
aVPixelPhase1/Tracks/PXBarrel/clusterposition_zphi_ontrack_PXLayer_1
p1288
aVPixelPhase1/Tracks/PXBarrel/clusterposition_zphi_ontrack_PXLayer_2
p1289
aVPixelPhase1/Tracks/PXBarrel/clusterposition_zphi_ontrack_PXLayer_3
p1290
aVPixelPhase1/Tracks/PXBarrel/clusterposition_zphi_ontrack_PXLayer_4
p1291
aVPixelPhase1/Tracks/PXForward/clusterposition_xy_ontrack_PXDisk_+1
p1292
aVPixelPhase1/Tracks/PXForward/clusterposition_xy_ontrack_PXDisk_+2
p1293
aVPixelPhase1/Tracks/PXForward/clusterposition_xy_ontrack_PXDisk_+3
p1294
aVPixelPhase1/Tracks/PXForward/clusterposition_xy_ontrack_PXDisk_-1
p1295
aVPixelPhase1/Tracks/PXForward/clusterposition_xy_ontrack_PXDisk_-2
p1296
aVPixelPhase1/Tracks/PXForward/clusterposition_xy_ontrack_PXDisk_-3
p1297
aVSiStrip/MechanicalView/TEC/PLUS/wheel_1/NormalizedHitResiduals_TEC__wheel__1
p1298
aVSiStrip/MechanicalView/TEC/PLUS/wheel_2/NormalizedHitResiduals_TEC__wheel__2
p1299
aVSiStrip/MechanicalView/TEC/PLUS/wheel_3/NormalizedHitResiduals_TEC__wheel__3
p1300
aVSiStrip/MechanicalView/TEC/PLUS/wheel_4/NormalizedHitResiduals_TEC__wheel__4
p1301
aVSiStrip/MechanicalView/TEC/PLUS/wheel_5/NormalizedHitResiduals_TEC__wheel__5
p1302
aVSiStrip/MechanicalView/TEC/PLUS/wheel_6/NormalizedHitResiduals_TEC__wheel__6
p1303
aVSiStrip/MechanicalView/TEC/PLUS/wheel_7/NormalizedHitResiduals_TEC__wheel__7
p1304
aVSiStrip/MechanicalView/TEC/PLUS/wheel_8/NormalizedHitResiduals_TEC__wheel__8
p1305
aVSiStrip/MechanicalView/TEC/PLUS/wheel_9/NormalizedHitResiduals_TEC__wheel__9
p1306
aVSiStrip/MechanicalView/TEC/MINUS/wheel_1/NormalizedHitResiduals_TEC__wheel__1
p1307
aVSiStrip/MechanicalView/TEC/MINUS/wheel_2/NormalizedHitResiduals_TEC__wheel__2
p1308
aVSiStrip/MechanicalView/TEC/MINUS/wheel_3/NormalizedHitResiduals_TEC__wheel__3
p1309
aVSiStrip/MechanicalView/TEC/MINUS/wheel_4/NormalizedHitResiduals_TEC__wheel__4
p1310
aVSiStrip/MechanicalView/TEC/MINUS/wheel_5/NormalizedHitResiduals_TEC__wheel__5
p1311
aVSiStrip/MechanicalView/TEC/MINUS/wheel_6/NormalizedHitResiduals_TEC__wheel__6
p1312
aVSiStrip/MechanicalView/TEC/MINUS/wheel_7/NormalizedHitResiduals_TEC__wheel__7
p1313
aVSiStrip/MechanicalView/TEC/MINUS/wheel_8/NormalizedHitResiduals_TEC__wheel__8
p1314
aVSiStrip/MechanicalView/TEC/MINUS/wheel_9/NormalizedHitResiduals_TEC__wheel__9
p1315
aVSiStrip/MechanicalView/TEC/PLUS/wheel_1/Summary_ClusterStoNCorr__OnTrack__TEC__PLUS__wheel__1
p1316
aVSiStrip/MechanicalView/TEC/PLUS/wheel_2/Summary_ClusterStoNCorr__OnTrack__TEC__PLUS__wheel__2
p1317
aVSiStrip/MechanicalView/TEC/PLUS/wheel_3/Summary_ClusterStoNCorr__OnTrack__TEC__PLUS__wheel__3
p1318
aVSiStrip/MechanicalView/TEC/PLUS/wheel_4/Summary_ClusterStoNCorr__OnTrack__TEC__PLUS__wheel__4
p1319
aVSiStrip/MechanicalView/TEC/PLUS/wheel_5/Summary_ClusterStoNCorr__OnTrack__TEC__PLUS__wheel__5
p1320
aVSiStrip/MechanicalView/TEC/PLUS/wheel_6/Summary_ClusterStoNCorr__OnTrack__TEC__PLUS__wheel__6
p1321
aVSiStrip/MechanicalView/TEC/PLUS/wheel_7/Summary_ClusterStoNCorr__OnTrack__TEC__PLUS__wheel__7
p1322
aVSiStrip/MechanicalView/TEC/PLUS/wheel_8/Summary_ClusterStoNCorr__OnTrack__TEC__PLUS__wheel__8
p1323
aVSiStrip/MechanicalView/TEC/PLUS/wheel_9/Summary_ClusterStoNCorr__OnTrack__TEC__PLUS__wheel__9
p1324
aVSiStrip/MechanicalView/TEC/MINUS/wheel_1/Summary_ClusterStoNCorr__OnTrack__TEC__MINUS__wheel__1
p1325
aVSiStrip/MechanicalView/TEC/MINUS/wheel_2/Summary_ClusterStoNCorr__OnTrack__TEC__MINUS__wheel__2
p1326
aVSiStrip/MechanicalView/TEC/MINUS/wheel_3/Summary_ClusterStoNCorr__OnTrack__TEC__MINUS__wheel__3
p1327
aVSiStrip/MechanicalView/TEC/MINUS/wheel_4/Summary_ClusterStoNCorr__OnTrack__TEC__MINUS__wheel__4
p1328
aVSiStrip/MechanicalView/TEC/MINUS/wheel_5/Summary_ClusterStoNCorr__OnTrack__TEC__MINUS__wheel__5
p1329
aVSiStrip/MechanicalView/TEC/MINUS/wheel_6/Summary_ClusterStoNCorr__OnTrack__TEC__MINUS__wheel__6
p1330
aVSiStrip/MechanicalView/TEC/MINUS/wheel_7/Summary_ClusterStoNCorr__OnTrack__TEC__MINUS__wheel__7
p1331
aVSiStrip/MechanicalView/TEC/MINUS/wheel_8/Summary_ClusterStoNCorr__OnTrack__TEC__MINUS__wheel__8
p1332
aVSiStrip/MechanicalView/TEC/MINUS/wheel_9/Summary_ClusterStoNCorr__OnTrack__TEC__MINUS__wheel__9
p1333
aVSiStrip/MechanicalView/TIB/layer_1/NormalizedHitResiduals_TIB__Layer__1
p1334
aVSiStrip/MechanicalView/TIB/layer_2/NormalizedHitResiduals_TIB__Layer__2
p1335
aVSiStrip/MechanicalView/TIB/layer_3/NormalizedHitResiduals_TIB__Layer__3
p1336
aVSiStrip/MechanicalView/TIB/layer_4/NormalizedHitResiduals_TIB__Layer__4
p1337
aVSiStrip/MechanicalView/TIB/layer_1/Summary_ClusterStoNCorr__OnTrack__TIB__layer__1
p1338
aVSiStrip/MechanicalView/TIB/layer_2/Summary_ClusterStoNCorr__OnTrack__TIB__layer__2
p1339
aVSiStrip/MechanicalView/TIB/layer_3/Summary_ClusterStoNCorr__OnTrack__TIB__layer__3
p1340
aVSiStrip/MechanicalView/TIB/layer_4/Summary_ClusterStoNCorr__OnTrack__TIB__layer__4
p1341
aVSiStrip/MechanicalView/TID/PLUS/wheel_1/NormalizedHitResiduals_TID__wheel__1
p1342
aVSiStrip/MechanicalView/TID/PLUS/wheel_2/NormalizedHitResiduals_TID__wheel__2
p1343
aVSiStrip/MechanicalView/TID/PLUS/wheel_3/NormalizedHitResiduals_TID__wheel__3
p1344
aVSiStrip/MechanicalView/TID/MINUS/wheel_1/NormalizedHitResiduals_TID__wheel__1
p1345
aVSiStrip/MechanicalView/TID/MINUS/wheel_2/NormalizedHitResiduals_TID__wheel__2
p1346
aVSiStrip/MechanicalView/TID/MINUS/wheel_3/NormalizedHitResiduals_TID__wheel__3
p1347
aVSiStrip/MechanicalView/TID/PLUS/wheel_1/Summary_ClusterStoNCorr__OnTrack__TID__PLUS__wheel__1
p1348
aVSiStrip/MechanicalView/TID/PLUS/wheel_2/Summary_ClusterStoNCorr__OnTrack__TID__PLUS__wheel__2
p1349
aVSiStrip/MechanicalView/TID/PLUS/wheel_3/Summary_ClusterStoNCorr__OnTrack__TID__PLUS__wheel__3
p1350
aVSiStrip/MechanicalView/TID/MINUS/wheel_1/Summary_ClusterStoNCorr__OnTrack__TID__MINUS__wheel__1
p1351
aVSiStrip/MechanicalView/TID/MINUS/wheel_2/Summary_ClusterStoNCorr__OnTrack__TID__MINUS__wheel__2
p1352
aVSiStrip/MechanicalView/TID/MINUS/wheel_3/Summary_ClusterStoNCorr__OnTrack__TID__MINUS__wheel__3
p1353
aVSiStrip/MechanicalView/TOB/layer_1/NormalizedHitResiduals_TOB__Layer__1
p1354
aVSiStrip/MechanicalView/TOB/layer_2/NormalizedHitResiduals_TOB__Layer__2
p1355
aVSiStrip/MechanicalView/TOB/layer_3/NormalizedHitResiduals_TOB__Layer__3
p1356
aVSiStrip/MechanicalView/TOB/layer_4/NormalizedHitResiduals_TOB__Layer__4
p1357
aVSiStrip/MechanicalView/TOB/layer_5/NormalizedHitResiduals_TOB__Layer__5
p1358
aVSiStrip/MechanicalView/TOB/layer_6/NormalizedHitResiduals_TOB__Layer__6
p1359
aVSiStrip/MechanicalView/TOB/layer_1/Summary_ClusterStoNCorr__OnTrack__TOB__layer__1
p1360
aVSiStrip/MechanicalView/TOB/layer_2/Summary_ClusterStoNCorr__OnTrack__TOB__layer__2
p1361
aVSiStrip/MechanicalView/TOB/layer_3/Summary_ClusterStoNCorr__OnTrack__TOB__layer__3
p1362
aVSiStrip/MechanicalView/TOB/layer_4/Summary_ClusterStoNCorr__OnTrack__TOB__layer__4
p1363
aVSiStrip/MechanicalView/TOB/layer_5/Summary_ClusterStoNCorr__OnTrack__TOB__layer__5
p1364
aVSiStrip/MechanicalView/TOB/layer_6/Summary_ClusterStoNCorr__OnTrack__TOB__layer__6
p1365
aVSiStrip/MechanicalView/MainDiagonal Position
p1366
aVSiStrip/MechanicalView/NumberOfClustersInPixel
p1367
aVSiStrip/MechanicalView/NumberOfClustersInStrip
p1368
aVTracking/TrackParameters/generalTracks/LSanalysis/Chi2oNDF_lumiFlag_GenTk
p1369
aVTracking/TrackParameters/generalTracks/LSanalysis/NumberOfRecHitsPerTrack_lumiFlag_GenTk
p1370
aVTracking/TrackParameters/generalTracks/LSanalysis/NumberOfTracks_lumiFlag_GenTk
p1371
aVTracking/TrackParameters/highPurityTracks/pt_1/GeneralProperties/SIPDxyToPV_GenTk
p1372
aVTracking/TrackParameters/highPurityTracks/pt_1/GeneralProperties/SIPDzToPV_GenTk
p1373
aVTracking/TrackParameters/highPurityTracks/pt_1/GeneralProperties/SIP3DToPV_GenTk
p1374
aVTracking/TrackParameters/generalTracks/HitProperties/NumberOfMissingOuterRecHitsPerTrack_GenTk
p1375
aVTracking/TrackParameters/generalTracks/HitProperties/NumberMORecHitsPerTrackVsPt_GenTk
p1376
aVOfflinePV/offlinePrimaryVertices/tagVtxProb
p1377
aVOfflinePV/offlinePrimaryVertices/tagType
p1378
aVOfflinePV/Resolution/PV/pull_x
p1379
aVOfflinePV/Resolution/PV/pull_y
p1380
aVOfflinePV/Resolution/PV/pull_z
p1381
aVJetMET/Jet/Cleanedak4PFJetsCHS/CHFrac_highPt_Barrel
p1382
aVJetMET/Jet/Cleanedak4PFJetsCHS/CHFrac_highPt_EndCap
p1383
aVJetMET/Jet/Cleanedak4PFJetsCHS/CHFrac_mediumPt_Barrel
p1384
aVJetMET/Jet/Cleanedak4PFJetsCHS/CHFrac_mediumPt_EndCap
p1385
aVJetMET/Jet/Cleanedak4PFJetsCHS/CHFrac_lowPt_Barrel
p1386
aVJetMET/Jet/Cleanedak4PFJetsCHS/CHFrac_lowPt_EndCap
p1387
aVJetMET/Jet/Cleanedak4PFJetsCHS/ChMultiplicity_highPt_Barrel
p1388
aVJetMET/Jet/Cleanedak4PFJetsCHS/ChMultiplicity_highPt_EndCap
p1389
aVJetMET/Jet/Cleanedak4PFJetsCHS/ChMultiplicity_mediumPt_Barrel
p1390
aVJetMET/Jet/Cleanedak4PFJetsCHS/ChMultiplicity_mediumPt_EndCap
p1391
aVJetMET/Jet/Cleanedak4PFJetsCHS/ChMultiplicity_lowPt_Barrel
p1392
aVJetMET/Jet/Cleanedak4PFJetsCHS/ChMultiplicity_lowPt_EndCap
p1393
aVJetMET/Jet/Cleanedak4PFJetsCHS/Constituents
p1394
aVJetMET/Jet/Cleanedak4PFJetsCHS/Eta
p1395
aVJetMET/Jet/Cleanedak4PFJetsCHS/Eta_uncor
p1396
aVJetMET/Jet/Cleanedak4PFJetsCHS/JetEnergyCorr
p1397
aVJetMET/Jet/Cleanedak4PFJetsCHS/NJets
p1398
aVJetMET/Jet/Cleanedak4PFJetsCHS/Phi
p1399
aVJetMET/Jet/Cleanedak4PFJetsCHS/Phi_Barrel
p1400
aVJetMET/Jet/Cleanedak4PFJetsCHS/Phi_EndCap
p1401
aVJetMET/Jet/Cleanedak4PFJetsCHS/Pt
p1402
aVJetMET/MET/pfMETT1/Cleaned/METSig
p1403
aVJetMET/vertices
p1404
atp1405
Rp1406
(dp1407
g25
I00
sg31
I00
sg32
I00
sg451
I1
sbsg1199
g0
(g121
g2
Ntp1408
Rp1409
(dp1410
g25
I00
sg31
I00
sg32
I00
sg42
g36
sbsg1200
g0
(g73
g2
Ntp1411
Rp1412
(dp1413
g25
I00
sg31
I00
sg32
I00
sg42
I00
sbsg1201
g0
(g73
g2
Ntp1414
Rp1415
(dp1416
g25
I00
sg31
I00
sg32
I00
sg42
I01
sbsg1202
g0
(g73
g2
Ntp1417
Rp1418
(dp1419
g25
I00
sg31
I00
sg32
I00
sg42
I00
sbsg59
g660
sg61
I13
sg1190
I01
sbsVRandomNumberGeneratorService
p1420
g0
(g947
g2
Ntp1421
Rp1422
(dp1423
g15
g1420
sg17
(lp1424
VexternalLHEProducer
p1425
aVgenerator
p1426
aVVtxSmeared
p1427
aVLHCTransport
p1428
aVhiSignalLHCTransport
p1429
aVg4SimHits
p1430
aVmix
p1431
aVmixData
p1432
aVsimSiStripDigiSimLink
p1433
aVsimMuonDTDigis
p1434
aVsimMuonCSCDigis
p1435
aVsimMuonRPCDigis
p1436
aVhiSignal
p1437
aVhiSignalG4SimHits
p1438
aVfamosPileUp
p1439
aVmixGenPU
p1440
aVmixSimCaloHits
p1441
aVmixRecoTracks
p1442
aVfastSimProducer
p1443
aVfastTrackerRecHits
p1444
aVecalRecHit
p1445
aVecalPreshowerRecHit
p1446
aVhbhereco
p1447
aVhoreco
p1448
aVhfreco
p1449
aVparamMuons
p1450
aVl1ParamMuons
p1451
aVMuonSimHits
p1452
aVCTPPSFastRecHits
p1453
aVsimBeamSpotFilter
p1454
aVRPixDetDigitizer
p1455
aVRPSiDetDigitizer
p1456
aVsaveFileName
p1457
asg25
I00
sg26
Nsg1425
g0
(g693
g2
Ntp1458
Rp1459
(dp1460
g25
I00
sg31
I01
sg32
I00
sg17
(lp1461
VinitialSeed
p1462
aVengineName
p1463
asg26
Nsg1462
g0
(g581
g2
Ntp1464
Rp1465
(dp1466
g25
I00
sg31
I00
sg32
I00
sg42
I234567
sbsg1463
g0
(g121
g2
Ntp1467
Rp1468
(dp1469
g25
I00
sg31
I00
sg32
I00
sg42
VMixMaxRng
p1470
sbsbsg32
I00
sg1426
g0
(g693
g2
Ntp1471
Rp1472
(dp1473
g25
I00
sg31
I01
sg32
I00
sg17
(lp1474
g1462
ag1463
asg26
Nsg1462
g0
(g581
g2
Ntp1475
Rp1476
(dp1477
g25
I00
sg31
I00
sg32
I00
sg42
I123456789
sbsg1463
g1468
sbsg1427
g0
(g693
g2
Ntp1478
Rp1479
(dp1480
g25
I00
sg31
I01
sg32
I00
sg17
(lp1481
g1462
ag1463
asg26
Nsg1462
g0
(g581
g2
Ntp1482
Rp1483
(dp1484
g25
I00
sg31
I00
sg32
I00
sg42
I98765432
sbsg1463
g1468
sbsg1428
g0
(g693
g2
Ntp1485
Rp1486
(dp1487
g25
I00
sg31
I01
sg32
I00
sg17
(lp1488
g1462
ag1463
asg26
Nsg1462
g0
(g581
g2
Ntp1489
Rp1490
(dp1491
g25
I00
sg31
I00
sg32
I00
sg42
I87654321
sbsg1463
g0
(g121
g2
Ntp1492
Rp1493
(dp1494
g25
I00
sg31
I00
sg32
I00
sg42
VTRandom3
p1495
sbsbsg1429
g0
(g693
g2
Ntp1496
Rp1497
(dp1498
g25
I00
sg31
I01
sg32
I00
sg17
(lp1499
g1462
ag1463
asg26
Nsg1462
g0
(g581
g2
Ntp1500
Rp1501
(dp1502
g25
I00
sg31
I00
sg32
I00
sg42
I88776655
sbsg1463
g0
(g121
g2
Ntp1503
Rp1504
(dp1505
g25
I00
sg31
I00
sg32
I00
sg42
g1470
sbsbsg1430
g0
(g693
g2
Ntp1506
Rp1507
(dp1508
g25
I00
sg31
I01
sg32
I00
sg17
(lp1509
g1462
ag1463
asg26
Nsg1462
g0
(g581
g2
Ntp1510
Rp1511
(dp1512
g25
I00
sg31
I00
sg32
I00
sg42
I11
sbsg1463
g1468
sbsg1431
g0
(g693
g2
Ntp1513
Rp1514
(dp1515
g25
I00
sg31
I01
sg32
I00
sg17
(lp1516
g1462
ag1463
asg26
Nsg1462
g0
(g581
g2
Ntp1517
Rp1518
(dp1519
g25
I00
sg31
I00
sg32
I00
sg42
I12345
sbsg1463
g1468
sbsg1432
g0
(g693
g2
Ntp1520
Rp1521
(dp1522
g25
I00
sg31
I01
sg32
I00
sg17
(lp1523
g1462
ag1463
asg26
Nsg1462
g0
(g581
g2
Ntp1524
Rp1525
(dp1526
g25
I00
sg31
I00
sg32
I00
sg42
I12345
sbsg1463
g1468
sbsg1433
g0
(g693
g2
Ntp1527
Rp1528
(dp1529
g25
I00
sg31
I01
sg32
I00
sg17
(lp1530
g1462
ag1463
asg26
Nsg1462
g0
(g581
g2
Ntp1531
Rp1532
(dp1533
g25
I00
sg31
I00
sg32
I00
sg42
I1234567
sbsg1463
g1468
sbsg1434
g0
(g693
g2
Ntp1534
Rp1535
(dp1536
g25
I00
sg31
I01
sg32
I00
sg17
(lp1537
g1462
ag1463
asg26
Nsg1462
g0
(g581
g2
Ntp1538
Rp1539
(dp1540
g25
I00
sg31
I00
sg32
I00
sg42
I1234567
sbsg1463
g1468
sbsg1435
g0
(g693
g2
Ntp1541
Rp1542
(dp1543
g25
I00
sg31
I01
sg32
I00
sg17
(lp1544
g1462
ag1463
asg26
Nsg1462
g0
(g581
g2
Ntp1545
Rp1546
(dp1547
g25
I00
sg31
I00
sg32
I00
sg42
I11223344
sbsg1463
g1468
sbsg1436
g0
(g693
g2
Ntp1548
Rp1549
(dp1550
g25
I00
sg31
I01
sg32
I00
sg17
(lp1551
g1462
ag1463
asg26
Nsg1462
g0
(g581
g2
Ntp1552
Rp1553
(dp1554
g25
I00
sg31
I00
sg32
I00
sg42
I1234567
sbsg1463
g1468
sbsg1437
g0
(g693
g2
Ntp1555
Rp1556
(dp1557
g25
I00
sg31
I01
sg32
I00
sg17
(lp1558
g1462
ag1463
asg26
Nsg1462
g0
(g581
g2
Ntp1559
Rp1560
(dp1561
g25
I00
sg31
I00
sg32
I00
sg42
I123456789
sbsg1463
g1468
sbsg1438
g0
(g693
g2
Ntp1562
Rp1563
(dp1564
g25
I00
sg31
I01
sg32
I00
sg17
(lp1565
g1462
ag1463
asg26
Nsg1462
g0
(g581
g2
Ntp1566
Rp1567
(dp1568
g25
I00
sg31
I00
sg32
I00
sg42
I11
sbsg1463
g1468
sbsg1439
g0
(g693
g2
Ntp1569
Rp1570
(dp1571
g25
I00
sg31
I01
sg32
I00
sg17
(lp1572
g1462
ag1463
asg26
Nsg1462
g0
(g581
g2
Ntp1573
Rp1574
(dp1575
g25
I00
sg31
I00
sg32
I00
sg42
I918273
sbsg1463
g1504
sbsg1440
g0
(g693
g2
Ntp1576
Rp1577
(dp1578
g25
I00
sg31
I01
sg32
I00
sg17
(lp1579
g1462
ag1463
asg26
Nsg1462
g0
(g581
g2
Ntp1580
Rp1581
(dp1582
g25
I00
sg31
I00
sg32
I00
sg42
I918273
sbsg1463
g1504
sbsg1441
g0
(g693
g2
Ntp1583
Rp1584
(dp1585
g25
I00
sg31
I01
sg32
I00
sg17
(lp1586
g1462
ag1463
asg26
Nsg1462
g0
(g581
g2
Ntp1587
Rp1588
(dp1589
g25
I00
sg31
I00
sg32
I00
sg42
I918273
sbsg1463
g1504
sbsg1442
g0
(g693
g2
Ntp1590
Rp1591
(dp1592
g25
I00
sg31
I01
sg32
I00
sg17
(lp1593
g1462
ag1463
asg26
Nsg1462
g0
(g581
g2
Ntp1594
Rp1595
(dp1596
g25
I00
sg31
I00
sg32
I00
sg42
I918273
sbsg1463
g1504
sbsg1443
g0
(g693
g2
Ntp1597
Rp1598
(dp1599
g25
I00
sg31
I01
sg32
I00
sg17
(lp1600
g1462
ag1463
asg26
Nsg1462
g0
(g581
g2
Ntp1601
Rp1602
(dp1603
g25
I00
sg31
I00
sg32
I00
sg42
I13579
sbsg1463
g1504
sbsg1444
g0
(g693
g2
Ntp1604
Rp1605
(dp1606
g25
I00
sg31
I01
sg32
I00
sg17
(lp1607
g1462
ag1463
asg26
Nsg1462
g0
(g581
g2
Ntp1608
Rp1609
(dp1610
g25
I00
sg31
I00
sg32
I00
sg42
I24680
sbsg1463
g1504
sbsg1445
g0
(g693
g2
Ntp1611
Rp1612
(dp1613
g25
I00
sg31
I01
sg32
I00
sg17
(lp1614
g1462
ag1463
asg26
Nsg1462
g0
(g581
g2
Ntp1615
Rp1616
(dp1617
g25
I00
sg31
I00
sg32
I00
sg42
I654321
sbsg1463
g1504
sbsg1446
g0
(g693
g2
Ntp1618
Rp1619
(dp1620
g25
I00
sg31
I01
sg32
I00
sg17
(lp1621
g1462
ag1463
asg26
Nsg1462
g0
(g581
g2
Ntp1622
Rp1623
(dp1624
g25
I00
sg31
I00
sg32
I00
sg42
I6541321
sbsg1463
g1504
sbsg1447
g0
(g693
g2
Ntp1625
Rp1626
(dp1627
g25
I00
sg31
I01
sg32
I00
sg17
(lp1628
g1462
ag1463
asg26
Nsg1462
g0
(g581
g2
Ntp1629
Rp1630
(dp1631
g25
I00
sg31
I00
sg32
I00
sg42
I541321
sbsg1463
g1504
sbsg1448
g0
(g693
g2
Ntp1632
Rp1633
(dp1634
g25
I00
sg31
I01
sg32
I00
sg17
(lp1635
g1462
ag1463
asg26
Nsg1462
g0
(g581
g2
Ntp1636
Rp1637
(dp1638
g25
I00
sg31
I00
sg32
I00
sg42
I541321
sbsg1463
g1504
sbsg1449
g0
(g693
g2
Ntp1639
Rp1640
(dp1641
g25
I00
sg31
I01
sg32
I00
sg17
(lp1642
g1462
ag1463
asg26
Nsg1462
g0
(g581
g2
Ntp1643
Rp1644
(dp1645
g25
I00
sg31
I00
sg32
I00
sg42
I541321
sbsg1463
g1504
sbsg1450
g0
(g693
g2
Ntp1646
Rp1647
(dp1648
g25
I00
sg31
I01
sg32
I00
sg17
(lp1649
g1462
ag1463
asg26
Nsg1462
g0
(g581
g2
Ntp1650
Rp1651
(dp1652
g25
I00
sg31
I00
sg32
I00
sg42
I54525
sbsg1463
g1504
sbsg1451
g0
(g693
g2
Ntp1653
Rp1654
(dp1655
g25
I00
sg31
I01
sg32
I00
sg17
(lp1656
g1462
ag1463
asg26
Nsg1462
g0
(g581
g2
Ntp1657
Rp1658
(dp1659
g25
I00
sg31
I00
sg32
I00
sg42
I6453209
sbsg1463
g1504
sbsg1452
g0
(g693
g2
Ntp1660
Rp1661
(dp1662
g25
I00
sg31
I01
sg32
I00
sg17
(lp1663
g1462
ag1463
asg26
Nsg1462
g0
(g581
g2
Ntp1664
Rp1665
(dp1666
g25
I00
sg31
I00
sg32
I00
sg42
I987346
sbsg1463
g1504
sbsg1453
g0
(g693
g2
Ntp1667
Rp1668
(dp1669
g25
I00
sg31
I01
sg32
I00
sg17
(lp1670
g1462
ag1463
asg26
Nsg1462
g0
(g581
g2
Ntp1671
Rp1672
(dp1673
g25
I00
sg31
I00
sg32
I00
sg42
I1357987
sbsg1463
g1504
sbsg1454
g0
(g693
g2
Ntp1674
Rp1675
(dp1676
g25
I00
sg31
I01
sg32
I00
sg17
(lp1677
g1462
ag1463
asg26
Nsg1462
g0
(g581
g2
Ntp1678
Rp1679
(dp1680
g25
I00
sg31
I00
sg32
I00
sg42
I87654321
sbsg1463
g1468
sbsg1455
g0
(g693
g2
Ntp1681
Rp1682
(dp1683
g25
I00
sg31
I01
sg32
I00
sg17
(lp1684
g1462
ag1463
asg26
Nsg1462
g0
(g581
g2
Ntp1685
Rp1686
(dp1687
g25
I00
sg31
I00
sg32
I00
sg42
I137137
sbsg1463
g1468
sbsg1456
g0
(g693
g2
Ntp1688
Rp1689
(dp1690
g25
I00
sg31
I01
sg32
I00
sg17
(lp1691
g1462
ag1463
asg26
Nsg1462
g0
(g581
g2
Ntp1692
Rp1693
(dp1694
g25
I00
sg31
I00
sg32
I00
sg42
I137137
sbsg1463
g1468
sbsg1457
g0
(g121
g2
Ntp1695
Rp1696
(dp1697
g25
I00
sg31
I00
sg32
I00
sg42
g36
sbsg59
g660
sg61
I13
sg1190
I01
sbsVTFileService
p1698
g0
(g947
g2
Ntp1699
Rp1700
(dp1701
g15
g1698
sg17
(lp1702
VfileName
p1703
asg25
I00
sg26
Nsg1703
g0
(g121
g2
Ntp1704
Rp1705
(dp1706
g25
I00
sg31
I01
sg32
I00
sg42
VEff_test_nhits0_RecoDebug.root
p1707
sbsg32
I00
sg59
g660
sg61
I13
sg1190
I01
sbssV_Process__essources
p1708
(dp1709
Veegeom
p1710
g0
(cFWCore.ParameterSet.Modules
ESSource
p1711
g2
Ntp1712
Rp1713
(dp1714
g15
VEmptyESSource
p1715
sg17
(lp1716
VrecordName
p1717
aViovIsRunNotTime
p1718
aVfirstValid
p1719
asg25
I00
sg26
Nsg1717
g0
(g121
g2
Ntp1720
Rp1721
(dp1722
g25
I00
sg31
I01
sg32
I00
sg42
VEcalMappingRcd
p1723
sbsg32
I00
sg1718
g0
(g73
g2
Ntp1724
Rp1725
(dp1726
g25
I00
sg31
I01
sg32
I00
sg42
I01
sbsg1719
g0
(cFWCore.ParameterSet.Types
vuint32
p1727
g47
(lp1728
I1
atp1729
Rp1730
(dp1731
g25
I00
sg31
I01
sg32
I00
sbsg59
V/cvmfs/cms.cern.ch/el8_amd64_gcc11/cms/cmssw-patch/CMSSW_13_2_5_patch1/src/Geometry/EcalMapping/python/EcalMappingRecord_cfi.py
p1732
sg61
I3
sg62
g1710
sbsVHepPDTESSource
p1733
g0
(g1711
g2
Ntp1734
Rp1735
(dp1736
g15
g1733
sg17
(lp1737
VpdtFileName
p1738
asg25
I00
sg26
Nsg1738
g0
(cFWCore.ParameterSet.Types
FileInPath
p1739
g2
Ntp1740
Rp1741
(dp1742
g25
I00
sg31
I01
sg32
I00
sg42
VSimGeneral/HepPDTESSource/data/pythiaparticle.tbl
p1743
sbsg32
I00
sg59
V/cvmfs/cms.cern.ch/el8_amd64_gcc11/cms/cmssw-patch/CMSSW_13_2_5_patch1/src/SimGeneral/HepPDTESSource/python/pythiapdt_cfi.py
p1744
sg61
I3
sg62
g1733
sbsVGlobalTag
p1745
g0
(g1711
g2
Ntp1746
Rp1747
(dp1748
g15
VPoolDBESSource
p1749
sg17
(lp1750
VDBParameters
p1751
aVconnect
p1752
aVglobaltag
p1753
aVsnapshotTime
p1754
aVtoGet
p1755
aVDumpStat
p1756
aVReconnectEachRun
p1757
aVRefreshAlways
p1758
aVRefreshEachRun
p1759
aVRefreshOpenIOVs
p1760
aVpfnPostfix
p1761
aVpfnPrefix
p1762
asg25
I00
sg26
Nsg1751
g0
(g693
g2
Ntp1763
Rp1764
(dp1765
g25
I00
sg31
I01
sg32
I00
sg17
(lp1766
VauthenticationPath
p1767
aVauthenticationSystem
p1768
aVsecurity
p1769
aVmessageLevel
p1770
aVconnectionTimeout
p1771
asg26
Nsg1767
g0
(g121
g2
Ntp1772
Rp1773
(dp1774
g25
I00
sg31
I00
sg32
I00
sg42
g36
sbsg1768
g0
(g52
g2
Ntp1775
Rp1776
(dp1777
g25
I00
sg31
I00
sg32
I00
sg42
I0
sbsg1769
g0
(g121
g2
Ntp1778
Rp1779
(dp1780
g25
I00
sg31
I00
sg32
I00
sg42
g36
sbsg1770
g0
(g52
g2
Ntp1781
Rp1782
(dp1783
g25
I00
sg31
I00
sg32
I00
sg42
I0
sbsg1771
g0
(g52
g2
Ntp1784
Rp1785
(dp1786
g25
I00
sg31
I00
sg32
I00
sg42
I0
sbsbsg32
I01
sg1752
g0
(g121
g2
Ntp1787
Rp1788
(dp1789
g25
I00
sg31
I01
sg32
I00
sg42
Vfrontier://FrontierProd/CMS_CONDITIONS
p1790
sbsg1753
g0
(g121
g2
Ntp1791
Rp1792
(dp1793
g25
I00
sg31
I01
sg32
I00
sg42
V132X_mcRun3_2023_realistic_HI_v5
p1794
sbsg1754
g0
(g121
g2
Ntp1795
Rp1796
(dp1797
g25
I00
sg31
I01
sg32
I00
sg42
V9999-12-31 23:59:59.000
p1798
sbsg1755
g0
(g691
g47
(lp1799
g0
(g693
g2
Ntp1800
Rp1801
(dp1802
g25
I00
sg31
I01
sg32
I00
sg17
(lp1803
Vrecord
p1804
aVtag
p1805
ag1752
aVlabel
p1806
asg26
Nsg1804
g0
(g121
g2
Ntp1807
Rp1808
(dp1809
g25
I00
sg31
I01
sg32
I00
sg42
VHeavyIonRcd
p1810
sbsg1805
g0
(g121
g2
Ntp1811
Rp1812
(dp1813
g25
I00
sg31
I01
sg32
I00
sg42
VCentralityTable_HFtowers200_DataPbPb_periHYDJETshape_run3v1302x04_offline_Nominal
p1814
sbsg1752
g0
(g121
g2
Ntp1815
Rp1816
(dp1817
g25
I00
sg31
I01
sg32
I00
sg42
Vsqlite_file:CentralityTable_HFtowers200_DataPbPb_periHYDJETshape_run3v1302x04_offline_Nominal.db
p1818
sbsg1806
g0
(g121
g2
Ntp1819
Rp1820
(dp1821
g25
I00
sg31
I00
sg32
I00
sg42
g522
sbsbatp1822
Rp1823
(dp1824
g25
I00
sg31
I01
sg32
I00
sg451
I1
sbsg1756
g0
(g73
g2
Ntp1825
Rp1826
(dp1827
g25
I00
sg31
I00
sg32
I00
sg42
I00
sbsg1757
g0
(g73
g2
Ntp1828
Rp1829
(dp1830
g25
I00
sg31
I00
sg32
I00
sg42
I00
sbsg1758
g0
(g73
g2
Ntp1831
Rp1832
(dp1833
g25
I00
sg31
I00
sg32
I00
sg42
I00
sbsg1759
g0
(g73
g2
Ntp1834
Rp1835
(dp1836
g25
I00
sg31
I00
sg32
I00
sg42
I00
sbsg1760
g0
(g73
g2
Ntp1837
Rp1838
(dp1839
g25
I00
sg31
I00
sg32
I00
sg42
I00
sbsg1761
g0
(g121
g2
Ntp1840
Rp1841
(dp1842
g25
I00
sg31
I00
sg32
I00
sg42
g36
sbsg1762
g0
(g121
g2
Ntp1843
Rp1844
(dp1845
g25
I00
sg31
I00
sg32
I00
sg42
g36
sbsg59
V/cvmfs/cms.cern.ch/el8_amd64_gcc11/cms/cmssw-patch/CMSSW_13_2_5_patch1/src/CondCore/ESSources/python/CondDBESSource_cfi.py
p1846
sg61
I8
sg62
g1745
sbsVHcalTimeSlewEP
p1847
g0
(g1711
g2
Ntp1848
Rp1849
(dp1850
g15
g1847
sg17
(lp1851
VappendToDataLabel
p1852
aVtimeSlewParametersM2
p1853
aVtimeSlewParametersM3
p1854
asg25
I00
sg26
Nsg1852
g0
(g121
g2
Ntp1855
Rp1856
(dp1857
g25
I00
sg31
I01
sg32
I00
sg42
VHBHE
p1858
sbsg32
I00
sg1853
g0
(g691
g47
(lp1859
g0
(g693
g2
Ntp1860
Rp1861
(dp1862
g25
I00
sg31
I01
sg32
I00
sg17
(lp1863
Vtzero
p1864
aVslope
p1865
aVtmax
p1866
asg26
Nsg1864
g0
(g38
g2
Ntp1867
Rp1868
(dp1869
g25
I00
sg31
I01
sg32
I00
sg42
F23.960177
sbsg1865
g0
(g38
g2
Ntp1870
Rp1871
(dp1872
g25
I00
sg31
I01
sg32
I00
sg42
F-3.178648
sbsg1866
g0
(g38
g2
Ntp1873
Rp1874
(dp1875
g25
I00
sg31
I01
sg32
I00
sg42
F16.0
sbsbag0
(g693
g2
Ntp1876
Rp1877
(dp1878
g25
I00
sg31
I01
sg32
I00
sg17
(lp1879
g1864
ag1865
ag1866
asg26
Nsg1864
g0
(g38
g2
Ntp1880
Rp1881
(dp1882
g25
I00
sg31
I01
sg32
I00
sg42
F11.977461
sbsg1865
g0
(g38
g2
Ntp1883
Rp1884
(dp1885
g25
I00
sg31
I01
sg32
I00
sg42
F-1.5610227
sbsg1866
g0
(g38
g2
Ntp1886
Rp1887
(dp1888
g25
I00
sg31
I01
sg32
I00
sg42
F10.0
sbsbag0
(g693
g2
Ntp1889
Rp1890
(dp1891
g25
I00
sg31
I01
sg32
I00
sg17
(lp1892
g1864
ag1865
ag1866
asg26
Nsg1864
g0
(g38
g2
Ntp1893
Rp1894
(dp1895
g25
I00
sg31
I01
sg32
I00
sg42
F9.109694
sbsg1865
g0
(g38
g2
Ntp1896
Rp1897
(dp1898
g25
I00
sg31
I01
sg32
I00
sg42
F-1.075824
sbsg1866
g0
(g38
g2
Ntp1899
Rp1900
(dp1901
g25
I00
sg31
I01
sg32
I00
sg42
F6.25
sbsbatp1902
Rp1903
(dp1904
g25
I00
sg31
I01
sg32
I00
sg451
I1
sbsg1854
g0
(g691
g47
(lp1905
g0
(g693
g2
Ntp1906
Rp1907
(dp1908
g25
I00
sg31
I01
sg32
I00
sg17
(lp1909
Vcap
p1910
aVtspar0
p1911
aVtspar1
p1912
aVtspar2
p1913
aVtspar0_siPM
p1914
aVtspar1_siPM
p1915
aVtspar2_siPM
p1916
asg26
Nsg1910
g0
(g38
g2
Ntp1917
Rp1918
(dp1919
g25
I00
sg31
I01
sg32
I00
sg42
F6.0
sbsg1911
g0
(g38
g2
Ntp1920
Rp1921
(dp1922
g25
I00
sg31
I01
sg32
I00
sg42
F12.2999
sbsg1912
g0
(g38
g2
Ntp1923
Rp1924
(dp1925
g25
I00
sg31
I01
sg32
I00
sg42
F-2.19142
sbsg1913
g0
(g38
g2
Ntp1926
Rp1927
(dp1928
g25
I00
sg31
I01
sg32
I00
sg42
F0.0
sbsg1914
g0
(g38
g2
Ntp1929
Rp1930
(dp1931
g25
I00
sg31
I01
sg32
I00
sg42
F0.0
sbsg1915
g0
(g38
g2
Ntp1932
Rp1933
(dp1934
g25
I00
sg31
I01
sg32
I00
sg42
F0.0
sbsg1916
g0
(g38
g2
Ntp1935
Rp1936
(dp1937
g25
I00
sg31
I01
sg32
I00
sg42
F0.0
sbsbag0
(g693
g2
Ntp1938
Rp1939
(dp1940
g25
I00
sg31
I01
sg32
I00
sg17
(lp1941
g1910
ag1911
ag1912
ag1913
ag1914
ag1915
ag1916
asg26
Nsg1910
g0
(g38
g2
Ntp1942
Rp1943
(dp1944
g25
I00
sg31
I01
sg32
I00
sg42
F6.0
sbsg1911
g0
(g38
g2
Ntp1945
Rp1946
(dp1947
g25
I00
sg31
I01
sg32
I00
sg42
F15.5
sbsg1912
g0
(g38
g2
Ntp1948
Rp1949
(dp1950
g25
I00
sg31
I01
sg32
I00
sg42
F-3.2
sbsg1913
g0
(g38
g2
Ntp1951
Rp1952
(dp1953
g25
I00
sg31
I01
sg32
I00
sg42
F32.0
sbsg1914
g0
(g38
g2
Ntp1954
Rp1955
(dp1956
g25
I00
sg31
I01
sg32
I00
sg42
F0.0
sbsg1915
g0
(g38
g2
Ntp1957
Rp1958
(dp1959
g25
I00
sg31
I01
sg32
I00
sg42
F0.0
sbsg1916
g0
(g38
g2
Ntp1960
Rp1961
(dp1962
g25
I00
sg31
I01
sg32
I00
sg42
F0.0
sbsbag0
(g693
g2
Ntp1963
Rp1964
(dp1965
g25
I00
sg31
I01
sg32
I00
sg17
(lp1966
g1910
ag1911
ag1912
ag1913
ag1914
ag1915
ag1916
asg26
Nsg1910
g0
(g38
g2
Ntp1967
Rp1968
(dp1969
g25
I00
sg31
I01
sg32
I00
sg42
F6.0
sbsg1911
g0
(g38
g2
Ntp1970
Rp1971
(dp1972
g25
I00
sg31
I01
sg32
I00
sg42
F12.2999
sbsg1912
g0
(g38
g2
Ntp1973
Rp1974
(dp1975
g25
I00
sg31
I01
sg32
I00
sg42
F-2.19142
sbsg1913
g0
(g38
g2
Ntp1976
Rp1977
(dp1978
g25
I00
sg31
I01
sg32
I00
sg42
F0.0
sbsg1914
g0
(g38
g2
Ntp1979
Rp1980
(dp1981
g25
I00
sg31
I01
sg32
I00
sg42
F0.0
sbsg1915
g0
(g38
g2
Ntp1982
Rp1983
(dp1984
g25
I00
sg31
I01
sg32
I00
sg42
F0.0
sbsg1916
g0
(g38
g2
Ntp1985
Rp1986
(dp1987
g25
I00
sg31
I01
sg32
I00
sg42
F0.0
sbsbag0
(g693
g2
Ntp1988
Rp1989
(dp1990
g25
I00
sg31
I01
sg32
I00
sg17
(lp1991
g1910
ag1911
ag1912
ag1913
ag1914
ag1915
ag1916
asg26
Nsg1910
g0
(g38
g2
Ntp1992
Rp1993
(dp1994
g25
I00
sg31
I01
sg32
I00
sg42
F6.0
sbsg1911
g0
(g38
g2
Ntp1995
Rp1996
(dp1997
g25
I00
sg31
I01
sg32
I00
sg42
F12.2999
sbsg1912
g0
(g38
g2
Ntp1998
Rp1999
(dp2000
g25
I00
sg31
I01
sg32
I00
sg42
F-2.19142
sbsg1913
g0
(g38
g2
Ntp2001
Rp2002
(dp2003
g25
I00
sg31
I01
sg32
I00
sg42
F0.0
sbsg1914
g0
(g38
g2
Ntp2004
Rp2005
(dp2006
g25
I00
sg31
I01
sg32
I00
sg42
F0.0
sbsg1915
g0
(g38
g2
Ntp2007
Rp2008
(dp2009
g25
I00
sg31
I01
sg32
I00
sg42
F0.0
sbsg1916
g0
(g38
g2
Ntp2010
Rp2011
(dp2012
g25
I00
sg31
I01
sg32
I00
sg42
F0.0
sbsbatp2013
Rp2014
(dp2015
g25
I00
sg31
I01
sg32
I00
sg451
I1
sbsg59
V/cvmfs/cms.cern.ch/el8_amd64_gcc11/cms/cmssw-patch/CMSSW_13_2_5_patch1/src/CalibCalorimetry/HcalPlugins/python/HcalTimeSlew_cff.py
p2016
sg61
I3
sg62
g1847
sbsVes_hardcode
p2017
g0
(g1711
g2
Ntp2018
Rp2019
(dp2020
g15
VHcalHardcodeCalibrations
p2021
sg17
(lp2022
g1755
aViLumi
p2023
aVHBRecalibration
p2024
aVHBreCalibCutoff
p2025
aVHBmeanenergies
p2026
aVHERecalibration
p2027
aVHEreCalibCutoff
p2028
aVHEmeanenergies
p2029
aVHFRecalibration
p2030
aVHFRecalParameterBlock
p2031
aVGainWidthsForTrigPrims
p2032
aVuseHBUpgrade
p2033
aVuseHEUpgrade
p2034
aVuseHFUpgrade
p2035
aVuseHOUpgrade
p2036
aVtestHFQIE10
p2037
aVtestHEPlan1
p2038
aVkillHE
p2039
aVuseLayer0Weight
p2040
aVuseIeta18depth1
p2041
aVhb
p2042
aVhe
p2043
aVhf
p2044
aVho
p2045
aVhbUpgrade
p2046
aVheUpgrade
p2047
aVhfUpgrade
p2048
aVSiPMCharacteristics
p2049
asg25
I00
sg26
Nsg1755
g0
(g105
g47
(lp2050
VGainWidths
p2051
atp2052
Rp2053
(dp2054
g25
I00
sg31
I00
sg32
I00
sg451
I1
sbsg32
I00
sg2023
g0
(g38
g2
Ntp2055
Rp2056
(dp2057
g25
I00
sg31
I01
sg32
I00
sg42
F-1.0
sbsg2024
g0
(g73
g2
Ntp2058
Rp2059
(dp2060
g25
I00
sg31
I01
sg32
I00
sg42
I00
sbsg2025
g0
(g38
g2
Ntp2061
Rp2062
(dp2063
g25
I00
sg31
I01
sg32
I00
sg42
F20.0
sbsg2026
g0
(g1739
g2
Ntp2064
Rp2065
(dp2066
g25
I00
sg31
I01
sg32
I00
sg42
VCalibCalorimetry/HcalPlugins/data/meanenergiesHB.txt
p2067
sbsg2027
g0
(g73
g2
Ntp2068
Rp2069
(dp2070
g25
I00
sg31
I01
sg32
I00
sg42
I00
sbsg2028
g0
(g38
g2
Ntp2071
Rp2072
(dp2073
g25
I00
sg31
I01
sg32
I00
sg42
F20.0
sbsg2029
g0
(g1739
g2
Ntp2074
Rp2075
(dp2076
g25
I00
sg31
I01
sg32
I00
sg42
VCalibCalorimetry/HcalPlugins/data/meanenergiesHE.txt
p2077
sbsg2030
g0
(g73
g2
Ntp2078
Rp2079
(dp2080
g25
I00
sg31
I01
sg32
I00
sg42
I00
sbsg2031
g0
(g693
g2
Ntp2081
Rp2082
(dp2083
g25
I00
sg31
I01
sg32
I00
sg17
(lp2084
VHFdepthOneParameterA
p2085
aVHFdepthOneParameterB
p2086
aVHFdepthTwoParameterA
p2087
aVHFdepthTwoParameterB
p2088
asg26
Nsg2085
g0
(g46
g47
(lp2089
F0.004123
aF0.00602
aF0.008201
aF0.010489
aF0.013379
aF0.016997
aF0.021464
aF0.027371
aF0.034195
aF0.044807
aF0.058939
aF0.125497
atp2090
Rp2091
(dp2092
g25
I00
sg31
I01
sg32
I00
sbsg2086
g0
(g46
g47
(lp2093
F-4e-06
aF-2e-06
aF0.0
aF4e-06
aF1.5e-05
aF2.6e-05
aF6.3e-05
aF8.4e-05
aF0.00016
aF0.000107
aF0.000425
aF0.000209
atp2094
Rp2095
(dp2096
g25
I00
sg31
I01
sg32
I00
sbsg2087
g0
(g46
g47
(lp2097
F0.002861
aF0.004168
aF0.0064
aF0.008388
aF0.011601
aF0.014425
aF0.018633
aF0.023232
aF0.028274
aF0.035447
aF0.051579
aF0.086593
atp2098
Rp2099
(dp2100
g25
I00
sg31
I01
sg32
I00
sbsg2088
g0
(g46
g47
(lp2101
F-2e-06
aF-0.0
aF-7e-06
aF-6e-06
aF-2e-06
aF1e-06
aF1.9e-05
aF3.1e-05
aF6.7e-05
aF1.2e-05
aF0.000157
aF-3e-06
atp2102
Rp2103
(dp2104
g25
I00
sg31
I01
sg32
I00
sbsg62
g2031
sbsg2032
g0
(g73
g2
Ntp2105
Rp2106
(dp2107
g25
I00
sg31
I01
sg32
I00
sg42
I00
sbsg2033
g0
(g73
g2
Ntp2108
Rp2109
(dp2110
g25
I00
sg31
I01
sg32
I00
sg42
I00
sbsg2034
g0
(g73
g2
Ntp2111
Rp2112
(dp2113
g25
I00
sg31
I01
sg32
I00
sg42
I00
sbsg2035
g0
(g73
g2
Ntp2114
Rp2115
(dp2116
g25
I00
sg31
I01
sg32
I00
sg42
I00
sbsg2036
g0
(g73
g2
Ntp2117
Rp2118
(dp2119
g25
I00
sg31
I01
sg32
I00
sg42
I01
sbsg2037
g0
(g73
g2
Ntp2120
Rp2121
(dp2122
g25
I00
sg31
I01
sg32
I00
sg42
I00
sbsg2038
g0
(g73
g2
Ntp2123
Rp2124
(dp2125
g25
I00
sg31
I01
sg32
I00
sg42
I00
sbsg2039
g0
(g73
g2
Ntp2126
Rp2127
(dp2128
g25
I00
sg31
I01
sg32
I00
sg42
I00
sbsg2040
g0
(g73
g2
Ntp2129
Rp2130
(dp2131
g25
I00
sg31
I01
sg32
I00
sg42
I00
sbsg2041
g0
(g73
g2
Ntp2132
Rp2133
(dp2134
g25
I00
sg31
I01
sg32
I00
sg42
I01
sbsg2042
g0
(g693
g2
Ntp2135
Rp2136
(dp2137
g25
I00
sg31
I01
sg32
I00
sg17
(lp2138
Vpedestal
p2139
aVpedestalWidth
p2140
aVgain
p2141
aVgainWidth
p2142
aVzsThreshold
p2143
aVqieType
p2144
aVqieOffset
p2145
aVqieSlope
p2146
aVmcShape
p2147
aVrecoShape
p2148
aVphotoelectronsToAnalog
p2149
aVdarkCurrent
p2150
aVnoiseCorrelation
p2151
aVnoiseThreshold
p2152
aVseedThreshold
p2153
aVdoRadiationDamage
p2154
asg26
Nsg2139
g0
(g38
g2
Ntp2155
Rp2156
(dp2157
g25
I00
sg31
I01
sg32
I00
sg42
F3.285
sbsg2140
g0
(g38
g2
Ntp2158
Rp2159
(dp2160
g25
I00
sg31
I01
sg32
I00
sg42
F0.809
sbsg2141
g0
(g46
g47
(lp2161
F0.19
atp2162
Rp2163
(dp2164
g25
I00
sg31
I01
sg32
I00
sbsg2142
g0
(g46
g47
(lp2165
F0.0
atp2166
Rp2167
(dp2168
g25
I00
sg31
I01
sg32
I00
sbsg2143
g0
(g52
g2
Ntp2169
Rp2170
(dp2171
g25
I00
sg31
I01
sg32
I00
sg42
I8
sbsg2144
g0
(g52
g2
Ntp2172
Rp2173
(dp2174
g25
I00
sg31
I01
sg32
I00
sg42
I0
sbsg2145
g0
(g46
g47
(lp2175
F-0.49
aF1.8
aF7.2
aF37.9
atp2176
Rp2177
(dp2178
g25
I00
sg31
I01
sg32
I00
sbsg2146
g0
(g46
g47
(lp2179
F0.912
aF0.917
aF0.922
aF0.923
atp2180
Rp2181
(dp2182
g25
I00
sg31
I01
sg32
I00
sbsg2147
g0
(g52
g2
Ntp2183
Rp2184
(dp2185
g25
I00
sg31
I01
sg32
I00
sg42
I125
sbsg2148
g0
(g52
g2
Ntp2186
Rp2187
(dp2188
g25
I00
sg31
I01
sg32
I00
sg42
I105
sbsg2149
g0
(g38
g2
Ntp2189
Rp2190
(dp2191
g25
I00
sg31
I01
sg32
I00
sg42
F0.3305
sbsg2150
g0
(g46
g47
(lp2192
F0.0
atp2193
Rp2194
(dp2195
g25
I00
sg31
I01
sg32
I00
sbsg2151
g0
(g46
g47
(lp2196
F0.0
atp2197
Rp2198
(dp2199
g25
I00
sg31
I01
sg32
I00
sbsg2152
g0
(g38
g2
Ntp2200
Rp2201
(dp2202
g25
I00
sg31
I01
sg32
I00
sg42
F0.0
sbsg2153
g0
(g38
g2
Ntp2203
Rp2204
(dp2205
g25
I00
sg31
I01
sg32
I00
sg42
F0.1
sbsg2154
g0
(g73
g2
Ntp2206
Rp2207
(dp2208
g25
I00
sg31
I01
sg32
I00
sg42
I00
sbsbsg2043
g0
(g693
g2
Ntp2209
Rp2210
(dp2211
g25
I00
sg31
I01
sg32
I00
sg17
(lp2212
g2139
ag2140
ag2141
ag2142
ag2143
ag2144
ag2145
ag2146
ag2147
ag2148
ag2149
ag2150
ag2151
ag2152
ag2153
ag2154
asg26
Nsg2139
g0
(g38
g2
Ntp2213
Rp2214
(dp2215
g25
I00
sg31
I01
sg32
I00
sg42
F3.163
sbsg2140
g0
(g38
g2
Ntp2216
Rp2217
(dp2218
g25
I00
sg31
I01
sg32
I00
sg42
F0.9698
sbsg2141
g0
(g46
g47
(lp2219
F0.23
atp2220
Rp2221
(dp2222
g25
I00
sg31
I01
sg32
I00
sbsg2142
g0
(g46
g47
(lp2223
I0
atp2224
Rp2225
(dp2226
g25
I00
sg31
I01
sg32
I00
sbsg2143
g0
(g52
g2
Ntp2227
Rp2228
(dp2229
g25
I00
sg31
I01
sg32
I00
sg42
I9
sbsg2144
g0
(g52
g2
Ntp2230
Rp2231
(dp2232
g25
I00
sg31
I01
sg32
I00
sg42
I0
sbsg2145
g0
(g46
g47
(lp2233
F-0.38
aF2.0
aF7.6
aF39.6
atp2234
Rp2235
(dp2236
g25
I00
sg31
I01
sg32
I00
sbsg2146
g0
(g46
g47
(lp2237
F0.912
aF0.916
aF0.92
aF0.922
atp2238
Rp2239
(dp2240
g25
I00
sg31
I01
sg32
I00
sbsg2147
g0
(g52
g2
Ntp2241
Rp2242
(dp2243
g25
I00
sg31
I01
sg32
I00
sg42
I125
sbsg2148
g0
(g52
g2
Ntp2244
Rp2245
(dp2246
g25
I00
sg31
I01
sg32
I00
sg42
I105
sbsg2149
g0
(g38
g2
Ntp2247
Rp2248
(dp2249
g25
I00
sg31
I01
sg32
I00
sg42
F0.3305
sbsg2150
g0
(g46
g47
(lp2250
F0.0
atp2251
Rp2252
(dp2253
g25
I00
sg31
I01
sg32
I00
sbsg2151
g0
(g46
g47
(lp2254
F0.0
atp2255
Rp2256
(dp2257
g25
I00
sg31
I01
sg32
I00
sbsg2152
g0
(g38
g2
Ntp2258
Rp2259
(dp2260
g25
I00
sg31
I01
sg32
I00
sg42
F0.0
sbsg2153
g0
(g38
g2
Ntp2261
Rp2262
(dp2263
g25
I00
sg31
I01
sg32
I00
sg42
F0.1
sbsg2154
g0
(g73
g2
Ntp2264
Rp2265
(dp2266
g25
I00
sg31
I01
sg32
I00
sg42
I00
sbsbsg2044
g0
(g693
g2
Ntp2267
Rp2268
(dp2269
g25
I00
sg31
I01
sg32
I00
sg17
(lp2270
g2139
ag2140
ag2141
ag2142
ag2143
ag2144
ag2145
ag2146
ag2147
ag2148
ag2149
ag2150
ag2151
ag2152
ag2153
ag2154
asg26
Nsg2139
g0
(g38
g2
Ntp2271
Rp2272
(dp2273
g25
I00
sg31
I01
sg32
I00
sg42
F9.354
sbsg2140
g0
(g38
g2
Ntp2274
Rp2275
(dp2276
g25
I00
sg31
I01
sg32
I00
sg42
F2.516
sbsg2141
g0
(g46
g47
(lp2277
F0.14
aF0.135
atp2278
Rp2279
(dp2280
g25
I00
sg31
I01
sg32
I00
sbsg2142
g0
(g46
g47
(lp2281
F0.0
aF0.0
atp2282
Rp2283
(dp2284
g25
I00
sg31
I01
sg32
I00
sbsg2143
g0
(g52
g2
Ntp2285
Rp2286
(dp2287
g25
I00
sg31
I01
sg32
I00
sg42
I-9999
sbsg2144
g0
(g52
g2
Ntp2288
Rp2289
(dp2290
g25
I00
sg31
I01
sg32
I00
sg42
I0
sbsg2145
g0
(g46
g47
(lp2291
F-0.87
aF1.4
aF7.8
aF-29.6
atp2292
Rp2293
(dp2294
g25
I00
sg31
I01
sg32
I00
sbsg2146
g0
(g46
g47
(lp2295
F0.359
aF0.358
aF0.36
aF0.367
atp2296
Rp2297
(dp2298
g25
I00
sg31
I01
sg32
I00
sbsg2147
g0
(g52
g2
Ntp2299
Rp2300
(dp2301
g25
I00
sg31
I01
sg32
I00
sg42
I301
sbsg2148
g0
(g52
g2
Ntp2302
Rp2303
(dp2304
g25
I00
sg31
I01
sg32
I00
sg42
I301
sbsg2149
g0
(g38
g2
Ntp2305
Rp2306
(dp2307
g25
I00
sg31
I01
sg32
I00
sg42
F0.0
sbsg2150
g0
(g46
g47
(lp2308
F0.0
atp2309
Rp2310
(dp2311
g25
I00
sg31
I01
sg32
I00
sbsg2151
g0
(g46
g47
(lp2312
F0.0
atp2313
Rp2314
(dp2315
g25
I00
sg31
I01
sg32
I00
sbsg2152
g0
(g38
g2
Ntp2316
Rp2317
(dp2318
g25
I00
sg31
I01
sg32
I00
sg42
F0.0
sbsg2153
g0
(g38
g2
Ntp2319
Rp2320
(dp2321
g25
I00
sg31
I01
sg32
I00
sg42
F0.1
sbsg2154
g0
(g73
g2
Ntp2322
Rp2323
(dp2324
g25
I00
sg31
I01
sg32
I00
sg42
I00
sbsbsg2045
g0
(g693
g2
Ntp2325
Rp2326
(dp2327
g25
I00
sg31
I01
sg32
I00
sg17
(lp2328
g2139
ag2140
ag2141
ag2142
ag2143
ag2144
ag2145
ag2146
ag2147
ag2148
ag2149
ag2150
ag2151
ag2152
ag2153
ag2154
asg26
Nsg2139
g0
(g38
g2
Ntp2329
Rp2330
(dp2331
g25
I00
sg31
I01
sg32
I00
sg42
F12.06
sbsg2140
g0
(g38
g2
Ntp2332
Rp2333
(dp2334
g25
I00
sg31
I01
sg32
I00
sg42
F0.6285
sbsg2141
g0
(g46
g47
(lp2335
F0.006
aF0.0087
atp2336
Rp2337
(dp2338
g25
I00
sg31
I01
sg32
I00
sbsg2142
g0
(g46
g47
(lp2339
F0.0
aF0.0
atp2340
Rp2341
(dp2342
g25
I00
sg31
I01
sg32
I00
sbsg2143
g0
(g52
g2
Ntp2343
Rp2344
(dp2345
g25
I00
sg31
I01
sg32
I00
sg42
I24
sbsg2144
g0
(g52
g2
Ntp2346
Rp2347
(dp2348
g25
I00
sg31
I01
sg32
I00
sg42
I0
sbsg2145
g0
(g46
g47
(lp2349
F-0.44
aF1.4
aF7.1
aF38.5
atp2350
Rp2351
(dp2352
g25
I00
sg31
I01
sg32
I00
sbsg2146
g0
(g46
g47
(lp2353
F0.907
aF0.915
aF0.92
aF0.921
atp2354
Rp2355
(dp2356
g25
I00
sg31
I01
sg32
I00
sbsg2147
g0
(g52
g2
Ntp2357
Rp2358
(dp2359
g25
I00
sg31
I01
sg32
I00
sg42
I201
sbsg2148
g0
(g52
g2
Ntp2360
Rp2361
(dp2362
g25
I00
sg31
I01
sg32
I00
sg42
I201
sbsg2149
g0
(g38
g2
Ntp2363
Rp2364
(dp2365
g25
I00
sg31
I01
sg32
I00
sg42
F4.0
sbsg2150
g0
(g46
g47
(lp2366
F0.0
atp2367
Rp2368
(dp2369
g25
I00
sg31
I01
sg32
I00
sbsg2151
g0
(g46
g47
(lp2370
F0.0
atp2371
Rp2372
(dp2373
g25
I00
sg31
I01
sg32
I00
sbsg2152
g0
(g38
g2
Ntp2374
Rp2375
(dp2376
g25
I00
sg31
I01
sg32
I00
sg42
F0.0
sbsg2153
g0
(g38
g2
Ntp2377
Rp2378
(dp2379
g25
I00
sg31
I01
sg32
I00
sg42
F0.1
sbsg2154
g0
(g73
g2
Ntp2380
Rp2381
(dp2382
g25
I00
sg31
I01
sg32
I00
sg42
I00
sbsbsg2046
g0
(g693
g2
Ntp2383
Rp2384
(dp2385
g25
I00
sg31
I01
sg32
I00
sg17
(lp2386
g2139
ag2140
ag2141
ag2142
ag2143
ag2144
ag2145
ag2146
ag2147
ag2148
ag2149
ag2150
ag2151
ag2152
ag2153
ag2154
aVradiationDamage
p2387
asg26
Nsg2139
g0
(g38
g2
Ntp2388
Rp2389
(dp2390
g25
I00
sg31
I01
sg32
I00
sg42
F17.3
sbsg2140
g0
(g38
g2
Ntp2391
Rp2392
(dp2393
g25
I00
sg31
I01
sg32
I00
sg42
F1.5
sbsg2141
g0
(g46
g47
(lp2394
F0.0006252
atp2395
Rp2396
(dp2397
g25
I00
sg31
I01
sg32
I00
sbsg2142
g0
(g46
g47
(lp2398
I0
atp2399
Rp2400
(dp2401
g25
I00
sg31
I01
sg32
I00
sbsg2143
g0
(g52
g2
Ntp2402
Rp2403
(dp2404
g25
I00
sg31
I01
sg32
I00
sg42
I16
sbsg2144
g0
(g52
g2
Ntp2405
Rp2406
(dp2407
g25
I00
sg31
I01
sg32
I00
sg42
I2
sbsg2145
g0
(g46
g47
(lp2408
F0.0
aF0.0
aF0.0
aF0.0
atp2409
Rp2410
(dp2411
g25
I00
sg31
I01
sg32
I00
sbsg2146
g0
(g46
g47
(lp2412
F0.05376
aF0.05376
aF0.05376
aF0.05376
atp2413
Rp2414
(dp2415
g25
I00
sg31
I01
sg32
I00
sbsg2147
g0
(g52
g2
Ntp2416
Rp2417
(dp2418
g25
I00
sg31
I01
sg32
I00
sg42
I206
sbsg2148
g0
(g52
g2
Ntp2419
Rp2420
(dp2421
g25
I00
sg31
I01
sg32
I00
sg42
I208
sbsg2149
g0
(g38
g2
Ntp2422
Rp2423
(dp2424
g25
I00
sg31
I01
sg32
I00
sg42
F40.0
sbsg2150
g0
(g46
g47
(lp2425
F0.01
aF0.015
atp2426
Rp2427
(dp2428
g25
I00
sg31
I01
sg32
I00
sbsg2151
g0
(g46
g47
(lp2429
F0.26
aF0.254
atp2430
Rp2431
(dp2432
g25
I00
sg31
I01
sg32
I00
sbsg2152
g0
(g38
g2
Ntp2433
Rp2434
(dp2435
g25
I00
sg31
I01
sg32
I00
sg42
F0.0
sbsg2153
g0
(g38
g2
Ntp2436
Rp2437
(dp2438
g25
I00
sg31
I01
sg32
I00
sg42
F0.1
sbsg2154
g0
(g73
g2
Ntp2439
Rp2440
(dp2441
g25
I00
sg31
I01
sg32
I00
sg42
I01
sbsg2387
g0
(g693
g2
Ntp2442
Rp2443
(dp2444
g25
I00
sg31
I01
sg32
I00
sg17
(lp2445
VtemperatureBase
p2446
aVtemperatureNew
p2447
aVintlumiOffset
p2448
aVdepVsTemp
p2449
aVintlumiToNeutrons
p2450
aVdepVsNeutrons
p2451
asg26
Nsg2446
g0
(g38
g2
Ntp2452
Rp2453
(dp2454
g25
I00
sg31
I01
sg32
I00
sg42
I20
sbsg2447
g0
(g38
g2
Ntp2455
Rp2456
(dp2457
g25
I00
sg31
I01
sg32
I00
sg42
I-5
sbsg2448
g0
(g38
g2
Ntp2458
Rp2459
(dp2460
g25
I00
sg31
I01
sg32
I00
sg42
I150
sbsg2449
g0
(g38
g2
Ntp2461
Rp2462
(dp2463
g25
I00
sg31
I01
sg32
I00
sg42
F0.0631
sbsg2450
g0
(g38
g2
Ntp2464
Rp2465
(dp2466
g25
I00
sg31
I01
sg32
I00
sg42
F367000000.0
sbsg2451
g0
(g46
g47
(lp2467
F5.543e-10
aF8.012e-10
atp2468
Rp2469
(dp2470
g25
I00
sg31
I01
sg32
I00
sbsbsbsg2047
g0
(g693
g2
Ntp2471
Rp2472
(dp2473
g25
I00
sg31
I01
sg32
I00
sg17
(lp2474
g2139
ag2140
ag2141
ag2142
ag2143
ag2144
ag2145
ag2146
ag2147
ag2148
ag2149
ag2150
ag2151
ag2152
ag2153
ag2154
ag2387
asg26
Nsg2139
g0
(g38
g2
Ntp2475
Rp2476
(dp2477
g25
I00
sg31
I01
sg32
I00
sg42
F17.3
sbsg2140
g0
(g38
g2
Ntp2478
Rp2479
(dp2480
g25
I00
sg31
I01
sg32
I00
sg42
F1.5
sbsg2141
g0
(g46
g47
(lp2481
F0.0006252
atp2482
Rp2483
(dp2484
g25
I00
sg31
I01
sg32
I00
sbsg2142
g0
(g46
g47
(lp2485
I0
atp2486
Rp2487
(dp2488
g25
I00
sg31
I01
sg32
I00
sbsg2143
g0
(g52
g2
Ntp2489
Rp2490
(dp2491
g25
I00
sg31
I01
sg32
I00
sg42
I16
sbsg2144
g0
(g52
g2
Ntp2492
Rp2493
(dp2494
g25
I00
sg31
I01
sg32
I00
sg42
I2
sbsg2145
g0
(g46
g47
(lp2495
F0.0
aF0.0
aF0.0
aF0.0
atp2496
Rp2497
(dp2498
g25
I00
sg31
I01
sg32
I00
sbsg2146
g0
(g46
g47
(lp2499
F0.05376
aF0.05376
aF0.05376
aF0.05376
atp2500
Rp2501
(dp2502
g25
I00
sg31
I01
sg32
I00
sbsg2147
g0
(g52
g2
Ntp2503
Rp2504
(dp2505
g25
I00
sg31
I01
sg32
I00
sg42
I206
sbsg2148
g0
(g52
g2
Ntp2506
Rp2507
(dp2508
g25
I00
sg31
I01
sg32
I00
sg42
I208
sbsg2149
g0
(g38
g2
Ntp2509
Rp2510
(dp2511
g25
I00
sg31
I01
sg32
I00
sg42
F40.0
sbsg2150
g0
(g46
g47
(lp2512
F0.01
aF0.015
atp2513
Rp2514
(dp2515
g25
I00
sg31
I01
sg32
I00
sbsg2151
g0
(g46
g47
(lp2516
F0.26
aF0.254
atp2517
Rp2518
(dp2519
g25
I00
sg31
I01
sg32
I00
sbsg2152
g0
(g38
g2
Ntp2520
Rp2521
(dp2522
g25
I00
sg31
I01
sg32
I00
sg42
F0.0
sbsg2153
g0
(g38
g2
Ntp2523
Rp2524
(dp2525
g25
I00
sg31
I01
sg32
I00
sg42
F0.1
sbsg2154
g0
(g73
g2
Ntp2526
Rp2527
(dp2528
g25
I00
sg31
I01
sg32
I00
sg42
I01
sbsg2387
g0
(g693
g2
Ntp2529
Rp2530
(dp2531
g25
I00
sg31
I01
sg32
I00
sg17
(lp2532
g2446
ag2447
ag2448
ag2449
ag2450
ag2451
asg26
Nsg2446
g0
(g38
g2
Ntp2533
Rp2534
(dp2535
g25
I00
sg31
I01
sg32
I00
sg42
I20
sbsg2447
g0
(g38
g2
Ntp2536
Rp2537
(dp2538
g25
I00
sg31
I01
sg32
I00
sg42
I5
sbsg2448
g0
(g38
g2
Ntp2539
Rp2540
(dp2541
g25
I00
sg31
I01
sg32
I00
sg42
I75
sbsg2449
g0
(g38
g2
Ntp2542
Rp2543
(dp2544
g25
I00
sg31
I01
sg32
I00
sg42
F0.0631
sbsg2450
g0
(g38
g2
Ntp2545
Rp2546
(dp2547
g25
I00
sg31
I01
sg32
I00
sg42
F29200000.0
sbsg2451
g0
(g46
g47
(lp2548
F5.543e-10
aF8.012e-10
atp2549
Rp2550
(dp2551
g25
I00
sg31
I01
sg32
I00
sbsbsbsg2048
g0
(g693
g2
Ntp2552
Rp2553
(dp2554
g25
I00
sg31
I01
sg32
I00
sg17
(lp2555
g2139
ag2140
ag2141
ag2142
ag2143
ag2144
ag2145
ag2146
ag2147
ag2148
ag2149
ag2150
ag2151
ag2152
ag2153
ag2154
asg26
Nsg2139
g0
(g38
g2
Ntp2556
Rp2557
(dp2558
g25
I00
sg31
I01
sg32
I00
sg42
F13.33
sbsg2140
g0
(g38
g2
Ntp2559
Rp2560
(dp2561
g25
I00
sg31
I01
sg32
I00
sg42
F3.33
sbsg2141
g0
(g46
g47
(lp2562
F0.14
aF0.135
atp2563
Rp2564
(dp2565
g25
I00
sg31
I01
sg32
I00
sbsg2142
g0
(g46
g47
(lp2566
F0.0
aF0.0
atp2567
Rp2568
(dp2569
g25
I00
sg31
I01
sg32
I00
sbsg2143
g0
(g52
g2
Ntp2570
Rp2571
(dp2572
g25
I00
sg31
I01
sg32
I00
sg42
I-9999
sbsg2144
g0
(g52
g2
Ntp2573
Rp2574
(dp2575
g25
I00
sg31
I01
sg32
I00
sg42
I1
sbsg2145
g0
(g46
g47
(lp2576
F0.0697
aF-0.7405
aF12.38
aF-671.9
atp2577
Rp2578
(dp2579
g25
I00
sg31
I01
sg32
I00
sbsg2146
g0
(g46
g47
(lp2580
F0.297
aF0.298
aF0.298
aF0.313
atp2581
Rp2582
(dp2583
g25
I00
sg31
I01
sg32
I00
sbsg2147
g0
(g52
g2
Ntp2584
Rp2585
(dp2586
g25
I00
sg31
I01
sg32
I00
sg42
I301
sbsg2148
g0
(g52
g2
Ntp2587
Rp2588
(dp2589
g25
I00
sg31
I01
sg32
I00
sg42
I301
sbsg2149
g0
(g38
g2
Ntp2590
Rp2591
(dp2592
g25
I00
sg31
I01
sg32
I00
sg42
F0.0
sbsg2150
g0
(g46
g47
(lp2593
F0.0
atp2594
Rp2595
(dp2596
g25
I00
sg31
I01
sg32
I00
sbsg2151
g0
(g46
g47
(lp2597
F0.0
atp2598
Rp2599
(dp2600
g25
I00
sg31
I01
sg32
I00
sbsg2152
g0
(g38
g2
Ntp2601
Rp2602
(dp2603
g25
I00
sg31
I01
sg32
I00
sg42
F0.0
sbsg2153
g0
(g38
g2
Ntp2604
Rp2605
(dp2606
g25
I00
sg31
I01
sg32
I00
sg42
F0.1
sbsg2154
g0
(g73
g2
Ntp2607
Rp2608
(dp2609
g25
I00
sg31
I01
sg32
I00
sg42
I00
sbsbsg2049
g0
(g691
g47
(lp2610
g0
(g693
g2
Ntp2611
Rp2612
(dp2613
g25
I00
sg31
I01
sg32
I00
sg17
(lp2614
Vpixels
p2615
aVcrosstalk
p2616
aVnonlin1
p2617
aVnonlin2
p2618
aVnonlin3
p2619
asg26
Nsg2615
g0
(g52
g2
Ntp2620
Rp2621
(dp2622
g25
I00
sg31
I01
sg32
I00
sg42
I36000
sbsg2616
g0
(g38
g2
Ntp2623
Rp2624
(dp2625
g25
I00
sg31
I01
sg32
I00
sg42
F0.0
sbsg2617
g0
(g38
g2
Ntp2626
Rp2627
(dp2628
g25
I00
sg31
I01
sg32
I00
sg42
F1.0
sbsg2618
g0
(g38
g2
Ntp2629
Rp2630
(dp2631
g25
I00
sg31
I01
sg32
I00
sg42
F0.0
sbsg2619
g0
(g38
g2
Ntp2632
Rp2633
(dp2634
g25
I00
sg31
I01
sg32
I00
sg42
F0.0
sbsbag0
(g693
g2
Ntp2635
Rp2636
(dp2637
g25
I00
sg31
I01
sg32
I00
sg17
(lp2638
g2615
ag2616
ag2617
ag2618
ag2619
asg26
Nsg2615
g0
(g52
g2
Ntp2639
Rp2640
(dp2641
g25
I00
sg31
I01
sg32
I00
sg42
I2500
sbsg2616
g0
(g38
g2
Ntp2642
Rp2643
(dp2644
g25
I00
sg31
I01
sg32
I00
sg42
F0.0
sbsg2617
g0
(g38
g2
Ntp2645
Rp2646
(dp2647
g25
I00
sg31
I01
sg32
I00
sg42
F1.0
sbsg2618
g0
(g38
g2
Ntp2648
Rp2649
(dp2650
g25
I00
sg31
I01
sg32
I00
sg42
F0.0
sbsg2619
g0
(g38
g2
Ntp2651
Rp2652
(dp2653
g25
I00
sg31
I01
sg32
I00
sg42
F0.0
sbsbag0
(g693
g2
Ntp2654
Rp2655
(dp2656
g25
I00
sg31
I01
sg32
I00
sg17
(lp2657
g2615
ag2616
ag2617
ag2618
ag2619
asg26
Nsg2615
g0
(g52
g2
Ntp2658
Rp2659
(dp2660
g25
I00
sg31
I01
sg32
I00
sg42
I27370
sbsg2616
g0
(g38
g2
Ntp2661
Rp2662
(dp2663
g25
I00
sg31
I01
sg32
I00
sg42
F0.17
sbsg2617
g0
(g38
g2
Ntp2664
Rp2665
(dp2666
g25
I00
sg31
I01
sg32
I00
sg42
F1.00985
sbsg2618
g0
(g38
g2
Ntp2667
Rp2668
(dp2669
g25
I00
sg31
I01
sg32
I00
sg42
F7.84089e-06
sbsg2619
g0
(g38
g2
Ntp2670
Rp2671
(dp2672
g25
I00
sg31
I01
sg32
I00
sg42
F2.86282e-10
sbsbag0
(g693
g2
Ntp2673
Rp2674
(dp2675
g25
I00
sg31
I01
sg32
I00
sg17
(lp2676
g2615
ag2616
ag2617
ag2618
ag2619
asg26
Nsg2615
g0
(g52
g2
Ntp2677
Rp2678
(dp2679
g25
I00
sg31
I01
sg32
I00
sg42
I38018
sbsg2616
g0
(g38
g2
Ntp2680
Rp2681
(dp2682
g25
I00
sg31
I01
sg32
I00
sg42
F0.196
sbsg2617
g0
(g38
g2
Ntp2683
Rp2684
(dp2685
g25
I00
sg31
I01
sg32
I00
sg42
F1.00546
sbsg2618
g0
(g38
g2
Ntp2686
Rp2687
(dp2688
g25
I00
sg31
I01
sg32
I00
sg42
F6.40239e-06
sbsg2619
g0
(g38
g2
Ntp2689
Rp2690
(dp2691
g25
I00
sg31
I01
sg32
I00
sg42
F1.27011e-10
sbsbag0
(g693
g2
Ntp2692
Rp2693
(dp2694
g25
I00
sg31
I01
sg32
I00
sg17
(lp2695
g2615
ag2616
ag2617
ag2618
ag2619
asg26
Nsg2615
g0
(g52
g2
Ntp2696
Rp2697
(dp2698
g25
I00
sg31
I01
sg32
I00
sg42
I27370
sbsg2616
g0
(g38
g2
Ntp2699
Rp2700
(dp2701
g25
I00
sg31
I01
sg32
I00
sg42
F0.17
sbsg2617
g0
(g38
g2
Ntp2702
Rp2703
(dp2704
g25
I00
sg31
I01
sg32
I00
sg42
F1.00985
sbsg2618
g0
(g38
g2
Ntp2705
Rp2706
(dp2707
g25
I00
sg31
I01
sg32
I00
sg42
F7.84089e-06
sbsg2619
g0
(g38
g2
Ntp2708
Rp2709
(dp2710
g25
I00
sg31
I01
sg32
I00
sg42
F2.86282e-10
sbsbag0
(g693
g2
Ntp2711
Rp2712
(dp2713
g25
I00
sg31
I01
sg32
I00
sg17
(lp2714
g2615
ag2616
ag2617
ag2618
ag2619
asg26
Nsg2615
g0
(g52
g2
Ntp2715
Rp2716
(dp2717
g25
I00
sg31
I01
sg32
I00
sg42
I38018
sbsg2616
g0
(g38
g2
Ntp2718
Rp2719
(dp2720
g25
I00
sg31
I01
sg32
I00
sg42
F0.196
sbsg2617
g0
(g38
g2
Ntp2721
Rp2722
(dp2723
g25
I00
sg31
I01
sg32
I00
sg42
F1.00546
sbsg2618
g0
(g38
g2
Ntp2724
Rp2725
(dp2726
g25
I00
sg31
I01
sg32
I00
sg42
F6.40239e-06
sbsg2619
g0
(g38
g2
Ntp2727
Rp2728
(dp2729
g25
I00
sg31
I01
sg32
I00
sg42
F1.27011e-10
sbsbag0
(g693
g2
Ntp2730
Rp2731
(dp2732
g25
I00
sg31
I01
sg32
I00
sg17
(lp2733
g2615
ag2616
ag2617
ag2618
ag2619
asg26
Nsg2615
g0
(g52
g2
Ntp2734
Rp2735
(dp2736
g25
I00
sg31
I01
sg32
I00
sg42
I0
sbsg2616
g0
(g38
g2
Ntp2737
Rp2738
(dp2739
g25
I00
sg31
I01
sg32
I00
sg42
F0.0
sbsg2617
g0
(g38
g2
Ntp2740
Rp2741
(dp2742
g25
I00
sg31
I01
sg32
I00
sg42
F1.0
sbsg2618
g0
(g38
g2
Ntp2743
Rp2744
(dp2745
g25
I00
sg31
I01
sg32
I00
sg42
F0.0
sbsg2619
g0
(g38
g2
Ntp2746
Rp2747
(dp2748
g25
I00
sg31
I01
sg32
I00
sg42
F0.0
sbsbatp2749
Rp2750
(dp2751
g25
I00
sg31
I01
sg32
I00
sg451
I1
sbsg59
V/cvmfs/cms.cern.ch/el8_amd64_gcc11/cms/cmssw-patch/CMSSW_13_2_5_patch1/src/CalibCalorimetry/HcalPlugins/python/Hcal_Conditions_forGlobalTag_cff.py
p2752
sg61
I16
sg62
g2017
sbssV_Process__esproducers
p2753
(dp2754
VCSCGeometryESModule
p2755
g0
(cFWCore.ParameterSet.Modules
ESProducer
p2756
g2
Ntp2757
Rp2758
(dp2759
g15
g2755
sg17
(lp2760
VfromDDD
p2761
aVfromDD4hep
p2762
aValignmentsLabel
p2763
ag1852
aVuseRealWireGeometry
p2764
aVuseOnlyWiresInME1a
p2765
aVuseGangedStripsInME1a
p2766
aVuseCentreTIOffsets
p2767
aVapplyAlignment
p2768
aVdebugV
p2769
asg25
I00
sg26
Nsg2761
g0
(g73
g2
Ntp2770
Rp2771
(dp2772
g25
I00
sg31
I01
sg32
I00
sg42
I00
sbsg32
I00
sg2762
g0
(g73
g2
Ntp2773
Rp2774
(dp2775
g25
I00
sg31
I01
sg32
I00
sg42
I00
sbsg2763
g0
(g121
g2
Ntp2776
Rp2777
(dp2778
g25
I00
sg31
I01
sg32
I00
sg42
g36
sbsg1852
g0
(g121
g2
Ntp2779
Rp2780
(dp2781
g25
I00
sg31
I01
sg32
I00
sg42
g36
sbsg2764
g0
(g73
g2
Ntp2782
Rp2783
(dp2784
g25
I00
sg31
I01
sg32
I00
sg42
I01
sbsg2765
g0
(g73
g2
Ntp2785
Rp2786
(dp2787
g25
I00
sg31
I01
sg32
I00
sg42
I00
sbsg2766
g0
(g73
g2
Ntp2788
Rp2789
(dp2790
g25
I00
sg31
I01
sg32
I00
sg42
I01
sbsg2767
g0
(g73
g2
Ntp2791
Rp2792
(dp2793
g25
I00
sg31
I01
sg32
I00
sg42
I00
sbsg2768
g0
(g73
g2
Ntp2794
Rp2795
(dp2796
g25
I00
sg31
I01
sg32
I00
sg42
I01
sbsg2769
g0
(g73
g2
Ntp2797
Rp2798
(dp2799
g25
I00
sg31
I00
sg32
I00
sg42
I00
sbsg59
g660
sg61
I55
sg62
g2755
sbsVCaloGeometryBuilder
p2800
g0
(g2756
g2
Ntp2801
Rp2802
(dp2803
g15
g2800
sg17
(lp2804
VSelectedCalos
p2805
asg25
I00
sg26
Nsg2805
g0
(g105
g47
(lp2806
VHCAL
p2807
aVZDC
p2808
aVCASTOR
p2809
aVEcalBarrel
p2810
aVEcalEndcap
p2811
aVEcalPreshower
p2812
aVTOWER
p2813
atp2814
Rp2815
(dp2816
g25
I00
sg31
I01
sg32
I00
sg451
I1
sbsg32
I00
sg59
g660
sg61
I55
sg62
g2800
sbsVCaloTopologyBuilder
p2817
g0
(g2756
g2
Ntp2818
Rp2819
(dp2820
g15
g2817
sg17
(lp2821
sg25
I00
sg26
Nsg32
I00
sg59
g660
sg61
I55
sg62
g2817
sbsVCaloTowerGeometryFromDBEP
p2822
g0
(g2756
g2
Ntp2823
Rp2824
(dp2825
g15
g2822
sg17
(lp2826
g2768
asg25
I00
sg26
Nsg2768
g0
(g73
g2
Ntp2827
Rp2828
(dp2829
g25
I00
sg31
I01
sg32
I00
sg42
I00
sbsg32
I00
sg59
g660
sg61
I55
sg62
g2822
sbsVCaloTowerTopologyEP
p2830
g0
(g2756
g2
Ntp2831
Rp2832
(dp2833
g15
g2830
sg17
(lp2834
sg25
I00
sg26
Nsg32
I00
sg59
g660
sg61
I55
sg62
g2830
sbsVCastorGeometryFromDBEP
p2835
g0
(g2756
g2
Ntp2836
Rp2837
(dp2838
g15
g2835
sg17
(lp2839
g2768
asg25
I00
sg26
Nsg2768
g0
(g73
g2
Ntp2840
Rp2841
(dp2842
g25
I00
sg31
I01
sg32
I00
sg42
I00
sbsg32
I00
sg59
g660
sg61
I55
sg62
g2835
sbsVDTGeometryESModule
p2843
g0
(g2756
g2
Ntp2844
Rp2845
(dp2846
g15
g2843
sg17
(lp2847
g2761
ag2762
aVDDDetector
p2848
ag2763
ag1852
aVattribute
p2849
aVvalue
p2850
ag2768
asg25
I00
sg26
Nsg2761
g0
(g73
g2
Ntp2851
Rp2852
(dp2853
g25
I00
sg31
I01
sg32
I01
sg42
I00
sbsg32
I01
sg2762
g0
(g73
g2
Ntp2854
Rp2855
(dp2856
g25
I00
sg31
I01
sg32
I00
sg42
I00
sbsg2848
g0
(cFWCore.ParameterSet.Types
ESInputTag
p2857
g2
Ntp2858
Rp2859
(dp2860
g25
I00
sg31
I01
sg32
I00
sV_ESInputTag__moduleLabel
p2861
g36
sV_ESInputTag__data
p2862
g36
sbsg2763
g0
(g121
g2
Ntp2863
Rp2864
(dp2865
g25
I00
sg31
I01
sg32
I00
sg42
g36
sbsg1852
g0
(g121
g2
Ntp2866
Rp2867
(dp2868
g25
I00
sg31
I01
sg32
I00
sg42
g36
sbsg2849
g0
(g121
g2
Ntp2869
Rp2870
(dp2871
g25
I00
sg31
I01
sg32
I00
sg42
VMuStructure
p2872
sbsg2850
g0
(g121
g2
Ntp2873
Rp2874
(dp2875
g25
I00
sg31
I01
sg32
I00
sg42
VMuonBarrelDT
p2876
sbsg2768
g0
(g73
g2
Ntp2877
Rp2878
(dp2879
g25
I00
sg31
I01
sg32
I00
sg42
I01
sbsg59
g660
sg61
I55
sg62
g2843
sbsVEcalBarrelGeometryFromDBEP
p2880
g0
(g2756
g2
Ntp2881
Rp2882
(dp2883
g15
g2880
sg17
(lp2884
g2768
asg25
I00
sg26
Nsg2768
g0
(g73
g2
Ntp2885
Rp2886
(dp2887
g25
I00
sg31
I01
sg32
I01
sg42
I01
sbsg32
I01
sg59
g660
sg61
I55
sg62
g2880
sbsVEcalElectronicsMappingBuilder
p2888
g0
(g2756
g2
Ntp2889
Rp2890
(dp2891
g15
g2888
sg17
(lp2892
sg25
I00
sg26
Nsg32
I00
sg59
g660
sg61
I55
sg62
g2888
sbsVEcalEndcapGeometryFromDBEP
p2893
g0
(g2756
g2
Ntp2894
Rp2895
(dp2896
g15
g2893
sg17
(lp2897
g2768
asg25
I00
sg26
Nsg2768
g0
(g73
g2
Ntp2898
Rp2899
(dp2900
g25
I00
sg31
I01
sg32
I01
sg42
I01
sbsg32
I01
sg59
g660
sg61
I55
sg62
g2893
sbsVEcalPreshowerGeometryFromDBEP
p2901
g0
(g2756
g2
Ntp2902
Rp2903
(dp2904
g15
g2901
sg17
(lp2905
g2768
asg25
I00
sg26
Nsg2768
g0
(g73
g2
Ntp2906
Rp2907
(dp2908
g25
I00
sg31
I01
sg32
I01
sg42
I01
sbsg32
I01
sg59
g660
sg61
I55
sg62
g2901
sbsVEcalTrigTowerConstituentsMapBuilder
p2909
g0
(g2756
g2
Ntp2910
Rp2911
(dp2912
g15
g2909
sg17
(lp2913
VMapFile
p2914
asg25
I00
sg26
Nsg2914
g0
(g121
g2
Ntp2915
Rp2916
(dp2917
g25
I00
sg31
I00
sg32
I00
sg42
VGeometry/EcalMapping/data/EndCap_TTMap.txt
p2918
sbsg32
I00
sg59
g660
sg61
I55
sg62
g2909
sbsVGlobalTrackingGeometryESProducer
p2919
g0
(g2756
g2
Ntp2920
Rp2921
(dp2922
g15
g2919
sg17
(lp2923
sg25
I00
sg26
Nsg32
I00
sg59
g660
sg61
I55
sg62
g2919
sbsVHcalAlignmentEP
p2924
g0
(g2756
g2
Ntp2925
Rp2926
(dp2927
g15
g2924
sg17
(lp2928
sg25
I00
sg26
Nsg32
I00
sg59
g660
sg61
I55
sg62
g2924
sbsVHcalGeometryFromDBEP
p2929
g0
(g2756
g2
Ntp2930
Rp2931
(dp2932
g15
g2929
sg17
(lp2933
g2768
asg25
I00
sg26
Nsg2768
g0
(g73
g2
Ntp2934
Rp2935
(dp2936
g25
I00
sg31
I01
sg32
I01
sg42
I01
sbsg32
I01
sg59
g660
sg61
I55
sg62
g2929
sbsVMuonDetLayerGeometryESProducer
p2937
g0
(g2756
g2
Ntp2938
Rp2939
(dp2940
g15
g2937
sg17
(lp2941
sg25
I00
sg26
Nsg32
I00
sg59
g660
sg61
I55
sg62
g2937
sbsVRPCGeometryESModule
p2942
g0
(g2756
g2
Ntp2943
Rp2944
(dp2945
g15
g2942
sg17
(lp2946
g2761
ag2762
asg25
I00
sg26
Nsg2761
g0
(g73
g2
Ntp2947
Rp2948
(dp2949
g25
I00
sg31
I00
sg32
I00
sg42
I00
sbsg32
I00
sg2762
g0
(g73
g2
Ntp2950
Rp2951
(dp2952
g25
I00
sg31
I00
sg32
I00
sg42
I00
sbsg59
g660
sg61
I55
sg62
g2942
sbsVTrackerRecoGeometryESProducer
p2953
g0
(g2756
g2
Ntp2954
Rp2955
(dp2956
g15
g2953
sg17
(lp2957
VusePhase2Stacks
p2958
asg25
I00
sg26
Nsg2958
g0
(g73
g2
Ntp2959
Rp2960
(dp2961
g25
I00
sg31
I01
sg32
I00
sg42
I00
sbsg32
I00
sg59
g660
sg61
I55
sg62
g2953
sbsVZdcGeometryFromDBEP
p2962
g0
(g2756
g2
Ntp2963
Rp2964
(dp2965
g15
g2962
sg17
(lp2966
g2768
asg25
I00
sg26
Nsg2768
g0
(g73
g2
Ntp2967
Rp2968
(dp2969
g25
I00
sg31
I01
sg32
I00
sg42
I00
sbsg32
I00
sg59
g660
sg61
I55
sg62
g2962
sbsVfakeForIdealAlignment
p2970
g0
(g2756
g2
Ntp2971
Rp2972
(dp2973
g15
VFakeAlignmentProducer
p2974
sg17
(lp2975
g1852
asg25
I00
sg26
Nsg1852
g0
(g121
g2
Ntp2976
Rp2977
(dp2978
g25
I00
sg31
I01
sg32
I01
sg42
VfakeForIdeal
p2979
sbsg32
I01
sg59
V/cvmfs/cms.cern.ch/el8_amd64_gcc11/cms/cmssw-patch/CMSSW_13_2_5_patch1/src/Alignment/CommonAlignmentProducer/python/fakeForIdealAlignmentProducer_cfi.py
p2980
sg61
I5
sg62
g2970
sbsVhcalDDDRecConstants
p2981
g0
(g2756
g2
Ntp2982
Rp2983
(dp2984
g15
VHcalDDDRecConstantsESModule
p2985
sg17
(lp2986
g1852
asg25
I00
sg26
Nsg1852
g0
(g121
g2
Ntp2987
Rp2988
(dp2989
g25
I00
sg31
I01
sg32
I00
sg42
g36
sbsg32
I00
sg59
g660
sg61
I55
sg62
g2981
sbsVhcalDDDSimConstants
p2990
g0
(g2756
g2
Ntp2991
Rp2992
(dp2993
g15
VHcalDDDSimConstantsESModule
p2994
sg17
(lp2995
g1852
asg25
I00
sg26
Nsg1852
g0
(g121
g2
Ntp2996
Rp2997
(dp2998
g25
I00
sg31
I01
sg32
I00
sg42
g36
sbsg32
I00
sg59
g660
sg61
I55
sg62
g2990
sbsVhcalTopologyIdeal
p2999
g0
(g2756
g2
Ntp3000
Rp3001
(dp3002
g15
VHcalTopologyIdealEP
p3003
sg17
(lp3004
VExclude
p3005
aVMergePosition
p3006
ag1852
asg25
I00
sg26
Nsg3005
g0
(g121
g2
Ntp3007
Rp3008
(dp3009
g25
I00
sg31
I00
sg32
I00
sg42
g36
sbsg32
I00
sg3006
g0
(g73
g2
Ntp3010
Rp3011
(dp3012
g25
I00
sg31
I00
sg32
I00
sg42
I00
sbsg1852
g0
(g121
g2
Ntp3013
Rp3014
(dp3015
g25
I00
sg31
I01
sg32
I00
sg42
g36
sbsg59
g660
sg61
I55
sg62
g2999
sbsVidealForDigiCSCGeometry
p3016
g0
(g2756
g2
Ntp3017
Rp3018
(dp3019
g15
g2755
sg17
(lp3020
g2761
ag2762
ag2763
ag1852
ag2764
ag2765
ag2766
ag2767
ag2768
ag2769
asg25
I00
sg26
Nsg2761
g0
(g73
g2
Ntp3021
Rp3022
(dp3023
g25
I00
sg31
I01
sg32
I00
sg42
I00
sbsg32
I01
sg2762
g0
(g73
g2
Ntp3024
Rp3025
(dp3026
g25
I00
sg31
I01
sg32
I00
sg42
I00
sbsg2763
g0
(g121
g2
Ntp3027
Rp3028
(dp3029
g25
I00
sg31
I01
sg32
I01
sg42
g2979
sbsg1852
g0
(g121
g2
Ntp3030
Rp3031
(dp3032
g25
I00
sg31
I01
sg32
I01
sg42
VidealForDigi
p3033
sbsg2764
g0
(g73
g2
Ntp3034
Rp3035
(dp3036
g25
I00
sg31
I01
sg32
I00
sg42
I01
sbsg2765
g0
(g73
g2
Ntp3037
Rp3038
(dp3039
g25
I00
sg31
I01
sg32
I00
sg42
I00
sbsg2766
g0
(g73
g2
Ntp3040
Rp3041
(dp3042
g25
I00
sg31
I01
sg32
I00
sg42
I01
sbsg2767
g0
(g73
g2
Ntp3043
Rp3044
(dp3045
g25
I00
sg31
I01
sg32
I00
sg42
I00
sbsg2768
g0
(g73
g2
Ntp3046
Rp3047
(dp3048
g25
I00
sg31
I01
sg32
I01
sg42
I00
sbsg2769
g0
(g73
g2
Ntp3049
Rp3050
(dp3051
g25
I00
sg31
I00
sg32
I00
sg42
I00
sbsg59
V/cvmfs/cms.cern.ch/el8_amd64_gcc11/cms/cmssw-patch/CMSSW_13_2_5_patch1/src/Geometry/CSCGeometryBuilder/python/idealForDigiCscGeometryDB_cff.py
p3052
sg61
I8
sg62
g3016
sbsVidealForDigiDTGeometry
p3053
g0
(g2756
g2
Ntp3054
Rp3055
(dp3056
g15
g2843
sg17
(lp3057
g2761
ag2762
ag2848
ag2763
ag1852
ag2849
ag2850
ag2768
asg25
I00
sg26
Nsg2761
g0
(g73
g2
Ntp3058
Rp3059
(dp3060
g25
I00
sg31
I01
sg32
I01
sg42
I00
sbsg32
I01
sg2762
g0
(g73
g2
Ntp3061
Rp3062
(dp3063
g25
I00
sg31
I01
sg32
I00
sg42
I00
sbsg2848
g0
(g2857
g2
Ntp3064
Rp3065
(dp3066
g25
I00
sg31
I01
sg32
I00
sg2861
g36
sg2862
g36
sbsg2763
g0
(g121
g2
Ntp3067
Rp3068
(dp3069
g25
I00
sg31
I01
sg32
I01
sg42
g2979
sbsg1852
g0
(g121
g2
Ntp3070
Rp3071
(dp3072
g25
I00
sg31
I01
sg32
I01
sg42
g3033
sbsg2849
g0
(g121
g2
Ntp3073
Rp3074
(dp3075
g25
I00
sg31
I01
sg32
I00
sg42
g2872
sbsg2850
g0
(g121
g2
Ntp3076
Rp3077
(dp3078
g25
I00
sg31
I01
sg32
I00
sg42
g2876
sbsg2768
g0
(g73
g2
Ntp3079
Rp3080
(dp3081
g25
I00
sg31
I01
sg32
I01
sg42
I00
sbsg59
V/cvmfs/cms.cern.ch/el8_amd64_gcc11/cms/cmssw-patch/CMSSW_13_2_5_patch1/src/Geometry/DTGeometryBuilder/python/idealForDigiDtGeometryDB_cff.py
p3082
sg61
I8
sg62
g3053
sbsVidealForDigiTrackerGeometry
p3083
g0
(g2756
g2
Ntp3084
Rp3085
(dp3086
g15
VTrackerDigiGeometryESModule
p3087
sg17
(lp3088
g1852
ag2761
ag2768
ag2763
asg25
I00
sg26
Nsg1852
g0
(g121
g2
Ntp3089
Rp3090
(dp3091
g25
I00
sg31
I01
sg32
I01
sg42
g3033
sbsg32
I01
sg2761
g0
(g73
g2
Ntp3092
Rp3093
(dp3094
g25
I00
sg31
I01
sg32
I00
sg42
I00
sbsg2768
g0
(g73
g2
Ntp3095
Rp3096
(dp3097
g25
I00
sg31
I01
sg32
I01
sg42
I00
sbsg2763
g0
(g121
g2
Ntp3098
Rp3099
(dp3100
g25
I00
sg31
I01
sg32
I01
sg42
g2979
sbsg59
V/cvmfs/cms.cern.ch/el8_amd64_gcc11/cms/cmssw-patch/CMSSW_13_2_5_patch1/src/Geometry/TrackerGeometryBuilder/python/idealForDigiTrackerGeometryDB_cff.py
p3101
sg61
I8
sg62
g3083
sbsVmuonGeometryConstants
p3102
g0
(g2756
g2
Ntp3103
Rp3104
(dp3105
g15
VMuonGeometryConstantsESModule
p3106
sg17
(lp3107
g2762
ag1852
asg25
I00
sg26
Nsg2762
g0
(g73
g2
Ntp3108
Rp3109
(dp3110
g25
I00
sg31
I01
sg32
I00
sg42
I00
sbsg32
I00
sg1852
g0
(g121
g2
Ntp3111
Rp3112
(dp3113
g25
I00
sg31
I01
sg32
I00
sg42
g36
sbsg59
g660
sg61
I55
sg62
g3102
sbsVtrackerGeometryDB
p3114
g0
(g2756
g2
Ntp3115
Rp3116
(dp3117
g15
g3087
sg17
(lp3118
g1852
ag2761
ag2768
ag2763
asg25
I00
sg26
Nsg1852
g0
(g121
g2
Ntp3119
Rp3120
(dp3121
g25
I00
sg31
I01
sg32
I00
sg42
g36
sbsg32
I00
sg2761
g0
(g73
g2
Ntp3122
Rp3123
(dp3124
g25
I00
sg31
I01
sg32
I00
sg42
I00
sbsg2768
g0
(g73
g2
Ntp3125
Rp3126
(dp3127
g25
I00
sg31
I01
sg32
I00
sg42
I01
sbsg2763
g0
(g121
g2
Ntp3128
Rp3129
(dp3130
g25
I00
sg31
I01
sg32
I00
sg42
g36
sbsg59
g660
sg61
I55
sg62
g3114
sbsVtrackerNumberingGeometryDB
p3131
g0
(g2756
g2
Ntp3132
Rp3133
(dp3134
g15
VTrackerGeometricDetESModule
p3135
sg17
(lp3136
g2761
ag2762
ag1852
asg25
I00
sg26
Nsg2761
g0
(g73
g2
Ntp3137
Rp3138
(dp3139
g25
I00
sg31
I01
sg32
I00
sg42
I00
sbsg32
I00
sg2762
g0
(g73
g2
Ntp3140
Rp3141
(dp3142
g25
I00
sg31
I01
sg32
I00
sg42
I00
sbsg1852
g0
(g121
g2
Ntp3143
Rp3144
(dp3145
g25
I00
sg31
I01
sg32
I00
sg42
g36
sbsg59
g660
sg61
I55
sg62
g3131
sbsVtrackerTopology
p3146
g0
(g2756
g2
Ntp3147
Rp3148
(dp3149
g15
VTrackerTopologyEP
p3150
sg17
(lp3151
g1852
asg25
I00
sg26
Nsg1852
g0
(g121
g2
Ntp3152
Rp3153
(dp3154
g25
I00
sg31
I01
sg32
I00
sg42
g36
sbsg32
I00
sg59
g660
sg61
I55
sg62
g3146
sbsVMuonNumberingInitialization
p3155
g0
(g2756
g2
Ntp3156
Rp3157
(dp3158
g15
g3155
sg17
(lp3159
sg25
I00
sg26
Nsg32
I00
sg59
g660
sg61
I55
sg62
g3155
sbsVXMLFromDBSource
p3160
g0
(g2756
g2
Ntp3161
Rp3162
(dp3163
g15
VXMLIdealGeometryESProducer
p3164
sg17
(lp3165
VrootDDName
p3166
ag1806
asg25
I00
sg26
Nsg3166
g0
(g121
g2
Ntp3167
Rp3168
(dp3169
g25
I00
sg31
I01
sg32
I00
sg42
Vcms:OCMS
p3170
sbsg32
I00
sg1806
g0
(g121
g2
Ntp3171
Rp3172
(dp3173
g25
I00
sg31
I01
sg32
I00
sg42
VExtended
p3174
sbsg59
g660
sg61
I55
sg62
g3160
sbsVcaloSimulationParameters
p3175
g0
(g2756
g2
Ntp3176
Rp3177
(dp3178
g15
VCaloSimParametersESModule
p3179
sg17
(lp3180
g2762
ag1852
asg25
I00
sg26
Nsg2762
g0
(g73
g2
Ntp3181
Rp3182
(dp3183
g25
I00
sg31
I01
sg32
I00
sg42
I00
sbsg32
I00
sg1852
g0
(g121
g2
Ntp3184
Rp3185
(dp3186
g25
I00
sg31
I01
sg32
I00
sg42
g36
sbsg59
g660
sg61
I55
sg62
g3175
sbsVecalSimulationParametersEB
p3187
g0
(g2756
g2
Ntp3188
Rp3189
(dp3190
g15
VEcalSimParametersESModule
p3191
sg17
(lp3192
g2762
aVname
p3193
ag1852
asg25
I00
sg26
Nsg2762
g0
(g73
g2
Ntp3194
Rp3195
(dp3196
g25
I00
sg31
I01
sg32
I00
sg42
I00
sbsg32
I00
sg3193
g0
(g121
g2
Ntp3197
Rp3198
(dp3199
g25
I00
sg31
I01
sg32
I00
sg42
VEcalHitsEB
p3200
sbsg1852
g0
(g121
g2
Ntp3201
Rp3202
(dp3203
g25
I00
sg31
I01
sg32
I00
sg42
g36
sbsg59
g660
sg61
I55
sg62
g3187
sbsVecalSimulationParametersEE
p3204
g0
(g2756
g2
Ntp3205
Rp3206
(dp3207
g15
g3191
sg17
(lp3208
g2762
ag3193
ag1852
asg25
I00
sg26
Nsg2762
g0
(g73
g2
Ntp3209
Rp3210
(dp3211
g25
I00
sg31
I01
sg32
I00
sg42
I00
sbsg32
I00
sg3193
g0
(g121
g2
Ntp3212
Rp3213
(dp3214
g25
I00
sg31
I01
sg32
I01
sg42
VEcalHitsEE
p3215
sbsg1852
g0
(g121
g2
Ntp3216
Rp3217
(dp3218
g25
I00
sg31
I01
sg32
I00
sg42
g36
sbsg59
V/cvmfs/cms.cern.ch/el8_amd64_gcc11/cms/cmssw-patch/CMSSW_13_2_5_patch1/src/Geometry/EcalCommonData/python/ecalSimulationParameters_cff.py
p3219
sg61
I11
sg62
g3204
sbsVecalSimulationParametersES
p3220
g0
(g2756
g2
Ntp3221
Rp3222
(dp3223
g15
g3191
sg17
(lp3224
g2762
ag3193
ag1852
asg25
I00
sg26
Nsg2762
g0
(g73
g2
Ntp3225
Rp3226
(dp3227
g25
I00
sg31
I01
sg32
I00
sg42
I00
sbsg32
I00
sg3193
g0
(g121
g2
Ntp3228
Rp3229
(dp3230
g25
I00
sg31
I01
sg32
I01
sg42
VEcalHitsES
p3231
sbsg1852
g0
(g121
g2
Ntp3232
Rp3233
(dp3234
g25
I00
sg31
I01
sg32
I00
sg42
g36
sbsg59
g3219
sg61
I14
sg62
g3220
sbsVhcalSimulationConstants
p3235
g0
(g2756
g2
Ntp3236
Rp3237
(dp3238
g15
VHcalSimulationConstantsESModule
p3239
sg17
(lp3240
g1852
asg25
I00
sg26
Nsg1852
g0
(g121
g2
Ntp3241
Rp3242
(dp3243
g25
I00
sg31
I01
sg32
I00
sg42
g36
sbsg32
I00
sg59
g660
sg61
I55
sg62
g3235
sbsVhcalSimulationParameters
p3244
g0
(g2756
g2
Ntp3245
Rp3246
(dp3247
g15
VHcalSimParametersESModule
p3248
sg17
(lp3249
g2762
ag1852
asg25
I00
sg26
Nsg2762
g0
(g73
g2
Ntp3250
Rp3251
(dp3252
g25
I00
sg31
I01
sg32
I00
sg42
I00
sbsg32
I00
sg1852
g0
(g121
g2
Ntp3253
Rp3254
(dp3255
g25
I00
sg31
I01
sg32
I00
sg42
g36
sbsg59
g660
sg61
I55
sg62
g3244
sbsVmuonOffsetESProducer
p3256
g0
(g2756
g2
Ntp3257
Rp3258
(dp3259
g15
VMuonOffsetESProducer
p3260
sg17
(lp3261
g2762
aVnames
p3262
ag1852
asg25
I00
sg26
Nsg2762
g0
(g73
g2
Ntp3263
Rp3264
(dp3265
g25
I00
sg31
I01
sg32
I00
sg42
I00
sbsg32
I00
sg3262
g0
(g105
g47
(lp3266
VMuonCommonNumbering
p3267
aVMuonBarrel
p3268
aVMuonEndcap
p3269
aVMuonBarrelWheels
p3270
aVMuonBarrelStation1
p3271
aVMuonBarrelStation2
p3272
aVMuonBarrelStation3
p3273
aVMuonBarrelStation4
p3274
aVMuonBarrelSuperLayer
p3275
aVMuonBarrelLayer
p3276
aVMuonBarrelWire
p3277
aVMuonRpcPlane1I
p3278
aVMuonRpcPlane1O
p3279
aVMuonRpcPlane2I
p3280
aVMuonRpcPlane2O
p3281
aVMuonRpcPlane3S
p3282
aVMuonRpcPlane4
p3283
aVMuonRpcChamberLeft
p3284
aVMuonRpcChamberMiddle
p3285
aVMuonRpcChamberRight
p3286
aVMuonRpcEndcap1
p3287
aVMuonRpcEndcap2
p3288
aVMuonRpcEndcap3
p3289
aVMuonRpcEndcap4
p3290
aVMuonRpcEndcapSector
p3291
aVMuonRpcEndcapChamberB1
p3292
aVMuonRpcEndcapChamberB2
p3293
aVMuonRpcEndcapChamberB3
p3294
aVMuonRpcEndcapChamberC1
p3295
aVMuonRpcEndcapChamberC2
p3296
aVMuonRpcEndcapChamberC3
p3297
aVMuonRpcEndcapChamberE1
p3298
aVMuonRpcEndcapChamberE2
p3299
aVMuonRpcEndcapChamberE3
p3300
aVMuonRpcEndcapChamberF1
p3301
aVMuonRpcEndcapChamberF2
p3302
aVMuonRpcEndcapChamberF3
p3303
aVMuonEndcapStation1
p3304
aVMuonEndcapStation2
p3305
aVMuonEndcapStation3
p3306
aVMuonEndcapStation4
p3307
aVMuonEndcapSubrings
p3308
aVMuonEndcapSectors
p3309
aVMuonEndcapLayers
p3310
aVMuonEndcapRing1
p3311
aVMuonEndcapRing2
p3312
aVMuonEndcapRing3
p3313
aVMuonEndcapRingA
p3314
aVMuonGEMEndcap
p3315
aVMuonGEMSector
p3316
aVMuonGEMChamber
p3317
atp3318
Rp3319
(dp3320
g25
I00
sg31
I01
sg32
I00
sg451
I1
sbsg1852
g0
(g121
g2
Ntp3321
Rp3322
(dp3323
g25
I00
sg31
I01
sg32
I00
sg42
g36
sbsg59
g660
sg61
I55
sg62
g3256
sbsVParabolicParametrizedMagneticFieldProducer
p3324
g0
(g2756
g2
Ntp3325
Rp3326
(dp3327
g15
VAutoParametrizedMagneticFieldProducer
p3328
sg17
(lp3329
Vversion
p3330
ag1806
aVvalueOverride
p3331
asg25
I00
sg26
Nsg3330
g0
(g121
g2
Ntp3332
Rp3333
(dp3334
g25
I00
sg31
I01
sg32
I00
sg42
VParabolic
p3335
sbsg32
I01
sg1806
g0
(g121
g2
Ntp3336
Rp3337
(dp3338
g25
I00
sg31
I00
sg32
I01
sg42
VParabolicMf
p3339
sbsg3331
g0
(g52
g2
Ntp3340
Rp3341
(dp3342
g25
I00
sg31
I01
sg32
I01
sg42
I18268
sbsg59
g660
sg61
I55
sg62
g3324
sbsVVolumeBasedMagneticFieldESProducer
p3343
g0
(g2756
g2
Ntp3344
Rp3345
(dp3346
g15
VVolumeBasedMagneticFieldESProducerFromDB
p3347
sg17
(lp3348
g1806
aVdebugBuilder
p3349
ag3331
asg25
I00
sg26
Nsg1806
g0
(g121
g2
Ntp3350
Rp3351
(dp3352
g25
I00
sg31
I00
sg32
I00
sg42
g36
sbsg32
I01
sg3349
g0
(g73
g2
Ntp3353
Rp3354
(dp3355
g25
I00
sg31
I00
sg32
I00
sg42
I00
sbsg3331
g0
(g52
g2
Ntp3356
Rp3357
(dp3358
g25
I00
sg31
I01
sg32
I01
sg42
I18268
sbsg59
g660
sg61
I55
sg62
g3343
sbsVCastorDbProducer
p3359
g0
(g2756
g2
Ntp3360
Rp3361
(dp3362
g15
g3359
sg17
(lp3363
g1852
asg25
I00
sg26
Nsg1852
g0
(g121
g2
Ntp3364
Rp3365
(dp3366
g25
I00
sg31
I01
sg32
I00
sg42
g36
sbsg32
I00
sg59
g660
sg61
I55
sg62
g3359
sbsVEcalLaserCorrectionService
p3367
g0
(g2756
g2
Ntp3368
Rp3369
(dp3370
g15
g3367
sg17
(lp3371
VmaxExtrapolationTimeInSec
p3372
asg25
I00
sg26
Nsg3372
g0
(g581
g2
Ntp3373
Rp3374
(dp3375
g25
I00
sg31
I01
sg32
I00
sg42
I0
sbsg32
I00
sg59
g660
sg61
I55
sg62
g3367
sbsVEcalLaserCorrectionServiceMC
p3376
g0
(g2756
g2
Ntp3377
Rp3378
(dp3379
g15
g3376
sg17
(lp3380
g1852
asg25
I00
sg26
Nsg1852
g0
(g121
g2
Ntp3381
Rp3382
(dp3383
g25
I00
sg31
I01
sg32
I00
sg42
g36
sbsg32
I00
sg59
g660
sg61
I55
sg62
g3376
sbsVSiStripRecHitMatcherESProducer
p3384
g0
(g2756
g2
Ntp3385
Rp3386
(dp3387
g15
g3384
sg17
(lp3388
VComponentName
p3389
aVNSigmaInside
p3390
aVPreFilter
p3391
asg25
I00
sg26
Nsg3389
g0
(g121
g2
Ntp3392
Rp3393
(dp3394
g25
I00
sg31
I01
sg32
I00
sg42
VStandardMatcher
p3395
sbsg32
I00
sg3390
g0
(g38
g2
Ntp3396
Rp3397
(dp3398
g25
I00
sg31
I01
sg32
I00
sg42
F3.0
sbsg3391
g0
(g73
g2
Ntp3399
Rp3400
(dp3401
g25
I00
sg31
I01
sg32
I00
sg42
I00
sbsg59
g660
sg61
I55
sg62
g3384
sbsVStripCPEfromTrackAngleESProducer
p3402
g0
(g2756
g2
Ntp3403
Rp3404
(dp3405
g15
VStripCPEESProducer
p3406
sg17
(lp3407
g3389
aVComponentType
p3408
aVparameters
p3409
asg25
I00
sg26
Nsg3389
g0
(g121
g2
Ntp3410
Rp3411
(dp3412
g25
I00
sg31
I01
sg32
I01
sg42
VStripCPEfromTrackAngle
p3413
sbsg32
I00
sg3408
g0
(g121
g2
Ntp3414
Rp3415
(dp3416
g25
I00
sg31
I01
sg32
I01
sg42
g3413
sbsg3409
g0
(g693
g2
Ntp3417
Rp3418
(dp3419
g25
I00
sg31
I01
sg32
I00
sg17
(lp3420
VmLC_P0
p3421
aVmLC_P1
p3422
aVmLC_P2
p3423
aVmTIB_P0
p3424
aVmTIB_P1
p3425
aVmTOB_P0
p3426
aVmTOB_P1
p3427
aVmTID_P0
p3428
aVmTID_P1
p3429
aVmTEC_P0
p3430
aVmTEC_P1
p3431
aVuseLegacyError
p3432
aVmaxChgOneMIP
p3433
asg26
Nsg3421
g0
(g38
g2
Ntp3434
Rp3435
(dp3436
g25
I00
sg31
I01
sg32
I00
sg42
F-0.326
sbsg3422
g0
(g38
g2
Ntp3437
Rp3438
(dp3439
g25
I00
sg31
I01
sg32
I00
sg42
F0.618
sbsg3423
g0
(g38
g2
Ntp3440
Rp3441
(dp3442
g25
I00
sg31
I01
sg32
I00
sg42
F0.3
sbsg3424
g0
(g38
g2
Ntp3443
Rp3444
(dp3445
g25
I00
sg31
I01
sg32
I00
sg42
F-0.742
sbsg3425
g0
(g38
g2
Ntp3446
Rp3447
(dp3448
g25
I00
sg31
I01
sg32
I00
sg42
F0.202
sbsg3426
g0
(g38
g2
Ntp3449
Rp3450
(dp3451
g25
I00
sg31
I01
sg32
I00
sg42
F-1.026
sbsg3427
g0
(g38
g2
Ntp3452
Rp3453
(dp3454
g25
I00
sg31
I01
sg32
I00
sg42
F0.253
sbsg3428
g0
(g38
g2
Ntp3455
Rp3456
(dp3457
g25
I00
sg31
I01
sg32
I00
sg42
F-1.427
sbsg3429
g0
(g38
g2
Ntp3458
Rp3459
(dp3460
g25
I00
sg31
I01
sg32
I00
sg42
F0.433
sbsg3430
g0
(g38
g2
Ntp3461
Rp3462
(dp3463
g25
I00
sg31
I01
sg32
I00
sg42
F-1.885
sbsg3431
g0
(g38
g2
Ntp3464
Rp3465
(dp3466
g25
I00
sg31
I01
sg32
I00
sg42
F0.471
sbsg3432
g0
(g73
g2
Ntp3467
Rp3468
(dp3469
g25
I00
sg31
I01
sg32
I00
sg42
I00
sbsg3433
g0
(g38
g2
Ntp3470
Rp3471
(dp3472
g25
I00
sg31
I01
sg32
I00
sg42
F6000.0
sbsbsg59
V/cvmfs/cms.cern.ch/el8_amd64_gcc11/cms/cmssw-patch/CMSSW_13_2_5_patch1/src/RecoLocalTracker/SiStripRecHitConverter/python/StripCPEfromTrackAngle_cfi.py
p3473
sg61
I4
sg62
g3402
sbsVctppsBeamParametersFromLHCInfoESSource
p3474
g0
(g2756
g2
Ntp3475
Rp3476
(dp3477
g15
VCTPPSBeamParametersFromLHCInfoESSource
p3478
sg17
(lp3479
VlhcInfoLabel
p3480
aVbeamDivX45
p3481
aVbeamDivY45
p3482
aVbeamDivX56
p3483
aVbeamDivY56
p3484
aVvtxOffsetX45
p3485
aVvtxOffsetY45
p3486
aVvtxOffsetZ45
p3487
aVvtxOffsetX56
p3488
aVvtxOffsetY56
p3489
aVvtxOffsetZ56
p3490
aVvtxStddevX
p3491
aVvtxStddevY
p3492
aVvtxStddevZ
p3493
ag1852
asg25
I00
sg26
Nsg3480
g0
(g121
g2
Ntp3494
Rp3495
(dp3496
g25
I00
sg31
I01
sg32
I00
sg42
g36
sbsg32
I00
sg3481
g0
(g38
g2
Ntp3497
Rp3498
(dp3499
g25
I00
sg31
I01
sg32
I00
sg42
F0.1
sbsg3482
g0
(g38
g2
Ntp3500
Rp3501
(dp3502
g25
I00
sg31
I01
sg32
I00
sg42
F0.1
sbsg3483
g0
(g38
g2
Ntp3503
Rp3504
(dp3505
g25
I00
sg31
I01
sg32
I00
sg42
F0.1
sbsg3484
g0
(g38
g2
Ntp3506
Rp3507
(dp3508
g25
I00
sg31
I01
sg32
I00
sg42
F0.1
sbsg3485
g0
(g38
g2
Ntp3509
Rp3510
(dp3511
g25
I00
sg31
I01
sg32
I00
sg42
F0.01
sbsg3486
g0
(g38
g2
Ntp3512
Rp3513
(dp3514
g25
I00
sg31
I01
sg32
I00
sg42
F0.01
sbsg3487
g0
(g38
g2
Ntp3515
Rp3516
(dp3517
g25
I00
sg31
I01
sg32
I00
sg42
F0.01
sbsg3488
g0
(g38
g2
Ntp3518
Rp3519
(dp3520
g25
I00
sg31
I01
sg32
I00
sg42
F0.01
sbsg3489
g0
(g38
g2
Ntp3521
Rp3522
(dp3523
g25
I00
sg31
I01
sg32
I00
sg42
F0.01
sbsg3490
g0
(g38
g2
Ntp3524
Rp3525
(dp3526
g25
I00
sg31
I01
sg32
I00
sg42
F0.01
sbsg3491
g0
(g38
g2
Ntp3527
Rp3528
(dp3529
g25
I00
sg31
I01
sg32
I00
sg42
F0.02
sbsg3492
g0
(g38
g2
Ntp3530
Rp3531
(dp3532
g25
I00
sg31
I01
sg32
I00
sg42
F0.02
sbsg3493
g0
(g38
g2
Ntp3533
Rp3534
(dp3535
g25
I00
sg31
I01
sg32
I00
sg42
F0.02
sbsg1852
g0
(g121
g2
Ntp3536
Rp3537
(dp3538
g25
I00
sg31
I01
sg32
I00
sg42
g36
sbsg59
g660
sg61
I55
sg62
g3474
sbsVctppsInterpolatedOpticalFunctionsESSource
p3539
g0
(g2756
g2
Ntp3540
Rp3541
(dp3542
g15
VCTPPSInterpolatedOpticalFunctionsESSource
p3543
sg17
(lp3544
g3480
aVopticsLabel
p3545
ag1852
asg25
I00
sg26
Nsg3480
g0
(g121
g2
Ntp3546
Rp3547
(dp3548
g25
I00
sg31
I01
sg32
I00
sg42
g36
sbsg32
I01
sg3545
g0
(g121
g2
Ntp3549
Rp3550
(dp3551
g25
I00
sg31
I01
sg32
I00
sg42
g36
sbsg1852
g0
(g121
g2
Ntp3552
Rp3553
(dp3554
g25
I00
sg31
I01
sg32
I00
sg42
g36
sbsg59
g660
sg61
I55
sg62
g3539
sbsVhcal_db_producer
p3555
g0
(g2756
g2
Ntp3556
Rp3557
(dp3558
g15
VHcalDbProducer
p3559
sg17
(lp3560
Vdump
p3561
aVfile
p3562
asg25
I00
sg26
Nsg3561
g0
(g105
g47
(lp3563
g36
atp3564
Rp3565
(dp3566
g25
I00
sg31
I00
sg32
I00
sg451
I1
sbsg32
I00
sg3562
g0
(g121
g2
Ntp3567
Rp3568
(dp3569
g25
I00
sg31
I00
sg32
I00
sg42
g36
sbsg59
g660
sg61
I55
sg62
g3555
sbsVmultipleScatteringParametrisationMakerESProducer
p3570
g0
(g2756
g2
Ntp3571
Rp3572
(dp3573
g15
VMultipleScatteringParametrisationMakerESProducer
p3574
sg17
(lp3575
g1852
asg25
I00
sg26
Nsg1852
g0
(g121
g2
Ntp3576
Rp3577
(dp3578
g25
I00
sg31
I01
sg32
I00
sg42
g36
sbsg32
I00
sg59
g660
sg61
I55
sg62
g3570
sbsVsiPixelQualityESProducer
p3579
g0
(g2756
g2
Ntp3580
Rp3581
(dp3582
g15
VSiPixelQualityESProducer
p3583
sg17
(lp3584
VsiPixelQualityLabel
p3585
aVsiPixelQualityLabel_RawToDigi
p3586
aVListOfRecordToMerge
p3587
ag1852
asg25
I00
sg26
Nsg3585
g0
(g121
g2
Ntp3588
Rp3589
(dp3590
g25
I00
sg31
I01
sg32
I00
sg42
g36
sbsg32
I01
sg3586
g0
(g121
g2
Ntp3591
Rp3592
(dp3593
g25
I00
sg31
I01
sg32
I00
sg42
g36
sbsg3587
g0
(g691
g47
(lp3594
g0
(g693
g2
Ntp3595
Rp3596
(dp3597
g25
I00
sg31
I01
sg32
I00
sg17
(lp3598
g1804
ag1805
asg26
Nsg1804
g0
(g121
g2
Ntp3599
Rp3600
(dp3601
g25
I00
sg31
I01
sg32
I00
sg42
VSiPixelQualityFromDbRcd
p3602
sbsg1805
g0
(g121
g2
Ntp3603
Rp3604
(dp3605
g25
I00
sg31
I01
sg32
I00
sg42
g36
sbsbag0
(g693
g2
Ntp3606
Rp3607
(dp3608
g25
I00
sg31
I01
sg32
I00
sg17
(lp3609
g1804
ag1805
asg26
Nsg1804
g0
(g121
g2
Ntp3610
Rp3611
(dp3612
g25
I00
sg31
I01
sg32
I00
sg42
VSiPixelDetVOffRcd
p3613
sbsg1805
g0
(g121
g2
Ntp3614
Rp3615
(dp3616
g25
I00
sg31
I01
sg32
I00
sg42
g36
sbsbatp3617
Rp3618
(dp3619
g25
I00
sg31
I01
sg32
I00
sg451
I1
sbsg1852
g0
(g121
g2
Ntp3620
Rp3621
(dp3622
g25
I00
sg31
I01
sg32
I00
sg42
g36
sbsg59
g660
sg61
I55
sg62
g3579
sbsVsiStripBackPlaneCorrectionDepESProducer
p3623
g0
(g2756
g2
Ntp3624
Rp3625
(dp3626
g15
VSiStripBackPlaneCorrectionDepESProducer
p3627
sg17
(lp3628
VLatencyRecord
p3629
aVBackPlaneCorrectionPeakMode
p3630
aVBackPlaneCorrectionDeconvMode
p3631
asg25
I00
sg26
Nsg3629
g0
(g693
g2
Ntp3632
Rp3633
(dp3634
g25
I00
sg31
I01
sg32
I00
sg17
(lp3635
g1804
ag1806
asg26
Nsg1804
g0
(g121
g2
Ntp3636
Rp3637
(dp3638
g25
I00
sg31
I01
sg32
I00
sg42
VSiStripLatencyRcd
p3639
sbsg1806
g0
(g121
g2
Ntp3640
Rp3641
(dp3642
g25
I00
sg31
I00
sg32
I00
sg42
g36
sbsbsg32
I00
sg3630
g0
(g693
g2
Ntp3643
Rp3644
(dp3645
g25
I00
sg31
I01
sg32
I00
sg17
(lp3646
g1804
ag1806
asg26
Nsg1804
g0
(g121
g2
Ntp3647
Rp3648
(dp3649
g25
I00
sg31
I01
sg32
I00
sg42
VSiStripBackPlaneCorrectionRcd
p3650
sbsg1806
g0
(g121
g2
Ntp3651
Rp3652
(dp3653
g25
I00
sg31
I00
sg32
I00
sg42
Vpeak
p3654
sbsbsg3631
g0
(g693
g2
Ntp3655
Rp3656
(dp3657
g25
I00
sg31
I01
sg32
I00
sg17
(lp3658
g1804
ag1806
asg26
Nsg1804
g0
(g121
g2
Ntp3659
Rp3660
(dp3661
g25
I00
sg31
I01
sg32
I00
sg42
g3650
sbsg1806
g0
(g121
g2
Ntp3662
Rp3663
(dp3664
g25
I00
sg31
I00
sg32
I00
sg42
Vdeconvolution
p3665
sbsbsg59
g660
sg61
I55
sg62
g3623
sbsVsiStripGainESProducer
p3666
g0
(g2756
g2
Ntp3667
Rp3668
(dp3669
g15
VSiStripGainESProducer
p3670
sg17
(lp3671
g1852
aVprintDebug
p3672
aVAutomaticNormalization
p3673
aVAPVGain
p3674
asg25
I00
sg26
Nsg1852
g0
(g121
g2
Ntp3675
Rp3676
(dp3677
g25
I00
sg31
I01
sg32
I00
sg42
g36
sbsg32
I00
sg3672
g0
(g73
g2
Ntp3678
Rp3679
(dp3680
g25
I00
sg31
I00
sg32
I00
sg42
I00
sbsg3673
g0
(g73
g2
Ntp3681
Rp3682
(dp3683
g25
I00
sg31
I01
sg32
I00
sg42
I00
sbsg3674
g0
(g691
g47
(lp3684
g0
(g693
g2
Ntp3685
Rp3686
(dp3687
g25
I00
sg31
I01
sg32
I00
sg17
(lp3688
VRecord
p3689
aVLabel
p3690
aVNormalizationFactor
p3691
asg26
Nsg3689
g0
(g121
g2
Ntp3692
Rp3693
(dp3694
g25
I00
sg31
I01
sg32
I00
sg42
VSiStripApvGainRcd
p3695
sbsg3690
g0
(g121
g2
Ntp3696
Rp3697
(dp3698
g25
I00
sg31
I00
sg32
I00
sg42
g36
sbsg3691
g0
(g38
g2
Ntp3699
Rp3700
(dp3701
g25
I00
sg31
I00
sg32
I00
sg42
F1.0
sbsbag0
(g693
g2
Ntp3702
Rp3703
(dp3704
g25
I00
sg31
I01
sg32
I00
sg17
(lp3705
g3689
ag3690
ag3691
asg26
Nsg3689
g0
(g121
g2
Ntp3706
Rp3707
(dp3708
g25
I00
sg31
I01
sg32
I00
sg42
VSiStripApvGain2Rcd
p3709
sbsg3690
g0
(g121
g2
Ntp3710
Rp3711
(dp3712
g25
I00
sg31
I00
sg32
I00
sg42
g36
sbsg3691
g0
(g38
g2
Ntp3713
Rp3714
(dp3715
g25
I00
sg31
I00
sg32
I00
sg42
F1.0
sbsbatp3716
Rp3717
(dp3718
g25
I00
sg31
I01
sg32
I00
sg451
I1
sbsg59
g660
sg61
I55
sg62
g3666
sbsVsiStripLorentzAngleDepESProducer
p3719
g0
(g2756
g2
Ntp3720
Rp3721
(dp3722
g15
VSiStripLorentzAngleDepESProducer
p3723
sg17
(lp3724
g3629
aVLorentzAnglePeakMode
p3725
aVLorentzAngleDeconvMode
p3726
asg25
I00
sg26
Nsg3629
g0
(g693
g2
Ntp3727
Rp3728
(dp3729
g25
I00
sg31
I01
sg32
I00
sg17
(lp3730
g1804
ag1806
asg26
Nsg1804
g0
(g121
g2
Ntp3731
Rp3732
(dp3733
g25
I00
sg31
I01
sg32
I00
sg42
g3639
sbsg1806
g0
(g121
g2
Ntp3734
Rp3735
(dp3736
g25
I00
sg31
I00
sg32
I00
sg42
g36
sbsbsg32
I00
sg3725
g0
(g693
g2
Ntp3737
Rp3738
(dp3739
g25
I00
sg31
I01
sg32
I00
sg17
(lp3740
g1804
ag1806
asg26
Nsg1804
g0
(g121
g2
Ntp3741
Rp3742
(dp3743
g25
I00
sg31
I01
sg32
I00
sg42
VSiStripLorentzAngleRcd
p3744
sbsg1806
g0
(g121
g2
Ntp3745
Rp3746
(dp3747
g25
I00
sg31
I00
sg32
I00
sg42
g3654
sbsbsg3726
g0
(g693
g2
Ntp3748
Rp3749
(dp3750
g25
I00
sg31
I01
sg32
I00
sg17
(lp3751
g1804
ag1806
asg26
Nsg1804
g0
(g121
g2
Ntp3752
Rp3753
(dp3754
g25
I00
sg31
I01
sg32
I00
sg42
g3744
sbsg1806
g0
(g121
g2
Ntp3755
Rp3756
(dp3757
g25
I00
sg31
I00
sg32
I00
sg42
g3665
sbsbsg59
g660
sg61
I55
sg62
g3719
sbsVsiStripQualityESProducer
p3758
g0
(g2756
g2
Ntp3759
Rp3760
(dp3761
g15
VSiStripQualityESProducer
p3762
sg17
(lp3763
g1852
ag3587
aVReduceGranularity
p3764
aVThresholdForReducedGranularity
p3765
aVPrintDebugOutput
p3766
aVUseEmptyRunInfo
p3767
asg25
I00
sg26
Nsg1852
g0
(g121
g2
Ntp3768
Rp3769
(dp3770
g25
I00
sg31
I01
sg32
I00
sg42
g36
sbsg32
I01
sg3587
g0
(g691
g47
(lp3771
g0
(g693
g2
Ntp3772
Rp3773
(dp3774
g25
I00
sg31
I01
sg32
I00
sg17
(lp3775
g1804
ag1805
asg26
Nsg1804
g0
(g121
g2
Ntp3776
Rp3777
(dp3778
g25
I00
sg31
I01
sg32
I00
sg42
VSiStripDetVOffRcd
p3779
sbsg1805
g0
(g121
g2
Ntp3780
Rp3781
(dp3782
g25
I00
sg31
I01
sg32
I00
sg42
g36
sbsbag0
(g693
g2
Ntp3783
Rp3784
(dp3785
g25
I00
sg31
I01
sg32
I00
sg17
(lp3786
g1804
ag1805
asg26
Nsg1804
g0
(g121
g2
Ntp3787
Rp3788
(dp3789
g25
I00
sg31
I01
sg32
I00
sg42
VSiStripDetCablingRcd
p3790
sbsg1805
g0
(g121
g2
Ntp3791
Rp3792
(dp3793
g25
I00
sg31
I01
sg32
I00
sg42
g36
sbsbag0
(g693
g2
Ntp3794
Rp3795
(dp3796
g25
I00
sg31
I01
sg32
I00
sg17
(lp3797
g1804
ag1805
asg26
Nsg1804
g0
(g121
g2
Ntp3798
Rp3799
(dp3800
g25
I00
sg31
I01
sg32
I00
sg42
VRunInfoRcd
p3801
sbsg1805
g0
(g121
g2
Ntp3802
Rp3803
(dp3804
g25
I00
sg31
I01
sg32
I00
sg42
g36
sbsbag0
(g693
g2
Ntp3805
Rp3806
(dp3807
g25
I00
sg31
I01
sg32
I00
sg17
(lp3808
g1804
ag1805
asg26
Nsg1804
g0
(g121
g2
Ntp3809
Rp3810
(dp3811
g25
I00
sg31
I01
sg32
I00
sg42
VSiStripBadChannelRcd
p3812
sbsg1805
g0
(g121
g2
Ntp3813
Rp3814
(dp3815
g25
I00
sg31
I01
sg32
I00
sg42
g36
sbsbag0
(g693
g2
Ntp3816
Rp3817
(dp3818
g25
I00
sg31
I01
sg32
I00
sg17
(lp3819
g1804
ag1805
asg26
Nsg1804
g0
(g121
g2
Ntp3820
Rp3821
(dp3822
g25
I00
sg31
I01
sg32
I00
sg42
VSiStripBadFiberRcd
p3823
sbsg1805
g0
(g121
g2
Ntp3824
Rp3825
(dp3826
g25
I00
sg31
I01
sg32
I00
sg42
g36
sbsbag0
(g693
g2
Ntp3827
Rp3828
(dp3829
g25
I00
sg31
I01
sg32
I00
sg17
(lp3830
g1804
ag1805
asg26
Nsg1804
g0
(g121
g2
Ntp3831
Rp3832
(dp3833
g25
I00
sg31
I01
sg32
I00
sg42
VSiStripBadModuleRcd
p3834
sbsg1805
g0
(g121
g2
Ntp3835
Rp3836
(dp3837
g25
I00
sg31
I01
sg32
I00
sg42
g36
sbsbag0
(g693
g2
Ntp3838
Rp3839
(dp3840
g25
I00
sg31
I01
sg32
I00
sg17
(lp3841
g1804
ag1805
asg26
Nsg1804
g0
(g121
g2
Ntp3842
Rp3843
(dp3844
g25
I00
sg31
I01
sg32
I00
sg42
VSiStripBadStripRcd
p3845
sbsg1805
g0
(g121
g2
Ntp3846
Rp3847
(dp3848
g25
I00
sg31
I01
sg32
I00
sg42
g36
sbsbatp3849
Rp3850
(dp3851
g25
I00
sg31
I01
sg32
I00
sg451
I1
sbsg3764
g0
(g73
g2
Ntp3852
Rp3853
(dp3854
g25
I00
sg31
I01
sg32
I00
sg42
I00
sbsg3765
g0
(g38
g2
Ntp3855
Rp3856
(dp3857
g25
I00
sg31
I01
sg32
I00
sg42
F0.3
sbsg3766
g0
(g73
g2
Ntp3858
Rp3859
(dp3860
g25
I00
sg31
I01
sg32
I00
sg42
I00
sbsg3767
g0
(g73
g2
Ntp3861
Rp3862
(dp3863
g25
I00
sg31
I01
sg32
I00
sg42
I00
sbsg59
g660
sg61
I55
sg62
g3758
sbsVsistripconn
p3864
g0
(g2756
g2
Ntp3865
Rp3866
(dp3867
g15
VSiStripConnectivity
p3868
sg17
(lp3869
sg25
I00
sg26
Nsg32
I00
sg59
g660
sg61
I55
sg62
g3864
sbsVstripCPEESProducer
p3870
g0
(g2756
g2
Ntp3871
Rp3872
(dp3873
g15
g3406
sg17
(lp3874
g3389
ag3408
ag3409
asg25
I00
sg26
Nsg3389
g0
(g121
g2
Ntp3875
Rp3876
(dp3877
g25
I00
sg31
I01
sg32
I00
sg42
VstripCPE
p3878
sbsg32
I00
sg3408
g0
(g121
g2
Ntp3879
Rp3880
(dp3881
g25
I00
sg31
I01
sg32
I00
sg42
VSimpleStripCPE
p3882
sbsg3409
g0
(g693
g2
Ntp3883
Rp3884
(dp3885
g25
I00
sg31
I01
sg32
I00
sg17
(lp3886
sg26
Nsbsg59
g660
sg61
I55
sg62
g3870
sbssV_Process__esprefers
p3887
(dp3888
Ves_prefer_hcalHardcode
p3889
g0
(cFWCore.ParameterSet.Modules
ESPrefer
p3890
g2
Ntp3891
Rp3892
(dp3893
g15
g2021
sg17
(lp3894
sg25
I00
sg26
Nsg32
I00
sg59
g660
sg61
I91
sV_targetLabel
p3895
g2017
sg62
g3889
sbssV_Process__aliases
p3896
(dp3897
sV_Process__psets
p3898
(dp3899
VmaxLuminosityBlocks
p3900
g0
(g693
g2
Ntp3901
Rp3902
(dp3903
g25
I00
sg31
I00
sg32
I00
sg17
(lp3904
Vinput
p3905
asg26
Nsg3905
g0
(g52
g2
Ntp3906
Rp3907
(dp3908
g25
I00
sg31
I00
sg32
I00
sg42
I-1
sbsg62
g3900
sbsVnanoDQMIO_perLSoutput
p3909
g0
(g693
g2
Ntp3910
Rp3911
(dp3912
g25
I00
sg31
I01
sg32
I00
sg17
(lp3913
g1198
asg26
Nsg1198
g0
(g105
g47
(lp3914
g1210
ag1211
ag1212
ag1213
ag1214
ag1215
ag1216
ag1217
ag1218
ag1219
ag1220
ag1221
ag1222
ag1223
ag1224
ag1225
ag1226
ag1227
ag1228
ag1229
ag1230
ag1231
ag1232
ag1233
ag1234
ag1235
ag1236
ag1237
ag1238
ag1239
ag1240
ag1241
ag1242
ag1243
ag1244
ag1245
ag1246
ag1247
ag1248
ag1249
ag1250
ag1251
ag1252
ag1253
ag1254
ag1255
ag1256
ag1257
ag1258
ag1259
ag1260
ag1261
ag1262
ag1263
ag1264
ag1265
ag1266
ag1267
ag1268
ag1269
ag1270
ag1271
ag1272
ag1273
ag1274
ag1275
ag1276
ag1277
ag1278
ag1279
ag1280
ag1281
ag1282
ag1283
ag1284
ag1285
ag1286
ag1287
ag1288
ag1289
ag1290
ag1291
ag1292
ag1293
ag1294
ag1295
ag1296
ag1297
ag1298
ag1299
ag1300
ag1301
ag1302
ag1303
ag1304
ag1305
ag1306
ag1307
ag1308
ag1309
ag1310
ag1311
ag1312
ag1313
ag1314
ag1315
ag1316
ag1317
ag1318
ag1319
ag1320
ag1321
ag1322
ag1323
ag1324
ag1325
ag1326
ag1327
ag1328
ag1329
ag1330
ag1331
ag1332
ag1333
ag1334
ag1335
ag1336
ag1337
ag1338
ag1339
ag1340
ag1341
ag1342
ag1343
ag1344
ag1345
ag1346
ag1347
ag1348
ag1349
ag1350
ag1351
ag1352
ag1353
ag1354
ag1355
ag1356
ag1357
ag1358
ag1359
ag1360
ag1361
ag1362
ag1363
ag1364
ag1365
ag1366
ag1367
ag1368
ag1369
ag1370
ag1371
ag1372
ag1373
ag1374
ag1375
ag1376
ag1377
ag1378
ag1379
ag1380
ag1381
ag1382
ag1383
ag1384
ag1385
ag1386
ag1387
ag1388
ag1389
ag1390
ag1391
ag1392
ag1393
ag1394
ag1395
ag1396
ag1397
ag1398
ag1399
ag1400
ag1401
ag1402
ag1403
ag1404
atp3915
Rp3916
(dp3917
g25
I00
sg31
I00
sg32
I00
sg451
I1
sbsg62
g3909
sbsVCondDB
p3918
g0
(g693
g2
Ntp3919
Rp3920
(dp3921
g25
I00
sg31
I01
sg32
I00
sg17
(lp3922
g1751
ag1752
asg26
Nsg1751
g0
(g693
g2
Ntp3923
Rp3924
(dp3925
g25
I00
sg31
I01
sg32
I00
sg17
(lp3926
g1767
ag1768
ag1769
ag1770
ag1771
asg26
Nsg1767
g0
(g121
g2
Ntp3927
Rp3928
(dp3929
g25
I00
sg31
I00
sg32
I00
sg42
g36
sbsg1768
g0
(g52
g2
Ntp3930
Rp3931
(dp3932
g25
I00
sg31
I00
sg32
I00
sg42
I0
sbsg1769
g0
(g121
g2
Ntp3933
Rp3934
(dp3935
g25
I00
sg31
I00
sg32
I00
sg42
g36
sbsg1770
g0
(g52
g2
Ntp3936
Rp3937
(dp3938
g25
I00
sg31
I00
sg32
I00
sg42
I0
sbsg1771
g0
(g52
g2
Ntp3939
Rp3940
(dp3941
g25
I00
sg31
I00
sg32
I00
sg42
I0
sbsbsg1752
g0
(g121
g2
Ntp3942
Rp3943
(dp3944
g25
I00
sg31
I01
sg32
I00
sg42
g36
sbsg62
g3918
sbsg2031
g2082
sVoptions
p3945
g0
(g693
g2
Ntp3946
Rp3947
(dp3948
g25
I00
sg31
I00
sg32
I01
sg17
(lp3949
VnumberOfThreads
p3950
aVnumberOfStreams
p3951
aVnumberOfConcurrentRuns
p3952
aVnumberOfConcurrentLuminosityBlocks
p3953
aVeventSetup
p3954
aVaccelerators
p3955
aVwantSummary
p3956
aVfileMode
p3957
aVforceEventSetupCacheClearOnNewRun
p3958
aVthrowIfIllegalParameter
p3959
aVprintDependencies
p3960
aVdeleteNonConsumedUnscheduledModules
p3961
aVsizeOfStackForThreadsInKB
p3962
aVRethrow
p3963
aVSkipEvent
p3964
aVFailPath
p3965
aVIgnoreCompletely
p3966
aVcanDeleteEarly
p3967
aVholdsReferencesToDeleteEarly
p3968
aVmodulesToIgnoreForDeleteEarly
p3969
aVdumpOptions
p3970
aVallowUnscheduled
p3971
aVemptyRunLumiMode
p3972
aVmakeTriggerResults
p3973
asg26
Nsg3950
g0
(g581
g2
Ntp3974
Rp3975
(dp3976
g25
I00
sg31
I00
sg32
I00
sg42
I1
sbsg3951
g0
(g581
g2
Ntp3977
Rp3978
(dp3979
g25
I00
sg31
I00
sg32
I00
sg42
I0
sbsg3952
g0
(g581
g2
Ntp3980
Rp3981
(dp3982
g25
I00
sg31
I00
sg32
I00
sg42
I1
sbsg3953
g0
(g581
g2
Ntp3983
Rp3984
(dp3985
g25
I00
sg31
I00
sg32
I00
sg42
I0
sbsg3954
g0
(g693
g2
Ntp3986
Rp3987
(dp3988
g25
I00
sg31
I00
sg32
I00
sg17
(lp3989
VnumberOfConcurrentIOVs
p3990
aVforceNumberOfConcurrentIOVs
p3991
asg26
Nsg3990
g0
(g581
g2
Ntp3992
Rp3993
(dp3994
g25
I00
sg31
I00
sg32
I00
sg42
I0
sbsg3991
g0
(g693
g2
Ntp3995
Rp3996
(dp3997
g25
I00
sg31
I00
sg32
I00
sg17
(lp3998
sg26
g0
(cFWCore.ParameterSet.Types
_RequiredParameter
p3999
g2
Ntp4000
Rp4001
(dp4002
g25
I00
sg31
I00
sg32
I00
sg104
g581
sg106
Nsbsbsbsg3955
g0
(g105
g47
(lp4003
V*
p4004
atp4005
Rp4006
(dp4007
g25
I00
sg31
I00
sg32
I00
sg451
I1
sbsg3956
g0
(g73
g2
Ntp4008
Rp4009
(dp4010
g25
I00
sg31
I00
sg32
I00
sg42
I01
sbsg3957
g0
(g121
g2
Ntp4011
Rp4012
(dp4013
g25
I00
sg31
I00
sg32
I00
sg42
VFULLMERGE
p4014
sbsg3958
g0
(g73
g2
Ntp4015
Rp4016
(dp4017
g25
I00
sg31
I00
sg32
I00
sg42
I00
sbsg3959
g0
(g73
g2
Ntp4018
Rp4019
(dp4020
g25
I00
sg31
I00
sg32
I00
sg42
I01
sbsg3960
g0
(g73
g2
Ntp4021
Rp4022
(dp4023
g25
I00
sg31
I00
sg32
I00
sg42
I00
sbsg3961
g0
(g73
g2
Ntp4024
Rp4025
(dp4026
g25
I00
sg31
I00
sg32
I00
sg42
I01
sbsg3962
g0
(g100
g2
Ntp4027
Rp4028
(dp4029
g25
I00
sg31
I00
sg32
I00
sg104
g581
sg106
Nsbsg3963
g0
(g105
g47
(lp4030
tp4031
Rp4032
(dp4033
g25
I00
sg31
I00
sg32
I00
sg451
I1
sbsg3964
g0
(g105
g47
(lp4034
tp4035
Rp4036
(dp4037
g25
I00
sg31
I00
sg32
I00
sg451
I1
sbsg3965
g0
(g105
g47
(lp4038
tp4039
Rp4040
(dp4041
g25
I00
sg31
I00
sg32
I00
sg451
I1
sbsg3966
g0
(g105
g47
(lp4042
tp4043
Rp4044
(dp4045
g25
I00
sg31
I00
sg32
I00
sg451
I1
sbsg3967
g0
(g105
g47
(lp4046
tp4047
Rp4048
(dp4049
g25
I00
sg31
I00
sg32
I00
sg451
I1
sbsg3968
g0
(g691
g47
(lp4050
tp4051
Rp4052
(dp4053
g25
I00
sg31
I00
sg32
I00
sg451
I1
sbsg3969
g0
(g105
g47
(lp4054
tp4055
Rp4056
(dp4057
g25
I00
sg31
I00
sg32
I00
sg451
I1
sbsg3970
g0
(g73
g2
Ntp4058
Rp4059
(dp4060
g25
I00
sg31
I00
sg32
I00
sg42
I00
sbsg3971
g0
(cFWCore.ParameterSet.Types
_ObsoleteParameter
p4061
g2
Ntp4062
Rp4063
(dp4064
g25
I00
sg31
I00
sg32
I00
sg104
g73
sg106
Nsbsg3972
g0
(g4061
g2
Ntp4065
Rp4066
(dp4067
g25
I00
sg31
I00
sg32
I00
sg104
g121
sg106
Nsbsg3973
g0
(g4061
g2
Ntp4068
Rp4069
(dp4070
g25
I00
sg31
I00
sg32
I00
sg104
g73
sg106
Nsbsg62
g3945
sbsVmaxEvents
p4071
g0
(g693
g2
Ntp4072
Rp4073
(dp4074
g25
I00
sg31
I00
sg32
I01
sg17
(lp4075
g3905
ag1159
asg26
Nsg3905
g0
(g100
g2
Ntp4076
Rp4077
(dp4078
g25
I00
sg31
I00
sg32
I00
sg104
g52
sg106
g0
(g52
g2
Ntp4079
Rp4080
(dp4081
g25
I00
sg31
I00
sg32
I00
sg42
I100
sbsbsg1159
g0
(g100
g2
Ntp4082
Rp4083
(dp4084
g25
I00
sg31
I00
sg32
I00
sg104
g0
(cFWCore.ParameterSet.Types
_AllowedParameterTypes
p4085
g2
Ntp4086
Rp4087
(dp4088
V_AllowedParameterTypes__types
p4089
(g52
g693
tp4090
sV_default
p4091
NsV__name__
p4092
Vallowed(cms.int32,cms.PSet)
p4093
sbsg106
Nsbsg62
g4071
sbssV_Process__vpsets
p4094
(dp4095
sV_cloneToObjectDict
p4096
(dp4097
L140255759855472L
g0
(g693
g2
Ntp4098
Rp4099
(dp4100
g25
I00
sg31
I00
sg32
I00
sg17
(lp4101
g3950
ag3951
ag3952
ag3953
ag3954
ag3955
ag3956
ag3957
ag3958
ag3959
ag3960
ag3961
ag3962
ag3963
ag3964
ag3965
ag3966
ag3967
ag3968
ag3969
ag3970
ag3971
ag3972
ag3973
asg26
Nsg3950
g0
(g581
g2
Ntp4102
Rp4103
(dp4104
g25
I00
sg31
I00
sg32
I00
sg42
I1
sbsg3951
g0
(g581
g2
Ntp4105
Rp4106
(dp4107
g25
I00
sg31
I00
sg32
I00
sg42
I0
sbsg3952
g0
(g581
g2
Ntp4108
Rp4109
(dp4110
g25
I00
sg31
I00
sg32
I00
sg42
I1
sbsg3953
g0
(g581
g2
Ntp4111
Rp4112
(dp4113
g25
I00
sg31
I00
sg32
I00
sg42
I0
sbsg3954
g0
(g693
g2
Ntp4114
Rp4115
(dp4116
g25
I00
sg31
I00
sg32
I00
sg17
(lp4117
g3990
ag3991
asg26
Nsg3990
g0
(g581
g2
Ntp4118
Rp4119
(dp4120
g25
I00
sg31
I00
sg32
I00
sg42
I0
sbsg3991
g0
(g693
g2
Ntp4121
Rp4122
(dp4123
g25
I00
sg31
I00
sg32
I00
sg17
(lp4124
sg26
g0
(g3999
g2
Ntp4125
Rp4126
(dp4127
g25
I00
sg31
I00
sg32
I00
sg104
g581
sg106
Nsbsbsbsg3955
g0
(g105
g47
(lp4128
g4004
atp4129
Rp4130
(dp4131
g25
I00
sg31
I00
sg32
I00
sg451
I1
sbsg3956
g0
(g73
g2
Ntp4132
Rp4133
(dp4134
g25
I00
sg31
I00
sg32
I00
sg42
I00
sbsg3957
g0
(g121
g2
Ntp4135
Rp4136
(dp4137
g25
I00
sg31
I00
sg32
I00
sg42
g4014
sbsg3958
g0
(g73
g2
Ntp4138
Rp4139
(dp4140
g25
I00
sg31
I00
sg32
I00
sg42
I00
sbsg3959
g0
(g73
g2
Ntp4141
Rp4142
(dp4143
g25
I00
sg31
I00
sg32
I00
sg42
I01
sbsg3960
g0
(g73
g2
Ntp4144
Rp4145
(dp4146
g25
I00
sg31
I00
sg32
I00
sg42
I00
sbsg3961
g0
(g73
g2
Ntp4147
Rp4148
(dp4149
g25
I00
sg31
I00
sg32
I00
sg42
I01
sbsg3962
g0
(g100
g2
Ntp4150
Rp4151
(dp4152
g25
I00
sg31
I00
sg32
I00
sg104
g581
sg106
Nsbsg3963
g0
(g105
g47
(lp4153
tp4154
Rp4155
(dp4156
g25
I00
sg31
I00
sg32
I00
sg451
I1
sbsg3964
g0
(g105
g47
(lp4157
tp4158
Rp4159
(dp4160
g25
I00
sg31
I00
sg32
I00
sg451
I1
sbsg3965
g0
(g105
g47
(lp4161
tp4162
Rp4163
(dp4164
g25
I00
sg31
I00
sg32
I00
sg451
I1
sbsg3966
g0
(g105
g47
(lp4165
tp4166
Rp4167
(dp4168
g25
I00
sg31
I00
sg32
I00
sg451
I1
sbsg3967
g0
(g105
g47
(lp4169
tp4170
Rp4171
(dp4172
g25
I00
sg31
I00
sg32
I00
sg451
I1
sbsg3968
g0
(g691
g47
(lp4173
tp4174
Rp4175
(dp4176
g25
I00
sg31
I00
sg32
I00
sg451
I1
sbsg3969
g0
(g105
g47
(lp4177
tp4178
Rp4179
(dp4180
g25
I00
sg31
I00
sg32
I00
sg451
I1
sbsg3970
g0
(g73
g2
Ntp4181
Rp4182
(dp4183
g25
I00
sg31
I00
sg32
I00
sg42
I00
sbsg3971
g0
(g4061
g2
Ntp4184
Rp4185
(dp4186
g25
I00
sg31
I00
sg32
I00
sg104
g73
sg106
Nsbsg3972
g0
(g4061
g2
Ntp4187
Rp4188
(dp4189
g25
I00
sg31
I00
sg32
I00
sg104
g121
sg106
Nsbsg3973
g0
(g4061
g2
Ntp4190
Rp4191
(dp4192
g25
I00
sg31
I00
sg32
I00
sg104
g73
sg106
Nsbsg62
NsbsL140255747589024L
g0
(g693
g2
Ntp4193
Rp4194
(dp4195
g25
I00
sg31
I00
sg32
I00
sg17
(lp4196
g3905
ag1159
asg26
Nsg3905
g0
(g100
g2
Ntp4197
Rp4198
(dp4199
g25
I00
sg31
I00
sg32
I00
sg104
g52
sg106
Nsbsg1159
g0
(g100
g2
Ntp4200
Rp4201
(dp4202
g25
I00
sg31
I00
sg32
I00
sg104
g0
(g4085
g2
Ntp4203
Rp4204
(dp4205
g4089
(g52
g693
tp4206
sg4091
Nsg4092
Vallowed(cms.int32,cms.PSet)
p4207
sbsg106
Nsbsg62
NsbsL140255747590080L
g3902
sL140255759956240L
g2758
sL140255760466224L
g2802
sL140255759833744L
g2819
sL140255782736944L
g2824
sL140255782736416L
g2832
sL140255745148192L
g2837
sL140255760578400L
g2845
sL140255782739008L
g2882
sL140255760469440L
g2890
sL140255760469344L
g2895
sL140255760468288L
g2903
sL140255759833696L
g2911
sL140255758164512L
g2921
sL140255782736560L
g2926
sL140255760468864L
g2931
sL140255759955280L
g2939
sL140255759957728L
g2944
sL140255744524736L
g2955
sL140255745147616L
g2964
sL140255745149872L
g1713
sL140255747250064L
g2972
sL140255745150256L
g2983
sL140255745150736L
g2992
sL140255782739824L
g3001
sL140255782738528L
g3018
sL140255747251840L
g3055
sL140255760252448L
g3085
sL140255760469968L
g3104
sL140255745032000L
g3116
sL140255749568592L
g3133
sL140255748144624L
g3148
sL140255747460112L
g3157
sL140255747458912L
g3162
sL140255745521648L
g3177
sL140255747459728L
g3189
sL140255746530128L
g3206
sL140255747460256L
g3222
sL140255745522560L
g3237
sL140255745523136L
g3246
sL140255745519824L
g3258
sL140255745520352L
g1735
sL140255745517696L
g3911
sL140255745518992L
g470
sL140255748152384L
g3326
sL140255747043440L
g3345
sL140255743043952L
g3361
sL140255748150608L
g3920
sL140255745296752L
g3369
sL140255745296320L
g3378
sL140255745295552L
g1747
sL140255758214768L
g2082
sL140255758215968L
g1849
sL140255743135648L
g3386
sL140255743134784L
g3404
sL140255742664080L
g3476
sL140255742664608L
g3541
sL140255743043664L
g2019
sL140255743043904L
g3892
sL140255745297856L
g3557
sL140255742648176L
g3572
sL140255742660720L
g3581
sL140255743132240L
g3625
sL140255743093632L
g3668
sL140255743094400L
g3721
sL140255742646592L
g3760
sL140255743043808L
g3866
sL140255743133728L
g3872
sL140255742700464L
g477
sL140255747588256L
g3947
sL140255742701472L
g4073
sL140255742715408L
g563
sL140255742829760L
g747
sL140255742529200L
g13
sL140255742528432L
g65
sL140255742830192L
g110
sL140255742831008L
g587
sL140255742832496L
g656
sL140255742831632L
g607
sL140255742373360L
g633
sL140255742499232L
g682
sL140255742832112L
g934
sL140255742564240L
g132
sL140255742529344L
g152
sL140255742565824L
g166
sL140255742576816L
g180
sL140255742564672L
g194
sL140255742529392L
g208
sL140255742566304L
g222
sL140255742577248L
g236
sL140255742565104L
g250
sL140255742529248L
g264
sL140255742566256L
g278
sL140255742577680L
g292
sL140255742578400L
g306
sL140255742565536L
g320
sL140255742529296L
g334
sL140255742565920L
g348
sL140255742578112L
g362
sL140255742565968L
g376
sL140255742563808L
g390
sL140255742576384L
g404
sL140255742578544L
g418
sL140255742578496L
g432
sL140255742500432L
g824
sL140255742584816L
g892
ssV_Process__InExtendCall
p4208
I00
sV_Process__partialschedules
p4209
(dp4210
sV_Process__isStrict
p4211
I00
sV_Process__modifiers
p4212
(tsV_Process__accelerators
p4213
(dp4214
sg3900
g3902
sg946
g949
sg2755
g2758
sg2800
g2802
sg2817
g2819
sg2822
g2824
sg2830
g2832
sg2835
g2837
sg2843
g2845
sg2880
g2882
sg2888
g2890
sg2893
g2895
sg2901
g2903
sg2909
g2911
sg2919
g2921
sg2924
g2926
sg2929
g2931
sg2937
g2939
sg2942
g2944
sg2953
g2955
sg2962
g2964
sg1710
g1713
sg2970
g2972
sg2981
g2983
sg2990
g2992
sg2999
g3001
sg3016
g3018
sg3053
g3055
sg3083
g3085
sg3102
g3104
sg3114
g3116
sg3131
g3133
sg3146
g3148
sg3155
g3157
sg3160
g3162
sg3175
g3177
sg3187
g3189
sg3204
g3206
sg3220
g3222
sg3235
g3237
sg3244
g3246
sg3256
g3258
sg1191
g1193
sg1733
g1735
sg1420
g1422
sg3909
g3911
sg467
g470
sg3324
g3326
sg3343
g3345
sg3359
g3361
sg3918
g3920
sg3367
g3369
sg3376
g3378
sg1745
g1747
sg2031
g2082
sg1847
g1849
sg3384
g3386
sg3402
g3404
sg3474
g3476
sg3539
g3541
sg2017
g2019
sg3889
g3892
sg3555
g3557
sg3570
g3572
sg3579
g3581
sg3623
g3625
sg3666
g3668
sg3719
g3721
sg3758
g3760
sg3864
g3866
sg3870
g3872
sg475
g477
sg3945
g3947
sg4071
g4073
sVsource
p4215
g718
sg720
g718
sg521
g563
sg744
g747
sg10
g13
sg63
g65
sg108
g110
sg80
g587
sg653
g656
sg605
g607
sg631
g633
sg680
g682
sg931
g934
sg130
g132
sg150
g152
sg164
g166
sg178
g180
sg192
g194
sg206
g208
sg220
g222
sg234
g236
sg248
g250
sg262
g264
sg276
g278
sg290
g292
sg304
g306
sg318
g320
sg332
g334
sg346
g348
sg360
g362
sg374
g376
sg388
g390
sg402
g404
sg416
g418
sg1698
g1700
sg430
g432
sg822
g824
sg889
g892
sb.