(dp0
VServer
p1
Vcmsweb.cern.ch
p2
sVPort
p3
V
p4
sVRequestName
p5
V240424_032604:rpradhan_crab_GeneralTracks_MiniAOD_effCorrectionTest_V0_WithSecMul
p6
sVvoRole
p7
VNULL
p8
sVvoGroup
p9
g4
sVinstance
p10
Vprod
p11
sVOriginalConfig
p12
ccopy_reg
_reconstructor
p13
(cWMCore.Configuration
Configuration
p14
c__builtin__
object
p15
Ntp16
Rp17
(dp18
V_internal_sections
p19
(lp20
VGeneral
p21
aVJobType
p22
aVData
p23
aVSite
p24
asg21
g13
(cWMCore.Configuration
ConfigSection
p25
g15
Ntp26
Rp27
(dp28
V_internal_documentation
p29
g4
sV_internal_name
p30
g21
sV_internal_settings
p31
c__builtin__
set
p32
((lp33
VrequestName
p34
aVtransferOutputs
p35
aVworkArea
p36
aVtransferLogs
p37
atp38
Rp39
sV_internal_docstrings
p40
(dp41
sV_internal_children
p42
g32
((lp43
tp44
Rp45
sV_internal_parent_ref
p46
NsV_internal_skipChecks
p47
I00
sg36
VTrackingStudies_Run3
p48
sg34
VGeneralTracks_MiniAOD_effCorrectionTest_V0_WithSecMul
p49
sg37
I00
sg35
I01
sbsg22
g13
(g25
g15
Ntp50
Rp51
(dp52
g29
g4
sg30
g22
sg31
g32
((lp53
VpsetName
p54
aVpluginName
p55
aVinputFiles
p56
atp57
Rp58
sg40
(dp59
sg42
g32
((lp60
tp61
Rp62
sg46
Nsg47
I00
sg55
VAnalysis
p63
sg54
V../cfg/EfficiecnyTest_genTrk_cfg.py
p64
sg56
(lp65
V../cfg/CentralityTable_HFtowers200_DataPbPb_periHYDJETshape_run3v1302x04_offline_Nominal.db
p66
asbsg23
g13
(g25
g15
Ntp67
Rp68
(dp69
g29
g4
sg30
g23
sg31
g32
((lp70
Vsplitting
p71
aVoutLFNDirBase
p72
aVoutputDatasetTag
p73
aVinputDataset
p74
aVpublication
p75
aVunitsPerJob
p76
aVinputDBS
p77
aVtotalUnits
p78
atp79
Rp80
sg40
(dp81
sg42
g32
((lp82
tp83
Rp84
sg46
Nsg47
I00
sg74
V/MinBias_PbPb_5p36TeV_Hydjet_v1/sarteaga-MinBias_PbPb_5p36TeV_Hydjet_MINIAOD_v5-45d226c4498e665b330b684cce3e6ab4/USER
p85
sg71
VFileBased
p86
sg76
I10
sg78
I-1
sg75
I00
sg77
Vphys03
p87
sg72
V/store/group/phys_heavyions/rpradhan/TrackingEffTables2022PbPbRun
p88
sg73
g49
sbsg24
g13
(g25
g15
Ntp89
Rp90
(dp91
g29
g4
sg30
g24
sg31
g32
((lp92
VstorageSite
p93
atp94
Rp95
sg40
(dp96
sg42
g32
((lp97
tp98
Rp99
sg46
Nsg47
I00
sg93
VT2_CH_CERN
p100
sbsbs.